ARM GAS  C:\Users\sjacq\AppData\Local\Temp\ccZHdcXw.s 			page 1


   1              		.cpu cortex-m4
   2              		.eabi_attribute 27, 1
   3              		.eabi_attribute 28, 1
   4              		.eabi_attribute 20, 1
   5              		.eabi_attribute 21, 1
   6              		.eabi_attribute 23, 3
   7              		.eabi_attribute 24, 1
   8              		.eabi_attribute 25, 1
   9              		.eabi_attribute 26, 1
  10              		.eabi_attribute 30, 2
  11              		.eabi_attribute 34, 1
  12              		.eabi_attribute 18, 4
  13              		.file	"Drawing_IMU_function.c"
  14              		.text
  15              	.Ltext0:
  16              		.cfi_sections	.debug_frame
  17              		.global	__aeabi_f2d
  18              		.global	__aeabi_d2f
  19              		.section	.text.Drawing_IMU,"ax",%progbits
  20              		.align	1
  21              		.p2align 4,,15
  22              		.global	Drawing_IMU
  23              		.syntax unified
  24              		.thumb
  25              		.thumb_func
  26              		.fpu fpv4-sp-d16
  27              		.type	Drawing_IMU, %function
  28              	Drawing_IMU:
  29              	.LFB260:
  30              		.file 1 "Drawing_IMU_function.c"
  31              		.loc 1 95 0
  32              		.cfi_startproc
  33              		@ args = 0, pretend = 0, frame = 16
  34              		@ frame_needed = 0, uses_anonymous_args = 0
  35              	.LVL0:
  36 0000 70B5     		push	{r4, r5, r6, lr}
  37              		.cfi_def_cfa_offset 16
  38              		.cfi_offset 4, -16
  39              		.cfi_offset 5, -12
  40              		.cfi_offset 6, -8
  41              		.cfi_offset 14, -4
  42 0002 2DED028B 		vpush.64	{d8}
  43              		.cfi_def_cfa_offset 24
  44              		.cfi_offset 80, -24
  45              		.cfi_offset 81, -20
  46 0006 9A4D     		ldr	r5, .L77
  47              		.loc 1 98 0
  48 0008 9A4A     		ldr	r2, .L77+4
  49              		.loc 1 95 0
  50 000a 2B68     		ldr	r3, [r5]
  51              		.loc 1 98 0
  52 000c 9A49     		ldr	r1, .L77+8
  53              		.loc 1 95 0
  54 000e 84B0     		sub	sp, sp, #16
  55              		.cfi_def_cfa_offset 40
  56              		.loc 1 95 0
  57 0010 0446     		mov	r4, r0
ARM GAS  C:\Users\sjacq\AppData\Local\Temp\ccZHdcXw.s 			page 2


  58              		.loc 1 98 0
  59 0012 9A48     		ldr	r0, .L77+12
  60              	.LVL1:
  61              		.loc 1 95 0
  62 0014 0393     		str	r3, [sp, #12]
  63              		.loc 1 98 0
  64 0016 FFF7FEFF 		bl	messagebus_init
  65              	.LVL2:
  66              	.LBB36:
  67              		.loc 1 148 0
  68 001a D4ED007A 		vldr.32	s15, [r4]
  69 001e 9FED987A 		vldr.32	s14, .L77+16
  70 0022 F0EEE77A 		vabs.f32	s15, s15
  71 0026 F4EEC77A 		vcmpe.f32	s15, s14
  72              	.LBE36:
  73              		.loc 1 107 0
  74 002a 0023     		movs	r3, #0
  75              	.LBB56:
  76              		.loc 1 148 0
  77 002c F1EE10FA 		vmrs	APSR_nzcv, FPSCR
  78              	.LBE56:
  79              		.loc 1 107 0
  80 0030 ADF80A30 		strh	r3, [sp, #10]	@ movhi
  81              	.LVL3:
  82              	.LBB57:
  83              		.loc 1 148 0
  84 0034 09DC     		bgt	.L2
  85              		.loc 1 148 0 is_stmt 0 discriminator 1
  86 0036 D4ED017A 		vldr.32	s15, [r4, #4]
  87 003a F0EEE77A 		vabs.f32	s15, s15
  88 003e F4EEC77A 		vcmpe.f32	s15, s14
  89 0042 F1EE10FA 		vmrs	APSR_nzcv, FPSCR
  90 0046 40F39780 		ble	.L1
  91              	.L2:
  92              	.LVL4:
  93              	.LBB37:
  94              	.LBB38:
  95              	.LBB39:
  96              	.LBB40:
  97              	.LBB41:
  98              	.LBB42:
  99              		.file 2 "../../lib/e-puck2_main-processor/ChibiOS//os/ext/CMSIS/include/core_cmFunc.h"
 100              		.loc 2 546 0 is_stmt 1
 101 004a 2023     		movs	r3, #32
 102              		.syntax unified
 103              	@ 546 "../../lib/e-puck2_main-processor/ChibiOS//os/ext/CMSIS/include/core_cmFunc.h" 1
 104 004c 83F31188 		MSR basepri, r3
 105              	@ 0 "" 2
 106              	.LVL5:
 107              		.thumb
 108              		.syntax unified
 109              	.LBE42:
 110              	.LBE41:
 111              	.LBE40:
 112              	.LBE39:
 113              	.LBE38:
 114              		.loc 1 152 0
ARM GAS  C:\Users\sjacq\AppData\Local\Temp\ccZHdcXw.s 			page 3


 115 0050 8C4E     		ldr	r6, .L77+20
 116              	.LBB44:
 117              	.LBB43:
 118              		.file 3 "../../lib/e-puck2_main-processor/ChibiOS//os/rt/include/chsys.h"
 119              		.loc 3 349 0
 120 0052 FFF7FEFF 		bl	_stats_start_measure_crit_thd
 121              	.LVL6:
 122              		.loc 3 350 0
 123 0056 FFF7FEFF 		bl	_dbg_check_lock
 124              	.LVL7:
 125              	.LBE43:
 126              	.LBE44:
 127              		.loc 1 152 0
 128 005a F368     		ldr	r3, [r6, #12]
 129 005c 0022     		movs	r2, #0
 130 005e 5A62     		str	r2, [r3, #36]
 131              		.loc 1 154 0
 132 0060 6068     		ldr	r0, [r4, #4]	@ float
 133 0062 FFF7FEFF 		bl	__aeabi_f2d
 134              	.LVL8:
 135 0066 CDE90001 		strd	r0, [sp]
 136 006a 2068     		ldr	r0, [r4]	@ float
 137 006c FFF7FEFF 		bl	__aeabi_f2d
 138              	.LVL9:
 139 0070 9DED001B 		vldr.64	d1, [sp]
 140 0074 41EC100B 		vmov	d0, r0, r1
 141 0078 FFF7FEFF 		bl	atan2
 142              	.LVL10:
 143 007c 51EC100B 		vmov	r0, r1, d0
 144 0080 FFF7FEFF 		bl	__aeabi_d2f
 145              	.LVL11:
 146              		.loc 1 156 0
 147 0084 F368     		ldr	r3, [r6, #12]
 148 0086 5B6A     		ldr	r3, [r3, #36]
 149 0088 9BB2     		uxth	r3, r3
 150 008a ADF80A30 		strh	r3, [sp, #10]	@ movhi
 151              		.loc 1 154 0
 152 008e 08EE100A 		vmov	s16, r0
 153              	.LVL12:
 154              	.LBB45:
 155              	.LBB46:
 156              		.loc 3 360 0
 157 0092 FFF7FEFF 		bl	_dbg_check_unlock
 158              	.LVL13:
 159              		.loc 3 361 0
 160 0096 FFF7FEFF 		bl	_stats_stop_measure_crit_thd
 161              	.LVL14:
 162              		.loc 3 367 0
 163 009a 7B4B     		ldr	r3, .L77+24
 164 009c 1A68     		ldr	r2, [r3]
 165 009e 9A42     		cmp	r2, r3
 166 00a0 05D0     		beq	.L4
 167 00a2 9969     		ldr	r1, [r3, #24]
 168 00a4 9368     		ldr	r3, [r2, #8]
 169 00a6 8A68     		ldr	r2, [r1, #8]
 170 00a8 9A42     		cmp	r2, r3
 171 00aa C0F0B980 		bcc	.L69
ARM GAS  C:\Users\sjacq\AppData\Local\Temp\ccZHdcXw.s 			page 4


 172              	.L4:
 173              	.LVL15:
 174              	.LBB47:
 175              	.LBB48:
 176              	.LBB49:
 177              		.loc 2 546 0
 178 00ae 0023     		movs	r3, #0
 179              		.syntax unified
 180              	@ 546 "../../lib/e-puck2_main-processor/ChibiOS//os/ext/CMSIS/include/core_cmFunc.h" 1
 181 00b0 83F31188 		MSR basepri, r3
 182              	@ 0 "" 2
 183              	.LVL16:
 184              		.thumb
 185              		.syntax unified
 186              	.LBE49:
 187              	.LBE48:
 188              	.LBE47:
 189              	.LBE46:
 190              	.LBE45:
 191              		.loc 1 160 0
 192 00b4 DFED757A 		vldr.32	s15, .L77+28
 193              		.loc 1 165 0
 194 00b8 9FED757A 		vldr.32	s14, .L77+32
 195              		.loc 1 160 0
 196 00bc 78EE277A 		vadd.f32	s15, s16, s15
 197              	.LVL17:
 198              		.loc 1 165 0
 199 00c0 F4EEC77A 		vcmpe.f32	s15, s14
 200 00c4 F1EE10FA 		vmrs	APSR_nzcv, FPSCR
 201              		.loc 1 166 0
 202 00c8 C4BF     		itt	gt
 203 00ca 9FED727A 		vldrgt.32	s14, .L77+36
 204 00ce 77EEC77A 		vsubgt.f32	s15, s15, s14
 205              	.LVL18:
 206              		.loc 1 170 0
 207 00d2 9FED717A 		vldr.32	s14, .L77+40
 208 00d6 F4EEC77A 		vcmpe.f32	s15, s14
 209 00da F1EE10FA 		vmrs	APSR_nzcv, FPSCR
 210 00de 07DD     		ble	.L7
 211              		.loc 1 170 0 is_stmt 0 discriminator 1
 212 00e0 9FED6E7A 		vldr.32	s14, .L77+44
 213 00e4 F4EEC77A 		vcmpe.f32	s15, s14
 214 00e8 F1EE10FA 		vmrs	APSR_nzcv, FPSCR
 215 00ec 00F1A580 		bmi	.L70
 216              	.L7:
 217              		.loc 1 174 0 is_stmt 1
 218 00f0 9FED6A7A 		vldr.32	s14, .L77+44
 219 00f4 F4EEC77A 		vcmpe.f32	s15, s14
 220 00f8 F1EE10FA 		vmrs	APSR_nzcv, FPSCR
 221 00fc 07DB     		blt	.L11
 222              		.loc 1 174 0 is_stmt 0 discriminator 1
 223 00fe 9FED687A 		vldr.32	s14, .L77+48
 224 0102 F4EEC77A 		vcmpe.f32	s15, s14
 225 0106 F1EE10FA 		vmrs	APSR_nzcv, FPSCR
 226 010a 00F1A680 		bmi	.L71
 227              	.L11:
 228              		.loc 1 178 0 is_stmt 1
ARM GAS  C:\Users\sjacq\AppData\Local\Temp\ccZHdcXw.s 			page 5


 229 010e 9FED647A 		vldr.32	s14, .L77+48
 230 0112 F4EEC77A 		vcmpe.f32	s15, s14
 231 0116 F1EE10FA 		vmrs	APSR_nzcv, FPSCR
 232 011a 35DA     		bge	.L72
 233              	.L15:
 234              		.loc 1 182 0
 235 011c 9FED617A 		vldr.32	s14, .L77+52
 236 0120 F4EEC77A 		vcmpe.f32	s15, s14
 237 0124 F1EE10FA 		vmrs	APSR_nzcv, FPSCR
 238 0128 07DB     		blt	.L19
 239              		.loc 1 182 0 is_stmt 0 discriminator 1
 240 012a 9FED5F7A 		vldr.32	s14, .L77+56
 241 012e F4EEC77A 		vcmpe.f32	s15, s14
 242 0132 F1EE10FA 		vmrs	APSR_nzcv, FPSCR
 243 0136 00F19380 		bmi	.L73
 244              	.L19:
 245              		.loc 1 186 0 is_stmt 1
 246 013a 9FED5B7A 		vldr.32	s14, .L77+56
 247 013e F4EEC77A 		vcmpe.f32	s15, s14
 248 0142 F1EE10FA 		vmrs	APSR_nzcv, FPSCR
 249 0146 29DB     		blt	.L23
 250              		.loc 1 186 0 is_stmt 0 discriminator 1
 251 0148 9FED587A 		vldr.32	s14, .L77+60
 252 014c F4EEC77A 		vcmpe.f32	s15, s14
 253 0150 F1EE10FA 		vmrs	APSR_nzcv, FPSCR
 254 0154 22D5     		bpl	.L23
 255              		.loc 1 187 0 is_stmt 1
 256 0156 0020     		movs	r0, #0
 257              	.L65:
 258              		.loc 1 191 0
 259 0158 FFF7FEFF 		bl	left_motor_set_speed
 260              	.LVL19:
 261              		.loc 1 192 0
 262 015c 039A     		ldr	r2, [sp, #12]
 263 015e 2B68     		ldr	r3, [r5]
 264 0160 9A42     		cmp	r2, r3
 265 0162 08BF     		it	eq
 266 0164 6FF09500 		mvneq	r0, #149
 267 0168 58D1     		bne	.L63
 268              	.L62:
 269              	.LBE37:
 270              	.LBE57:
 271              		.loc 1 206 0
 272 016a 04B0     		add	sp, sp, #16
 273              		.cfi_remember_state
 274              		.cfi_def_cfa_offset 24
 275              		@ sp needed
 276 016c BDEC028B 		vldm	sp!, {d8}
 277              		.cfi_restore 80
 278              		.cfi_restore 81
 279              		.cfi_def_cfa_offset 16
 280              	.LVL20:
 281 0170 BDE87040 		pop	{r4, r5, r6, lr}
 282              		.cfi_restore 14
 283              		.cfi_restore 6
 284              		.cfi_restore 5
 285              		.cfi_restore 4
ARM GAS  C:\Users\sjacq\AppData\Local\Temp\ccZHdcXw.s 			page 6


 286              		.cfi_def_cfa_offset 0
 287              	.LVL21:
 288              	.LBB58:
 289              	.LBB52:
 290              		.loc 1 203 0
 291 0174 FFF7FEBF 		b	right_motor_set_speed
 292              	.LVL22:
 293              	.L1:
 294              		.cfi_restore_state
 295              	.LBE52:
 296              	.LBE58:
 297              		.loc 1 206 0
 298 0178 039A     		ldr	r2, [sp, #12]
 299 017a 2B68     		ldr	r3, [r5]
 300 017c 9A42     		cmp	r2, r3
 301 017e 4DD1     		bne	.L63
 302 0180 04B0     		add	sp, sp, #16
 303              		.cfi_remember_state
 304              		.cfi_def_cfa_offset 24
 305              		@ sp needed
 306 0182 BDEC028B 		vldm	sp!, {d8}
 307              		.cfi_restore 80
 308              		.cfi_restore 81
 309              		.cfi_def_cfa_offset 16
 310 0186 70BD     		pop	{r4, r5, r6, pc}
 311              	.LVL23:
 312              	.L72:
 313              		.cfi_restore_state
 314              	.LBB59:
 315              	.LBB53:
 316              		.loc 1 178 0 discriminator 1
 317 0188 9FED467A 		vldr.32	s14, .L77+52
 318 018c F4EEC77A 		vcmpe.f32	s15, s14
 319 0190 F1EE10FA 		vmrs	APSR_nzcv, FPSCR
 320 0194 C2D5     		bpl	.L15
 321              		.loc 1 179 0
 322 0196 6FF09500 		mvn	r0, #149
 323 019a 37E0     		b	.L64
 324              	.L23:
 325              		.loc 1 190 0
 326 019c 9FED437A 		vldr.32	s14, .L77+60
 327 01a0 F4EEC77A 		vcmpe.f32	s15, s14
 328 01a4 F1EE10FA 		vmrs	APSR_nzcv, FPSCR
 329 01a8 06DB     		blt	.L27
 330              		.loc 1 190 0 is_stmt 0 discriminator 1
 331 01aa 9FED417A 		vldr.32	s14, .L77+64
 332 01ae F4EEC77A 		vcmpe.f32	s15, s14
 333 01b2 F1EE10FA 		vmrs	APSR_nzcv, FPSCR
 334 01b6 56D4     		bmi	.L74
 335              	.L27:
 336              		.loc 1 194 0 is_stmt 1
 337 01b8 9FED3D7A 		vldr.32	s14, .L77+64
 338 01bc F4EEC77A 		vcmpe.f32	s15, s14
 339 01c0 F1EE10FA 		vmrs	APSR_nzcv, FPSCR
 340 01c4 06DB     		blt	.L31
 341              		.loc 1 194 0 is_stmt 0 discriminator 1
 342 01c6 9FED3B7A 		vldr.32	s14, .L77+68
ARM GAS  C:\Users\sjacq\AppData\Local\Temp\ccZHdcXw.s 			page 7


 343 01ca F4EEC77A 		vcmpe.f32	s15, s14
 344 01ce F1EE10FA 		vmrs	APSR_nzcv, FPSCR
 345 01d2 4AD4     		bmi	.L75
 346              	.L31:
 347              		.loc 1 198 0 is_stmt 1
 348 01d4 9FED377A 		vldr.32	s14, .L77+68
 349 01d8 F4EEC77A 		vcmpe.f32	s15, s14
 350 01dc F1EE10FA 		vmrs	APSR_nzcv, FPSCR
 351 01e0 22DA     		bge	.L76
 352              	.L35:
 353              		.loc 1 201 0
 354 01e2 D4ED007A 		vldr.32	s15, [r4]
 355              	.LVL24:
 356 01e6 9FED267A 		vldr.32	s14, .L77+16
 357 01ea F0EEE77A 		vabs.f32	s15, s15
 358 01ee F4EEC77A 		vcmpe.f32	s15, s14
 359 01f2 F1EE10FA 		vmrs	APSR_nzcv, FPSCR
 360 01f6 08D4     		bmi	.L39
 361              		.loc 1 201 0 is_stmt 0 discriminator 1
 362 01f8 D4ED017A 		vldr.32	s15, [r4, #4]
 363 01fc F0EEE77A 		vabs.f32	s15, s15
 364 0200 F4EEC77A 		vcmpe.f32	s15, s14
 365 0204 F1EE10FA 		vmrs	APSR_nzcv, FPSCR
 366 0208 B6D5     		bpl	.L1
 367              	.L39:
 368              		.loc 1 202 0 is_stmt 1
 369 020a 0020     		movs	r0, #0
 370              	.L64:
 371 020c FFF7FEFF 		bl	left_motor_set_speed
 372              	.LVL25:
 373              		.loc 1 203 0
 374 0210 039A     		ldr	r2, [sp, #12]
 375 0212 2B68     		ldr	r3, [r5]
 376 0214 9A42     		cmp	r2, r3
 377 0216 08BF     		it	eq
 378 0218 0020     		moveq	r0, #0
 379 021a A6D0     		beq	.L62
 380              	.LVL26:
 381              	.L63:
 382              	.LBE53:
 383              	.LBE59:
 384              		.loc 1 206 0
 385 021c FFF7FEFF 		bl	__stack_chk_fail
 386              	.LVL27:
 387              	.L69:
 388              	.LBB60:
 389              	.LBB54:
 390              	.LBB51:
 391              	.LBB50:
 392              		.loc 3 367 0
 393 0220 2548     		ldr	r0, .L77+72
 394 0222 FFF7FEFF 		bl	chSysHalt
 395              	.LVL28:
 396 0226 42E7     		b	.L4
 397              	.LVL29:
 398              	.L76:
 399              	.LBE50:
ARM GAS  C:\Users\sjacq\AppData\Local\Temp\ccZHdcXw.s 			page 8


 400              	.LBE51:
 401              		.loc 1 198 0 discriminator 1
 402 0228 9FED1B7A 		vldr.32	s14, .L77+40
 403 022c F4EEC77A 		vcmpe.f32	s15, s14
 404 0230 F1EE10FA 		vmrs	APSR_nzcv, FPSCR
 405 0234 D5D5     		bpl	.L35
 406              		.loc 1 199 0
 407 0236 9620     		movs	r0, #150
 408 0238 00E0     		b	.L66
 409              	.L70:
 410              		.loc 1 171 0
 411 023a 0020     		movs	r0, #0
 412              	.L66:
 413              		.loc 1 199 0
 414 023c FFF7FEFF 		bl	left_motor_set_speed
 415              	.LVL30:
 416              		.loc 1 200 0
 417 0240 039A     		ldr	r2, [sp, #12]
 418 0242 2B68     		ldr	r3, [r5]
 419 0244 9A42     		cmp	r2, r3
 420 0246 08BF     		it	eq
 421 0248 9620     		moveq	r0, #150
 422 024a E7D1     		bne	.L63
 423              	.LBE54:
 424              	.LBE60:
 425              		.loc 1 206 0
 426 024c 04B0     		add	sp, sp, #16
 427              		.cfi_remember_state
 428              		.cfi_def_cfa_offset 24
 429              		@ sp needed
 430 024e BDEC028B 		vldm	sp!, {d8}
 431              		.cfi_restore 80
 432              		.cfi_restore 81
 433              		.cfi_def_cfa_offset 16
 434              	.LVL31:
 435 0252 BDE87040 		pop	{r4, r5, r6, lr}
 436              		.cfi_restore 14
 437              		.cfi_restore 6
 438              		.cfi_restore 5
 439              		.cfi_restore 4
 440              		.cfi_def_cfa_offset 0
 441              	.LVL32:
 442              	.LBB61:
 443              	.LBB55:
 444              		.loc 1 203 0
 445 0256 FFF7FEBF 		b	right_motor_set_speed
 446              	.LVL33:
 447              	.L71:
 448              		.cfi_restore_state
 449              		.loc 1 175 0
 450 025a 6FF09500 		mvn	r0, #149
 451 025e EDE7     		b	.L66
 452              	.L73:
 453              		.loc 1 183 0
 454 0260 6FF09500 		mvn	r0, #149
 455 0264 78E7     		b	.L65
 456              	.L74:
ARM GAS  C:\Users\sjacq\AppData\Local\Temp\ccZHdcXw.s 			page 9


 457              		.loc 1 191 0
 458 0266 9620     		movs	r0, #150
 459 0268 76E7     		b	.L65
 460              	.L75:
 461              		.loc 1 195 0
 462 026a 9620     		movs	r0, #150
 463 026c CEE7     		b	.L64
 464              	.L78:
 465 026e 00BF     		.align	2
 466              	.L77:
 467 0270 00000000 		.word	__stack_chk_guard
 468 0274 00000000 		.word	.LANCHOR0
 469 0278 00000000 		.word	.LANCHOR1
 470 027c 00000000 		.word	.LANCHOR2
 471 0280 CDCCCC3E 		.word	1053609165
 472 0284 00000000 		.word	GPTD11
 473 0288 00000000 		.word	ch
 474 028c D00F493F 		.word	1061752784
 475 0290 D00F4940 		.word	1078530000
 476 0294 D00FC940 		.word	1086918608
 477 0298 73D9A0BE 		.word	-1096754829
 478 029c 73D9A03E 		.word	1050728819
 479 02a0 73D9A03F 		.word	1067506035
 480 02a4 2D46F13F 		.word	1072776749
 481 02a8 A2F43440 		.word	1077212322
 482 02ac A2F434C0 		.word	-1070271326
 483 02b0 2D46F1BF 		.word	-1074706899
 484 02b4 73D9A0BF 		.word	-1079977613
 485 02b8 00000000 		.word	.LANCHOR3
 486              	.LBE55:
 487              	.LBE61:
 488              		.cfi_endproc
 489              	.LFE260:
 490              		.size	Drawing_IMU, .-Drawing_IMU
 491              		.section	.text.ThdDrawing_IMU,"ax",%progbits
 492              		.align	1
 493              		.p2align 4,,15
 494              		.syntax unified
 495              		.thumb
 496              		.thumb_func
 497              		.fpu fpv4-sp-d16
 498              		.type	ThdDrawing_IMU, %function
 499              	ThdDrawing_IMU:
 500              	.LFB259:
 501              		.loc 1 65 0
 502              		.cfi_startproc
 503              		@ args = 0, pretend = 0, frame = 128
 504              		@ frame_needed = 0, uses_anonymous_args = 0
 505              	.LVL34:
 506 0000 10B5     		push	{r4, lr}
 507              		.cfi_def_cfa_offset 8
 508              		.cfi_offset 4, -8
 509              		.cfi_offset 14, -4
 510              	.LBB62:
 511              	.LBB63:
 512              		.file 4 "../../lib/e-puck2_main-processor/ChibiOS//os/rt/include/chregistry.h"
 513              		.loc 4 135 0
ARM GAS  C:\Users\sjacq\AppData\Local\Temp\ccZHdcXw.s 			page 10


 514 0002 1A4B     		ldr	r3, .L85
 515              	.LBE63:
 516              	.LBE62:
 517              		.loc 1 65 0
 518 0004 1A4A     		ldr	r2, .L85+4
 519              	.LBB65:
 520              	.LBB64:
 521              		.loc 4 135 0
 522 0006 9B69     		ldr	r3, [r3, #24]
 523 0008 1A49     		ldr	r1, .L85+8
 524 000a 9961     		str	r1, [r3, #24]
 525              	.LBE64:
 526              	.LBE65:
 527              		.loc 1 65 0
 528 000c A0B0     		sub	sp, sp, #128
 529              		.cfi_def_cfa_offset 136
 530              		.loc 1 72 0
 531 000e 06AB     		add	r3, sp, #24
 532              		.loc 1 73 0
 533 0010 01AC     		add	r4, sp, #4
 534              		.loc 1 65 0
 535 0012 1268     		ldr	r2, [r2]
 536 0014 1F92     		str	r2, [sp, #124]
 537              		.loc 1 75 0
 538 0016 1946     		mov	r1, r3
 539 0018 2246     		mov	r2, r4
 540 001a 03A8     		add	r0, sp, #12
 541              	.LVL35:
 542              		.loc 1 72 0
 543 001c CDE90633 		strd	r3, r3, [sp, #24]
 544 0020 0023     		movs	r3, #0
 545 0022 CDE90833 		strd	r3, r3, [sp, #32]
 546 0026 0A93     		str	r3, [sp, #40]
 547              		.loc 1 73 0
 548 0028 CDE90144 		strd	r4, r4, [sp, #4]
 549              		.loc 1 75 0
 550 002c FFF7FEFF 		bl	messagebus_init
 551              	.LVL36:
 552              		.loc 1 78 0
 553 0030 1149     		ldr	r1, .L85+12
 554 0032 03A8     		add	r0, sp, #12
 555 0034 FFF7FEFF 		bl	messagebus_find_topic_blocking
 556              	.LVL37:
 557 0038 0446     		mov	r4, r0
 558              	.LVL38:
 559              		.loc 1 82 0
 560 003a 4FF4FA60 		mov	r0, #2000
 561              	.LVL39:
 562 003e FFF7FEFF 		bl	chThdSleep
 563              	.LVL40:
 564              		.loc 1 83 0
 565 0042 2046     		mov	r0, r4
 566 0044 C821     		movs	r1, #200
 567 0046 FFF7FEFF 		bl	imu_compute_offset
 568              	.LVL41:
 569              	.L80:
 570              	.LBB66:
ARM GAS  C:\Users\sjacq\AppData\Local\Temp\ccZHdcXw.s 			page 11


 571              		.loc 1 86 0
 572 004a FFF7FEFF 		bl	get_selector
 573              	.LVL42:
 574 004e 0228     		cmp	r0, #2
 575 0050 FBD1     		bne	.L80
 576              		.loc 1 88 0
 577 0052 5022     		movs	r2, #80
 578 0054 0BA9     		add	r1, sp, #44
 579 0056 2046     		mov	r0, r4
 580 0058 FFF7FEFF 		bl	messagebus_topic_wait
 581              	.LVL43:
 582              		.loc 1 89 0
 583 005c 0BA8     		add	r0, sp, #44
 584 005e FFF7FEFF 		bl	Drawing_IMU
 585              	.LVL44:
 586              		.loc 1 90 0
 587 0062 6420     		movs	r0, #100
 588 0064 FFF7FEFF 		bl	chThdSleep
 589              	.LVL45:
 590 0068 EFE7     		b	.L80
 591              	.L86:
 592 006a 00BF     		.align	2
 593              	.L85:
 594 006c 00000000 		.word	ch
 595 0070 00000000 		.word	__stack_chk_guard
 596 0074 00000000 		.word	.LANCHOR4
 597 0078 00000000 		.word	.LC0
 598              	.LBE66:
 599              		.cfi_endproc
 600              	.LFE259:
 601              		.size	ThdDrawing_IMU, .-ThdDrawing_IMU
 602              		.section	.text.Drawing_IMU_start,"ax",%progbits
 603              		.align	1
 604              		.p2align 4,,15
 605              		.global	Drawing_IMU_start
 606              		.syntax unified
 607              		.thumb
 608              		.thumb_func
 609              		.fpu fpv4-sp-d16
 610              		.type	Drawing_IMU_start, %function
 611              	Drawing_IMU_start:
 612              	.LFB261:
 613              		.loc 1 208 0
 614              		.cfi_startproc
 615              		@ args = 0, pretend = 0, frame = 8
 616              		@ frame_needed = 0, uses_anonymous_args = 0
 617 0000 10B5     		push	{r4, lr}
 618              		.cfi_def_cfa_offset 8
 619              		.cfi_offset 4, -8
 620              		.cfi_offset 14, -4
 621 0002 0A4C     		ldr	r4, .L91
 622              		.loc 1 209 0
 623 0004 0A4B     		ldr	r3, .L91+4
 624              		.loc 1 208 0
 625 0006 2268     		ldr	r2, [r4]
 626              		.loc 1 209 0
 627 0008 0A48     		ldr	r0, .L91+8
ARM GAS  C:\Users\sjacq\AppData\Local\Temp\ccZHdcXw.s 			page 12


 628              		.loc 1 208 0
 629 000a 84B0     		sub	sp, sp, #16
 630              		.cfi_def_cfa_offset 24
 631              		.loc 1 209 0
 632 000c 4FF4AF61 		mov	r1, #1400
 633              		.loc 1 208 0
 634 0010 0392     		str	r2, [sp, #12]
 635              		.loc 1 209 0
 636 0012 0022     		movs	r2, #0
 637 0014 0092     		str	r2, [sp]
 638 0016 4122     		movs	r2, #65
 639 0018 FFF7FEFF 		bl	chThdCreateStatic
 640              	.LVL46:
 641              		.loc 1 210 0
 642 001c 039A     		ldr	r2, [sp, #12]
 643 001e 2368     		ldr	r3, [r4]
 644 0020 9A42     		cmp	r2, r3
 645 0022 01D1     		bne	.L90
 646 0024 04B0     		add	sp, sp, #16
 647              		.cfi_remember_state
 648              		.cfi_def_cfa_offset 8
 649              		@ sp needed
 650 0026 10BD     		pop	{r4, pc}
 651              	.L90:
 652              		.cfi_restore_state
 653 0028 FFF7FEFF 		bl	__stack_chk_fail
 654              	.LVL47:
 655              	.L92:
 656              		.align	2
 657              	.L91:
 658 002c 00000000 		.word	__stack_chk_guard
 659 0030 00000000 		.word	ThdDrawing_IMU
 660 0034 00000000 		.word	.LANCHOR5
 661              		.cfi_endproc
 662              	.LFE261:
 663              		.size	Drawing_IMU_start, .-Drawing_IMU_start
 664              		.global	bus_condvar
 665              		.global	bus_lock
 666              		.global	bus
 667              		.section	.bss.bus,"aw",%nobits
 668              		.align	2
 669              		.set	.LANCHOR2,. + 0
 670              		.type	bus, %object
 671              		.size	bus, 12
 672              	bus:
 673 0000 00000000 		.space	12
 673      00000000 
 673      00000000 
 674              		.section	.bss.waThdDrawing_IMU,"aw",%nobits
 675              		.align	3
 676              		.set	.LANCHOR5,. + 0
 677              		.type	waThdDrawing_IMU, %object
 678              		.size	waThdDrawing_IMU, 1400
 679              	waThdDrawing_IMU:
 680 0000 00000000 		.space	1400
 680      00000000 
 680      00000000 
ARM GAS  C:\Users\sjacq\AppData\Local\Temp\ccZHdcXw.s 			page 13


 680      00000000 
 680      00000000 
 681              		.section	.data.bus_condvar,"aw",%progbits
 682              		.align	2
 683              		.set	.LANCHOR0,. + 0
 684              		.type	bus_condvar, %object
 685              		.size	bus_condvar, 8
 686              	bus_condvar:
 687 0000 00000000 		.word	bus_condvar
 688 0004 00000000 		.word	bus_condvar
 689              		.section	.data.bus_lock,"aw",%progbits
 690              		.align	2
 691              		.set	.LANCHOR1,. + 0
 692              		.type	bus_lock, %object
 693              		.size	bus_lock, 20
 694              	bus_lock:
 695 0000 00000000 		.word	bus_lock
 696 0004 00000000 		.word	bus_lock
 697 0008 00000000 		.word	0
 698 000c 00000000 		.word	0
 699 0010 00000000 		.word	0
 700              		.section	.rodata.ThdDrawing_IMU.str1.4,"aMS",%progbits,1
 701              		.align	2
 702              	.LC0:
 703 0000 2F696D75 		.ascii	"/imu\000"
 703      00
 704              		.section	.rodata.__FUNCTION__.11540,"a",%progbits
 705              		.align	2
 706              		.set	.LANCHOR4,. + 0
 707              		.type	__FUNCTION__.11540, %object
 708              		.size	__FUNCTION__.11540, 15
 709              	__FUNCTION__.11540:
 710 0000 54686444 		.ascii	"ThdDrawing_IMU\000"
 710      72617769 
 710      6E675F49 
 710      4D5500
 711              		.section	.rodata.__func__.7153,"a",%progbits
 712              		.align	2
 713              		.set	.LANCHOR3,. + 0
 714              		.type	__func__.7153, %object
 715              		.size	__func__.7153, 12
 716              	__func__.7153:
 717 0000 63685379 		.ascii	"chSysUnlock\000"
 717      73556E6C 
 717      6F636B00 
 718              		.text
 719              	.Letext0:
 720              		.file 5 "c:\\users\\sjacq\\desktop\\eclipse_e-puck2_win32_29_jan_2020\\eclipse_e-puck2\\tools\\gcc
 721              		.file 6 "c:\\users\\sjacq\\desktop\\eclipse_e-puck2_win32_29_jan_2020\\eclipse_e-puck2\\tools\\gcc
 722              		.file 7 "c:\\users\\sjacq\\desktop\\eclipse_e-puck2_win32_29_jan_2020\\eclipse_e-puck2\\tools\\gcc
 723              		.file 8 "../../lib/e-puck2_main-processor/ChibiOS//os/rt/ports/ARMCMx/compilers/GCC/chtypes.h"
 724              		.file 9 "../../lib/e-puck2_main-processor/ChibiOS//os/rt/include/chsystypes.h"
 725              		.file 10 "../../lib/e-puck2_main-processor/ChibiOS//os/rt/include/chschd.h"
 726              		.file 11 "../../lib/e-puck2_main-processor/ChibiOS//os/ext/CMSIS/include/core_cm4.h"
 727              		.file 12 "../../lib/e-puck2_main-processor/ChibiOS//os/ext/CMSIS/ST/system_stm32f4xx.h"
 728              		.file 13 "../../lib/e-puck2_main-processor/ChibiOS//os/ext/CMSIS/ST/stm32f407xx.h"
 729              		.file 14 "../../lib/e-puck2_main-processor/ChibiOS//os/rt/ports/ARMCMx/chcore.h"
ARM GAS  C:\Users\sjacq\AppData\Local\Temp\ccZHdcXw.s 			page 14


 730              		.file 15 "../../lib/e-puck2_main-processor/ChibiOS//os/rt/ports/ARMCMx/chcore_v7m.h"
 731              		.file 16 "../../lib/e-puck2_main-processor/ChibiOS//os/rt/include/chdebug.h"
 732              		.file 17 "../../lib/e-puck2_main-processor/ChibiOS//os/rt/include/chtm.h"
 733              		.file 18 "../../lib/e-puck2_main-processor/ChibiOS//os/rt/include/chstats.h"
 734              		.file 19 "../../lib/e-puck2_main-processor/ChibiOS//os/rt/include/chsem.h"
 735              		.file 20 "../../lib/e-puck2_main-processor/ChibiOS//os/rt/include/chmtx.h"
 736              		.file 21 "../../lib/e-puck2_main-processor/ChibiOS//os/rt/include/chcond.h"
 737              		.file 22 "../../lib/e-puck2_main-processor/ChibiOS//os/rt/include/chevents.h"
 738              		.file 23 "../../lib/e-puck2_main-processor/ChibiOS//os/rt/include/chqueues.h"
 739              		.file 24 "../../lib/e-puck2_main-processor/ChibiOS//os/hal/ports/STM32/STM32F4xx/stm32_dma.h"
 740              		.file 25 "../../lib/e-puck2_main-processor/ChibiOS//os/hal/include/hal_ioblock.h"
 741              		.file 26 "../../lib/e-puck2_main-processor/ChibiOS//os/hal/ports/STM32/LLD/GPIOv2/pal_lld.h"
 742              		.file 27 "../../lib/e-puck2_main-processor/ChibiOS//os/hal/include/adc.h"
 743              		.file 28 "../../lib/e-puck2_main-processor/ChibiOS//os/hal/ports/STM32/STM32F4xx/adc_lld.h"
 744              		.file 29 "../../lib/e-puck2_main-processor/ChibiOS//os/hal/include/can.h"
 745              		.file 30 "../../lib/e-puck2_main-processor/ChibiOS//os/hal/ports/STM32/LLD/can_lld.h"
 746              		.file 31 "../../lib/e-puck2_main-processor/ChibiOS//os/hal/include/dac.h"
 747              		.file 32 "../../lib/e-puck2_main-processor/ChibiOS//os/hal/ports/STM32/LLD/DACv1/dac_lld.h"
 748              		.file 33 "../../lib/e-puck2_main-processor/ChibiOS//os/hal/include/ext.h"
 749              		.file 34 "../../lib/e-puck2_main-processor/ChibiOS//os/hal/ports/STM32/LLD/ext_lld.h"
 750              		.file 35 "../../lib/e-puck2_main-processor/ChibiOS//os/hal/include/gpt.h"
 751              		.file 36 "../../lib/e-puck2_main-processor/ChibiOS//os/hal/ports/STM32/LLD/TIMv1/gpt_lld.h"
 752              		.file 37 "../../lib/e-puck2_main-processor/ChibiOS//os/hal/ports/STM32/LLD/TIMv1/stm32_tim.h"
 753              		.file 38 "../../lib/e-puck2_main-processor/ChibiOS//os/hal/include/i2c.h"
 754              		.file 39 "../../lib/e-puck2_main-processor/ChibiOS//os/hal/ports/STM32/LLD/I2Cv1/i2c_lld.h"
 755              		.file 40 "../../lib/e-puck2_main-processor/ChibiOS//os/hal/include/i2s.h"
 756              		.file 41 "../../lib/e-puck2_main-processor/ChibiOS//os/hal/ports/STM32/LLD/SPIv1/i2s_lld.h"
 757              		.file 42 "../../lib/e-puck2_main-processor/ChibiOS//os/hal/include/pwm.h"
 758              		.file 43 "../../lib/e-puck2_main-processor/ChibiOS//os/hal/ports/STM32/LLD/TIMv1/pwm_lld.h"
 759              		.file 44 "../../lib/e-puck2_main-processor/ChibiOS//os/hal/include/serial.h"
 760              		.file 45 "../../lib/e-puck2_main-processor/ChibiOS//os/hal/ports/STM32/LLD/USARTv1/serial_lld.h"
 761              		.file 46 "../../lib/e-puck2_main-processor/ChibiOS//os/hal/include/sdc.h"
 762              		.file 47 "../../lib/e-puck2_main-processor/ChibiOS//os/hal/ports/STM32/LLD/sdc_lld.h"
 763              		.file 48 "../../lib/e-puck2_main-processor/ChibiOS//os/hal/include/spi.h"
 764              		.file 49 "../../lib/e-puck2_main-processor/ChibiOS//os/hal/ports/STM32/LLD/SPIv1/spi_lld.h"
 765              		.file 50 "../../lib/e-puck2_main-processor/ChibiOS//os/hal/include/usb.h"
 766              		.file 51 "../../lib/e-puck2_main-processor/ChibiOS//os/hal/ports/STM32/LLD/OTGv1/usb_lld.h"
 767              		.file 52 "../../lib/e-puck2_main-processor/ChibiOS//os/hal/ports/STM32/LLD/OTGv1/stm32_otg.h"
 768              		.file 53 "../../lib/e-puck2_main-processor/ChibiOS//os/hal/include/serial_usb.h"
 769              		.file 54 "../../lib/e-puck2_main-processor/ChibiOS_ext/os/hal/include/../ports/STM32/STM32F4xx/dcm
 770              		.file 55 "c:\\users\\sjacq\\desktop\\eclipse_e-puck2_win32_29_jan_2020\\eclipse_e-puck2\\tools\\gc
 771              		.file 56 "c:\\users\\sjacq\\desktop\\eclipse_e-puck2_win32_29_jan_2020\\eclipse_e-puck2\\tools\\gc
 772              		.file 57 "c:\\users\\sjacq\\desktop\\eclipse_e-puck2_win32_29_jan_2020\\eclipse_e-puck2\\tools\\gc
 773              		.file 58 "../../lib/e-puck2_main-processor/src/msgbus/messagebus.h"
 774              		.file 59 "c:\\users\\sjacq\\desktop\\eclipse_e-puck2_win32_29_jan_2020\\eclipse_e-puck2\\tools\\gc
 775              		.file 60 "c:\\users\\sjacq\\desktop\\eclipse_e-puck2_win32_29_jan_2020\\eclipse_e-puck2\\tools\\gc
 776              		.file 61 "../../lib/e-puck2_main-processor/src/parameter/parameter.h"
 777              		.file 62 "../../lib/e-puck2_main-processor/src/sensors/mpu9250.h"
 778              		.file 63 "../../lib/e-puck2_main-processor/src/sensors/imu.h"
 779              		.file 64 "./main.h"
 780              		.file 65 "../../lib/e-puck2_main-processor/src/usbcfg.h"
 781              		.file 66 "../../lib/e-puck2_main-processor/src/exti.h"
 782              		.file 67 "<built-in>"
 783              		.file 68 "../../lib/e-puck2_main-processor/ChibiOS//os/rt/include/chthreads.h"
 784              		.file 69 "../../lib/e-puck2_main-processor/src/motors.h"