ARM GAS  C:\Users\sjacq\AppData\Local\Temp\cc0dlTfR.s 			page 1


   1              		.cpu cortex-m4
   2              		.eabi_attribute 27, 1
   3              		.eabi_attribute 28, 1
   4              		.eabi_attribute 20, 1
   5              		.eabi_attribute 21, 1
   6              		.eabi_attribute 23, 3
   7              		.eabi_attribute 24, 1
   8              		.eabi_attribute 25, 1
   9              		.eabi_attribute 26, 1
  10              		.eabi_attribute 30, 2
  11              		.eabi_attribute 34, 1
  12              		.eabi_attribute 18, 4
  13              		.file	"Drawing_test_function.c"
  14              		.text
  15              	.Ltext0:
  16              		.cfi_sections	.debug_frame
  17              		.section	.text.Drawing_test_func,"ax",%progbits
  18              		.align	1
  19              		.p2align 4,,15
  20              		.global	Drawing_test_func
  21              		.syntax unified
  22              		.thumb
  23              		.thumb_func
  24              		.fpu fpv4-sp-d16
  25              		.type	Drawing_test_func, %function
  26              	Drawing_test_func:
  27              	.LFB261:
  28              		.file 1 "Drawing_test_function.c"
  29              		.loc 1 101 0
  30              		.cfi_startproc
  31              		@ args = 0, pretend = 0, frame = 8
  32              		@ frame_needed = 0, uses_anonymous_args = 0
  33 0000 F0B5     		push	{r4, r5, r6, r7, lr}
  34              		.cfi_def_cfa_offset 20
  35              		.cfi_offset 4, -20
  36              		.cfi_offset 5, -16
  37              		.cfi_offset 6, -12
  38              		.cfi_offset 7, -8
  39              		.cfi_offset 14, -4
  40 0002 224D     		ldr	r5, .L12
  41 0004 224C     		ldr	r4, .L12+4
  42 0006 2B68     		ldr	r3, [r5]
  43 0008 83B0     		sub	sp, sp, #12
  44              		.cfi_def_cfa_offset 32
  45              		.loc 1 103 0
  46 000a 41F28830 		movw	r0, #5000
  47              		.loc 1 101 0
  48 000e 0193     		str	r3, [sp, #4]
  49 0010 04F5C077 		add	r7, r4, #384
  50              		.loc 1 103 0
  51 0014 FFF7FEFF 		bl	chThdSleep
  52              	.LVL0:
  53 0018 0026     		movs	r6, #0
  54 001a 0121     		movs	r1, #1
  55 001c 4FF4CD73 		mov	r3, #410
  56 0020 08E0     		b	.L5
  57              	.LVL1:
ARM GAS  C:\Users\sjacq\AppData\Local\Temp\cc0dlTfR.s 			page 2


  58              	.L2:
  59              	.LBB4:
  60              		.loc 1 121 0
  61 0022 012E     		cmp	r6, #1
  62 0024 21D0     		beq	.L9
  63              	.LVL2:
  64              	.L3:
  65 0026 0C34     		adds	r4, r4, #12
  66              		.loc 1 110 0 discriminator 2
  67 0028 BC42     		cmp	r4, r7
  68 002a 18D0     		beq	.L1
  69              	.L10:
  70 002c 54E90213 		ldrd	r1, r3, [r4, #-8]
  71 0030 54F80C6C 		ldr	r6, [r4, #-12]
  72              	.L5:
  73              		.loc 1 112 0
  74 0034 9BB2     		uxth	r3, r3
  75              	.LVL3:
  76              		.loc 1 113 0
  77 0036 49B2     		sxtb	r1, r1
  78              	.LVL4:
  79              		.loc 1 115 0
  80 0038 002E     		cmp	r6, #0
  81 003a F2D1     		bne	.L2
  82              		.loc 1 117 0
  83 003c 11FB03F1 		smulbb	r1, r1, r3
  84              	.LVL5:
  85 0040 09B2     		sxth	r1, r1
  86 0042 4FF49670 		mov	r0, #300
  87 0046 FFF7FEFF 		bl	left_motor_get_to_the_pos
  88              	.LVL6:
  89              		.loc 1 118 0
  90 004a 3046     		mov	r0, r6
  91 004c 3221     		movs	r1, #50
  92 004e FFF7FEFF 		bl	left_motor_get_to_the_pos
  93              	.LVL7:
  94 0052 0C34     		adds	r4, r4, #12
  95              		.loc 1 119 0
  96 0054 6420     		movs	r0, #100
  97 0056 FFF7FEFF 		bl	chThdSleep
  98              	.LVL8:
  99              		.loc 1 110 0
 100 005a BC42     		cmp	r4, r7
 101 005c E6D1     		bne	.L10
 102              	.L1:
 103              	.LBE4:
 104              		.loc 1 129 0
 105 005e 019A     		ldr	r2, [sp, #4]
 106 0060 2B68     		ldr	r3, [r5]
 107 0062 9A42     		cmp	r2, r3
 108 0064 10D1     		bne	.L11
 109 0066 03B0     		add	sp, sp, #12
 110              		.cfi_remember_state
 111              		.cfi_def_cfa_offset 20
 112              		@ sp needed
 113 0068 F0BD     		pop	{r4, r5, r6, r7, pc}
 114              	.LVL9:
ARM GAS  C:\Users\sjacq\AppData\Local\Temp\cc0dlTfR.s 			page 3


 115              	.L9:
 116              		.cfi_restore_state
 117              	.LBB5:
 118              		.loc 1 123 0
 119 006a 11FB03F1 		smulbb	r1, r1, r3
 120              	.LVL10:
 121 006e 09B2     		sxth	r1, r1
 122 0070 4FF49670 		mov	r0, #300
 123 0074 FFF7FEFF 		bl	right_motor_get_to_the_pos
 124              	.LVL11:
 125              		.loc 1 124 0
 126 0078 3221     		movs	r1, #50
 127 007a 0020     		movs	r0, #0
 128 007c FFF7FEFF 		bl	right_motor_get_to_the_pos
 129              	.LVL12:
 130              		.loc 1 125 0
 131 0080 6420     		movs	r0, #100
 132 0082 FFF7FEFF 		bl	chThdSleep
 133              	.LVL13:
 134 0086 CEE7     		b	.L3
 135              	.L11:
 136              	.LBE5:
 137              		.loc 1 129 0
 138 0088 FFF7FEFF 		bl	__stack_chk_fail
 139              	.LVL14:
 140              	.L13:
 141              		.align	2
 142              	.L12:
 143 008c 00000000 		.word	__stack_chk_guard
 144 0090 0C000000 		.word	.LANCHOR0+12
 145              		.cfi_endproc
 146              	.LFE261:
 147              		.size	Drawing_test_func, .-Drawing_test_func
 148              		.section	.text.Drawing_Mighty,"ax",%progbits
 149              		.align	1
 150              		.p2align 4,,15
 151              		.global	Drawing_Mighty
 152              		.syntax unified
 153              		.thumb
 154              		.thumb_func
 155              		.fpu fpv4-sp-d16
 156              		.type	Drawing_Mighty, %function
 157              	Drawing_Mighty:
 158              	.LFB262:
 159              		.loc 1 247 0
 160              		.cfi_startproc
 161              		@ args = 0, pretend = 0, frame = 8
 162              		@ frame_needed = 0, uses_anonymous_args = 0
 163 0000 F0B5     		push	{r4, r5, r6, r7, lr}
 164              		.cfi_def_cfa_offset 20
 165              		.cfi_offset 4, -20
 166              		.cfi_offset 5, -16
 167              		.cfi_offset 6, -12
 168              		.cfi_offset 7, -8
 169              		.cfi_offset 14, -4
 170 0002 254C     		ldr	r4, .L24
 171 0004 254D     		ldr	r5, .L24+4
ARM GAS  C:\Users\sjacq\AppData\Local\Temp\cc0dlTfR.s 			page 4


 172 0006 2368     		ldr	r3, [r4]
 173 0008 83B0     		sub	sp, sp, #12
 174              		.cfi_def_cfa_offset 32
 175              		.loc 1 249 0
 176 000a 41F28830 		movw	r0, #5000
 177              		.loc 1 247 0
 178 000e 0193     		str	r3, [sp, #4]
 179 0010 05F5EA76 		add	r6, r5, #468
 180              		.loc 1 249 0
 181 0014 FFF7FEFF 		bl	chThdSleep
 182              	.LVL15:
 183 0018 0127     		movs	r7, #1
 184 001a 4FF0FF33 		mov	r3, #-1
 185 001e 1022     		movs	r2, #16
 186 0020 08E0     		b	.L18
 187              	.LVL16:
 188              	.L15:
 189              	.LBB6:
 190              		.loc 1 268 0
 191 0022 012F     		cmp	r7, #1
 192 0024 24D0     		beq	.L21
 193              	.LVL17:
 194              	.L16:
 195 0026 0C35     		adds	r5, r5, #12
 196              		.loc 1 257 0 discriminator 2
 197 0028 B542     		cmp	r5, r6
 198 002a 1BD0     		beq	.L14
 199              	.L22:
 200 002c 55E90232 		ldrd	r3, r2, [r5, #-8]
 201 0030 55F80C7C 		ldr	r7, [r5, #-12]
 202              	.L18:
 203              		.loc 1 259 0
 204 0034 D2B2     		uxtb	r2, r2
 205              	.LVL18:
 206              		.loc 1 260 0
 207 0036 5BB2     		sxtb	r3, r3
 208              	.LVL19:
 209              		.loc 1 262 0
 210 0038 002F     		cmp	r7, #0
 211 003a F2D1     		bne	.L15
 212              		.loc 1 264 0
 213 003c 13FB02F3 		smulbb	r3, r3, r2
 214              	.LVL20:
 215 0040 C3EBC303 		rsb	r3, r3, r3, lsl #3
 216 0044 5900     		lsls	r1, r3, #1
 217 0046 09B2     		sxth	r1, r1
 218 0048 4FF49670 		mov	r0, #300
 219 004c FFF7FEFF 		bl	left_motor_get_to_the_pos
 220              	.LVL21:
 221              		.loc 1 265 0
 222 0050 3846     		mov	r0, r7
 223 0052 3221     		movs	r1, #50
 224 0054 FFF7FEFF 		bl	left_motor_get_to_the_pos
 225              	.LVL22:
 226 0058 0C35     		adds	r5, r5, #12
 227              		.loc 1 266 0
 228 005a 6420     		movs	r0, #100
ARM GAS  C:\Users\sjacq\AppData\Local\Temp\cc0dlTfR.s 			page 5


 229 005c FFF7FEFF 		bl	chThdSleep
 230              	.LVL23:
 231              		.loc 1 257 0
 232 0060 B542     		cmp	r5, r6
 233 0062 E3D1     		bne	.L22
 234              	.L14:
 235              	.LBE6:
 236              		.loc 1 276 0
 237 0064 019A     		ldr	r2, [sp, #4]
 238 0066 2368     		ldr	r3, [r4]
 239 0068 9A42     		cmp	r2, r3
 240 006a 13D1     		bne	.L23
 241 006c 03B0     		add	sp, sp, #12
 242              		.cfi_remember_state
 243              		.cfi_def_cfa_offset 20
 244              		@ sp needed
 245 006e F0BD     		pop	{r4, r5, r6, r7, pc}
 246              	.LVL24:
 247              	.L21:
 248              		.cfi_restore_state
 249              	.LBB7:
 250              		.loc 1 270 0
 251 0070 13FB02F3 		smulbb	r3, r3, r2
 252              	.LVL25:
 253 0074 C3EBC303 		rsb	r3, r3, r3, lsl #3
 254 0078 5900     		lsls	r1, r3, #1
 255 007a 09B2     		sxth	r1, r1
 256 007c 4FF49670 		mov	r0, #300
 257 0080 FFF7FEFF 		bl	right_motor_get_to_the_pos
 258              	.LVL26:
 259              		.loc 1 271 0
 260 0084 3221     		movs	r1, #50
 261 0086 0020     		movs	r0, #0
 262 0088 FFF7FEFF 		bl	right_motor_get_to_the_pos
 263              	.LVL27:
 264              		.loc 1 272 0
 265 008c 6420     		movs	r0, #100
 266 008e FFF7FEFF 		bl	chThdSleep
 267              	.LVL28:
 268 0092 C8E7     		b	.L16
 269              	.L23:
 270              	.LBE7:
 271              		.loc 1 276 0
 272 0094 FFF7FEFF 		bl	__stack_chk_fail
 273              	.LVL29:
 274              	.L25:
 275              		.align	2
 276              	.L24:
 277 0098 00000000 		.word	__stack_chk_guard
 278 009c 0C000000 		.word	.LANCHOR1+12
 279              		.cfi_endproc
 280              	.LFE262:
 281              		.size	Drawing_Mighty, .-Drawing_Mighty
 282              		.section	.text.ThdDrawing_functions,"ax",%progbits
 283              		.align	1
 284              		.p2align 4,,15
 285              		.syntax unified
ARM GAS  C:\Users\sjacq\AppData\Local\Temp\cc0dlTfR.s 			page 6


 286              		.thumb
 287              		.thumb_func
 288              		.fpu fpv4-sp-d16
 289              		.type	ThdDrawing_functions, %function
 290              	ThdDrawing_functions:
 291              	.LFB260:
 292              		.loc 1 81 0
 293              		.cfi_startproc
 294              		@ Volatile: function does not return.
 295              		@ args = 0, pretend = 0, frame = 8
 296              		@ frame_needed = 0, uses_anonymous_args = 0
 297              	.LVL30:
 298 0000 00B5     		push	{lr}
 299              		.cfi_def_cfa_offset 4
 300              		.cfi_offset 14, -4
 301              	.LBB8:
 302              	.LBB9:
 303              		.file 2 "../../lib/e-puck2_main-processor/ChibiOS//os/rt/include/chregistry.h"
 304              		.loc 2 135 0
 305 0002 0D4A     		ldr	r2, .L33
 306              	.LBE9:
 307              	.LBE8:
 308              		.loc 1 81 0
 309 0004 0D4B     		ldr	r3, .L33+4
 310              	.LBB12:
 311              	.LBB10:
 312              		.loc 2 135 0
 313 0006 9269     		ldr	r2, [r2, #24]
 314 0008 0D49     		ldr	r1, .L33+8
 315              	.LBE10:
 316              	.LBE12:
 317              		.loc 1 81 0
 318 000a 1B68     		ldr	r3, [r3]
 319              	.LBB13:
 320              	.LBB11:
 321              		.loc 2 135 0
 322 000c 9161     		str	r1, [r2, #24]
 323              	.LBE11:
 324              	.LBE13:
 325              		.loc 1 81 0
 326 000e 83B0     		sub	sp, sp, #12
 327              		.cfi_def_cfa_offset 16
 328              		.loc 1 81 0
 329 0010 0193     		str	r3, [sp, #4]
 330              	.LVL31:
 331 0012 06E0     		b	.L29
 332              	.LVL32:
 333              	.L27:
 334              		.loc 1 90 0
 335 0014 FFF7FEFF 		bl	get_selector
 336              	.LVL33:
 337 0018 0328     		cmp	r0, #3
 338 001a 09D0     		beq	.L32
 339              	.L28:
 340              		.loc 1 93 0
 341 001c FA20     		movs	r0, #250
 342 001e FFF7FEFF 		bl	chThdSleep
ARM GAS  C:\Users\sjacq\AppData\Local\Temp\cc0dlTfR.s 			page 7


 343              	.LVL34:
 344              	.L29:
 345              		.loc 1 87 0
 346 0022 FFF7FEFF 		bl	get_selector
 347              	.LVL35:
 348 0026 0128     		cmp	r0, #1
 349 0028 F4D1     		bne	.L27
 350              		.loc 1 88 0
 351 002a FFF7FEFF 		bl	Drawing_test_func
 352              	.LVL36:
 353 002e F5E7     		b	.L28
 354              	.L32:
 355              		.loc 1 91 0
 356 0030 FFF7FEFF 		bl	Drawing_Mighty
 357              	.LVL37:
 358 0034 F2E7     		b	.L28
 359              	.L34:
 360 0036 00BF     		.align	2
 361              	.L33:
 362 0038 00000000 		.word	ch
 363 003c 00000000 		.word	__stack_chk_guard
 364 0040 00000000 		.word	.LANCHOR2
 365              		.cfi_endproc
 366              	.LFE260:
 367              		.size	ThdDrawing_functions, .-ThdDrawing_functions
 368              		.section	.text.Drawing_functions_start,"ax",%progbits
 369              		.align	1
 370              		.p2align 4,,15
 371              		.global	Drawing_functions_start
 372              		.syntax unified
 373              		.thumb
 374              		.thumb_func
 375              		.fpu fpv4-sp-d16
 376              		.type	Drawing_functions_start, %function
 377              	Drawing_functions_start:
 378              	.LFB263:
 379              		.loc 1 279 0
 380              		.cfi_startproc
 381              		@ args = 0, pretend = 0, frame = 8
 382              		@ frame_needed = 0, uses_anonymous_args = 0
 383 0000 10B5     		push	{r4, lr}
 384              		.cfi_def_cfa_offset 8
 385              		.cfi_offset 4, -8
 386              		.cfi_offset 14, -4
 387 0002 0A4C     		ldr	r4, .L39
 388              		.loc 1 280 0
 389 0004 0A4B     		ldr	r3, .L39+4
 390              		.loc 1 279 0
 391 0006 2268     		ldr	r2, [r4]
 392              		.loc 1 280 0
 393 0008 0A48     		ldr	r0, .L39+8
 394              		.loc 1 279 0
 395 000a 84B0     		sub	sp, sp, #16
 396              		.cfi_def_cfa_offset 24
 397              		.loc 1 280 0
 398 000c 4FF4AF61 		mov	r1, #1400
 399              		.loc 1 279 0
ARM GAS  C:\Users\sjacq\AppData\Local\Temp\cc0dlTfR.s 			page 8


 400 0010 0392     		str	r2, [sp, #12]
 401              		.loc 1 280 0
 402 0012 0022     		movs	r2, #0
 403 0014 0092     		str	r2, [sp]
 404 0016 4022     		movs	r2, #64
 405 0018 FFF7FEFF 		bl	chThdCreateStatic
 406              	.LVL38:
 407              		.loc 1 281 0
 408 001c 039A     		ldr	r2, [sp, #12]
 409 001e 2368     		ldr	r3, [r4]
 410 0020 9A42     		cmp	r2, r3
 411 0022 01D1     		bne	.L38
 412 0024 04B0     		add	sp, sp, #16
 413              		.cfi_remember_state
 414              		.cfi_def_cfa_offset 8
 415              		@ sp needed
 416 0026 10BD     		pop	{r4, pc}
 417              	.L38:
 418              		.cfi_restore_state
 419 0028 FFF7FEFF 		bl	__stack_chk_fail
 420              	.LVL39:
 421              	.L40:
 422              		.align	2
 423              	.L39:
 424 002c 00000000 		.word	__stack_chk_guard
 425 0030 00000000 		.word	ThdDrawing_functions
 426 0034 00000000 		.word	.LANCHOR3
 427              		.cfi_endproc
 428              	.LFE263:
 429              		.size	Drawing_functions_start, .-Drawing_functions_start
 430              		.global	Mighty_sequence_array
 431              		.global	Drawing_test_array
 432              		.section	.bss.waThdDrawing_functions,"aw",%nobits
 433              		.align	3
 434              		.set	.LANCHOR3,. + 0
 435              		.type	waThdDrawing_functions, %object
 436              		.size	waThdDrawing_functions, 1400
 437              	waThdDrawing_functions:
 438 0000 00000000 		.space	1400
 438      00000000 
 438      00000000 
 438      00000000 
 438      00000000 
 439              		.section	.rodata.Drawing_test_array,"a",%progbits
 440              		.align	2
 441              		.set	.LANCHOR0,. + 0
 442              		.type	Drawing_test_array, %object
 443              		.size	Drawing_test_array, 384
 444              	Drawing_test_array:
 445 0000 00000000 		.word	0
 446 0004 01000000 		.word	1
 447 0008 9A010000 		.word	410
 448 000c 01000000 		.word	1
 449 0010 FFFFFFFF 		.word	-1
 450 0014 9A010000 		.word	410
 451 0018 00000000 		.word	0
 452 001c FFFFFFFF 		.word	-1
ARM GAS  C:\Users\sjacq\AppData\Local\Temp\cc0dlTfR.s 			page 9


 453 0020 86010000 		.word	390
 454 0024 01000000 		.word	1
 455 0028 01000000 		.word	1
 456 002c 86010000 		.word	390
 457 0030 00000000 		.word	0
 458 0034 01000000 		.word	1
 459 0038 68010000 		.word	360
 460 003c 01000000 		.word	1
 461 0040 FFFFFFFF 		.word	-1
 462 0044 68010000 		.word	360
 463 0048 00000000 		.word	0
 464 004c FFFFFFFF 		.word	-1
 465 0050 4A010000 		.word	330
 466 0054 01000000 		.word	1
 467 0058 01000000 		.word	1
 468 005c 4A010000 		.word	330
 469 0060 00000000 		.word	0
 470 0064 01000000 		.word	1
 471 0068 2C010000 		.word	300
 472 006c 01000000 		.word	1
 473 0070 FFFFFFFF 		.word	-1
 474 0074 2C010000 		.word	300
 475 0078 00000000 		.word	0
 476 007c FFFFFFFF 		.word	-1
 477 0080 0E010000 		.word	270
 478 0084 01000000 		.word	1
 479 0088 01000000 		.word	1
 480 008c 0E010000 		.word	270
 481 0090 00000000 		.word	0
 482 0094 01000000 		.word	1
 483 0098 F0000000 		.word	240
 484 009c 01000000 		.word	1
 485 00a0 FFFFFFFF 		.word	-1
 486 00a4 F0000000 		.word	240
 487 00a8 00000000 		.word	0
 488 00ac FFFFFFFF 		.word	-1
 489 00b0 D2000000 		.word	210
 490 00b4 01000000 		.word	1
 491 00b8 01000000 		.word	1
 492 00bc D2000000 		.word	210
 493 00c0 00000000 		.word	0
 494 00c4 01000000 		.word	1
 495 00c8 B4000000 		.word	180
 496 00cc 01000000 		.word	1
 497 00d0 FFFFFFFF 		.word	-1
 498 00d4 B4000000 		.word	180
 499 00d8 00000000 		.word	0
 500 00dc FFFFFFFF 		.word	-1
 501 00e0 96000000 		.word	150
 502 00e4 01000000 		.word	1
 503 00e8 01000000 		.word	1
 504 00ec 96000000 		.word	150
 505 00f0 00000000 		.word	0
 506 00f4 01000000 		.word	1
 507 00f8 78000000 		.word	120
 508 00fc 01000000 		.word	1
 509 0100 FFFFFFFF 		.word	-1
ARM GAS  C:\Users\sjacq\AppData\Local\Temp\cc0dlTfR.s 			page 10


 510 0104 78000000 		.word	120
 511 0108 00000000 		.word	0
 512 010c FFFFFFFF 		.word	-1
 513 0110 5A000000 		.word	90
 514 0114 01000000 		.word	1
 515 0118 01000000 		.word	1
 516 011c 5A000000 		.word	90
 517 0120 00000000 		.word	0
 518 0124 01000000 		.word	1
 519 0128 3C000000 		.word	60
 520 012c 01000000 		.word	1
 521 0130 FFFFFFFF 		.word	-1
 522 0134 3C000000 		.word	60
 523 0138 00000000 		.word	0
 524 013c FFFFFFFF 		.word	-1
 525 0140 1E000000 		.word	30
 526 0144 01000000 		.word	1
 527 0148 01000000 		.word	1
 528 014c 1E000000 		.word	30
 529 0150 00000000 		.space	48
 529      00000000 
 529      00000000 
 529      00000000 
 529      00000000 
 530              		.section	.rodata.Mighty_sequence_array,"a",%progbits
 531              		.align	2
 532              		.set	.LANCHOR1,. + 0
 533              		.type	Mighty_sequence_array, %object
 534              		.size	Mighty_sequence_array, 468
 535              	Mighty_sequence_array:
 536 0000 01000000 		.word	1
 537 0004 FFFFFFFF 		.word	-1
 538 0008 10000000 		.word	16
 539 000c 00000000 		.word	0
 540 0010 01000000 		.word	1
 541 0014 08000000 		.word	8
 542 0018 01000000 		.word	1
 543 001c 01000000 		.word	1
 544 0020 02000000 		.word	2
 545 0024 00000000 		.word	0
 546 0028 FFFFFFFF 		.word	-1
 547 002c 06000000 		.word	6
 548 0030 01000000 		.word	1
 549 0034 01000000 		.word	1
 550 0038 04000000 		.word	4
 551 003c 00000000 		.word	0
 552 0040 01000000 		.word	1
 553 0044 05000000 		.word	5
 554 0048 01000000 		.word	1
 555 004c FFFFFFFF 		.word	-1
 556 0050 02000000 		.word	2
 557 0054 00000000 		.word	0
 558 0058 FFFFFFFF 		.word	-1
 559 005c 05000000 		.word	5
 560 0060 01000000 		.word	1
 561 0064 01000000 		.word	1
 562 0068 05000000 		.word	5
ARM GAS  C:\Users\sjacq\AppData\Local\Temp\cc0dlTfR.s 			page 11


 563 006c 00000000 		.word	0
 564 0070 01000000 		.word	1
 565 0074 06000000 		.word	6
 566 0078 01000000 		.word	1
 567 007c 01000000 		.word	1
 568 0080 02000000 		.word	2
 569 0084 00000000 		.word	0
 570 0088 FFFFFFFF 		.word	-1
 571 008c 08000000 		.word	8
 572 0090 00000000 		.word	0
 573 0094 01000000 		.word	1
 574 0098 0C000000 		.word	12
 575 009c 01000000 		.word	1
 576 00a0 FFFFFFFF 		.word	-1
 577 00a4 09000000 		.word	9
 578 00a8 00000000 		.word	0
 579 00ac 01000000 		.word	1
 580 00b0 04000000 		.word	4
 581 00b4 01000000 		.word	1
 582 00b8 01000000 		.word	1
 583 00bc 03000000 		.word	3
 584 00c0 00000000 		.word	0
 585 00c4 FFFFFFFF 		.word	-1
 586 00c8 04000000 		.word	4
 587 00cc 01000000 		.word	1
 588 00d0 01000000 		.word	1
 589 00d4 02000000 		.word	2
 590 00d8 00000000 		.word	0
 591 00dc 01000000 		.word	1
 592 00e0 06000000 		.word	6
 593 00e4 01000000 		.word	1
 594 00e8 FFFFFFFF 		.word	-1
 595 00ec 07000000 		.word	7
 596 00f0 00000000 		.word	0
 597 00f4 FFFFFFFF 		.word	-1
 598 00f8 09000000 		.word	9
 599 00fc 01000000 		.word	1
 600 0100 01000000 		.word	1
 601 0104 0B000000 		.word	11
 602 0108 00000000 		.word	0
 603 010c 01000000 		.word	1
 604 0110 0D000000 		.word	13
 605 0114 01000000 		.word	1
 606 0118 FFFFFFFF 		.word	-1
 607 011c 09000000 		.word	9
 608 0120 00000000 		.word	0
 609 0124 01000000 		.word	1
 610 0128 06000000 		.word	6
 611 012c 01000000 		.word	1
 612 0130 FFFFFFFF 		.word	-1
 613 0134 02000000 		.word	2
 614 0138 00000000 		.word	0
 615 013c FFFFFFFF 		.word	-1
 616 0140 08000000 		.word	8
 617 0144 01000000 		.word	1
 618 0148 01000000 		.word	1
 619 014c 05000000 		.word	5
ARM GAS  C:\Users\sjacq\AppData\Local\Temp\cc0dlTfR.s 			page 12


 620 0150 00000000 		.word	0
 621 0154 01000000 		.word	1
 622 0158 08000000 		.word	8
 623 015c 01000000 		.word	1
 624 0160 01000000 		.word	1
 625 0164 01000000 		.word	1
 626 0168 00000000 		.word	0
 627 016c FFFFFFFF 		.word	-1
 628 0170 08000000 		.word	8
 629 0174 01000000 		.word	1
 630 0178 01000000 		.word	1
 631 017c 05000000 		.word	5
 632 0180 00000000 		.word	0
 633 0184 01000000 		.word	1
 634 0188 12000000 		.word	18
 635 018c 01000000 		.word	1
 636 0190 FFFFFFFF 		.word	-1
 637 0194 02000000 		.word	2
 638 0198 00000000 		.word	0
 639 019c FFFFFFFF 		.word	-1
 640 01a0 06000000 		.word	6
 641 01a4 01000000 		.word	1
 642 01a8 FFFFFFFF 		.word	-1
 643 01ac 09000000 		.word	9
 644 01b0 00000000 		.word	0
 645 01b4 FFFFFFFF 		.word	-1
 646 01b8 03000000 		.word	3
 647 01bc 01000000 		.word	1
 648 01c0 01000000 		.word	1
 649 01c4 0B000000 		.word	11
 650 01c8 00000000 		.word	0
 651 01cc 01000000 		.word	1
 652 01d0 08000000 		.word	8
 653              		.section	.rodata.__FUNCTION__.12940,"a",%progbits
 654              		.align	2
 655              		.set	.LANCHOR2,. + 0
 656              		.type	__FUNCTION__.12940, %object
 657              		.size	__FUNCTION__.12940, 21
 658              	__FUNCTION__.12940:
 659 0000 54686444 		.ascii	"ThdDrawing_functions\000"
 659      72617769 
 659      6E675F66 
 659      756E6374 
 659      696F6E73 
 660              		.text
 661              	.Letext0:
 662              		.file 3 "c:\\users\\sjacq\\desktop\\eclipse_e-puck2_win32_29_jan_2020\\eclipse_e-puck2\\tools\\gcc
 663              		.file 4 "c:\\users\\sjacq\\desktop\\eclipse_e-puck2_win32_29_jan_2020\\eclipse_e-puck2\\tools\\gcc
 664              		.file 5 "c:\\users\\sjacq\\desktop\\eclipse_e-puck2_win32_29_jan_2020\\eclipse_e-puck2\\tools\\gcc
 665              		.file 6 "c:\\users\\sjacq\\desktop\\eclipse_e-puck2_win32_29_jan_2020\\eclipse_e-puck2\\tools\\gcc
 666              		.file 7 "c:\\users\\sjacq\\desktop\\eclipse_e-puck2_win32_29_jan_2020\\eclipse_e-puck2\\tools\\gcc
 667              		.file 8 "c:\\users\\sjacq\\desktop\\eclipse_e-puck2_win32_29_jan_2020\\eclipse_e-puck2\\tools\\gcc
 668              		.file 9 "c:\\users\\sjacq\\desktop\\eclipse_e-puck2_win32_29_jan_2020\\eclipse_e-puck2\\tools\\gcc
 669              		.file 10 "c:\\users\\sjacq\\desktop\\eclipse_e-puck2_win32_29_jan_2020\\eclipse_e-puck2\\tools\\gc
 670              		.file 11 "../../lib/e-puck2_main-processor/ChibiOS//os/rt/ports/ARMCMx/compilers/GCC/chtypes.h"
 671              		.file 12 "../../lib/e-puck2_main-processor/ChibiOS//os/rt/include/chsystypes.h"
 672              		.file 13 "../../lib/e-puck2_main-processor/ChibiOS//os/rt/include/chschd.h"
ARM GAS  C:\Users\sjacq\AppData\Local\Temp\cc0dlTfR.s 			page 13


 673              		.file 14 "../../lib/e-puck2_main-processor/ChibiOS//os/ext/CMSIS/include/core_cm4.h"
 674              		.file 15 "../../lib/e-puck2_main-processor/ChibiOS//os/ext/CMSIS/ST/system_stm32f4xx.h"
 675              		.file 16 "../../lib/e-puck2_main-processor/ChibiOS//os/ext/CMSIS/ST/stm32f407xx.h"
 676              		.file 17 "../../lib/e-puck2_main-processor/ChibiOS//os/rt/ports/ARMCMx/chcore.h"
 677              		.file 18 "../../lib/e-puck2_main-processor/ChibiOS//os/rt/ports/ARMCMx/chcore_v7m.h"
 678              		.file 19 "../../lib/e-puck2_main-processor/ChibiOS//os/rt/include/chdebug.h"
 679              		.file 20 "../../lib/e-puck2_main-processor/ChibiOS//os/rt/include/chtm.h"
 680              		.file 21 "../../lib/e-puck2_main-processor/ChibiOS//os/rt/include/chstats.h"
 681              		.file 22 "../../lib/e-puck2_main-processor/ChibiOS//os/rt/include/chsem.h"
 682              		.file 23 "../../lib/e-puck2_main-processor/ChibiOS//os/rt/include/chmtx.h"
 683              		.file 24 "../../lib/e-puck2_main-processor/ChibiOS//os/rt/include/chevents.h"
 684              		.file 25 "../../lib/e-puck2_main-processor/ChibiOS//os/rt/include/chqueues.h"
 685              		.file 26 "../../lib/e-puck2_main-processor/ChibiOS//os/hal/ports/STM32/STM32F4xx/stm32_dma.h"
 686              		.file 27 "../../lib/e-puck2_main-processor/ChibiOS//os/hal/include/hal_ioblock.h"
 687              		.file 28 "../../lib/e-puck2_main-processor/ChibiOS//os/hal/ports/STM32/LLD/GPIOv2/pal_lld.h"
 688              		.file 29 "../../lib/e-puck2_main-processor/ChibiOS//os/hal/include/adc.h"
 689              		.file 30 "../../lib/e-puck2_main-processor/ChibiOS//os/hal/ports/STM32/STM32F4xx/adc_lld.h"
 690              		.file 31 "../../lib/e-puck2_main-processor/ChibiOS//os/hal/include/can.h"
 691              		.file 32 "../../lib/e-puck2_main-processor/ChibiOS//os/hal/ports/STM32/LLD/can_lld.h"
 692              		.file 33 "../../lib/e-puck2_main-processor/ChibiOS//os/hal/include/dac.h"
 693              		.file 34 "../../lib/e-puck2_main-processor/ChibiOS//os/hal/ports/STM32/LLD/DACv1/dac_lld.h"
 694              		.file 35 "../../lib/e-puck2_main-processor/ChibiOS//os/hal/include/ext.h"
 695              		.file 36 "../../lib/e-puck2_main-processor/ChibiOS//os/hal/ports/STM32/LLD/ext_lld.h"
 696              		.file 37 "../../lib/e-puck2_main-processor/ChibiOS//os/hal/include/gpt.h"
 697              		.file 38 "../../lib/e-puck2_main-processor/ChibiOS//os/hal/ports/STM32/LLD/TIMv1/gpt_lld.h"
 698              		.file 39 "../../lib/e-puck2_main-processor/ChibiOS//os/hal/ports/STM32/LLD/TIMv1/stm32_tim.h"
 699              		.file 40 "../../lib/e-puck2_main-processor/ChibiOS//os/hal/include/i2c.h"
 700              		.file 41 "../../lib/e-puck2_main-processor/ChibiOS//os/hal/ports/STM32/LLD/I2Cv1/i2c_lld.h"
 701              		.file 42 "../../lib/e-puck2_main-processor/ChibiOS//os/hal/include/i2s.h"
 702              		.file 43 "../../lib/e-puck2_main-processor/ChibiOS//os/hal/ports/STM32/LLD/SPIv1/i2s_lld.h"
 703              		.file 44 "../../lib/e-puck2_main-processor/ChibiOS//os/hal/include/pwm.h"
 704              		.file 45 "../../lib/e-puck2_main-processor/ChibiOS//os/hal/ports/STM32/LLD/TIMv1/pwm_lld.h"
 705              		.file 46 "../../lib/e-puck2_main-processor/ChibiOS//os/hal/include/serial.h"
 706              		.file 47 "../../lib/e-puck2_main-processor/ChibiOS//os/hal/ports/STM32/LLD/USARTv1/serial_lld.h"
 707              		.file 48 "../../lib/e-puck2_main-processor/ChibiOS//os/hal/include/sdc.h"
 708              		.file 49 "../../lib/e-puck2_main-processor/ChibiOS//os/hal/ports/STM32/LLD/sdc_lld.h"
 709              		.file 50 "../../lib/e-puck2_main-processor/ChibiOS//os/hal/include/spi.h"
 710              		.file 51 "../../lib/e-puck2_main-processor/ChibiOS//os/hal/ports/STM32/LLD/SPIv1/spi_lld.h"
 711              		.file 52 "../../lib/e-puck2_main-processor/ChibiOS//os/hal/include/usb.h"
 712              		.file 53 "../../lib/e-puck2_main-processor/ChibiOS//os/hal/ports/STM32/LLD/OTGv1/usb_lld.h"
 713              		.file 54 "../../lib/e-puck2_main-processor/ChibiOS//os/hal/ports/STM32/LLD/OTGv1/stm32_otg.h"
 714              		.file 55 "../../lib/e-puck2_main-processor/ChibiOS//os/hal/include/serial_usb.h"
 715              		.file 56 "../../lib/e-puck2_main-processor/ChibiOS_ext/os/hal/include/../ports/STM32/STM32F4xx/dcm
 716              		.file 57 "c:\\users\\sjacq\\desktop\\eclipse_e-puck2_win32_29_jan_2020\\eclipse_e-puck2\\tools\\gc
 717              		.file 58 "../../lib/e-puck2_main-processor/src/msgbus/messagebus.h"
 718              		.file 59 "../../lib/e-puck2_main-processor/src/parameter/parameter.h"
 719              		.file 60 "./main.h"
 720              		.file 61 "../../lib/e-puck2_main-processor/src/usbcfg.h"
 721              		.file 62 "../../lib/e-puck2_main-processor/src/exti.h"
 722              		.file 63 "../../lib/e-puck2_main-processor/ChibiOS//os/rt/include/chthreads.h"
 723              		.file 64 "../../lib/e-puck2_main-processor/src/motors.h"
 724              		.file 65 "../../lib/e-puck2_main-processor/src/selector.h"