ARM GAS  C:\Users\sjacq\AppData\Local\Temp\ccw4fq6n.s 			page 1


   1              		.cpu cortex-m4
   2              		.eabi_attribute 27, 1
   3              		.eabi_attribute 28, 1
   4              		.eabi_attribute 20, 1
   5              		.eabi_attribute 21, 1
   6              		.eabi_attribute 23, 3
   7              		.eabi_attribute 24, 1
   8              		.eabi_attribute 25, 1
   9              		.eabi_attribute 26, 1
  10              		.eabi_attribute 30, 2
  11              		.eabi_attribute 34, 1
  12              		.eabi_attribute 18, 4
  13              		.file	"Draw_pattern.c"
  14              		.text
  15              	.Ltext0:
  16              		.cfi_sections	.debug_frame
  17              		.section	.text.ThdDrawPattern,"ax",%progbits
  18              		.align	1
  19              		.p2align 4,,15
  20              		.syntax unified
  21              		.thumb
  22              		.thumb_func
  23              		.fpu fpv4-sp-d16
  24              		.type	ThdDrawPattern, %function
  25              	ThdDrawPattern:
  26              	.LFB256:
  27              		.file 1 "Draw_pattern.c"
  28              		.loc 1 14 0
  29              		.cfi_startproc
  30              		@ args = 0, pretend = 0, frame = 88
  31              		@ frame_needed = 0, uses_anonymous_args = 0
  32              	.LVL0:
  33 0000 2DE9F043 		push	{r4, r5, r6, r7, r8, r9, lr}
  34              		.cfi_def_cfa_offset 28
  35              		.cfi_offset 4, -28
  36              		.cfi_offset 5, -24
  37              		.cfi_offset 6, -20
  38              		.cfi_offset 7, -16
  39              		.cfi_offset 8, -12
  40              		.cfi_offset 9, -8
  41              		.cfi_offset 14, -4
  42              	.LBB7:
  43              	.LBB8:
  44              		.file 2 "../../lib/e-puck2_main-processor/ChibiOS//os/rt/include/chregistry.h"
  45              		.loc 2 135 0
  46 0004 634A     		ldr	r2, .L25
  47              	.LBE8:
  48              	.LBE7:
  49              		.loc 1 14 0
  50 0006 644B     		ldr	r3, .L25+4
  51              	.LBB11:
  52              	.LBB9:
  53              		.loc 2 135 0
  54 0008 9269     		ldr	r2, [r2, #24]
  55 000a 6449     		ldr	r1, .L25+8
  56              	.LBE9:
  57              	.LBE11:
ARM GAS  C:\Users\sjacq\AppData\Local\Temp\ccw4fq6n.s 			page 2


  58              		.loc 1 14 0
  59 000c 1B68     		ldr	r3, [r3]
  60              	.LBB12:
  61              	.LBB10:
  62              		.loc 2 135 0
  63 000e 9161     		str	r1, [r2, #24]
  64              	.LBE10:
  65              	.LBE12:
  66              		.loc 1 14 0
  67 0010 97B0     		sub	sp, sp, #92
  68              		.cfi_def_cfa_offset 120
  69              		.loc 1 14 0
  70 0012 1593     		str	r3, [sp, #84]
  71              	.LVL1:
  72              	.L15:
  73              	.LBB13:
  74              		.loc 1 25 0
  75 0014 FFF7FEFF 		bl	get_draw_start
  76              	.LVL2:
  77 0018 0028     		cmp	r0, #0
  78 001a FBD0     		beq	.L15
  79              		.loc 1 26 0
  80 001c FFF7FEFF 		bl	get_points_location
  81              	.LVL3:
  82 0020 6D46     		mov	r5, sp
  83 0022 0DF1FF33 		add	r3, sp, #-1
  84 0026 0138     		subs	r0, r0, #1
  85              	.LVL4:
  86 0028 14A9     		add	r1, sp, #80
  87              	.LVL5:
  88              	.L3:
  89              	.LBB14:
  90              		.loc 1 28 0 discriminator 3
  91 002a 10F8012F 		ldrb	r2, [r0, #1]!	@ zero_extendqisi2
  92 002e 03F8012F 		strb	r2, [r3, #1]!
  93              		.loc 1 27 0 discriminator 3
  94 0032 8B42     		cmp	r3, r1
  95 0034 F9D1     		bne	.L3
  96 0036 0023     		movs	r3, #0
  97              	.L8:
  98              	.LBE14:
  99              	.LBB15:
 100              		.loc 1 33 0
 101 0038 15F8012B 		ldrb	r2, [r5], #1	@ zero_extendqisi2
 102 003c DCB2     		uxtb	r4, r3
 103              	.LVL6:
 104 003e 002A     		cmp	r2, #0
 105 0040 00F0A180 		beq	.L4
 106              		.loc 1 34 0
 107 0044 564D     		ldr	r5, .L25+12
 108 0046 A5FB0425 		umull	r2, r5, r5, r4
 109 004a 6D08     		lsrs	r5, r5, #1
 110 004c 05EBC507 		add	r7, r5, r5, lsl #3
 111 0050 E71B     		subs	r7, r4, r7
 112 0052 FFB2     		uxtb	r7, r7
 113 0054 EDB2     		uxtb	r5, r5
 114 0056 A826     		movs	r6, #168
ARM GAS  C:\Users\sjacq\AppData\Local\Temp\ccw4fq6n.s 			page 3


 115 0058 BD42     		cmp	r5, r7
 116 005a 06FB03F6 		mul	r6, r6, r3
 117 005e 76D3     		bcc	.L5
 118              		.loc 1 37 0
 119 0060 97FBF5F5 		sdiv	r5, r7, r5
 120 0064 4FF49670 		mov	r0, #300
 121 0068 00FB05F0 		mul	r0, r0, r5
 122 006c FFF7FEFF 		bl	left_motor_set_speed
 123              	.LVL7:
 124              		.loc 1 38 0
 125 0070 4C48     		ldr	r0, .L25+16
 126 0072 FFF7FEFF 		bl	right_motor_set_speed
 127              	.LVL8:
 128              		.loc 1 39 0
 129 0076 4FF47A70 		mov	r0, #1000
 130 007a 0923     		movs	r3, #9
 131 007c 96FBF3F3 		sdiv	r3, r6, r3
 132 0080 00FB03F3 		mul	r3, r0, r3
 133 0084 03F2E733 		addw	r3, r3, #999
 134 0088 B3FBF0F0 		udiv	r0, r3, r0
 135 008c FFF7FEFF 		bl	chThdSleep
 136              	.LVL9:
 137              	.L7:
 138              	.LBE15:
 139              		.loc 1 87 0
 140 0090 DFF81081 		ldr	r8, .L25+16
 141              		.loc 1 79 0
 142 0094 4FF00009 		mov	r9, #0
 143 0098 1AE0     		b	.L6
 144              	.LVL10:
 145              	.L9:
 146              		.loc 1 65 0
 147 009a 15F84F7C 		ldrb	r7, [r5, #-79]	@ zero_extendqisi2
 148 009e 4FBB     		cbnz	r7, .L22
 149              		.loc 1 72 0
 150 00a0 15F8596C 		ldrb	r6, [r5, #-89]	@ zero_extendqisi2
 151 00a4 96BB     		cbnz	r6, .L23
 152              		.loc 1 78 0
 153 00a6 15F8617C 		ldrb	r7, [r5, #-97]	@ zero_extendqisi2
 154 00aa 002F     		cmp	r7, #0
 155 00ac 44D1     		bne	.L24
 156              		.loc 1 85 0
 157 00ae 15F8606C 		ldrb	r6, [r5, #-96]	@ zero_extendqisi2
 158              		.loc 1 86 0
 159 00b2 4FF49670 		mov	r0, #300
 160              		.loc 1 85 0
 161 00b6 A6B3     		cbz	r6, .L14
 162              		.loc 1 86 0
 163 00b8 FFF7FEFF 		bl	left_motor_set_speed
 164              	.LVL11:
 165              		.loc 1 90 0
 166 00bc 083C     		subs	r4, r4, #8
 167              	.LVL12:
 168              		.loc 1 87 0
 169 00be 4046     		mov	r0, r8
 170 00c0 FFF7FEFF 		bl	right_motor_set_speed
 171              	.LVL13:
ARM GAS  C:\Users\sjacq\AppData\Local\Temp\ccw4fq6n.s 			page 4


 172              		.loc 1 90 0
 173 00c4 E4B2     		uxtb	r4, r4
 174              	.LVL14:
 175              		.loc 1 89 0
 176 00c6 05F8587C 		strb	r7, [r5, #-88]
 177              	.L10:
 178              		.loc 1 114 0
 179 00ca A820     		movs	r0, #168
 180 00cc FFF7FEFF 		bl	chThdSleep
 181              	.LVL15:
 182              	.L6:
 183              		.loc 1 58 0
 184 00d0 16AB     		add	r3, sp, #88
 185 00d2 1D19     		adds	r5, r3, r4
 186 00d4 15F8576C 		ldrb	r6, [r5, #-87]	@ zero_extendqisi2
 187 00d8 002E     		cmp	r6, #0
 188 00da DED0     		beq	.L9
 189              		.loc 1 59 0
 190 00dc 4FF49670 		mov	r0, #300
 191 00e0 FFF7FEFF 		bl	left_motor_set_speed
 192              	.LVL16:
 193              		.loc 1 63 0
 194 00e4 0134     		adds	r4, r4, #1
 195              	.LVL17:
 196              		.loc 1 60 0
 197 00e6 0020     		movs	r0, #0
 198 00e8 FFF7FEFF 		bl	right_motor_set_speed
 199              	.LVL18:
 200              		.loc 1 63 0
 201 00ec E4B2     		uxtb	r4, r4
 202              	.LVL19:
 203              		.loc 1 62 0
 204 00ee 05F8589C 		strb	r9, [r5, #-88]
 205 00f2 EAE7     		b	.L10
 206              	.L22:
 207              		.loc 1 66 0
 208 00f4 3046     		mov	r0, r6
 209 00f6 FFF7FEFF 		bl	left_motor_set_speed
 210              	.LVL20:
 211              		.loc 1 70 0
 212 00fa 0934     		adds	r4, r4, #9
 213              	.LVL21:
 214              		.loc 1 67 0
 215 00fc 4FF49670 		mov	r0, #300
 216 0100 FFF7FEFF 		bl	right_motor_set_speed
 217              	.LVL22:
 218              		.loc 1 70 0
 219 0104 E4B2     		uxtb	r4, r4
 220              	.LVL23:
 221              		.loc 1 69 0
 222 0106 05F8586C 		strb	r6, [r5, #-88]
 223 010a DEE7     		b	.L10
 224              	.L23:
 225              		.loc 1 73 0
 226 010c 4046     		mov	r0, r8
 227 010e FFF7FEFF 		bl	left_motor_set_speed
 228              	.LVL24:
ARM GAS  C:\Users\sjacq\AppData\Local\Temp\ccw4fq6n.s 			page 5


 229              		.loc 1 77 0
 230 0112 013C     		subs	r4, r4, #1
 231              	.LVL25:
 232              		.loc 1 74 0
 233 0114 3846     		mov	r0, r7
 234 0116 FFF7FEFF 		bl	right_motor_set_speed
 235              	.LVL26:
 236              		.loc 1 77 0
 237 011a E4B2     		uxtb	r4, r4
 238              	.LVL27:
 239              		.loc 1 76 0
 240 011c 05F8587C 		strb	r7, [r5, #-88]
 241 0120 D3E7     		b	.L10
 242              	.L14:
 243              		.loc 1 93 0
 244 0122 FFF7FEFF 		bl	left_motor_set_speed
 245              	.LVL28:
 246              		.loc 1 97 0
 247 0126 0A34     		adds	r4, r4, #10
 248              	.LVL29:
 249              		.loc 1 94 0
 250 0128 4FF49670 		mov	r0, #300
 251 012c FFF7FEFF 		bl	right_motor_set_speed
 252              	.LVL30:
 253              		.loc 1 97 0
 254 0130 E4B2     		uxtb	r4, r4
 255              	.LVL31:
 256              		.loc 1 96 0
 257 0132 05F8586C 		strb	r6, [r5, #-88]
 258 0136 C8E7     		b	.L10
 259              	.L24:
 260              		.loc 1 79 0
 261 0138 3046     		mov	r0, r6
 262 013a FFF7FEFF 		bl	left_motor_set_speed
 263              	.LVL32:
 264              		.loc 1 83 0
 265 013e 093C     		subs	r4, r4, #9
 266              	.LVL33:
 267              		.loc 1 80 0
 268 0140 4046     		mov	r0, r8
 269 0142 FFF7FEFF 		bl	right_motor_set_speed
 270              	.LVL34:
 271              		.loc 1 83 0
 272 0146 E4B2     		uxtb	r4, r4
 273              	.LVL35:
 274              		.loc 1 82 0
 275 0148 05F8586C 		strb	r6, [r5, #-88]
 276 014c BDE7     		b	.L10
 277              	.LVL36:
 278              	.L5:
 279              	.LBB16:
 280              		.loc 1 44 0
 281 014e 4FF49670 		mov	r0, #300
 282 0152 FFF7FEFF 		bl	left_motor_set_speed
 283              	.LVL37:
 284              		.loc 1 45 0
 285 0156 95FBF7F5 		sdiv	r5, r5, r7
ARM GAS  C:\Users\sjacq\AppData\Local\Temp\ccw4fq6n.s 			page 6


 286 015a 1248     		ldr	r0, .L25+16
 287 015c 00FB05F0 		mul	r0, r0, r5
 288 0160 FFF7FEFF 		bl	right_motor_set_speed
 289              	.LVL38:
 290              		.loc 1 46 0
 291 0164 0923     		movs	r3, #9
 292 0166 96FBF3F3 		sdiv	r3, r6, r3
 293 016a 03EBC303 		add	r3, r3, r3, lsl #3
 294 016e F31A     		subs	r3, r6, r3
 295 0170 4FF47A70 		mov	r0, #1000
 296 0174 00FB03F3 		mul	r3, r0, r3
 297 0178 03F2E733 		addw	r3, r3, #999
 298 017c B3FBF0F0 		udiv	r0, r3, r0
 299 0180 FFF7FEFF 		bl	chThdSleep
 300              	.LVL39:
 301 0184 84E7     		b	.L7
 302              	.L4:
 303              	.LVL40:
 304 0186 0133     		adds	r3, r3, #1
 305              	.LVL41:
 306              		.loc 1 32 0
 307 0188 512B     		cmp	r3, #81
 308 018a 7FF455AF 		bne	.L8
 309              	.LBE16:
 310              		.loc 1 23 0
 311 018e 1446     		mov	r4, r2
 312              	.LVL42:
 313 0190 7EE7     		b	.L7
 314              	.L26:
 315 0192 00BF     		.align	2
 316              	.L25:
 317 0194 00000000 		.word	ch
 318 0198 00000000 		.word	__stack_chk_guard
 319 019c 00000000 		.word	.LANCHOR0
 320 01a0 398EE338 		.word	954437177
 321 01a4 D4FEFFFF 		.word	-300
 322              	.LBE13:
 323              		.cfi_endproc
 324              	.LFE256:
 325              		.size	ThdDrawPattern, .-ThdDrawPattern
 326              		.section	.text.draw_pattern_start,"ax",%progbits
 327              		.align	1
 328              		.p2align 4,,15
 329              		.global	draw_pattern_start
 330              		.syntax unified
 331              		.thumb
 332              		.thumb_func
 333              		.fpu fpv4-sp-d16
 334              		.type	draw_pattern_start, %function
 335              	draw_pattern_start:
 336              	.LFB257:
 337              		.loc 1 138 0
 338              		.cfi_startproc
 339              		@ args = 0, pretend = 0, frame = 8
 340              		@ frame_needed = 0, uses_anonymous_args = 0
 341 0000 10B5     		push	{r4, lr}
 342              		.cfi_def_cfa_offset 8
ARM GAS  C:\Users\sjacq\AppData\Local\Temp\ccw4fq6n.s 			page 7


 343              		.cfi_offset 4, -8
 344              		.cfi_offset 14, -4
 345 0002 0A4C     		ldr	r4, .L31
 346              		.loc 1 139 0
 347 0004 0A4B     		ldr	r3, .L31+4
 348              		.loc 1 138 0
 349 0006 2268     		ldr	r2, [r4]
 350              		.loc 1 139 0
 351 0008 0A48     		ldr	r0, .L31+8
 352              		.loc 1 138 0
 353 000a 84B0     		sub	sp, sp, #16
 354              		.cfi_def_cfa_offset 24
 355              		.loc 1 139 0
 356 000c 41F27811 		movw	r1, #4472
 357              		.loc 1 138 0
 358 0010 0392     		str	r2, [sp, #12]
 359              		.loc 1 139 0
 360 0012 0022     		movs	r2, #0
 361 0014 0092     		str	r2, [sp]
 362 0016 3F22     		movs	r2, #63
 363 0018 FFF7FEFF 		bl	chThdCreateStatic
 364              	.LVL43:
 365              		.loc 1 140 0
 366 001c 039A     		ldr	r2, [sp, #12]
 367 001e 2368     		ldr	r3, [r4]
 368 0020 9A42     		cmp	r2, r3
 369 0022 01D1     		bne	.L30
 370 0024 04B0     		add	sp, sp, #16
 371              		.cfi_remember_state
 372              		.cfi_def_cfa_offset 8
 373              		@ sp needed
 374 0026 10BD     		pop	{r4, pc}
 375              	.L30:
 376              		.cfi_restore_state
 377 0028 FFF7FEFF 		bl	__stack_chk_fail
 378              	.LVL44:
 379              	.L32:
 380              		.align	2
 381              	.L31:
 382 002c 00000000 		.word	__stack_chk_guard
 383 0030 00000000 		.word	ThdDrawPattern
 384 0034 00000000 		.word	waThdDrawPattern
 385              		.cfi_endproc
 386              	.LFE257:
 387              		.size	draw_pattern_start, .-draw_pattern_start
 388              		.section	.bss.waThdDrawPattern,"aw",%nobits
 389              		.align	3
 390              		.type	waThdDrawPattern, %object
 391              		.size	waThdDrawPattern, 4472
 392              	waThdDrawPattern:
 393 0000 00000000 		.space	4472
 393      00000000 
 393      00000000 
 393      00000000 
 393      00000000 
 394              		.section	.rodata.__FUNCTION__.11446,"a",%progbits
 395              		.align	2
ARM GAS  C:\Users\sjacq\AppData\Local\Temp\ccw4fq6n.s 			page 8


 396              		.set	.LANCHOR0,. + 0
 397              		.type	__FUNCTION__.11446, %object
 398              		.size	__FUNCTION__.11446, 15
 399              	__FUNCTION__.11446:
 400 0000 54686444 		.ascii	"ThdDrawPattern\000"
 400      72617750 
 400      61747465 
 400      726E00
 401              		.text
 402              	.Letext0:
 403              		.file 3 "c:\\users\\sjacq\\desktop\\eclipse_e-puck2_win32_29_jan_2020\\eclipse_e-puck2\\tools\\gcc
 404              		.file 4 "c:\\users\\sjacq\\desktop\\eclipse_e-puck2_win32_29_jan_2020\\eclipse_e-puck2\\tools\\gcc
 405              		.file 5 "c:\\users\\sjacq\\desktop\\eclipse_e-puck2_win32_29_jan_2020\\eclipse_e-puck2\\tools\\gcc
 406              		.file 6 "../../lib/e-puck2_main-processor/ChibiOS//os/rt/ports/ARMCMx/compilers/GCC/chtypes.h"
 407              		.file 7 "../../lib/e-puck2_main-processor/ChibiOS//os/rt/include/chsystypes.h"
 408              		.file 8 "../../lib/e-puck2_main-processor/ChibiOS//os/rt/include/chschd.h"
 409              		.file 9 "../../lib/e-puck2_main-processor/ChibiOS//os/ext/CMSIS/include/core_cm4.h"
 410              		.file 10 "../../lib/e-puck2_main-processor/ChibiOS//os/ext/CMSIS/ST/system_stm32f4xx.h"
 411              		.file 11 "../../lib/e-puck2_main-processor/ChibiOS//os/ext/CMSIS/ST/stm32f407xx.h"
 412              		.file 12 "../../lib/e-puck2_main-processor/ChibiOS//os/rt/ports/ARMCMx/chcore.h"
 413              		.file 13 "../../lib/e-puck2_main-processor/ChibiOS//os/rt/ports/ARMCMx/chcore_v7m.h"
 414              		.file 14 "../../lib/e-puck2_main-processor/ChibiOS//os/rt/include/chdebug.h"
 415              		.file 15 "../../lib/e-puck2_main-processor/ChibiOS//os/rt/include/chtm.h"
 416              		.file 16 "../../lib/e-puck2_main-processor/ChibiOS//os/rt/include/chstats.h"
 417              		.file 17 "../../lib/e-puck2_main-processor/ChibiOS//os/rt/include/chsem.h"
 418              		.file 18 "../../lib/e-puck2_main-processor/ChibiOS//os/rt/include/chmtx.h"
 419              		.file 19 "../../lib/e-puck2_main-processor/ChibiOS//os/rt/include/chevents.h"
 420              		.file 20 "../../lib/e-puck2_main-processor/ChibiOS//os/rt/include/chqueues.h"
 421              		.file 21 "../../lib/e-puck2_main-processor/ChibiOS//os/hal/ports/STM32/STM32F4xx/stm32_dma.h"
 422              		.file 22 "../../lib/e-puck2_main-processor/ChibiOS//os/hal/include/hal_ioblock.h"
 423              		.file 23 "../../lib/e-puck2_main-processor/ChibiOS//os/hal/ports/STM32/LLD/GPIOv2/pal_lld.h"
 424              		.file 24 "../../lib/e-puck2_main-processor/ChibiOS//os/hal/include/adc.h"
 425              		.file 25 "../../lib/e-puck2_main-processor/ChibiOS//os/hal/ports/STM32/STM32F4xx/adc_lld.h"
 426              		.file 26 "../../lib/e-puck2_main-processor/ChibiOS//os/hal/include/can.h"
 427              		.file 27 "../../lib/e-puck2_main-processor/ChibiOS//os/hal/ports/STM32/LLD/can_lld.h"
 428              		.file 28 "../../lib/e-puck2_main-processor/ChibiOS//os/hal/include/dac.h"
 429              		.file 29 "../../lib/e-puck2_main-processor/ChibiOS//os/hal/ports/STM32/LLD/DACv1/dac_lld.h"
 430              		.file 30 "../../lib/e-puck2_main-processor/ChibiOS//os/hal/include/ext.h"
 431              		.file 31 "../../lib/e-puck2_main-processor/ChibiOS//os/hal/ports/STM32/LLD/ext_lld.h"
 432              		.file 32 "../../lib/e-puck2_main-processor/ChibiOS//os/hal/include/gpt.h"
 433              		.file 33 "../../lib/e-puck2_main-processor/ChibiOS//os/hal/ports/STM32/LLD/TIMv1/gpt_lld.h"
 434              		.file 34 "../../lib/e-puck2_main-processor/ChibiOS//os/hal/ports/STM32/LLD/TIMv1/stm32_tim.h"
 435              		.file 35 "../../lib/e-puck2_main-processor/ChibiOS//os/hal/include/i2c.h"
 436              		.file 36 "../../lib/e-puck2_main-processor/ChibiOS//os/hal/ports/STM32/LLD/I2Cv1/i2c_lld.h"
 437              		.file 37 "../../lib/e-puck2_main-processor/ChibiOS//os/hal/include/i2s.h"
 438              		.file 38 "../../lib/e-puck2_main-processor/ChibiOS//os/hal/ports/STM32/LLD/SPIv1/i2s_lld.h"
 439              		.file 39 "../../lib/e-puck2_main-processor/ChibiOS//os/hal/include/pwm.h"
 440              		.file 40 "../../lib/e-puck2_main-processor/ChibiOS//os/hal/ports/STM32/LLD/TIMv1/pwm_lld.h"
 441              		.file 41 "../../lib/e-puck2_main-processor/ChibiOS//os/hal/include/serial.h"
 442              		.file 42 "../../lib/e-puck2_main-processor/ChibiOS//os/hal/ports/STM32/LLD/USARTv1/serial_lld.h"
 443              		.file 43 "../../lib/e-puck2_main-processor/ChibiOS//os/hal/include/sdc.h"
 444              		.file 44 "../../lib/e-puck2_main-processor/ChibiOS//os/hal/ports/STM32/LLD/sdc_lld.h"
 445              		.file 45 "../../lib/e-puck2_main-processor/ChibiOS//os/hal/include/spi.h"
 446              		.file 46 "../../lib/e-puck2_main-processor/ChibiOS//os/hal/ports/STM32/LLD/SPIv1/spi_lld.h"
 447              		.file 47 "../../lib/e-puck2_main-processor/ChibiOS//os/hal/include/usb.h"
 448              		.file 48 "../../lib/e-puck2_main-processor/ChibiOS//os/hal/ports/STM32/LLD/OTGv1/usb_lld.h"
 449              		.file 49 "../../lib/e-puck2_main-processor/ChibiOS//os/hal/ports/STM32/LLD/OTGv1/stm32_otg.h"
ARM GAS  C:\Users\sjacq\AppData\Local\Temp\ccw4fq6n.s 			page 9


 450              		.file 50 "../../lib/e-puck2_main-processor/ChibiOS_ext/os/hal/include/../ports/STM32/STM32F4xx/dcm
 451              		.file 51 "c:\\users\\sjacq\\desktop\\eclipse_e-puck2_win32_29_jan_2020\\eclipse_e-puck2\\tools\\gc
 452              		.file 52 "c:\\users\\sjacq\\desktop\\eclipse_e-puck2_win32_29_jan_2020\\eclipse_e-puck2\\tools\\gc
 453              		.file 53 "c:\\users\\sjacq\\desktop\\eclipse_e-puck2_win32_29_jan_2020\\eclipse_e-puck2\\tools\\gc
 454              		.file 54 "../../lib/e-puck2_main-processor/src/msgbus/messagebus.h"
 455              		.file 55 "c:\\users\\sjacq\\desktop\\eclipse_e-puck2_win32_29_jan_2020\\eclipse_e-puck2\\tools\\gc
 456              		.file 56 "c:\\users\\sjacq\\desktop\\eclipse_e-puck2_win32_29_jan_2020\\eclipse_e-puck2\\tools\\gc
 457              		.file 57 "../../lib/e-puck2_main-processor/src/parameter/parameter.h"
 458              		.file 58 "./main.h"
 459              		.file 59 "../../lib/e-puck2_main-processor/ChibiOS//os/rt/include/chthreads.h"
 460              		.file 60 "../../lib/e-puck2_main-processor/src/motors.h"
 461              		.file 61 "./process_image.h"