ARM GAS  C:\Users\sjacq\AppData\Local\Temp\ccHycdld.s 			page 1


   1              		.cpu cortex-m4
   2              		.eabi_attribute 27, 1
   3              		.eabi_attribute 28, 1
   4              		.eabi_attribute 20, 1
   5              		.eabi_attribute 21, 1
   6              		.eabi_attribute 23, 3
   7              		.eabi_attribute 24, 1
   8              		.eabi_attribute 25, 1
   9              		.eabi_attribute 26, 1
  10              		.eabi_attribute 30, 2
  11              		.eabi_attribute 34, 1
  12              		.eabi_attribute 18, 4
  13              		.file	"e_lsm330.c"
  14              		.text
  15              	.Ltext0:
  16              		.cfi_sections	.debug_frame
  17              		.section	.text.initAccAndGyro,"ax",%progbits
  18              		.align	1
  19              		.p2align 4,,15
  20              		.global	initAccAndGyro
  21              		.syntax unified
  22              		.thumb
  23              		.thumb_func
  24              		.fpu fpv4-sp-d16
  25              		.type	initAccAndGyro, %function
  26              	initAccAndGyro:
  27              	.LFB256:
  28              		.file 1 "../../lib/e-puck2_main-processor/src/epuck1x/acc_gyro/e_lsm330.c"
  29              		.loc 1 33 0
  30              		.cfi_startproc
  31              		@ args = 0, pretend = 0, frame = 8
  32              		@ frame_needed = 0, uses_anonymous_args = 0
  33 0000 00B5     		push	{lr}
  34              		.cfi_def_cfa_offset 4
  35              		.cfi_offset 14, -4
  36 0002 064B     		ldr	r3, .L6
  37 0004 83B0     		sub	sp, sp, #12
  38              		.cfi_def_cfa_offset 16
  39              		.loc 1 33 0
  40 0006 1A68     		ldr	r2, [r3]
  41 0008 0192     		str	r2, [sp, #4]
  42              		.loc 1 35 0
  43 000a 019A     		ldr	r2, [sp, #4]
  44 000c 1B68     		ldr	r3, [r3]
  45 000e 9A42     		cmp	r2, r3
  46 0010 02D1     		bne	.L5
  47 0012 03B0     		add	sp, sp, #12
  48              		.cfi_remember_state
  49              		.cfi_def_cfa_offset 4
  50              		@ sp needed
  51 0014 5DF804FB 		ldr	pc, [sp], #4
  52              	.L5:
  53              		.cfi_restore_state
  54 0018 FFF7FEFF 		bl	__stack_chk_fail
  55              	.LVL0:
  56              	.L7:
  57              		.align	2
ARM GAS  C:\Users\sjacq\AppData\Local\Temp\ccHycdld.s 			page 2


  58              	.L6:
  59 001c 00000000 		.word	__stack_chk_guard
  60              		.cfi_endproc
  61              	.LFE256:
  62              		.size	initAccAndGyro, .-initAccAndGyro
  63              		.section	.text.getAllAxesGyroRaw,"ax",%progbits
  64              		.align	1
  65              		.p2align 4,,15
  66              		.global	getAllAxesGyroRaw
  67              		.syntax unified
  68              		.thumb
  69              		.thumb_func
  70              		.fpu fpv4-sp-d16
  71              		.type	getAllAxesGyroRaw, %function
  72              	getAllAxesGyroRaw:
  73              	.LFB257:
  74              		.loc 1 37 0
  75              		.cfi_startproc
  76              		@ args = 0, pretend = 0, frame = 8
  77              		@ frame_needed = 0, uses_anonymous_args = 0
  78              	.LVL1:
  79 0000 30B5     		push	{r4, r5, lr}
  80              		.cfi_def_cfa_offset 12
  81              		.cfi_offset 4, -12
  82              		.cfi_offset 5, -8
  83              		.cfi_offset 14, -4
  84 0002 0D4D     		ldr	r5, .L12
  85 0004 83B0     		sub	sp, sp, #12
  86              		.cfi_def_cfa_offset 24
  87              		.loc 1 37 0
  88 0006 2B68     		ldr	r3, [r5]
  89 0008 0193     		str	r3, [sp, #4]
  90 000a 0446     		mov	r4, r0
  91              		.loc 1 38 0
  92 000c 0120     		movs	r0, #1
  93              	.LVL2:
  94 000e FFF7FEFF 		bl	get_gyro
  95              	.LVL3:
  96 0012 4042     		negs	r0, r0
  97 0014 2070     		strb	r0, [r4]
  98              		.loc 1 39 0
  99 0016 0020     		movs	r0, #0
 100 0018 FFF7FEFF 		bl	get_gyro
 101              	.LVL4:
 102 001c 6070     		strb	r0, [r4, #1]
 103              		.loc 1 40 0
 104 001e 0220     		movs	r0, #2
 105 0020 FFF7FEFF 		bl	get_gyro
 106              	.LVL5:
 107 0024 A070     		strb	r0, [r4, #2]
 108              		.loc 1 41 0
 109 0026 019A     		ldr	r2, [sp, #4]
 110 0028 2B68     		ldr	r3, [r5]
 111 002a 9A42     		cmp	r2, r3
 112 002c 01D1     		bne	.L11
 113 002e 03B0     		add	sp, sp, #12
 114              		.cfi_remember_state
ARM GAS  C:\Users\sjacq\AppData\Local\Temp\ccHycdld.s 			page 3


 115              		.cfi_def_cfa_offset 12
 116              		@ sp needed
 117 0030 30BD     		pop	{r4, r5, pc}
 118              	.LVL6:
 119              	.L11:
 120              		.cfi_restore_state
 121 0032 FFF7FEFF 		bl	__stack_chk_fail
 122              	.LVL7:
 123              	.L13:
 124 0036 00BF     		.align	2
 125              	.L12:
 126 0038 00000000 		.word	__stack_chk_guard
 127              		.cfi_endproc
 128              	.LFE257:
 129              		.size	getAllAxesGyroRaw, .-getAllAxesGyroRaw
 130              		.section	.text.getAllAxesGyro,"ax",%progbits
 131              		.align	1
 132              		.p2align 4,,15
 133              		.global	getAllAxesGyro
 134              		.syntax unified
 135              		.thumb
 136              		.thumb_func
 137              		.fpu fpv4-sp-d16
 138              		.type	getAllAxesGyro, %function
 139              	getAllAxesGyro:
 140              	.LFB258:
 141              		.loc 1 43 0
 142              		.cfi_startproc
 143              		@ args = 0, pretend = 0, frame = 16
 144              		@ frame_needed = 0, uses_anonymous_args = 0
 145              	.LVL8:
 146 0000 2DE9F041 		push	{r4, r5, r6, r7, r8, lr}
 147              		.cfi_def_cfa_offset 24
 148              		.cfi_offset 4, -24
 149              		.cfi_offset 5, -20
 150              		.cfi_offset 6, -16
 151              		.cfi_offset 7, -12
 152              		.cfi_offset 8, -8
 153              		.cfi_offset 14, -4
 154 0004 144D     		ldr	r5, .L18
 155 0006 84B0     		sub	sp, sp, #16
 156              		.cfi_def_cfa_offset 40
 157              		.loc 1 43 0
 158 0008 2B68     		ldr	r3, [r5]
 159 000a 0393     		str	r3, [sp, #12]
 160 000c 8046     		mov	r8, r0
 161              		.loc 1 45 0
 162 000e 01A8     		add	r0, sp, #4
 163              	.LVL9:
 164              		.loc 1 43 0
 165 0010 1646     		mov	r6, r2
 166 0012 0F46     		mov	r7, r1
 167              		.loc 1 45 0
 168 0014 FFF7FEFF 		bl	get_gyro_all
 169              	.LVL10:
 170              		.loc 1 46 0
 171 0018 0120     		movs	r0, #1
ARM GAS  C:\Users\sjacq\AppData\Local\Temp\ccHycdld.s 			page 4


 172 001a FFF7FEFF 		bl	get_gyro_offset
 173              	.LVL11:
 174 001e BDF90630 		ldrsh	r3, [sp, #6]
 175              		.loc 1 47 0
 176 0022 BDF90440 		ldrsh	r4, [sp, #4]
 177              		.loc 1 46 0
 178 0026 C01A     		subs	r0, r0, r3
 179 0028 C8F80000 		str	r0, [r8]
 180              		.loc 1 47 0
 181 002c 0020     		movs	r0, #0
 182 002e FFF7FEFF 		bl	get_gyro_offset
 183              	.LVL12:
 184 0032 201A     		subs	r0, r4, r0
 185 0034 3860     		str	r0, [r7]
 186              		.loc 1 48 0
 187 0036 0220     		movs	r0, #2
 188 0038 BDF90840 		ldrsh	r4, [sp, #8]
 189 003c FFF7FEFF 		bl	get_gyro_offset
 190              	.LVL13:
 191 0040 201A     		subs	r0, r4, r0
 192 0042 3060     		str	r0, [r6]
 193              		.loc 1 49 0
 194 0044 039A     		ldr	r2, [sp, #12]
 195 0046 2B68     		ldr	r3, [r5]
 196 0048 9A42     		cmp	r2, r3
 197 004a 02D1     		bne	.L17
 198 004c 04B0     		add	sp, sp, #16
 199              		.cfi_remember_state
 200              		.cfi_def_cfa_offset 24
 201              		@ sp needed
 202 004e BDE8F081 		pop	{r4, r5, r6, r7, r8, pc}
 203              	.LVL14:
 204              	.L17:
 205              		.cfi_restore_state
 206 0052 FFF7FEFF 		bl	__stack_chk_fail
 207              	.LVL15:
 208              	.L19:
 209 0056 00BF     		.align	2
 210              	.L18:
 211 0058 00000000 		.word	__stack_chk_guard
 212              		.cfi_endproc
 213              	.LFE258:
 214              		.size	getAllAxesGyro, .-getAllAxesGyro
 215              		.section	.text.getXAxisGyro,"ax",%progbits
 216              		.align	1
 217              		.p2align 4,,15
 218              		.global	getXAxisGyro
 219              		.syntax unified
 220              		.thumb
 221              		.thumb_func
 222              		.fpu fpv4-sp-d16
 223              		.type	getXAxisGyro, %function
 224              	getXAxisGyro:
 225              	.LFB259:
 226              		.loc 1 51 0
 227              		.cfi_startproc
 228              		@ args = 0, pretend = 0, frame = 8
ARM GAS  C:\Users\sjacq\AppData\Local\Temp\ccHycdld.s 			page 5


 229              		@ frame_needed = 0, uses_anonymous_args = 0
 230 0000 30B5     		push	{r4, r5, lr}
 231              		.cfi_def_cfa_offset 12
 232              		.cfi_offset 4, -12
 233              		.cfi_offset 5, -8
 234              		.cfi_offset 14, -4
 235 0002 0A4C     		ldr	r4, .L24
 236 0004 83B0     		sub	sp, sp, #12
 237              		.cfi_def_cfa_offset 24
 238              		.loc 1 51 0
 239 0006 2368     		ldr	r3, [r4]
 240 0008 0193     		str	r3, [sp, #4]
 241              		.loc 1 52 0
 242 000a 0120     		movs	r0, #1
 243 000c FFF7FEFF 		bl	get_gyro_offset
 244              	.LVL16:
 245 0010 0546     		mov	r5, r0
 246 0012 0120     		movs	r0, #1
 247 0014 FFF7FEFF 		bl	get_gyro
 248              	.LVL17:
 249              		.loc 1 53 0
 250 0018 019A     		ldr	r2, [sp, #4]
 251 001a 2368     		ldr	r3, [r4]
 252 001c 9A42     		cmp	r2, r3
 253 001e A5EB0000 		sub	r0, r5, r0
 254 0022 01D1     		bne	.L23
 255 0024 03B0     		add	sp, sp, #12
 256              		.cfi_remember_state
 257              		.cfi_def_cfa_offset 12
 258              		@ sp needed
 259 0026 30BD     		pop	{r4, r5, pc}
 260              	.L23:
 261              		.cfi_restore_state
 262 0028 FFF7FEFF 		bl	__stack_chk_fail
 263              	.LVL18:
 264              	.L25:
 265              		.align	2
 266              	.L24:
 267 002c 00000000 		.word	__stack_chk_guard
 268              		.cfi_endproc
 269              	.LFE259:
 270              		.size	getXAxisGyro, .-getXAxisGyro
 271              		.section	.text.getYAxisGyro,"ax",%progbits
 272              		.align	1
 273              		.p2align 4,,15
 274              		.global	getYAxisGyro
 275              		.syntax unified
 276              		.thumb
 277              		.thumb_func
 278              		.fpu fpv4-sp-d16
 279              		.type	getYAxisGyro, %function
 280              	getYAxisGyro:
 281              	.LFB260:
 282              		.loc 1 55 0
 283              		.cfi_startproc
 284              		@ args = 0, pretend = 0, frame = 8
 285              		@ frame_needed = 0, uses_anonymous_args = 0
ARM GAS  C:\Users\sjacq\AppData\Local\Temp\ccHycdld.s 			page 6


 286 0000 30B5     		push	{r4, r5, lr}
 287              		.cfi_def_cfa_offset 12
 288              		.cfi_offset 4, -12
 289              		.cfi_offset 5, -8
 290              		.cfi_offset 14, -4
 291 0002 0A4C     		ldr	r4, .L30
 292 0004 83B0     		sub	sp, sp, #12
 293              		.cfi_def_cfa_offset 24
 294              		.loc 1 55 0
 295 0006 2368     		ldr	r3, [r4]
 296 0008 0193     		str	r3, [sp, #4]
 297              		.loc 1 56 0
 298 000a 0020     		movs	r0, #0
 299 000c FFF7FEFF 		bl	get_gyro
 300              	.LVL19:
 301 0010 0546     		mov	r5, r0
 302 0012 0020     		movs	r0, #0
 303 0014 FFF7FEFF 		bl	get_gyro_offset
 304              	.LVL20:
 305              		.loc 1 57 0
 306 0018 019A     		ldr	r2, [sp, #4]
 307 001a 2368     		ldr	r3, [r4]
 308 001c 9A42     		cmp	r2, r3
 309 001e A5EB0000 		sub	r0, r5, r0
 310 0022 01D1     		bne	.L29
 311 0024 03B0     		add	sp, sp, #12
 312              		.cfi_remember_state
 313              		.cfi_def_cfa_offset 12
 314              		@ sp needed
 315 0026 30BD     		pop	{r4, r5, pc}
 316              	.L29:
 317              		.cfi_restore_state
 318 0028 FFF7FEFF 		bl	__stack_chk_fail
 319              	.LVL21:
 320              	.L31:
 321              		.align	2
 322              	.L30:
 323 002c 00000000 		.word	__stack_chk_guard
 324              		.cfi_endproc
 325              	.LFE260:
 326              		.size	getYAxisGyro, .-getYAxisGyro
 327              		.section	.text.getZAxisGyro,"ax",%progbits
 328              		.align	1
 329              		.p2align 4,,15
 330              		.global	getZAxisGyro
 331              		.syntax unified
 332              		.thumb
 333              		.thumb_func
 334              		.fpu fpv4-sp-d16
 335              		.type	getZAxisGyro, %function
 336              	getZAxisGyro:
 337              	.LFB261:
 338              		.loc 1 59 0
 339              		.cfi_startproc
 340              		@ args = 0, pretend = 0, frame = 8
 341              		@ frame_needed = 0, uses_anonymous_args = 0
 342 0000 30B5     		push	{r4, r5, lr}
ARM GAS  C:\Users\sjacq\AppData\Local\Temp\ccHycdld.s 			page 7


 343              		.cfi_def_cfa_offset 12
 344              		.cfi_offset 4, -12
 345              		.cfi_offset 5, -8
 346              		.cfi_offset 14, -4
 347 0002 0A4C     		ldr	r4, .L36
 348 0004 83B0     		sub	sp, sp, #12
 349              		.cfi_def_cfa_offset 24
 350              		.loc 1 59 0
 351 0006 2368     		ldr	r3, [r4]
 352 0008 0193     		str	r3, [sp, #4]
 353              		.loc 1 60 0
 354 000a 0220     		movs	r0, #2
 355 000c FFF7FEFF 		bl	get_gyro
 356              	.LVL22:
 357 0010 0546     		mov	r5, r0
 358 0012 0220     		movs	r0, #2
 359 0014 FFF7FEFF 		bl	get_gyro_offset
 360              	.LVL23:
 361              		.loc 1 61 0
 362 0018 019A     		ldr	r2, [sp, #4]
 363 001a 2368     		ldr	r3, [r4]
 364 001c 9A42     		cmp	r2, r3
 365 001e A5EB0000 		sub	r0, r5, r0
 366 0022 01D1     		bne	.L35
 367 0024 03B0     		add	sp, sp, #12
 368              		.cfi_remember_state
 369              		.cfi_def_cfa_offset 12
 370              		@ sp needed
 371 0026 30BD     		pop	{r4, r5, pc}
 372              	.L35:
 373              		.cfi_restore_state
 374 0028 FFF7FEFF 		bl	__stack_chk_fail
 375              	.LVL24:
 376              	.L37:
 377              		.align	2
 378              	.L36:
 379 002c 00000000 		.word	__stack_chk_guard
 380              		.cfi_endproc
 381              	.LFE261:
 382              		.size	getZAxisGyro, .-getZAxisGyro
 383              		.section	.text.getTemperature,"ax",%progbits
 384              		.align	1
 385              		.p2align 4,,15
 386              		.global	getTemperature
 387              		.syntax unified
 388              		.thumb
 389              		.thumb_func
 390              		.fpu fpv4-sp-d16
 391              		.type	getTemperature, %function
 392              	getTemperature:
 393              	.LFB262:
 394              		.loc 1 63 0
 395              		.cfi_startproc
 396              		@ args = 0, pretend = 0, frame = 16
 397              		@ frame_needed = 0, uses_anonymous_args = 0
 398 0000 10B5     		push	{r4, lr}
 399              		.cfi_def_cfa_offset 8
ARM GAS  C:\Users\sjacq\AppData\Local\Temp\ccHycdld.s 			page 8


 400              		.cfi_offset 4, -8
 401              		.cfi_offset 14, -4
 402 0002 0A4C     		ldr	r4, .L42
 403 0004 84B0     		sub	sp, sp, #16
 404              		.cfi_def_cfa_offset 24
 405              		.loc 1 63 0
 406 0006 2368     		ldr	r3, [r4]
 407 0008 0393     		str	r3, [sp, #12]
 408              		.loc 1 64 0
 409 000a FFF7FEFF 		bl	get_temperature
 410              	.LVL25:
 411              		.loc 1 65 0
 412 000e 039A     		ldr	r2, [sp, #12]
 413 0010 2368     		ldr	r3, [r4]
 414              		.loc 1 64 0
 415 0012 FDEEC07A 		vcvt.s32.f32	s15, s0
 416              		.loc 1 65 0
 417 0016 9A42     		cmp	r2, r3
 418              		.loc 1 64 0
 419 0018 CDED017A 		vstr.32	s15, [sp, #4]	@ int
 420              		.loc 1 65 0
 421 001c 9DF90400 		ldrsb	r0, [sp, #4]
 422 0020 01D1     		bne	.L41
 423 0022 04B0     		add	sp, sp, #16
 424              		.cfi_remember_state
 425              		.cfi_def_cfa_offset 8
 426              		@ sp needed
 427 0024 10BD     		pop	{r4, pc}
 428              	.L41:
 429              		.cfi_restore_state
 430 0026 FFF7FEFF 		bl	__stack_chk_fail
 431              	.LVL26:
 432              	.L43:
 433 002a 00BF     		.align	2
 434              	.L42:
 435 002c 00000000 		.word	__stack_chk_guard
 436              		.cfi_endproc
 437              	.LFE262:
 438              		.size	getTemperature, .-getTemperature
 439              		.section	.text.calibrateGyroscope,"ax",%progbits
 440              		.align	1
 441              		.p2align 4,,15
 442              		.global	calibrateGyroscope
 443              		.syntax unified
 444              		.thumb
 445              		.thumb_func
 446              		.fpu fpv4-sp-d16
 447              		.type	calibrateGyroscope, %function
 448              	calibrateGyroscope:
 449              	.LFB263:
 450              		.loc 1 67 0
 451              		.cfi_startproc
 452              		@ args = 0, pretend = 0, frame = 8
 453              		@ frame_needed = 0, uses_anonymous_args = 0
 454              	.LVL27:
 455 0000 00B5     		push	{lr}
 456              		.cfi_def_cfa_offset 4
ARM GAS  C:\Users\sjacq\AppData\Local\Temp\ccHycdld.s 			page 9


 457              		.cfi_offset 14, -4
 458 0002 074B     		ldr	r3, .L49
 459 0004 83B0     		sub	sp, sp, #12
 460              		.cfi_def_cfa_offset 16
 461              		.loc 1 67 0
 462 0006 1A68     		ldr	r2, [r3]
 463 0008 0192     		str	r2, [sp, #4]
 464              		.loc 1 69 0
 465 000a 019A     		ldr	r2, [sp, #4]
 466 000c 1B68     		ldr	r3, [r3]
 467 000e 9A42     		cmp	r2, r3
 468 0010 04D1     		bne	.L48
 469              		.loc 1 70 0
 470 0012 03B0     		add	sp, sp, #12
 471              		.cfi_remember_state
 472              		.cfi_def_cfa_offset 4
 473              		@ sp needed
 474 0014 5DF804EB 		ldr	lr, [sp], #4
 475              		.cfi_restore 14
 476              		.cfi_def_cfa_offset 0
 477              		.loc 1 69 0
 478 0018 FFF7FEBF 		b	calibrate_gyro
 479              	.LVL28:
 480              	.L48:
 481              		.cfi_restore_state
 482 001c FFF7FEFF 		bl	__stack_chk_fail
 483              	.LVL29:
 484              	.L50:
 485              		.align	2
 486              	.L49:
 487 0020 00000000 		.word	__stack_chk_guard
 488              		.cfi_endproc
 489              	.LFE263:
 490              		.size	calibrateGyroscope, .-calibrateGyroscope
 491              		.section	.text.rawToDps,"ax",%progbits
 492              		.align	1
 493              		.p2align 4,,15
 494              		.global	rawToDps
 495              		.syntax unified
 496              		.thumb
 497              		.thumb_func
 498              		.fpu fpv4-sp-d16
 499              		.type	rawToDps, %function
 500              	rawToDps:
 501              	.LFB264:
 502              		.loc 1 77 0
 503              		.cfi_startproc
 504              		@ args = 0, pretend = 0, frame = 8
 505              		@ frame_needed = 0, uses_anonymous_args = 0
 506              	.LVL30:
 507 0000 00B5     		push	{lr}
 508              		.cfi_def_cfa_offset 4
 509              		.cfi_offset 14, -4
 510 0002 0A4B     		ldr	r3, .L55
 511              		.loc 1 80 0
 512 0004 DFED0A7A 		vldr.32	s15, .L55+4
 513              		.loc 1 77 0
ARM GAS  C:\Users\sjacq\AppData\Local\Temp\ccHycdld.s 			page 10


 514 0008 1A68     		ldr	r2, [r3]
 515 000a 83B0     		sub	sp, sp, #12
 516              		.cfi_def_cfa_offset 16
 517              		.loc 1 80 0
 518 000c 07EE100A 		vmov	s14, r0	@ int
 519              		.loc 1 77 0
 520 0010 0192     		str	r2, [sp, #4]
 521              		.loc 1 81 0
 522 0012 019A     		ldr	r2, [sp, #4]
 523 0014 1B68     		ldr	r3, [r3]
 524              		.loc 1 80 0
 525 0016 B8EEC70A 		vcvt.f32.s32	s0, s14
 526              		.loc 1 81 0
 527 001a 9A42     		cmp	r2, r3
 528 001c 20EE270A 		vmul.f32	s0, s0, s15
 529 0020 02D1     		bne	.L54
 530 0022 03B0     		add	sp, sp, #12
 531              		.cfi_remember_state
 532              		.cfi_def_cfa_offset 4
 533              		@ sp needed
 534 0024 5DF804FB 		ldr	pc, [sp], #4
 535              	.L54:
 536              		.cfi_restore_state
 537 0028 FFF7FEFF 		bl	__stack_chk_fail
 538              	.LVL31:
 539              	.L56:
 540              		.align	2
 541              	.L55:
 542 002c 00000000 		.word	__stack_chk_guard
 543 0030 2D23FA3B 		.word	1006248749
 544              		.cfi_endproc
 545              	.LFE264:
 546              		.size	rawToDps, .-rawToDps
 547              		.section	.text.rawToDpms,"ax",%progbits
 548              		.align	1
 549              		.p2align 4,,15
 550              		.global	rawToDpms
 551              		.syntax unified
 552              		.thumb
 553              		.thumb_func
 554              		.fpu fpv4-sp-d16
 555              		.type	rawToDpms, %function
 556              	rawToDpms:
 557              	.LFB265:
 558              		.loc 1 88 0
 559              		.cfi_startproc
 560              		@ args = 0, pretend = 0, frame = 8
 561              		@ frame_needed = 0, uses_anonymous_args = 0
 562              	.LVL32:
 563 0000 00B5     		push	{lr}
 564              		.cfi_def_cfa_offset 4
 565              		.cfi_offset 14, -4
 566 0002 0C4B     		ldr	r3, .L61
 567              		.loc 1 89 0
 568 0004 9FED0C7A 		vldr.32	s14, .L61+4
 569              		.loc 1 88 0
 570 0008 1A68     		ldr	r2, [r3]
ARM GAS  C:\Users\sjacq\AppData\Local\Temp\ccHycdld.s 			page 11


 571              		.loc 1 89 0
 572 000a 9FED0C0A 		vldr.32	s0, .L61+8
 573              		.loc 1 88 0
 574 000e 83B0     		sub	sp, sp, #12
 575              		.cfi_def_cfa_offset 16
 576              		.loc 1 89 0
 577 0010 07EE900A 		vmov	s15, r0	@ int
 578              		.loc 1 88 0
 579 0014 0192     		str	r2, [sp, #4]
 580              		.loc 1 89 0
 581 0016 F8EEE77A 		vcvt.f32.s32	s15, s15
 582              		.loc 1 90 0
 583 001a 019A     		ldr	r2, [sp, #4]
 584 001c 1B68     		ldr	r3, [r3]
 585              		.loc 1 89 0
 586 001e 67EE877A 		vmul.f32	s15, s15, s14
 587              		.loc 1 90 0
 588 0022 9A42     		cmp	r2, r3
 589 0024 87EE800A 		vdiv.f32	s0, s15, s0
 590 0028 02D1     		bne	.L60
 591 002a 03B0     		add	sp, sp, #12
 592              		.cfi_remember_state
 593              		.cfi_def_cfa_offset 4
 594              		@ sp needed
 595 002c 5DF804FB 		ldr	pc, [sp], #4
 596              	.L60:
 597              		.cfi_restore_state
 598 0030 FFF7FEFF 		bl	__stack_chk_fail
 599              	.LVL33:
 600              	.L62:
 601              		.align	2
 602              	.L61:
 603 0034 00000000 		.word	__stack_chk_guard
 604 0038 2D23FA3B 		.word	1006248749
 605 003c 00007A44 		.word	1148846080
 606              		.cfi_endproc
 607              	.LFE265:
 608              		.size	rawToDpms, .-rawToDpms
 609              		.text
 610              	.Letext0:
 611              		.file 2 "c:\\users\\sjacq\\desktop\\eclipse_e-puck2_win32_29_jan_2020\\eclipse_e-puck2\\tools\\gcc
 612              		.file 3 "c:\\users\\sjacq\\desktop\\eclipse_e-puck2_win32_29_jan_2020\\eclipse_e-puck2\\tools\\gcc
 613              		.file 4 "c:\\users\\sjacq\\desktop\\eclipse_e-puck2_win32_29_jan_2020\\eclipse_e-puck2\\tools\\gcc
 614              		.file 5 "../../lib/e-puck2_main-processor/ChibiOS//os/rt/ports/ARMCMx/compilers/GCC/chtypes.h"
 615              		.file 6 "../../lib/e-puck2_main-processor/ChibiOS//os/rt/include/chsystypes.h"
 616              		.file 7 "../../lib/e-puck2_main-processor/ChibiOS//os/rt/include/chschd.h"
 617              		.file 8 "../../lib/e-puck2_main-processor/ChibiOS//os/ext/CMSIS/include/core_cm4.h"
 618              		.file 9 "../../lib/e-puck2_main-processor/ChibiOS//os/ext/CMSIS/ST/system_stm32f4xx.h"
 619              		.file 10 "../../lib/e-puck2_main-processor/ChibiOS//os/ext/CMSIS/ST/stm32f407xx.h"
 620              		.file 11 "../../lib/e-puck2_main-processor/ChibiOS//os/rt/ports/ARMCMx/chcore.h"
 621              		.file 12 "../../lib/e-puck2_main-processor/ChibiOS//os/rt/ports/ARMCMx/chcore_v7m.h"
 622              		.file 13 "../../lib/e-puck2_main-processor/ChibiOS//os/rt/include/chdebug.h"
 623              		.file 14 "../../lib/e-puck2_main-processor/ChibiOS//os/rt/include/chtm.h"
 624              		.file 15 "../../lib/e-puck2_main-processor/ChibiOS//os/rt/include/chstats.h"
 625              		.file 16 "../../lib/e-puck2_main-processor/ChibiOS//os/rt/include/chsem.h"
 626              		.file 17 "../../lib/e-puck2_main-processor/ChibiOS//os/rt/include/chmtx.h"
 627              		.file 18 "../../lib/e-puck2_main-processor/ChibiOS//os/rt/include/chregistry.h"
ARM GAS  C:\Users\sjacq\AppData\Local\Temp\ccHycdld.s 			page 12


 628              		.file 19 "../../lib/e-puck2_main-processor/ChibiOS//os/rt/include/chevents.h"
 629              		.file 20 "../../lib/e-puck2_main-processor/ChibiOS//os/rt/include/chqueues.h"
 630              		.file 21 "../../lib/e-puck2_main-processor/ChibiOS//os/hal/ports/STM32/STM32F4xx/stm32_dma.h"
 631              		.file 22 "../../lib/e-puck2_main-processor/ChibiOS//os/hal/include/hal_ioblock.h"
 632              		.file 23 "../../lib/e-puck2_main-processor/ChibiOS//os/hal/ports/STM32/LLD/GPIOv2/pal_lld.h"
 633              		.file 24 "../../lib/e-puck2_main-processor/ChibiOS//os/hal/include/adc.h"
 634              		.file 25 "../../lib/e-puck2_main-processor/ChibiOS//os/hal/ports/STM32/STM32F4xx/adc_lld.h"
 635              		.file 26 "../../lib/e-puck2_main-processor/ChibiOS//os/hal/include/can.h"
 636              		.file 27 "../../lib/e-puck2_main-processor/ChibiOS//os/hal/ports/STM32/LLD/can_lld.h"
 637              		.file 28 "../../lib/e-puck2_main-processor/ChibiOS//os/hal/include/dac.h"
 638              		.file 29 "../../lib/e-puck2_main-processor/ChibiOS//os/hal/ports/STM32/LLD/DACv1/dac_lld.h"
 639              		.file 30 "../../lib/e-puck2_main-processor/ChibiOS//os/hal/include/ext.h"
 640              		.file 31 "../../lib/e-puck2_main-processor/ChibiOS//os/hal/ports/STM32/LLD/ext_lld.h"
 641              		.file 32 "../../lib/e-puck2_main-processor/ChibiOS//os/hal/include/gpt.h"
 642              		.file 33 "../../lib/e-puck2_main-processor/ChibiOS//os/hal/ports/STM32/LLD/TIMv1/gpt_lld.h"
 643              		.file 34 "../../lib/e-puck2_main-processor/ChibiOS//os/hal/ports/STM32/LLD/TIMv1/stm32_tim.h"
 644              		.file 35 "../../lib/e-puck2_main-processor/ChibiOS//os/hal/include/i2c.h"
 645              		.file 36 "../../lib/e-puck2_main-processor/ChibiOS//os/hal/ports/STM32/LLD/I2Cv1/i2c_lld.h"
 646              		.file 37 "../../lib/e-puck2_main-processor/ChibiOS//os/hal/include/i2s.h"
 647              		.file 38 "../../lib/e-puck2_main-processor/ChibiOS//os/hal/ports/STM32/LLD/SPIv1/i2s_lld.h"
 648              		.file 39 "../../lib/e-puck2_main-processor/ChibiOS//os/hal/include/pwm.h"
 649              		.file 40 "../../lib/e-puck2_main-processor/ChibiOS//os/hal/ports/STM32/LLD/TIMv1/pwm_lld.h"
 650              		.file 41 "../../lib/e-puck2_main-processor/ChibiOS//os/hal/include/serial.h"
 651              		.file 42 "../../lib/e-puck2_main-processor/ChibiOS//os/hal/ports/STM32/LLD/USARTv1/serial_lld.h"
 652              		.file 43 "../../lib/e-puck2_main-processor/ChibiOS//os/hal/include/sdc.h"
 653              		.file 44 "../../lib/e-puck2_main-processor/ChibiOS//os/hal/ports/STM32/LLD/sdc_lld.h"
 654              		.file 45 "../../lib/e-puck2_main-processor/ChibiOS//os/hal/include/spi.h"
 655              		.file 46 "../../lib/e-puck2_main-processor/ChibiOS//os/hal/ports/STM32/LLD/SPIv1/spi_lld.h"
 656              		.file 47 "../../lib/e-puck2_main-processor/ChibiOS//os/hal/include/usb.h"
 657              		.file 48 "../../lib/e-puck2_main-processor/ChibiOS//os/hal/ports/STM32/LLD/OTGv1/usb_lld.h"
 658              		.file 49 "../../lib/e-puck2_main-processor/ChibiOS//os/hal/ports/STM32/LLD/OTGv1/stm32_otg.h"
 659              		.file 50 "c:\\users\\sjacq\\desktop\\eclipse_e-puck2_win32_29_jan_2020\\eclipse_e-puck2\\tools\\gc
 660              		.file 51 "../../lib/e-puck2_main-processor/src/epuck1x/../sensors/imu.h"