ARM GAS  C:\Users\sjacq\AppData\Local\Temp\cchqjAcS.s 			page 1


   1              		.cpu cortex-m4
   2              		.eabi_attribute 27, 1
   3              		.eabi_attribute 28, 1
   4              		.eabi_attribute 20, 1
   5              		.eabi_attribute 21, 1
   6              		.eabi_attribute 23, 3
   7              		.eabi_attribute 24, 1
   8              		.eabi_attribute 25, 1
   9              		.eabi_attribute 26, 1
  10              		.eabi_attribute 30, 2
  11              		.eabi_attribute 34, 1
  12              		.eabi_attribute 18, 4
  13              		.file	"imu.c"
  14              		.text
  15              	.Ltext0:
  16              		.cfi_sections	.debug_frame
  17              		.section	.text.imu_reader_thd,"ax",%progbits
  18              		.align	1
  19              		.p2align 4,,15
  20              		.syntax unified
  21              		.thumb
  22              		.thumb_func
  23              		.fpu fpv4-sp-d16
  24              		.type	imu_reader_thd, %function
  25              	imu_reader_thd:
  26              	.LFB257:
  27              		.file 1 "../../lib/e-puck2_main-processor/src/sensors/imu.c"
  28              		.loc 1 40 0
  29              		.cfi_startproc
  30              		@ args = 0, pretend = 0, frame = 160
  31              		@ frame_needed = 0, uses_anonymous_args = 0
  32              	.LVL0:
  33 0000 2DE9F04F 		push	{r4, r5, r6, r7, r8, r9, r10, fp, lr}
  34              		.cfi_def_cfa_offset 36
  35              		.cfi_offset 4, -36
  36              		.cfi_offset 5, -32
  37              		.cfi_offset 6, -28
  38              		.cfi_offset 7, -24
  39              		.cfi_offset 8, -20
  40              		.cfi_offset 9, -16
  41              		.cfi_offset 10, -12
  42              		.cfi_offset 11, -8
  43              		.cfi_offset 14, -4
  44              	.LBB70:
  45              	.LBB71:
  46              		.file 2 "../../lib/e-puck2_main-processor/ChibiOS//os/rt/include/chregistry.h"
  47              		.loc 2 135 0
  48 0004 7D4C     		ldr	r4, .L29
  49 0006 7E4A     		ldr	r2, .L29+4
  50 0008 A369     		ldr	r3, [r4, #24]
  51              	.LBE71:
  52              	.LBE70:
  53              		.loc 1 48 0
  54 000a 7E48     		ldr	r0, .L29+8
  55              	.LVL1:
  56              	.LBB73:
  57              	.LBB72:
ARM GAS  C:\Users\sjacq\AppData\Local\Temp\cchqjAcS.s 			page 2


  58              		.loc 2 135 0
  59 000c 9A61     		str	r2, [r3, #24]
  60              	.LBE72:
  61              	.LBE73:
  62              		.loc 1 40 0
  63 000e 7E4A     		ldr	r2, .L29+12
  64 0010 AFB0     		sub	sp, sp, #188
  65              		.cfi_def_cfa_offset 224
  66              		.loc 1 48 0
  67 0012 0123     		movs	r3, #1
  68              		.loc 1 40 0
  69 0014 1268     		ldr	r2, [r2]
  70 0016 2D92     		str	r2, [sp, #180]
  71              		.loc 1 48 0
  72 0018 0CA9     		add	r1, sp, #48
  73 001a 1A46     		mov	r2, r3
  74 001c FFF7FEFF 		bl	chEvtRegisterMaskWithFlags
  75              	.LVL2:
  76              		.loc 1 54 0
  77 0020 11AD     		add	r5, sp, #68
  78              		.loc 1 55 0
  79 0022 0AAB     		add	r3, sp, #40
  80              		.loc 1 56 0
  81 0024 5022     		movs	r2, #80
  82 0026 2946     		mov	r1, r5
  83 0028 0092     		str	r2, [sp]
  84 002a 16A8     		add	r0, sp, #88
  85 002c 1A46     		mov	r2, r3
  86              		.loc 1 54 0
  87 002e CDE91155 		strd	r5, r5, [sp, #68]
  88              		.loc 1 55 0
  89 0032 CDE90A33 		strd	r3, r3, [sp, #40]
  90              		.loc 1 54 0
  91 0036 0025     		movs	r5, #0
  92              		.loc 1 56 0
  93 0038 744B     		ldr	r3, .L29+16
  94              		.loc 1 54 0
  95 003a 1595     		str	r5, [sp, #84]
  96 003c CDE91355 		strd	r5, r5, [sp, #76]
  97              		.loc 1 56 0
  98 0040 FFF7FEFF 		bl	messagebus_topic_init
  99              	.LVL3:
 100              		.loc 1 57 0
 101 0044 16A9     		add	r1, sp, #88
 102 0046 724A     		ldr	r2, .L29+20
 103 0048 7248     		ldr	r0, .L29+24
 104 004a FFF7FEFF 		bl	messagebus_advertise_topic
 105              	.LVL4:
 106              	.LBB74:
 107              	.LBB75:
 108              		.file 3 "../../lib/e-puck2_main-processor/ChibiOS//os/rt/include/chthreads.h"
 109              		.loc 3 233 0
 110 004e A369     		ldr	r3, [r4, #24]
 111              	.LBE75:
 112              	.LBE74:
 113              		.loc 1 65 0
 114 0050 93F82160 		ldrb	r6, [r3, #33]	@ zero_extendqisi2
ARM GAS  C:\Users\sjacq\AppData\Local\Temp\cchqjAcS.s 			page 3


 115 0054 16F00406 		ands	r6, r6, #4
 116 0058 40F08380 		bne	.L1
 117 005c 6B4F     		ldr	r7, .L29+16
 118 005e DFF8E0B1 		ldr	fp, .L29+68
 119 0062 DFF8E091 		ldr	r9, .L29+72
 120 0066 DFF8E081 		ldr	r8, .L29+76
 121              		.loc 1 75 0
 122 006a 07F13403 		add	r3, r7, #52
 123              		.loc 1 61 0
 124 006e B246     		mov	r10, r6
 125              		.loc 1 59 0
 126 0070 CDE90766 		strd	r6, r6, [sp, #28]
 127              		.loc 1 75 0
 128 0074 0993     		str	r3, [sp, #36]
 129 0076 3FE0     		b	.L11
 130              	.LVL5:
 131              	.L4:
 132              		.loc 1 82 0
 133 0078 5022     		movs	r2, #80
 134 007a 6449     		ldr	r1, .L29+16
 135 007c 16A8     		add	r0, sp, #88
 136 007e FFF7FEFF 		bl	messagebus_topic_publish
 137              	.LVL6:
 138              		.loc 1 84 0
 139 0082 99F80030 		ldrb	r3, [r9]	@ zero_extendqisi2
 140 0086 B3B1     		cbz	r3, .L5
 141              		.loc 1 85 0
 142 0088 634A     		ldr	r2, .L29+28
 143 008a 1378     		ldrb	r3, [r2]	@ zero_extendqisi2
 144 008c 002B     		cmp	r3, #0
 145 008e 70D0     		beq	.L6
 146 0090 012B     		cmp	r3, #1
 147 0092 10D1     		bne	.L5
 148              		.loc 1 94 0
 149 0094 614B     		ldr	r3, .L29+32
 150              		.loc 1 95 0
 151 0096 0798     		ldr	r0, [sp, #28]
 152              		.loc 1 94 0
 153 0098 1B78     		ldrb	r3, [r3]	@ zero_extendqisi2
 154              		.loc 1 96 0
 155 009a 614A     		ldr	r2, .L29+36
 156              		.loc 1 94 0
 157 009c 03F11401 		add	r1, r3, #20
 158              		.loc 1 96 0
 159 00a0 1278     		ldrb	r2, [r2]	@ zero_extendqisi2
 160              		.loc 1 94 0
 161 00a2 37F911C0 		ldrsh	ip, [r7, r1, lsl #1]
 162 00a6 0899     		ldr	r1, [sp, #32]
 163              		.loc 1 95 0
 164 00a8 0130     		adds	r0, r0, #1
 165 00aa C0B2     		uxtb	r0, r0
 166              		.loc 1 94 0
 167 00ac 6144     		add	r1, r1, ip
 168              		.loc 1 96 0
 169 00ae 8242     		cmp	r2, r0
 170              		.loc 1 95 0
 171 00b0 0790     		str	r0, [sp, #28]
ARM GAS  C:\Users\sjacq\AppData\Local\Temp\cchqjAcS.s 			page 4


 172              	.LVL7:
 173              		.loc 1 94 0
 174 00b2 0891     		str	r1, [sp, #32]
 175              	.LVL8:
 176              		.loc 1 96 0
 177 00b4 71D0     		beq	.L26
 178              	.LVL9:
 179              	.L5:
 180              		.loc 1 108 0
 181 00b6 98F80030 		ldrb	r3, [r8]	@ zero_extendqisi2
 182 00ba A3B1     		cbz	r3, .L8
 183              		.loc 1 109 0
 184 00bc 594A     		ldr	r2, .L29+40
 185 00be 1378     		ldrb	r3, [r2]	@ zero_extendqisi2
 186 00c0 002B     		cmp	r3, #0
 187 00c2 60D0     		beq	.L9
 188 00c4 012B     		cmp	r3, #1
 189 00c6 0ED1     		bne	.L8
 190              		.loc 1 118 0
 191 00c8 574B     		ldr	r3, .L29+44
 192              		.loc 1 120 0
 193 00ca 584A     		ldr	r2, .L29+48
 194              		.loc 1 118 0
 195 00cc 1B78     		ldrb	r3, [r3]	@ zero_extendqisi2
 196              		.loc 1 120 0
 197 00ce 1278     		ldrb	r2, [r2]	@ zero_extendqisi2
 198              		.loc 1 118 0
 199 00d0 07EB4301 		add	r1, r7, r3, lsl #1
 200              		.loc 1 119 0
 201 00d4 0AF1010A 		add	r10, r10, #1
 202              	.LVL10:
 203              		.loc 1 118 0
 204 00d8 B1F92E10 		ldrsh	r1, [r1, #46]
 205              		.loc 1 119 0
 206 00dc 5FFA8AFA 		uxtb	r10, r10
 207              		.loc 1 120 0
 208 00e0 5245     		cmp	r2, r10
 209              		.loc 1 118 0
 210 00e2 0E44     		add	r6, r6, r1
 211              	.LVL11:
 212              		.loc 1 120 0
 213 00e4 72D0     		beq	.L27
 214              	.LVL12:
 215              	.L8:
 216              		.loc 1 132 0
 217 00e6 291D     		adds	r1, r5, #4
 218 00e8 2846     		mov	r0, r5
 219 00ea FFF7FEFF 		bl	chThdSleepUntilWindowed
 220              	.LVL13:
 221              	.LBB77:
 222              	.LBB76:
 223              		.loc 3 233 0
 224 00ee A369     		ldr	r3, [r4, #24]
 225              	.LBE76:
 226              	.LBE77:
 227              		.loc 1 65 0
 228 00f0 93F82130 		ldrb	r3, [r3, #33]	@ zero_extendqisi2
ARM GAS  C:\Users\sjacq\AppData\Local\Temp\cchqjAcS.s 			page 5


 229 00f4 5B07     		lsls	r3, r3, #29
 230 00f6 34D4     		bmi	.L1
 231              	.LVL14:
 232              	.L11:
 233              	.LBB78:
 234              	.LBB79:
 235              	.LBB80:
 236              	.LBB81:
 237              	.LBB82:
 238              	.LBB83:
 239              	.LBB84:
 240              		.file 4 "../../lib/e-puck2_main-processor/ChibiOS//os/ext/CMSIS/include/core_cmFunc.h"
 241              		.loc 4 546 0
 242 00f8 2023     		movs	r3, #32
 243              		.syntax unified
 244              	@ 546 "../../lib/e-puck2_main-processor/ChibiOS//os/ext/CMSIS/include/core_cmFunc.h" 1
 245 00fa 83F31188 		MSR basepri, r3
 246              	@ 0 "" 2
 247              	.LVL15:
 248              		.thumb
 249              		.syntax unified
 250              	.LBE84:
 251              	.LBE83:
 252              	.LBE82:
 253              		.file 5 "../../lib/e-puck2_main-processor/ChibiOS//os/rt/include/chsys.h"
 254              		.loc 5 349 0
 255 00fe FFF7FEFF 		bl	_stats_start_measure_crit_thd
 256              	.LVL16:
 257              		.loc 5 350 0
 258 0102 FFF7FEFF 		bl	_dbg_check_lock
 259              	.LVL17:
 260              	.LBE81:
 261              	.LBE80:
 262              	.LBB85:
 263              	.LBB86:
 264              		.file 6 "../../lib/e-puck2_main-processor/ChibiOS//os/rt/include/chvt.h"
 265              		.loc 6 231 0
 266 0106 A56A     		ldr	r5, [r4, #40]
 267              	.LBE86:
 268              	.LBE85:
 269              	.LBB87:
 270              	.LBB88:
 271              		.loc 5 360 0
 272 0108 FFF7FEFF 		bl	_dbg_check_unlock
 273              	.LVL18:
 274              		.loc 5 361 0
 275 010c FFF7FEFF 		bl	_stats_stop_measure_crit_thd
 276              	.LVL19:
 277              		.loc 5 367 0
 278 0110 2368     		ldr	r3, [r4]
 279 0112 A342     		cmp	r3, r4
 280 0114 07D0     		beq	.L3
 281 0116 A269     		ldr	r2, [r4, #24]
 282 0118 9B68     		ldr	r3, [r3, #8]
 283 011a 9268     		ldr	r2, [r2, #8]
 284 011c 9A42     		cmp	r2, r3
 285 011e 02D2     		bcs	.L3
ARM GAS  C:\Users\sjacq\AppData\Local\Temp\cchqjAcS.s 			page 6


 286 0120 4348     		ldr	r0, .L29+52
 287 0122 FFF7FEFF 		bl	chSysHalt
 288              	.LVL20:
 289              	.L3:
 290              	.LBB89:
 291              	.LBB90:
 292              	.LBB91:
 293              		.loc 4 546 0
 294 0126 0023     		movs	r3, #0
 295              		.syntax unified
 296              	@ 546 "../../lib/e-puck2_main-processor/ChibiOS//os/ext/CMSIS/include/core_cmFunc.h" 1
 297 0128 83F31188 		MSR basepri, r3
 298              	@ 0 "" 2
 299              	.LVL21:
 300              		.thumb
 301              		.syntax unified
 302              	.LBE91:
 303              	.LBE90:
 304              	.LBE89:
 305              	.LBE88:
 306              	.LBE87:
 307              	.LBE79:
 308              	.LBE78:
 309              		.loc 1 73 0
 310 012c 9BF80030 		ldrb	r3, [fp]	@ zero_extendqisi2
 311 0130 002B     		cmp	r3, #0
 312 0132 A1D0     		beq	.L4
 313              		.loc 1 75 0
 314 0134 3F48     		ldr	r0, .L29+56
 315 0136 0999     		ldr	r1, [sp, #36]
 316 0138 00F11203 		add	r3, r0, #18
 317 013c A0F11202 		sub	r2, r0, #18
 318 0140 0493     		str	r3, [sp, #16]
 319 0142 A0F10C03 		sub	r3, r0, #12
 320 0146 CDE90201 		strd	r0, r1, [sp, #8]
 321 014a CDE90032 		strd	r3, r2, [sp]
 322 014e A0F13A01 		sub	r1, r0, #58
 323 0152 A0F11E03 		sub	r3, r0, #30
 324 0156 A0F12202 		sub	r2, r0, #34
 325 015a 2E38     		subs	r0, r0, #46
 326 015c FFF7FEFF 		bl	mpu9250_read
 327              	.LVL22:
 328 0160 8AE7     		b	.L4
 329              	.LVL23:
 330              	.L1:
 331              		.loc 1 135 0
 332 0162 294B     		ldr	r3, .L29+12
 333 0164 2D9A     		ldr	r2, [sp, #180]
 334 0166 1B68     		ldr	r3, [r3]
 335 0168 9A42     		cmp	r2, r3
 336 016a 45D1     		bne	.L28
 337 016c 2FB0     		add	sp, sp, #188
 338              		.cfi_remember_state
 339              		.cfi_def_cfa_offset 36
 340              		@ sp needed
 341 016e BDE8F08F 		pop	{r4, r5, r6, r7, r8, r9, r10, fp, pc}
 342              	.LVL24:
ARM GAS  C:\Users\sjacq\AppData\Local\Temp\cchqjAcS.s 			page 7


 343              	.L6:
 344              		.cfi_restore_state
 345              		.loc 1 87 0
 346 0172 2A49     		ldr	r1, .L29+32
 347              		.loc 1 88 0
 348 0174 0893     		str	r3, [sp, #32]
 349              	.LVL25:
 350              		.loc 1 87 0
 351 0176 0978     		ldrb	r1, [r1]	@ zero_extendqisi2
 352              		.loc 1 89 0
 353 0178 0793     		str	r3, [sp, #28]
 354              	.LVL26:
 355              		.loc 1 87 0
 356 017a 07EB4101 		add	r1, r7, r1, lsl #1
 357              		.loc 1 90 0
 358 017e 0120     		movs	r0, #1
 359              		.loc 1 87 0
 360 0180 8B86     		strh	r3, [r1, #52]	@ movhi
 361              	.LVL27:
 362              		.loc 1 90 0
 363 0182 1070     		strb	r0, [r2]
 364              		.loc 1 91 0
 365 0184 97E7     		b	.L5
 366              	.LVL28:
 367              	.L9:
 368              		.loc 1 111 0
 369 0186 2849     		ldr	r1, .L29+44
 370 0188 0978     		ldrb	r1, [r1]	@ zero_extendqisi2
 371 018a 07EB4101 		add	r1, r7, r1, lsl #1
 372              		.loc 1 114 0
 373 018e 0120     		movs	r0, #1
 374              		.loc 1 112 0
 375 0190 1E46     		mov	r6, r3
 376              	.LVL29:
 377              		.loc 1 111 0
 378 0192 4B87     		strh	r3, [r1, #58]	@ movhi
 379              	.LVL30:
 380              		.loc 1 113 0
 381 0194 9A46     		mov	r10, r3
 382              		.loc 1 114 0
 383 0196 1070     		strb	r0, [r2]
 384              		.loc 1 115 0
 385 0198 A5E7     		b	.L8
 386              	.LVL31:
 387              	.L26:
 388              		.loc 1 97 0
 389 019a 0A46     		mov	r2, r1
 390 019c 92FBF0F2 		sdiv	r2, r2, r0
 391              		.loc 1 99 0
 392 01a0 2548     		ldr	r0, .L29+60
 393              	.LVL32:
 394 01a2 90F800E0 		ldrb	lr, [r0]	@ zero_extendqisi2
 395              		.loc 1 97 0
 396 01a6 03F12001 		add	r1, r3, #32
 397              	.LVL33:
 398 01aa 12B2     		sxth	r2, r2
 399              		.loc 1 98 0
ARM GAS  C:\Users\sjacq\AppData\Local\Temp\cchqjAcS.s 			page 8


 400 01ac 4FF0000C 		mov	ip, #0
 401              		.loc 1 99 0
 402 01b0 BEF1010F 		cmp	lr, #1
 403              		.loc 1 97 0
 404 01b4 27F81120 		strh	r2, [r7, r1, lsl #1]	@ movhi
 405              		.loc 1 98 0
 406 01b8 89F800C0 		strb	ip, [r9]
 407              		.loc 1 99 0
 408 01bc 7FF47BAF 		bne	.L5
 409              		.loc 1 100 0
 410 01c0 07EB4303 		add	r3, r7, r3, lsl #1
 411              		.loc 1 101 0
 412 01c4 80F800C0 		strb	ip, [r0]
 413              		.loc 1 100 0
 414 01c8 9A86     		strh	r2, [r3, #52]	@ movhi
 415 01ca 74E7     		b	.L5
 416              	.L27:
 417              		.loc 1 123 0
 418 01cc 1B48     		ldr	r0, .L29+64
 419              		.loc 1 121 0
 420 01ce 96FBFAF2 		sdiv	r2, r6, r10
 421              		.loc 1 123 0
 422 01d2 90F800E0 		ldrb	lr, [r0]	@ zero_extendqisi2
 423              		.loc 1 121 0
 424 01d6 07EB4301 		add	r1, r7, r3, lsl #1
 425 01da 12B2     		sxth	r2, r2
 426              		.loc 1 122 0
 427 01dc 4FF0000C 		mov	ip, #0
 428              		.loc 1 123 0
 429 01e0 BEF1010F 		cmp	lr, #1
 430              		.loc 1 121 0
 431 01e4 A1F84620 		strh	r2, [r1, #70]	@ movhi
 432              		.loc 1 122 0
 433 01e8 88F800C0 		strb	ip, [r8]
 434              		.loc 1 123 0
 435 01ec 7FF47BAF 		bne	.L8
 436              		.loc 1 125 0
 437 01f0 80F800C0 		strb	ip, [r0]
 438              		.loc 1 124 0
 439 01f4 4A87     		strh	r2, [r1, #58]	@ movhi
 440 01f6 76E7     		b	.L8
 441              	.LVL34:
 442              	.L28:
 443              		.loc 1 135 0
 444 01f8 FFF7FEFF 		bl	__stack_chk_fail
 445              	.LVL35:
 446              	.L30:
 447              		.align	2
 448              	.L29:
 449 01fc 00000000 		.word	ch
 450 0200 00000000 		.word	.LANCHOR0
 451 0204 00000000 		.word	exti_events
 452 0208 00000000 		.word	__stack_chk_guard
 453 020c 00000000 		.word	.LANCHOR1
 454 0210 00000000 		.word	.LC0
 455 0214 00000000 		.word	bus
 456 0218 00000000 		.word	.LANCHOR5
ARM GAS  C:\Users\sjacq\AppData\Local\Temp\cchqjAcS.s 			page 9


 457 021c 00000000 		.word	.LANCHOR6
 458 0220 00000000 		.word	.LANCHOR7
 459 0224 00000000 		.word	.LANCHOR10
 460 0228 00000000 		.word	.LANCHOR11
 461 022c 00000000 		.word	.LANCHOR12
 462 0230 00000000 		.word	.LANCHOR2
 463 0234 3A000000 		.word	.LANCHOR1+58
 464 0238 00000000 		.word	.LANCHOR8
 465 023c 00000000 		.word	.LANCHOR13
 466 0240 00000000 		.word	.LANCHOR3
 467 0244 00000000 		.word	.LANCHOR4
 468 0248 00000000 		.word	.LANCHOR9
 469              		.cfi_endproc
 470              	.LFE257:
 471              		.size	imu_reader_thd, .-imu_reader_thd
 472              		.section	.text.get_acc_filtered.part.0,"ax",%progbits
 473              		.align	1
 474              		.p2align 4,,15
 475              		.syntax unified
 476              		.thumb
 477              		.thumb_func
 478              		.fpu fpv4-sp-d16
 479              		.type	get_acc_filtered.part.0, %function
 480              	get_acc_filtered.part.0:
 481              	.LFB274:
 482              		.loc 1 221 0
 483              		.cfi_startproc
 484              		@ args = 0, pretend = 0, frame = 8
 485              		@ frame_needed = 0, uses_anonymous_args = 0
 486              	.LVL36:
 487 0000 70B5     		push	{r4, r5, r6, lr}
 488              		.cfi_def_cfa_offset 16
 489              		.cfi_offset 4, -16
 490              		.cfi_offset 5, -12
 491              		.cfi_offset 6, -8
 492              		.cfi_offset 14, -4
 493              		.loc 1 223 0
 494 0002 124B     		ldr	r3, .L41
 495              		.loc 1 221 0
 496 0004 124E     		ldr	r6, .L41+4
 497              		.loc 1 223 0
 498 0006 1B78     		ldrb	r3, [r3]	@ zero_extendqisi2
 499              		.loc 1 221 0
 500 0008 3268     		ldr	r2, [r6]
 501 000a 82B0     		sub	sp, sp, #8
 502              		.cfi_def_cfa_offset 24
 503              		.loc 1 221 0
 504 000c 0446     		mov	r4, r0
 505 000e 0192     		str	r2, [sp, #4]
 506              		.loc 1 223 0
 507 0010 7BB1     		cbz	r3, .L32
 508              		.loc 1 226 0
 509 0012 1048     		ldr	r0, .L41+8
 510              	.LVL37:
 511              		.loc 1 224 0
 512 0014 104A     		ldr	r2, .L41+12
 513              		.loc 1 225 0
ARM GAS  C:\Users\sjacq\AppData\Local\Temp\cchqjAcS.s 			page 10


 514 0016 114D     		ldr	r5, .L41+16
 515              		.loc 1 227 0
 516 0018 114B     		ldr	r3, .L41+20
 517              		.loc 1 226 0
 518 001a 0470     		strb	r4, [r0]
 519              		.loc 1 224 0
 520 001c 0020     		movs	r0, #0
 521 001e 1070     		strb	r0, [r2]
 522              		.loc 1 225 0
 523 0020 0122     		movs	r2, #1
 524 0022 2A70     		strb	r2, [r5]
 525              		.loc 1 227 0
 526 0024 1970     		strb	r1, [r3]
 527              	.LVL38:
 528              	.L33:
 529              		.loc 1 229 0
 530 0026 1420     		movs	r0, #20
 531 0028 FFF7FEFF 		bl	chThdSleep
 532              	.LVL39:
 533              		.loc 1 228 0
 534 002c 2B78     		ldrb	r3, [r5]	@ zero_extendqisi2
 535 002e 002B     		cmp	r3, #0
 536 0030 F9D1     		bne	.L33
 537              	.L32:
 538              		.loc 1 235 0
 539 0032 019A     		ldr	r2, [sp, #4]
 540 0034 3368     		ldr	r3, [r6]
 541              		.loc 1 232 0
 542 0036 0B49     		ldr	r1, .L41+24
 543 0038 2034     		adds	r4, r4, #32
 544              		.loc 1 235 0
 545 003a 9A42     		cmp	r2, r3
 546 003c 31F91400 		ldrsh	r0, [r1, r4, lsl #1]
 547 0040 01D1     		bne	.L40
 548 0042 02B0     		add	sp, sp, #8
 549              		.cfi_remember_state
 550              		.cfi_def_cfa_offset 16
 551              		@ sp needed
 552 0044 70BD     		pop	{r4, r5, r6, pc}
 553              	.L40:
 554              		.cfi_restore_state
 555 0046 FFF7FEFF 		bl	__stack_chk_fail
 556              	.LVL40:
 557              	.L42:
 558 004a 00BF     		.align	2
 559              	.L41:
 560 004c 00000000 		.word	.LANCHOR3
 561 0050 00000000 		.word	__stack_chk_guard
 562 0054 00000000 		.word	.LANCHOR6
 563 0058 00000000 		.word	.LANCHOR5
 564 005c 00000000 		.word	.LANCHOR4
 565 0060 00000000 		.word	.LANCHOR7
 566 0064 00000000 		.word	.LANCHOR1
 567              		.cfi_endproc
 568              	.LFE274:
 569              		.size	get_acc_filtered.part.0, .-get_acc_filtered.part.0
 570              		.section	.text.get_gyro_filtered.part.1,"ax",%progbits
ARM GAS  C:\Users\sjacq\AppData\Local\Temp\cchqjAcS.s 			page 11


 571              		.align	1
 572              		.p2align 4,,15
 573              		.syntax unified
 574              		.thumb
 575              		.thumb_func
 576              		.fpu fpv4-sp-d16
 577              		.type	get_gyro_filtered.part.1, %function
 578              	get_gyro_filtered.part.1:
 579              	.LFB275:
 580              		.loc 1 278 0
 581              		.cfi_startproc
 582              		@ args = 0, pretend = 0, frame = 8
 583              		@ frame_needed = 0, uses_anonymous_args = 0
 584              	.LVL41:
 585 0000 70B5     		push	{r4, r5, r6, lr}
 586              		.cfi_def_cfa_offset 16
 587              		.cfi_offset 4, -16
 588              		.cfi_offset 5, -12
 589              		.cfi_offset 6, -8
 590              		.cfi_offset 14, -4
 591              		.loc 1 280 0
 592 0002 124B     		ldr	r3, .L53
 593              		.loc 1 278 0
 594 0004 124D     		ldr	r5, .L53+4
 595              		.loc 1 280 0
 596 0006 1B78     		ldrb	r3, [r3]	@ zero_extendqisi2
 597              		.loc 1 278 0
 598 0008 2A68     		ldr	r2, [r5]
 599 000a 82B0     		sub	sp, sp, #8
 600              		.cfi_def_cfa_offset 24
 601              		.loc 1 278 0
 602 000c 0646     		mov	r6, r0
 603 000e 0192     		str	r2, [sp, #4]
 604              		.loc 1 280 0
 605 0010 7BB1     		cbz	r3, .L44
 606              		.loc 1 283 0
 607 0012 1048     		ldr	r0, .L53+8
 608              	.LVL42:
 609              		.loc 1 281 0
 610 0014 104A     		ldr	r2, .L53+12
 611              		.loc 1 282 0
 612 0016 114C     		ldr	r4, .L53+16
 613              		.loc 1 284 0
 614 0018 114B     		ldr	r3, .L53+20
 615              		.loc 1 283 0
 616 001a 0670     		strb	r6, [r0]
 617              		.loc 1 281 0
 618 001c 0020     		movs	r0, #0
 619 001e 1070     		strb	r0, [r2]
 620              		.loc 1 282 0
 621 0020 0122     		movs	r2, #1
 622 0022 2270     		strb	r2, [r4]
 623              		.loc 1 284 0
 624 0024 1970     		strb	r1, [r3]
 625              	.LVL43:
 626              	.L45:
 627              		.loc 1 286 0
ARM GAS  C:\Users\sjacq\AppData\Local\Temp\cchqjAcS.s 			page 12


 628 0026 1420     		movs	r0, #20
 629 0028 FFF7FEFF 		bl	chThdSleep
 630              	.LVL44:
 631              		.loc 1 285 0
 632 002c 2378     		ldrb	r3, [r4]	@ zero_extendqisi2
 633 002e 002B     		cmp	r3, #0
 634 0030 F9D1     		bne	.L45
 635              	.L44:
 636              		.loc 1 289 0
 637 0032 0C48     		ldr	r0, .L53+24
 638              		.loc 1 292 0
 639 0034 019A     		ldr	r2, [sp, #4]
 640 0036 2B68     		ldr	r3, [r5]
 641              		.loc 1 289 0
 642 0038 00EB4600 		add	r0, r0, r6, lsl #1
 643              		.loc 1 292 0
 644 003c 9A42     		cmp	r2, r3
 645 003e B0F94600 		ldrsh	r0, [r0, #70]
 646 0042 01D1     		bne	.L52
 647 0044 02B0     		add	sp, sp, #8
 648              		.cfi_remember_state
 649              		.cfi_def_cfa_offset 16
 650              		@ sp needed
 651 0046 70BD     		pop	{r4, r5, r6, pc}
 652              	.L52:
 653              		.cfi_restore_state
 654 0048 FFF7FEFF 		bl	__stack_chk_fail
 655              	.LVL45:
 656              	.L54:
 657              		.align	2
 658              	.L53:
 659 004c 00000000 		.word	.LANCHOR3
 660 0050 00000000 		.word	__stack_chk_guard
 661 0054 00000000 		.word	.LANCHOR11
 662 0058 00000000 		.word	.LANCHOR10
 663 005c 00000000 		.word	.LANCHOR9
 664 0060 00000000 		.word	.LANCHOR12
 665 0064 00000000 		.word	.LANCHOR1
 666              		.cfi_endproc
 667              	.LFE275:
 668              		.size	get_gyro_filtered.part.1, .-get_gyro_filtered.part.1
 669              		.section	.text.imu_start,"ax",%progbits
 670              		.align	1
 671              		.p2align 4,,15
 672              		.global	imu_start
 673              		.syntax unified
 674              		.thumb
 675              		.thumb_func
 676              		.fpu fpv4-sp-d16
 677              		.type	imu_start, %function
 678              	imu_start:
 679              	.LFB258:
 680              		.loc 1 143 0
 681              		.cfi_startproc
 682              		@ args = 0, pretend = 0, frame = 8
 683              		@ frame_needed = 0, uses_anonymous_args = 0
 684 0000 30B5     		push	{r4, r5, lr}
ARM GAS  C:\Users\sjacq\AppData\Local\Temp\cchqjAcS.s 			page 13


 685              		.cfi_def_cfa_offset 12
 686              		.cfi_offset 4, -12
 687              		.cfi_offset 5, -8
 688              		.cfi_offset 14, -4
 689              		.loc 1 146 0
 690 0002 124D     		ldr	r5, .L62
 691              		.loc 1 143 0
 692 0004 124C     		ldr	r4, .L62+4
 693              		.loc 1 146 0
 694 0006 2B78     		ldrb	r3, [r5]	@ zero_extendqisi2
 695              		.loc 1 143 0
 696 0008 2268     		ldr	r2, [r4]
 697 000a 85B0     		sub	sp, sp, #20
 698              		.cfi_def_cfa_offset 32
 699              		.loc 1 143 0
 700 000c 0392     		str	r2, [sp, #12]
 701              	.LVL46:
 702              		.loc 1 146 0
 703 000e 2BB1     		cbz	r3, .L60
 704              	.LVL47:
 705              	.L55:
 706              		.loc 1 168 0
 707 0010 039A     		ldr	r2, [sp, #12]
 708 0012 2368     		ldr	r3, [r4]
 709 0014 9A42     		cmp	r2, r3
 710 0016 16D1     		bne	.L61
 711 0018 05B0     		add	sp, sp, #20
 712              		.cfi_remember_state
 713              		.cfi_def_cfa_offset 12
 714              		@ sp needed
 715 001a 30BD     		pop	{r4, r5, pc}
 716              	.LVL48:
 717              	.L60:
 718              		.cfi_restore_state
 719              		.loc 1 150 0
 720 001c FFF7FEFF 		bl	i2c_start
 721              	.LVL49:
 722              		.loc 1 152 0
 723 0020 4FF4C840 		mov	r0, #25600
 724 0024 FFF7FEFF 		bl	mpu9250_setup
 725              	.LVL50:
 726              		.loc 1 163 0
 727 0028 08B9     		cbnz	r0, .L57
 728              		.loc 1 164 0
 729 002a 0123     		movs	r3, #1
 730 002c 2B70     		strb	r3, [r5]
 731              	.L57:
 732              		.loc 1 167 0
 733 002e 0023     		movs	r3, #0
 734 0030 0093     		str	r3, [sp]
 735 0032 0848     		ldr	r0, .L62+8
 736              	.LVL51:
 737 0034 084B     		ldr	r3, .L62+12
 738 0036 4022     		movs	r2, #64
 739 0038 4FF45E71 		mov	r1, #888
 740 003c FFF7FEFF 		bl	chThdCreateStatic
 741              	.LVL52:
ARM GAS  C:\Users\sjacq\AppData\Local\Temp\cchqjAcS.s 			page 14


 742 0040 064B     		ldr	r3, .L62+16
 743 0042 1860     		str	r0, [r3]
 744 0044 E4E7     		b	.L55
 745              	.L61:
 746              		.loc 1 168 0
 747 0046 FFF7FEFF 		bl	__stack_chk_fail
 748              	.LVL53:
 749              	.L63:
 750 004a 00BF     		.align	2
 751              	.L62:
 752 004c 00000000 		.word	.LANCHOR3
 753 0050 00000000 		.word	__stack_chk_guard
 754 0054 00000000 		.word	.LANCHOR14
 755 0058 00000000 		.word	imu_reader_thd
 756 005c 00000000 		.word	.LANCHOR15
 757              		.cfi_endproc
 758              	.LFE258:
 759              		.size	imu_start, .-imu_start
 760              		.section	.text.imu_stop,"ax",%progbits
 761              		.align	1
 762              		.p2align 4,,15
 763              		.global	imu_stop
 764              		.syntax unified
 765              		.thumb
 766              		.thumb_func
 767              		.fpu fpv4-sp-d16
 768              		.type	imu_stop, %function
 769              	imu_stop:
 770              	.LFB259:
 771              		.loc 1 170 0
 772              		.cfi_startproc
 773              		@ args = 0, pretend = 0, frame = 8
 774              		@ frame_needed = 0, uses_anonymous_args = 0
 775 0000 30B5     		push	{r4, r5, lr}
 776              		.cfi_def_cfa_offset 12
 777              		.cfi_offset 4, -12
 778              		.cfi_offset 5, -8
 779              		.cfi_offset 14, -4
 780              		.loc 1 171 0
 781 0002 0B4C     		ldr	r4, .L68
 782              		.loc 1 170 0
 783 0004 0B4D     		ldr	r5, .L68+4
 784              		.loc 1 171 0
 785 0006 2068     		ldr	r0, [r4]
 786              		.loc 1 170 0
 787 0008 2B68     		ldr	r3, [r5]
 788 000a 83B0     		sub	sp, sp, #12
 789              		.cfi_def_cfa_offset 24
 790              		.loc 1 170 0
 791 000c 0193     		str	r3, [sp, #4]
 792              		.loc 1 171 0
 793 000e FFF7FEFF 		bl	chThdTerminate
 794              	.LVL54:
 795              		.loc 1 172 0
 796 0012 2068     		ldr	r0, [r4]
 797 0014 FFF7FEFF 		bl	chThdWait
 798              	.LVL55:
ARM GAS  C:\Users\sjacq\AppData\Local\Temp\cchqjAcS.s 			page 15


 799              		.loc 1 175 0
 800 0018 0199     		ldr	r1, [sp, #4]
 801 001a 2A68     		ldr	r2, [r5]
 802              		.loc 1 174 0
 803 001c 0648     		ldr	r0, .L68+8
 804              		.loc 1 173 0
 805 001e 0023     		movs	r3, #0
 806              		.loc 1 175 0
 807 0020 9142     		cmp	r1, r2
 808              		.loc 1 173 0
 809 0022 2360     		str	r3, [r4]
 810              		.loc 1 174 0
 811 0024 0370     		strb	r3, [r0]
 812              		.loc 1 175 0
 813 0026 01D1     		bne	.L67
 814 0028 03B0     		add	sp, sp, #12
 815              		.cfi_remember_state
 816              		.cfi_def_cfa_offset 12
 817              		@ sp needed
 818 002a 30BD     		pop	{r4, r5, pc}
 819              	.L67:
 820              		.cfi_restore_state
 821 002c FFF7FEFF 		bl	__stack_chk_fail
 822              	.LVL56:
 823              	.L69:
 824              		.align	2
 825              	.L68:
 826 0030 00000000 		.word	.LANCHOR15
 827 0034 00000000 		.word	__stack_chk_guard
 828 0038 00000000 		.word	.LANCHOR3
 829              		.cfi_endproc
 830              	.LFE259:
 831              		.size	imu_stop, .-imu_stop
 832              		.section	.text.get_acc,"ax",%progbits
 833              		.align	1
 834              		.p2align 4,,15
 835              		.global	get_acc
 836              		.syntax unified
 837              		.thumb
 838              		.thumb_func
 839              		.fpu fpv4-sp-d16
 840              		.type	get_acc, %function
 841              	get_acc:
 842              	.LFB260:
 843              		.loc 1 178 0
 844              		.cfi_startproc
 845              		@ args = 0, pretend = 0, frame = 8
 846              		@ frame_needed = 0, uses_anonymous_args = 0
 847              	.LVL57:
 848 0000 00B5     		push	{lr}
 849              		.cfi_def_cfa_offset 4
 850              		.cfi_offset 14, -4
 851 0002 0A4B     		ldr	r3, .L76
 852 0004 83B0     		sub	sp, sp, #12
 853              		.cfi_def_cfa_offset 16
 854              		.loc 1 178 0
 855 0006 1A68     		ldr	r2, [r3]
ARM GAS  C:\Users\sjacq\AppData\Local\Temp\cchqjAcS.s 			page 16


 856 0008 0192     		str	r2, [sp, #4]
 857              		.loc 1 179 0
 858 000a 0228     		cmp	r0, #2
 859              		.loc 1 180 0
 860 000c 9BBF     		ittet	ls
 861 000e 084A     		ldrls	r2, .L76+4
 862 0010 1430     		addls	r0, r0, #20
 863              	.LVL58:
 864              		.loc 1 182 0
 865 0012 0020     		movhi	r0, #0
 866              		.loc 1 180 0
 867 0014 32F91000 		ldrshls	r0, [r2, r0, lsl #1]
 868              		.loc 1 183 0
 869 0018 019A     		ldr	r2, [sp, #4]
 870 001a 1B68     		ldr	r3, [r3]
 871 001c 9A42     		cmp	r2, r3
 872 001e 02D1     		bne	.L75
 873 0020 03B0     		add	sp, sp, #12
 874              		.cfi_remember_state
 875              		.cfi_def_cfa_offset 4
 876              		@ sp needed
 877 0022 5DF804FB 		ldr	pc, [sp], #4
 878              	.L75:
 879              		.cfi_restore_state
 880 0026 FFF7FEFF 		bl	__stack_chk_fail
 881              	.LVL59:
 882              	.L77:
 883 002a 00BF     		.align	2
 884              	.L76:
 885 002c 00000000 		.word	__stack_chk_guard
 886 0030 00000000 		.word	.LANCHOR1
 887              		.cfi_endproc
 888              	.LFE260:
 889              		.size	get_acc, .-get_acc
 890              		.section	.text.imu_compute_offset,"ax",%progbits
 891              		.align	1
 892              		.p2align 4,,15
 893              		.global	imu_compute_offset
 894              		.syntax unified
 895              		.thumb
 896              		.thumb_func
 897              		.fpu fpv4-sp-d16
 898              		.type	imu_compute_offset, %function
 899              	imu_compute_offset:
 900              	.LFB261:
 901              		.loc 1 185 0
 902              		.cfi_startproc
 903              		@ args = 0, pretend = 0, frame = 32
 904              		@ frame_needed = 0, uses_anonymous_args = 0
 905              	.LVL60:
 906 0000 2DE9F04F 		push	{r4, r5, r6, r7, r8, r9, r10, fp, lr}
 907              		.cfi_def_cfa_offset 36
 908              		.cfi_offset 4, -36
 909              		.cfi_offset 5, -32
 910              		.cfi_offset 6, -28
 911              		.cfi_offset 7, -24
 912              		.cfi_offset 8, -20
ARM GAS  C:\Users\sjacq\AppData\Local\Temp\cchqjAcS.s 			page 17


 913              		.cfi_offset 9, -16
 914              		.cfi_offset 10, -12
 915              		.cfi_offset 11, -8
 916              		.cfi_offset 14, -4
 917 0004 DFF8E080 		ldr	r8, .L90+16
 918 0008 89B0     		sub	sp, sp, #36
 919              		.cfi_def_cfa_offset 72
 920              		.loc 1 188 0
 921 000a 0022     		movs	r2, #0
 922              		.loc 1 189 0
 923 000c 04AC     		add	r4, sp, #16
 924              		.loc 1 185 0
 925 000e D8F80030 		ldr	r3, [r8]
 926 0012 0793     		str	r3, [sp, #28]
 927              		.loc 1 188 0
 928 0014 CDE90122 		strd	r2, r2, [sp, #4]
 929              		.loc 1 189 0
 930 0018 CDE90322 		strd	r2, r2, [sp, #12]
 931 001c C4E90122 		strd	r2, r2, [r4, #4]
 932              	.LVL61:
 933              	.LBB92:
 934              		.loc 1 192 0
 935 0020 8946     		mov	r9, r1
 936 0022 0029     		cmp	r1, #0
 937 0024 52D0     		beq	.L86
 938              		.loc 1 194 0
 939 0026 2C4F     		ldr	r7, .L90
 940 0028 0646     		mov	r6, r0
 941              		.loc 1 192 0
 942 002a 9246     		mov	r10, r2
 943 002c 9346     		mov	fp, r2
 944 002e 1546     		mov	r5, r2
 945              	.LVL62:
 946              	.L82:
 947              		.loc 1 194 0
 948 0030 3046     		mov	r0, r6
 949 0032 5022     		movs	r2, #80
 950 0034 3946     		mov	r1, r7
 951 0036 FFF7FEFF 		bl	messagebus_topic_wait
 952              	.LVL63:
 953 003a 2848     		ldr	r0, .L90+4
 954 003c 01AB     		add	r3, sp, #4
 955 003e A446     		mov	ip, r4
 956              	.LVL64:
 957              	.L81:
 958              	.LBB93:
 959              		.loc 1 196 0 discriminator 3
 960 0040 30F9021B 		ldrsh	r1, [r0], #2
 961 0044 5944     		add	r1, r1, fp
 962              		.loc 1 197 0 discriminator 3
 963 0046 B0F90420 		ldrsh	r2, [r0, #4]
 964              		.loc 1 196 0 discriminator 3
 965 004a 43F8041B 		str	r1, [r3], #4
 966              		.loc 1 197 0 discriminator 3
 967 004e 5244     		add	r2, r2, r10
 968              		.loc 1 195 0 discriminator 3
 969 0050 A342     		cmp	r3, r4
ARM GAS  C:\Users\sjacq\AppData\Local\Temp\cchqjAcS.s 			page 18


 970              		.loc 1 197 0 discriminator 3
 971 0052 4CF8042B 		str	r2, [ip], #4
 972              		.loc 1 195 0 discriminator 3
 973 0056 04D0     		beq	.L80
 974 0058 D3F800B0 		ldr	fp, [r3]
 975 005c DCF800A0 		ldr	r10, [ip]
 976 0060 EEE7     		b	.L81
 977              	.L80:
 978              	.LBE93:
 979              		.loc 1 192 0 discriminator 2
 980 0062 0135     		adds	r5, r5, #1
 981              	.LVL65:
 982 0064 ADB2     		uxth	r5, r5
 983              	.LVL66:
 984 0066 A945     		cmp	r9, r5
 985 0068 DDF804B0 		ldr	fp, [sp, #4]
 986 006c DDF810A0 		ldr	r10, [sp, #16]
 987 0070 DED1     		bne	.L82
 988              	.LVL67:
 989              	.L79:
 990 0072 1B48     		ldr	r0, .L90+8
 991 0074 01AB     		add	r3, sp, #4
 992 0076 2546     		mov	r5, r4
 993              	.L84:
 994              	.LBE92:
 995              	.LBB94:
 996              		.loc 1 203 0 discriminator 3
 997 0078 9BFBF9F1 		sdiv	r1, fp, r9
 998 007c 43F8041B 		str	r1, [r3], #4
 999              		.loc 1 204 0 discriminator 3
 1000 0080 9AFBF9F2 		sdiv	r2, r10, r9
 1001              		.loc 1 206 0 discriminator 3
 1002 0084 20F8021B 		strh	r1, [r0], #2	@ movhi
 1003              		.loc 1 202 0 discriminator 3
 1004 0088 9C42     		cmp	r4, r3
 1005              		.loc 1 207 0 discriminator 3
 1006 008a 8280     		strh	r2, [r0, #4]	@ movhi
 1007              	.LVL68:
 1008              		.loc 1 204 0 discriminator 3
 1009 008c 45F8042B 		str	r2, [r5], #4
 1010              		.loc 1 202 0 discriminator 3
 1011 0090 04D0     		beq	.L83
 1012 0092 D3F800B0 		ldr	fp, [r3]
 1013 0096 D5F800A0 		ldr	r10, [r5]
 1014 009a EDE7     		b	.L84
 1015              	.L83:
 1016              	.LBE94:
 1017              		.loc 1 211 0
 1018 009c 0E4B     		ldr	r3, .L90
 1019 009e 9FED117A 		vldr.32	s14, .L90+12
 1020 00a2 B3F93820 		ldrsh	r2, [r3, #56]
 1021              		.loc 1 212 0
 1022 00a6 0799     		ldr	r1, [sp, #28]
 1023              		.loc 1 211 0
 1024 00a8 07EE902A 		vmov	s15, r2	@ int
 1025 00ac F8EEE77A 		vcvt.f32.s32	s15, s15
 1026              		.loc 1 212 0
ARM GAS  C:\Users\sjacq\AppData\Local\Temp\cchqjAcS.s 			page 19


 1027 00b0 D8F80020 		ldr	r2, [r8]
 1028              		.loc 1 211 0
 1029 00b4 77EE877A 		vadd.f32	s15, s15, s14
 1030              		.loc 1 212 0
 1031 00b8 9142     		cmp	r1, r2
 1032              		.loc 1 211 0
 1033 00ba FDEEE77A 		vcvt.s32.f32	s15, s15
 1034 00be 17EE900A 		vmov	r0, s15	@ int
 1035 00c2 1887     		strh	r0, [r3, #56]	@ movhi
 1036              		.loc 1 212 0
 1037 00c4 05D1     		bne	.L89
 1038 00c6 09B0     		add	sp, sp, #36
 1039              		.cfi_remember_state
 1040              		.cfi_def_cfa_offset 36
 1041              		@ sp needed
 1042 00c8 BDE8F08F 		pop	{r4, r5, r6, r7, r8, r9, r10, fp, pc}
 1043              	.LVL69:
 1044              	.L86:
 1045              		.cfi_restore_state
 1046              	.LBB95:
 1047              		.loc 1 192 0
 1048 00cc 8A46     		mov	r10, r1
 1049 00ce 8B46     		mov	fp, r1
 1050 00d0 CFE7     		b	.L79
 1051              	.LVL70:
 1052              	.L89:
 1053              	.LBE95:
 1054              		.loc 1 212 0
 1055 00d2 FFF7FEFF 		bl	__stack_chk_fail
 1056              	.LVL71:
 1057              	.L91:
 1058 00d6 00BF     		.align	2
 1059              	.L90:
 1060 00d8 00000000 		.word	.LANCHOR1
 1061 00dc 28000000 		.word	.LANCHOR1+40
 1062 00e0 34000000 		.word	.LANCHOR1+52
 1063 00e4 00008046 		.word	1182793728
 1064 00e8 00000000 		.word	__stack_chk_guard
 1065              		.cfi_endproc
 1066              	.LFE261:
 1067              		.size	imu_compute_offset, .-imu_compute_offset
 1068              		.section	.text.get_acc_all,"ax",%progbits
 1069              		.align	1
 1070              		.p2align 4,,15
 1071              		.global	get_acc_all
 1072              		.syntax unified
 1073              		.thumb
 1074              		.thumb_func
 1075              		.fpu fpv4-sp-d16
 1076              		.type	get_acc_all, %function
 1077              	get_acc_all:
 1078              	.LFB262:
 1079              		.loc 1 214 0
 1080              		.cfi_startproc
 1081              		@ args = 0, pretend = 0, frame = 8
 1082              		@ frame_needed = 0, uses_anonymous_args = 0
 1083              	.LVL72:
ARM GAS  C:\Users\sjacq\AppData\Local\Temp\cchqjAcS.s 			page 20


 1084 0000 10B5     		push	{r4, lr}
 1085              		.cfi_def_cfa_offset 8
 1086              		.cfi_offset 4, -8
 1087              		.cfi_offset 14, -4
 1088              		.loc 1 215 0
 1089 0002 0B4B     		ldr	r3, .L96
 1090              		.loc 1 214 0
 1091 0004 0B4A     		ldr	r2, .L96+4
 1092              		.loc 1 215 0
 1093 0006 B3F92840 		ldrsh	r4, [r3, #40]
 1094              		.loc 1 214 0
 1095 000a 1168     		ldr	r1, [r2]
 1096              		.loc 1 215 0
 1097 000c 0480     		strh	r4, [r0]	@ movhi
 1098              		.loc 1 214 0
 1099 000e 82B0     		sub	sp, sp, #8
 1100              		.cfi_def_cfa_offset 16
 1101              		.loc 1 216 0
 1102 0010 B3F92A40 		ldrsh	r4, [r3, #42]
 1103              		.loc 1 214 0
 1104 0014 0191     		str	r1, [sp, #4]
 1105              		.loc 1 216 0
 1106 0016 4480     		strh	r4, [r0, #2]	@ movhi
 1107              		.loc 1 218 0
 1108 0018 0199     		ldr	r1, [sp, #4]
 1109 001a 1268     		ldr	r2, [r2]
 1110              		.loc 1 217 0
 1111 001c B3F92C30 		ldrsh	r3, [r3, #44]
 1112 0020 8380     		strh	r3, [r0, #4]	@ movhi
 1113              		.loc 1 218 0
 1114 0022 9142     		cmp	r1, r2
 1115 0024 01D1     		bne	.L95
 1116 0026 02B0     		add	sp, sp, #8
 1117              		.cfi_remember_state
 1118              		.cfi_def_cfa_offset 8
 1119              		@ sp needed
 1120 0028 10BD     		pop	{r4, pc}
 1121              	.L95:
 1122              		.cfi_restore_state
 1123 002a FFF7FEFF 		bl	__stack_chk_fail
 1124              	.LVL73:
 1125              	.L97:
 1126 002e 00BF     		.align	2
 1127              	.L96:
 1128 0030 00000000 		.word	.LANCHOR1
 1129 0034 00000000 		.word	__stack_chk_guard
 1130              		.cfi_endproc
 1131              	.LFE262:
 1132              		.size	get_acc_all, .-get_acc_all
 1133              		.section	.text.get_acc_filtered,"ax",%progbits
 1134              		.align	1
 1135              		.p2align 4,,15
 1136              		.global	get_acc_filtered
 1137              		.syntax unified
 1138              		.thumb
 1139              		.thumb_func
 1140              		.fpu fpv4-sp-d16
ARM GAS  C:\Users\sjacq\AppData\Local\Temp\cchqjAcS.s 			page 21


 1141              		.type	get_acc_filtered, %function
 1142              	get_acc_filtered:
 1143              	.LFB263:
 1144              		.loc 1 221 0
 1145              		.cfi_startproc
 1146              		@ args = 0, pretend = 0, frame = 8
 1147              		@ frame_needed = 0, uses_anonymous_args = 0
 1148              	.LVL74:
 1149 0000 00B5     		push	{lr}
 1150              		.cfi_def_cfa_offset 4
 1151              		.cfi_offset 14, -4
 1152 0002 0C4B     		ldr	r3, .L104
 1153 0004 83B0     		sub	sp, sp, #12
 1154              		.cfi_def_cfa_offset 16
 1155              		.loc 1 221 0
 1156 0006 1A68     		ldr	r2, [r3]
 1157 0008 0192     		str	r2, [sp, #4]
 1158              		.loc 1 222 0
 1159 000a 0228     		cmp	r0, #2
 1160 000c 019A     		ldr	r2, [sp, #4]
 1161 000e 1B68     		ldr	r3, [r3]
 1162 0010 06D8     		bhi	.L99
 1163 0012 9A42     		cmp	r2, r3
 1164 0014 0BD1     		bne	.L103
 1165              		.loc 1 235 0
 1166 0016 03B0     		add	sp, sp, #12
 1167              		.cfi_remember_state
 1168              		.cfi_def_cfa_offset 4
 1169              		@ sp needed
 1170 0018 5DF804EB 		ldr	lr, [sp], #4
 1171              		.cfi_restore 14
 1172              		.cfi_def_cfa_offset 0
 1173 001c FFF7FEBF 		b	get_acc_filtered.part.0
 1174              	.LVL75:
 1175              	.L99:
 1176              		.cfi_restore_state
 1177 0020 9A42     		cmp	r2, r3
 1178 0022 4FF00000 		mov	r0, #0
 1179              	.LVL76:
 1180 0026 02D1     		bne	.L103
 1181 0028 03B0     		add	sp, sp, #12
 1182              		.cfi_remember_state
 1183              		.cfi_def_cfa_offset 4
 1184              		@ sp needed
 1185 002a 5DF804FB 		ldr	pc, [sp], #4
 1186              	.L103:
 1187              		.cfi_restore_state
 1188 002e FFF7FEFF 		bl	__stack_chk_fail
 1189              	.LVL77:
 1190              	.L105:
 1191 0032 00BF     		.align	2
 1192              	.L104:
 1193 0034 00000000 		.word	__stack_chk_guard
 1194              		.cfi_endproc
 1195              	.LFE263:
 1196              		.size	get_acc_filtered, .-get_acc_filtered
 1197              		.section	.text.calibrate_acc,"ax",%progbits
ARM GAS  C:\Users\sjacq\AppData\Local\Temp\cchqjAcS.s 			page 22


 1198              		.align	1
 1199              		.p2align 4,,15
 1200              		.global	calibrate_acc
 1201              		.syntax unified
 1202              		.thumb
 1203              		.thumb_func
 1204              		.fpu fpv4-sp-d16
 1205              		.type	calibrate_acc, %function
 1206              	calibrate_acc:
 1207              	.LFB264:
 1208              		.loc 1 238 0
 1209              		.cfi_startproc
 1210              		@ args = 0, pretend = 0, frame = 8
 1211              		@ frame_needed = 0, uses_anonymous_args = 0
 1212 0000 70B5     		push	{r4, r5, r6, lr}
 1213              		.cfi_def_cfa_offset 16
 1214              		.cfi_offset 4, -16
 1215              		.cfi_offset 5, -12
 1216              		.cfi_offset 6, -8
 1217              		.cfi_offset 14, -4
 1218              		.loc 1 239 0
 1219 0002 114B     		ldr	r3, .L114
 1220              		.loc 1 238 0
 1221 0004 114C     		ldr	r4, .L114+4
 1222              		.loc 1 239 0
 1223 0006 1B78     		ldrb	r3, [r3]	@ zero_extendqisi2
 1224              		.loc 1 238 0
 1225 0008 2268     		ldr	r2, [r4]
 1226 000a 82B0     		sub	sp, sp, #8
 1227              		.cfi_def_cfa_offset 24
 1228              		.loc 1 238 0
 1229 000c 0192     		str	r2, [sp, #4]
 1230              		.loc 1 239 0
 1231 000e 93B1     		cbz	r3, .L106
 1232              		.loc 1 240 0
 1233 0010 0F4D     		ldr	r5, .L114+8
 1234 0012 0126     		movs	r6, #1
 1235              	.LBB96:
 1236              	.LBB97:
 1237 0014 3221     		movs	r1, #50
 1238 0016 0020     		movs	r0, #0
 1239              	.LBE97:
 1240              	.LBE96:
 1241 0018 2E70     		strb	r6, [r5]
 1242              	.LVL78:
 1243              	.LBB99:
 1244              	.LBB98:
 1245 001a FFF7FEFF 		bl	get_acc_filtered.part.0
 1246              	.LVL79:
 1247              	.LBE98:
 1248              	.LBE99:
 1249              	.LBB100:
 1250              	.LBB101:
 1251 001e 3221     		movs	r1, #50
 1252 0020 3046     		mov	r0, r6
 1253              	.LBE101:
 1254              	.LBE100:
ARM GAS  C:\Users\sjacq\AppData\Local\Temp\cchqjAcS.s 			page 23


 1255              		.loc 1 242 0
 1256 0022 2E70     		strb	r6, [r5]
 1257              	.LVL80:
 1258              	.LBB103:
 1259              	.LBB102:
 1260 0024 FFF7FEFF 		bl	get_acc_filtered.part.0
 1261              	.LVL81:
 1262              	.LBE102:
 1263              	.LBE103:
 1264              	.LBB104:
 1265              	.LBB105:
 1266 0028 3221     		movs	r1, #50
 1267 002a 0220     		movs	r0, #2
 1268              	.LBE105:
 1269              	.LBE104:
 1270              		.loc 1 244 0
 1271 002c 2E70     		strb	r6, [r5]
 1272              	.LVL82:
 1273              	.LBB107:
 1274              	.LBB106:
 1275 002e FFF7FEFF 		bl	get_acc_filtered.part.0
 1276              	.LVL83:
 1277              	.LBE106:
 1278              	.LBE107:
 1279              		.loc 1 246 0
 1280 0032 0023     		movs	r3, #0
 1281 0034 2B70     		strb	r3, [r5]
 1282              	.L106:
 1283              		.loc 1 248 0
 1284 0036 019A     		ldr	r2, [sp, #4]
 1285 0038 2368     		ldr	r3, [r4]
 1286 003a 9A42     		cmp	r2, r3
 1287 003c 01D1     		bne	.L113
 1288 003e 02B0     		add	sp, sp, #8
 1289              		.cfi_remember_state
 1290              		.cfi_def_cfa_offset 16
 1291              		@ sp needed
 1292 0040 70BD     		pop	{r4, r5, r6, pc}
 1293              	.L113:
 1294              		.cfi_restore_state
 1295 0042 FFF7FEFF 		bl	__stack_chk_fail
 1296              	.LVL84:
 1297              	.L115:
 1298 0046 00BF     		.align	2
 1299              	.L114:
 1300 0048 00000000 		.word	.LANCHOR3
 1301 004c 00000000 		.word	__stack_chk_guard
 1302 0050 00000000 		.word	.LANCHOR8
 1303              		.cfi_endproc
 1304              	.LFE264:
 1305              		.size	calibrate_acc, .-calibrate_acc
 1306              		.section	.text.get_acc_offset,"ax",%progbits
 1307              		.align	1
 1308              		.p2align 4,,15
 1309              		.global	get_acc_offset
 1310              		.syntax unified
 1311              		.thumb
ARM GAS  C:\Users\sjacq\AppData\Local\Temp\cchqjAcS.s 			page 24


 1312              		.thumb_func
 1313              		.fpu fpv4-sp-d16
 1314              		.type	get_acc_offset, %function
 1315              	get_acc_offset:
 1316              	.LFB265:
 1317              		.loc 1 251 0
 1318              		.cfi_startproc
 1319              		@ args = 0, pretend = 0, frame = 8
 1320              		@ frame_needed = 0, uses_anonymous_args = 0
 1321              	.LVL85:
 1322 0000 00B5     		push	{lr}
 1323              		.cfi_def_cfa_offset 4
 1324              		.cfi_offset 14, -4
 1325 0002 0B4B     		ldr	r3, .L122
 1326 0004 83B0     		sub	sp, sp, #12
 1327              		.cfi_def_cfa_offset 16
 1328              		.loc 1 251 0
 1329 0006 1A68     		ldr	r2, [r3]
 1330 0008 0192     		str	r2, [sp, #4]
 1331              		.loc 1 252 0
 1332 000a 0228     		cmp	r0, #2
 1333              		.loc 1 253 0
 1334 000c 9CBF     		itt	ls
 1335 000e 094A     		ldrls	r2, .L122+4
 1336 0010 02EB4000 		addls	r0, r2, r0, lsl #1
 1337              	.LVL86:
 1338              		.loc 1 256 0
 1339 0014 019A     		ldr	r2, [sp, #4]
 1340 0016 1B68     		ldr	r3, [r3]
 1341              		.loc 1 253 0
 1342 0018 94BF     		ite	ls
 1343 001a B0F93400 		ldrshls	r0, [r0, #52]
 1344              		.loc 1 255 0
 1345 001e 0020     		movhi	r0, #0
 1346              		.loc 1 256 0
 1347 0020 9A42     		cmp	r2, r3
 1348 0022 02D1     		bne	.L121
 1349 0024 03B0     		add	sp, sp, #12
 1350              		.cfi_remember_state
 1351              		.cfi_def_cfa_offset 4
 1352              		@ sp needed
 1353 0026 5DF804FB 		ldr	pc, [sp], #4
 1354              	.L121:
 1355              		.cfi_restore_state
 1356 002a FFF7FEFF 		bl	__stack_chk_fail
 1357              	.LVL87:
 1358              	.L123:
 1359 002e 00BF     		.align	2
 1360              	.L122:
 1361 0030 00000000 		.word	__stack_chk_guard
 1362 0034 00000000 		.word	.LANCHOR1
 1363              		.cfi_endproc
 1364              	.LFE265:
 1365              		.size	get_acc_offset, .-get_acc_offset
 1366              		.section	.text.get_acceleration,"ax",%progbits
 1367              		.align	1
 1368              		.p2align 4,,15
ARM GAS  C:\Users\sjacq\AppData\Local\Temp\cchqjAcS.s 			page 25


 1369              		.global	get_acceleration
 1370              		.syntax unified
 1371              		.thumb
 1372              		.thumb_func
 1373              		.fpu fpv4-sp-d16
 1374              		.type	get_acceleration, %function
 1375              	get_acceleration:
 1376              	.LFB266:
 1377              		.loc 1 258 0
 1378              		.cfi_startproc
 1379              		@ args = 0, pretend = 0, frame = 8
 1380              		@ frame_needed = 0, uses_anonymous_args = 0
 1381              	.LVL88:
 1382 0000 00B5     		push	{lr}
 1383              		.cfi_def_cfa_offset 4
 1384              		.cfi_offset 14, -4
 1385 0002 0B4B     		ldr	r3, .L130
 1386 0004 83B0     		sub	sp, sp, #12
 1387              		.cfi_def_cfa_offset 16
 1388              		.loc 1 258 0
 1389 0006 1A68     		ldr	r2, [r3]
 1390 0008 0192     		str	r2, [sp, #4]
 1391              		.loc 1 259 0
 1392 000a 0228     		cmp	r0, #2
 1393              		.loc 1 260 0
 1394 000c 96BF     		itet	ls
 1395 000e 094A     		ldrls	r2, .L130+4
 1396              		.loc 1 262 0
 1397 0010 9FED090A 		vldrhi.32	s0, .L130+8
 1398              		.loc 1 260 0
 1399 0014 02EB8000 		addls	r0, r2, r0, lsl #2
 1400              	.LVL89:
 1401              		.loc 1 263 0
 1402 0018 019A     		ldr	r2, [sp, #4]
 1403 001a 1B68     		ldr	r3, [r3]
 1404              		.loc 1 260 0
 1405 001c 98BF     		it	ls
 1406 001e 90ED000A 		vldrls.32	s0, [r0]
 1407              		.loc 1 263 0
 1408 0022 9A42     		cmp	r2, r3
 1409 0024 02D1     		bne	.L129
 1410 0026 03B0     		add	sp, sp, #12
 1411              		.cfi_remember_state
 1412              		.cfi_def_cfa_offset 4
 1413              		@ sp needed
 1414 0028 5DF804FB 		ldr	pc, [sp], #4
 1415              	.L129:
 1416              		.cfi_restore_state
 1417 002c FFF7FEFF 		bl	__stack_chk_fail
 1418              	.LVL90:
 1419              	.L131:
 1420              		.align	2
 1421              	.L130:
 1422 0030 00000000 		.word	__stack_chk_guard
 1423 0034 00000000 		.word	.LANCHOR1
 1424 0038 00000000 		.word	0
 1425              		.cfi_endproc
ARM GAS  C:\Users\sjacq\AppData\Local\Temp\cchqjAcS.s 			page 26


 1426              	.LFE266:
 1427              		.size	get_acceleration, .-get_acceleration
 1428              		.section	.text.get_gyro,"ax",%progbits
 1429              		.align	1
 1430              		.p2align 4,,15
 1431              		.global	get_gyro
 1432              		.syntax unified
 1433              		.thumb
 1434              		.thumb_func
 1435              		.fpu fpv4-sp-d16
 1436              		.type	get_gyro, %function
 1437              	get_gyro:
 1438              	.LFB267:
 1439              		.loc 1 265 0
 1440              		.cfi_startproc
 1441              		@ args = 0, pretend = 0, frame = 8
 1442              		@ frame_needed = 0, uses_anonymous_args = 0
 1443              	.LVL91:
 1444 0000 00B5     		push	{lr}
 1445              		.cfi_def_cfa_offset 4
 1446              		.cfi_offset 14, -4
 1447 0002 0B4B     		ldr	r3, .L138
 1448 0004 83B0     		sub	sp, sp, #12
 1449              		.cfi_def_cfa_offset 16
 1450              		.loc 1 265 0
 1451 0006 1A68     		ldr	r2, [r3]
 1452 0008 0192     		str	r2, [sp, #4]
 1453              		.loc 1 266 0
 1454 000a 0228     		cmp	r0, #2
 1455              		.loc 1 267 0
 1456 000c 9CBF     		itt	ls
 1457 000e 094A     		ldrls	r2, .L138+4
 1458 0010 02EB4000 		addls	r0, r2, r0, lsl #1
 1459              	.LVL92:
 1460              		.loc 1 270 0
 1461 0014 019A     		ldr	r2, [sp, #4]
 1462 0016 1B68     		ldr	r3, [r3]
 1463              		.loc 1 267 0
 1464 0018 94BF     		ite	ls
 1465 001a B0F92E00 		ldrshls	r0, [r0, #46]
 1466              		.loc 1 269 0
 1467 001e 0020     		movhi	r0, #0
 1468              		.loc 1 270 0
 1469 0020 9A42     		cmp	r2, r3
 1470 0022 02D1     		bne	.L137
 1471 0024 03B0     		add	sp, sp, #12
 1472              		.cfi_remember_state
 1473              		.cfi_def_cfa_offset 4
 1474              		@ sp needed
 1475 0026 5DF804FB 		ldr	pc, [sp], #4
 1476              	.L137:
 1477              		.cfi_restore_state
 1478 002a FFF7FEFF 		bl	__stack_chk_fail
 1479              	.LVL93:
 1480              	.L139:
 1481 002e 00BF     		.align	2
 1482              	.L138:
ARM GAS  C:\Users\sjacq\AppData\Local\Temp\cchqjAcS.s 			page 27


 1483 0030 00000000 		.word	__stack_chk_guard
 1484 0034 00000000 		.word	.LANCHOR1
 1485              		.cfi_endproc
 1486              	.LFE267:
 1487              		.size	get_gyro, .-get_gyro
 1488              		.section	.text.get_gyro_all,"ax",%progbits
 1489              		.align	1
 1490              		.p2align 4,,15
 1491              		.global	get_gyro_all
 1492              		.syntax unified
 1493              		.thumb
 1494              		.thumb_func
 1495              		.fpu fpv4-sp-d16
 1496              		.type	get_gyro_all, %function
 1497              	get_gyro_all:
 1498              	.LFB268:
 1499              		.loc 1 272 0
 1500              		.cfi_startproc
 1501              		@ args = 0, pretend = 0, frame = 8
 1502              		@ frame_needed = 0, uses_anonymous_args = 0
 1503              	.LVL94:
 1504 0000 10B5     		push	{r4, lr}
 1505              		.cfi_def_cfa_offset 8
 1506              		.cfi_offset 4, -8
 1507              		.cfi_offset 14, -4
 1508              		.loc 1 273 0
 1509 0002 0B4B     		ldr	r3, .L144
 1510              		.loc 1 272 0
 1511 0004 0B4A     		ldr	r2, .L144+4
 1512              		.loc 1 273 0
 1513 0006 B3F92E40 		ldrsh	r4, [r3, #46]
 1514              		.loc 1 272 0
 1515 000a 1168     		ldr	r1, [r2]
 1516              		.loc 1 273 0
 1517 000c 0480     		strh	r4, [r0]	@ movhi
 1518              		.loc 1 272 0
 1519 000e 82B0     		sub	sp, sp, #8
 1520              		.cfi_def_cfa_offset 16
 1521              		.loc 1 274 0
 1522 0010 B3F93040 		ldrsh	r4, [r3, #48]
 1523              		.loc 1 272 0
 1524 0014 0191     		str	r1, [sp, #4]
 1525              		.loc 1 274 0
 1526 0016 4480     		strh	r4, [r0, #2]	@ movhi
 1527              		.loc 1 276 0
 1528 0018 0199     		ldr	r1, [sp, #4]
 1529 001a 1268     		ldr	r2, [r2]
 1530              		.loc 1 275 0
 1531 001c B3F93230 		ldrsh	r3, [r3, #50]
 1532 0020 8380     		strh	r3, [r0, #4]	@ movhi
 1533              		.loc 1 276 0
 1534 0022 9142     		cmp	r1, r2
 1535 0024 01D1     		bne	.L143
 1536 0026 02B0     		add	sp, sp, #8
 1537              		.cfi_remember_state
 1538              		.cfi_def_cfa_offset 8
 1539              		@ sp needed
ARM GAS  C:\Users\sjacq\AppData\Local\Temp\cchqjAcS.s 			page 28


 1540 0028 10BD     		pop	{r4, pc}
 1541              	.L143:
 1542              		.cfi_restore_state
 1543 002a FFF7FEFF 		bl	__stack_chk_fail
 1544              	.LVL95:
 1545              	.L145:
 1546 002e 00BF     		.align	2
 1547              	.L144:
 1548 0030 00000000 		.word	.LANCHOR1
 1549 0034 00000000 		.word	__stack_chk_guard
 1550              		.cfi_endproc
 1551              	.LFE268:
 1552              		.size	get_gyro_all, .-get_gyro_all
 1553              		.section	.text.get_gyro_filtered,"ax",%progbits
 1554              		.align	1
 1555              		.p2align 4,,15
 1556              		.global	get_gyro_filtered
 1557              		.syntax unified
 1558              		.thumb
 1559              		.thumb_func
 1560              		.fpu fpv4-sp-d16
 1561              		.type	get_gyro_filtered, %function
 1562              	get_gyro_filtered:
 1563              	.LFB269:
 1564              		.loc 1 278 0
 1565              		.cfi_startproc
 1566              		@ args = 0, pretend = 0, frame = 8
 1567              		@ frame_needed = 0, uses_anonymous_args = 0
 1568              	.LVL96:
 1569 0000 00B5     		push	{lr}
 1570              		.cfi_def_cfa_offset 4
 1571              		.cfi_offset 14, -4
 1572 0002 0C4B     		ldr	r3, .L152
 1573 0004 83B0     		sub	sp, sp, #12
 1574              		.cfi_def_cfa_offset 16
 1575              		.loc 1 278 0
 1576 0006 1A68     		ldr	r2, [r3]
 1577 0008 0192     		str	r2, [sp, #4]
 1578              		.loc 1 279 0
 1579 000a 0228     		cmp	r0, #2
 1580 000c 019A     		ldr	r2, [sp, #4]
 1581 000e 1B68     		ldr	r3, [r3]
 1582 0010 06D8     		bhi	.L147
 1583 0012 9A42     		cmp	r2, r3
 1584 0014 0BD1     		bne	.L151
 1585              		.loc 1 292 0
 1586 0016 03B0     		add	sp, sp, #12
 1587              		.cfi_remember_state
 1588              		.cfi_def_cfa_offset 4
 1589              		@ sp needed
 1590 0018 5DF804EB 		ldr	lr, [sp], #4
 1591              		.cfi_restore 14
 1592              		.cfi_def_cfa_offset 0
 1593 001c FFF7FEBF 		b	get_gyro_filtered.part.1
 1594              	.LVL97:
 1595              	.L147:
 1596              		.cfi_restore_state
ARM GAS  C:\Users\sjacq\AppData\Local\Temp\cchqjAcS.s 			page 29


 1597 0020 9A42     		cmp	r2, r3
 1598 0022 4FF00000 		mov	r0, #0
 1599              	.LVL98:
 1600 0026 02D1     		bne	.L151
 1601 0028 03B0     		add	sp, sp, #12
 1602              		.cfi_remember_state
 1603              		.cfi_def_cfa_offset 4
 1604              		@ sp needed
 1605 002a 5DF804FB 		ldr	pc, [sp], #4
 1606              	.L151:
 1607              		.cfi_restore_state
 1608 002e FFF7FEFF 		bl	__stack_chk_fail
 1609              	.LVL99:
 1610              	.L153:
 1611 0032 00BF     		.align	2
 1612              	.L152:
 1613 0034 00000000 		.word	__stack_chk_guard
 1614              		.cfi_endproc
 1615              	.LFE269:
 1616              		.size	get_gyro_filtered, .-get_gyro_filtered
 1617              		.section	.text.get_gyro_offset,"ax",%progbits
 1618              		.align	1
 1619              		.p2align 4,,15
 1620              		.global	get_gyro_offset
 1621              		.syntax unified
 1622              		.thumb
 1623              		.thumb_func
 1624              		.fpu fpv4-sp-d16
 1625              		.type	get_gyro_offset, %function
 1626              	get_gyro_offset:
 1627              	.LFB270:
 1628              		.loc 1 294 0
 1629              		.cfi_startproc
 1630              		@ args = 0, pretend = 0, frame = 8
 1631              		@ frame_needed = 0, uses_anonymous_args = 0
 1632              	.LVL100:
 1633 0000 00B5     		push	{lr}
 1634              		.cfi_def_cfa_offset 4
 1635              		.cfi_offset 14, -4
 1636 0002 0B4B     		ldr	r3, .L160
 1637 0004 83B0     		sub	sp, sp, #12
 1638              		.cfi_def_cfa_offset 16
 1639              		.loc 1 294 0
 1640 0006 1A68     		ldr	r2, [r3]
 1641 0008 0192     		str	r2, [sp, #4]
 1642              		.loc 1 295 0
 1643 000a 0228     		cmp	r0, #2
 1644              		.loc 1 296 0
 1645 000c 9CBF     		itt	ls
 1646 000e 094A     		ldrls	r2, .L160+4
 1647 0010 02EB4000 		addls	r0, r2, r0, lsl #1
 1648              	.LVL101:
 1649              		.loc 1 299 0
 1650 0014 019A     		ldr	r2, [sp, #4]
 1651 0016 1B68     		ldr	r3, [r3]
 1652              		.loc 1 296 0
 1653 0018 94BF     		ite	ls
ARM GAS  C:\Users\sjacq\AppData\Local\Temp\cchqjAcS.s 			page 30


 1654 001a B0F93A00 		ldrshls	r0, [r0, #58]
 1655              		.loc 1 298 0
 1656 001e 0020     		movhi	r0, #0
 1657              		.loc 1 299 0
 1658 0020 9A42     		cmp	r2, r3
 1659 0022 02D1     		bne	.L159
 1660 0024 03B0     		add	sp, sp, #12
 1661              		.cfi_remember_state
 1662              		.cfi_def_cfa_offset 4
 1663              		@ sp needed
 1664 0026 5DF804FB 		ldr	pc, [sp], #4
 1665              	.L159:
 1666              		.cfi_restore_state
 1667 002a FFF7FEFF 		bl	__stack_chk_fail
 1668              	.LVL102:
 1669              	.L161:
 1670 002e 00BF     		.align	2
 1671              	.L160:
 1672 0030 00000000 		.word	__stack_chk_guard
 1673 0034 00000000 		.word	.LANCHOR1
 1674              		.cfi_endproc
 1675              	.LFE270:
 1676              		.size	get_gyro_offset, .-get_gyro_offset
 1677              		.section	.text.calibrate_gyro,"ax",%progbits
 1678              		.align	1
 1679              		.p2align 4,,15
 1680              		.global	calibrate_gyro
 1681              		.syntax unified
 1682              		.thumb
 1683              		.thumb_func
 1684              		.fpu fpv4-sp-d16
 1685              		.type	calibrate_gyro, %function
 1686              	calibrate_gyro:
 1687              	.LFB271:
 1688              		.loc 1 302 0
 1689              		.cfi_startproc
 1690              		@ args = 0, pretend = 0, frame = 8
 1691              		@ frame_needed = 0, uses_anonymous_args = 0
 1692 0000 70B5     		push	{r4, r5, r6, lr}
 1693              		.cfi_def_cfa_offset 16
 1694              		.cfi_offset 4, -16
 1695              		.cfi_offset 5, -12
 1696              		.cfi_offset 6, -8
 1697              		.cfi_offset 14, -4
 1698              		.loc 1 303 0
 1699 0002 114B     		ldr	r3, .L170
 1700              		.loc 1 302 0
 1701 0004 114C     		ldr	r4, .L170+4
 1702              		.loc 1 303 0
 1703 0006 1B78     		ldrb	r3, [r3]	@ zero_extendqisi2
 1704              		.loc 1 302 0
 1705 0008 2268     		ldr	r2, [r4]
 1706 000a 82B0     		sub	sp, sp, #8
 1707              		.cfi_def_cfa_offset 24
 1708              		.loc 1 302 0
 1709 000c 0192     		str	r2, [sp, #4]
 1710              		.loc 1 303 0
ARM GAS  C:\Users\sjacq\AppData\Local\Temp\cchqjAcS.s 			page 31


 1711 000e 93B1     		cbz	r3, .L162
 1712              		.loc 1 304 0
 1713 0010 0F4D     		ldr	r5, .L170+8
 1714 0012 0126     		movs	r6, #1
 1715              	.LBB108:
 1716              	.LBB109:
 1717 0014 3221     		movs	r1, #50
 1718 0016 0020     		movs	r0, #0
 1719              	.LBE109:
 1720              	.LBE108:
 1721 0018 2E70     		strb	r6, [r5]
 1722              	.LVL103:
 1723              	.LBB111:
 1724              	.LBB110:
 1725 001a FFF7FEFF 		bl	get_gyro_filtered.part.1
 1726              	.LVL104:
 1727              	.LBE110:
 1728              	.LBE111:
 1729              	.LBB112:
 1730              	.LBB113:
 1731 001e 3221     		movs	r1, #50
 1732 0020 3046     		mov	r0, r6
 1733              	.LBE113:
 1734              	.LBE112:
 1735              		.loc 1 306 0
 1736 0022 2E70     		strb	r6, [r5]
 1737              	.LVL105:
 1738              	.LBB115:
 1739              	.LBB114:
 1740 0024 FFF7FEFF 		bl	get_gyro_filtered.part.1
 1741              	.LVL106:
 1742              	.LBE114:
 1743              	.LBE115:
 1744              	.LBB116:
 1745              	.LBB117:
 1746 0028 3221     		movs	r1, #50
 1747 002a 0220     		movs	r0, #2
 1748              	.LBE117:
 1749              	.LBE116:
 1750              		.loc 1 308 0
 1751 002c 2E70     		strb	r6, [r5]
 1752              	.LVL107:
 1753              	.LBB119:
 1754              	.LBB118:
 1755 002e FFF7FEFF 		bl	get_gyro_filtered.part.1
 1756              	.LVL108:
 1757              	.LBE118:
 1758              	.LBE119:
 1759              		.loc 1 310 0
 1760 0032 0023     		movs	r3, #0
 1761 0034 2B70     		strb	r3, [r5]
 1762              	.L162:
 1763              		.loc 1 313 0
 1764 0036 019A     		ldr	r2, [sp, #4]
 1765 0038 2368     		ldr	r3, [r4]
 1766 003a 9A42     		cmp	r2, r3
 1767 003c 01D1     		bne	.L169
ARM GAS  C:\Users\sjacq\AppData\Local\Temp\cchqjAcS.s 			page 32


 1768 003e 02B0     		add	sp, sp, #8
 1769              		.cfi_remember_state
 1770              		.cfi_def_cfa_offset 16
 1771              		@ sp needed
 1772 0040 70BD     		pop	{r4, r5, r6, pc}
 1773              	.L169:
 1774              		.cfi_restore_state
 1775 0042 FFF7FEFF 		bl	__stack_chk_fail
 1776              	.LVL109:
 1777              	.L171:
 1778 0046 00BF     		.align	2
 1779              	.L170:
 1780 0048 00000000 		.word	.LANCHOR3
 1781 004c 00000000 		.word	__stack_chk_guard
 1782 0050 00000000 		.word	.LANCHOR13
 1783              		.cfi_endproc
 1784              	.LFE271:
 1785              		.size	calibrate_gyro, .-calibrate_gyro
 1786              		.section	.text.get_gyro_rate,"ax",%progbits
 1787              		.align	1
 1788              		.p2align 4,,15
 1789              		.global	get_gyro_rate
 1790              		.syntax unified
 1791              		.thumb
 1792              		.thumb_func
 1793              		.fpu fpv4-sp-d16
 1794              		.type	get_gyro_rate, %function
 1795              	get_gyro_rate:
 1796              	.LFB272:
 1797              		.loc 1 315 0
 1798              		.cfi_startproc
 1799              		@ args = 0, pretend = 0, frame = 8
 1800              		@ frame_needed = 0, uses_anonymous_args = 0
 1801              	.LVL110:
 1802 0000 00B5     		push	{lr}
 1803              		.cfi_def_cfa_offset 4
 1804              		.cfi_offset 14, -4
 1805 0002 0B4B     		ldr	r3, .L178
 1806 0004 83B0     		sub	sp, sp, #12
 1807              		.cfi_def_cfa_offset 16
 1808              		.loc 1 315 0
 1809 0006 1A68     		ldr	r2, [r3]
 1810 0008 0192     		str	r2, [sp, #4]
 1811              		.loc 1 316 0
 1812 000a 0228     		cmp	r0, #2
 1813              		.loc 1 317 0
 1814 000c 96BF     		itet	ls
 1815 000e 094A     		ldrls	r2, .L178+4
 1816              		.loc 1 319 0
 1817 0010 9FED090A 		vldrhi.32	s0, .L178+8
 1818              		.loc 1 317 0
 1819 0014 02EB8000 		addls	r0, r2, r0, lsl #2
 1820              	.LVL111:
 1821              		.loc 1 320 0
 1822 0018 019A     		ldr	r2, [sp, #4]
 1823 001a 1B68     		ldr	r3, [r3]
 1824              		.loc 1 317 0
ARM GAS  C:\Users\sjacq\AppData\Local\Temp\cchqjAcS.s 			page 33


 1825 001c 98BF     		it	ls
 1826 001e 90ED030A 		vldrls.32	s0, [r0, #12]
 1827              		.loc 1 320 0
 1828 0022 9A42     		cmp	r2, r3
 1829 0024 02D1     		bne	.L177
 1830 0026 03B0     		add	sp, sp, #12
 1831              		.cfi_remember_state
 1832              		.cfi_def_cfa_offset 4
 1833              		@ sp needed
 1834 0028 5DF804FB 		ldr	pc, [sp], #4
 1835              	.L177:
 1836              		.cfi_restore_state
 1837 002c FFF7FEFF 		bl	__stack_chk_fail
 1838              	.LVL112:
 1839              	.L179:
 1840              		.align	2
 1841              	.L178:
 1842 0030 00000000 		.word	__stack_chk_guard
 1843 0034 00000000 		.word	.LANCHOR1
 1844 0038 00000000 		.word	0
 1845              		.cfi_endproc
 1846              	.LFE272:
 1847              		.size	get_gyro_rate, .-get_gyro_rate
 1848              		.section	.text.get_temperature,"ax",%progbits
 1849              		.align	1
 1850              		.p2align 4,,15
 1851              		.global	get_temperature
 1852              		.syntax unified
 1853              		.thumb
 1854              		.thumb_func
 1855              		.fpu fpv4-sp-d16
 1856              		.type	get_temperature, %function
 1857              	get_temperature:
 1858              	.LFB273:
 1859              		.loc 1 322 0
 1860              		.cfi_startproc
 1861              		@ args = 0, pretend = 0, frame = 8
 1862              		@ frame_needed = 0, uses_anonymous_args = 0
 1863 0000 00B5     		push	{lr}
 1864              		.cfi_def_cfa_offset 4
 1865              		.cfi_offset 14, -4
 1866 0002 084B     		ldr	r3, .L184
 1867              		.loc 1 323 0
 1868 0004 0849     		ldr	r1, .L184+4
 1869              		.loc 1 322 0
 1870 0006 1A68     		ldr	r2, [r3]
 1871              		.loc 1 324 0
 1872 0008 91ED060A 		vldr.32	s0, [r1, #24]
 1873              		.loc 1 322 0
 1874 000c 83B0     		sub	sp, sp, #12
 1875              		.cfi_def_cfa_offset 16
 1876              		.loc 1 322 0
 1877 000e 0192     		str	r2, [sp, #4]
 1878              		.loc 1 324 0
 1879 0010 019A     		ldr	r2, [sp, #4]
 1880 0012 1B68     		ldr	r3, [r3]
 1881 0014 9A42     		cmp	r2, r3
ARM GAS  C:\Users\sjacq\AppData\Local\Temp\cchqjAcS.s 			page 34


 1882 0016 02D1     		bne	.L183
 1883 0018 03B0     		add	sp, sp, #12
 1884              		.cfi_remember_state
 1885              		.cfi_def_cfa_offset 4
 1886              		@ sp needed
 1887 001a 5DF804FB 		ldr	pc, [sp], #4
 1888              	.L183:
 1889              		.cfi_restore_state
 1890 001e FFF7FEFF 		bl	__stack_chk_fail
 1891              	.LVL113:
 1892              	.L185:
 1893 0022 00BF     		.align	2
 1894              	.L184:
 1895 0024 00000000 		.word	__stack_chk_guard
 1896 0028 00000000 		.word	.LANCHOR1
 1897              		.cfi_endproc
 1898              	.LFE273:
 1899              		.size	get_temperature, .-get_temperature
 1900              		.section	.bss.accAxisFilteringInProgress,"aw",%nobits
 1901              		.set	.LANCHOR4,. + 0
 1902              		.type	accAxisFilteringInProgress, %object
 1903              		.size	accAxisFilteringInProgress, 1
 1904              	accAxisFilteringInProgress:
 1905 0000 00       		.space	1
 1906              		.section	.bss.accAxisFilteringState,"aw",%nobits
 1907              		.set	.LANCHOR5,. + 0
 1908              		.type	accAxisFilteringState, %object
 1909              		.size	accAxisFilteringState, 1
 1910              	accAxisFilteringState:
 1911 0000 00       		.space	1
 1912              		.section	.bss.accAxisSelected,"aw",%nobits
 1913              		.set	.LANCHOR6,. + 0
 1914              		.type	accAxisSelected, %object
 1915              		.size	accAxisSelected, 1
 1916              	accAxisSelected:
 1917 0000 00       		.space	1
 1918              		.section	.bss.accCalibrationInProgress,"aw",%nobits
 1919              		.set	.LANCHOR8,. + 0
 1920              		.type	accCalibrationInProgress, %object
 1921              		.size	accCalibrationInProgress, 1
 1922              	accCalibrationInProgress:
 1923 0000 00       		.space	1
 1924              		.section	.bss.accFilterSize,"aw",%nobits
 1925              		.set	.LANCHOR7,. + 0
 1926              		.type	accFilterSize, %object
 1927              		.size	accFilterSize, 1
 1928              	accFilterSize:
 1929 0000 00       		.space	1
 1930              		.section	.bss.gyroAxisFilteringInProgress,"aw",%nobits
 1931              		.set	.LANCHOR9,. + 0
 1932              		.type	gyroAxisFilteringInProgress, %object
 1933              		.size	gyroAxisFilteringInProgress, 1
 1934              	gyroAxisFilteringInProgress:
 1935 0000 00       		.space	1
 1936              		.section	.bss.gyroAxisFilteringState,"aw",%nobits
 1937              		.set	.LANCHOR10,. + 0
 1938              		.type	gyroAxisFilteringState, %object
ARM GAS  C:\Users\sjacq\AppData\Local\Temp\cchqjAcS.s 			page 35


 1939              		.size	gyroAxisFilteringState, 1
 1940              	gyroAxisFilteringState:
 1941 0000 00       		.space	1
 1942              		.section	.bss.gyroAxisSelected,"aw",%nobits
 1943              		.set	.LANCHOR11,. + 0
 1944              		.type	gyroAxisSelected, %object
 1945              		.size	gyroAxisSelected, 1
 1946              	gyroAxisSelected:
 1947 0000 00       		.space	1
 1948              		.section	.bss.gyroCalibrationInProgress,"aw",%nobits
 1949              		.set	.LANCHOR13,. + 0
 1950              		.type	gyroCalibrationInProgress, %object
 1951              		.size	gyroCalibrationInProgress, 1
 1952              	gyroCalibrationInProgress:
 1953 0000 00       		.space	1
 1954              		.section	.bss.gyroFilterSize,"aw",%nobits
 1955              		.set	.LANCHOR12,. + 0
 1956              		.type	gyroFilterSize, %object
 1957              		.size	gyroFilterSize, 1
 1958              	gyroFilterSize:
 1959 0000 00       		.space	1
 1960              		.section	.bss.imuThd,"aw",%nobits
 1961              		.align	2
 1962              		.set	.LANCHOR15,. + 0
 1963              		.type	imuThd, %object
 1964              		.size	imuThd, 4
 1965              	imuThd:
 1966 0000 00000000 		.space	4
 1967              		.section	.bss.imu_configured,"aw",%nobits
 1968              		.set	.LANCHOR3,. + 0
 1969              		.type	imu_configured, %object
 1970              		.size	imu_configured, 1
 1971              	imu_configured:
 1972 0000 00       		.space	1
 1973              		.section	.bss.imu_reader_thd_wa,"aw",%nobits
 1974              		.align	3
 1975              		.set	.LANCHOR14,. + 0
 1976              		.type	imu_reader_thd_wa, %object
 1977              		.size	imu_reader_thd_wa, 888
 1978              	imu_reader_thd_wa:
 1979 0000 00000000 		.space	888
 1979      00000000 
 1979      00000000 
 1979      00000000 
 1979      00000000 
 1980              		.section	.bss.imu_values,"aw",%nobits
 1981              		.align	2
 1982              		.set	.LANCHOR1,. + 0
 1983              		.type	imu_values, %object
 1984              		.size	imu_values, 80
 1985              	imu_values:
 1986 0000 00000000 		.space	80
 1986      00000000 
 1986      00000000 
 1986      00000000 
 1986      00000000 
 1987              		.section	.rodata.__FUNCTION__.11504,"a",%progbits
ARM GAS  C:\Users\sjacq\AppData\Local\Temp\cchqjAcS.s 			page 36


 1988              		.align	2
 1989              		.set	.LANCHOR0,. + 0
 1990              		.type	__FUNCTION__.11504, %object
 1991              		.size	__FUNCTION__.11504, 15
 1992              	__FUNCTION__.11504:
 1993 0000 696D755F 		.ascii	"imu_reader_thd\000"
 1993      72656164 
 1993      65725F74 
 1993      686400
 1994              		.section	.rodata.__func__.7153,"a",%progbits
 1995              		.align	2
 1996              		.set	.LANCHOR2,. + 0
 1997              		.type	__func__.7153, %object
 1998              		.size	__func__.7153, 12
 1999              	__func__.7153:
 2000 0000 63685379 		.ascii	"chSysUnlock\000"
 2000      73556E6C 
 2000      6F636B00 
 2001              		.section	.rodata.imu_reader_thd.str1.4,"aMS",%progbits,1
 2002              		.align	2
 2003              	.LC0:
 2004 0000 2F696D75 		.ascii	"/imu\000"
 2004      00
 2005              		.text
 2006              	.Letext0:
 2007              		.file 7 "c:\\users\\sjacq\\desktop\\eclipse_e-puck2_win32_29_jan_2020\\eclipse_e-puck2\\tools\\gcc
 2008              		.file 8 "c:\\users\\sjacq\\desktop\\eclipse_e-puck2_win32_29_jan_2020\\eclipse_e-puck2\\tools\\gcc
 2009              		.file 9 "c:\\users\\sjacq\\desktop\\eclipse_e-puck2_win32_29_jan_2020\\eclipse_e-puck2\\tools\\gcc
 2010              		.file 10 "../../lib/e-puck2_main-processor/ChibiOS//os/rt/ports/ARMCMx/compilers/GCC/chtypes.h"
 2011              		.file 11 "../../lib/e-puck2_main-processor/ChibiOS//os/rt/include/chsystypes.h"
 2012              		.file 12 "../../lib/e-puck2_main-processor/ChibiOS//os/rt/include/chschd.h"
 2013              		.file 13 "../../lib/e-puck2_main-processor/ChibiOS//os/ext/CMSIS/include/core_cm4.h"
 2014              		.file 14 "../../lib/e-puck2_main-processor/ChibiOS//os/ext/CMSIS/ST/system_stm32f4xx.h"
 2015              		.file 15 "../../lib/e-puck2_main-processor/ChibiOS//os/ext/CMSIS/ST/stm32f407xx.h"
 2016              		.file 16 "../../lib/e-puck2_main-processor/ChibiOS//os/rt/ports/ARMCMx/chcore.h"
 2017              		.file 17 "../../lib/e-puck2_main-processor/ChibiOS//os/rt/ports/ARMCMx/chcore_v7m.h"
 2018              		.file 18 "../../lib/e-puck2_main-processor/ChibiOS//os/rt/include/chdebug.h"
 2019              		.file 19 "../../lib/e-puck2_main-processor/ChibiOS//os/rt/include/chtm.h"
 2020              		.file 20 "../../lib/e-puck2_main-processor/ChibiOS//os/rt/include/chstats.h"
 2021              		.file 21 "../../lib/e-puck2_main-processor/ChibiOS//os/rt/include/chsem.h"
 2022              		.file 22 "../../lib/e-puck2_main-processor/ChibiOS//os/rt/include/chmtx.h"
 2023              		.file 23 "../../lib/e-puck2_main-processor/ChibiOS//os/rt/include/chbsem.h"
 2024              		.file 24 "../../lib/e-puck2_main-processor/ChibiOS//os/rt/include/chcond.h"
 2025              		.file 25 "../../lib/e-puck2_main-processor/ChibiOS//os/rt/include/chevents.h"
 2026              		.file 26 "../../lib/e-puck2_main-processor/ChibiOS//os/rt/include/chqueues.h"
 2027              		.file 27 "../../lib/e-puck2_main-processor/ChibiOS//os/hal/ports/STM32/STM32F4xx/stm32_dma.h"
 2028              		.file 28 "../../lib/e-puck2_main-processor/ChibiOS//os/hal/include/hal_ioblock.h"
 2029              		.file 29 "../../lib/e-puck2_main-processor/ChibiOS//os/hal/ports/STM32/LLD/GPIOv2/pal_lld.h"
 2030              		.file 30 "../../lib/e-puck2_main-processor/ChibiOS//os/hal/include/adc.h"
 2031              		.file 31 "../../lib/e-puck2_main-processor/ChibiOS//os/hal/ports/STM32/STM32F4xx/adc_lld.h"
 2032              		.file 32 "../../lib/e-puck2_main-processor/ChibiOS//os/hal/include/can.h"
 2033              		.file 33 "../../lib/e-puck2_main-processor/ChibiOS//os/hal/ports/STM32/LLD/can_lld.h"
 2034              		.file 34 "../../lib/e-puck2_main-processor/ChibiOS//os/hal/include/dac.h"
 2035              		.file 35 "../../lib/e-puck2_main-processor/ChibiOS//os/hal/ports/STM32/LLD/DACv1/dac_lld.h"
 2036              		.file 36 "../../lib/e-puck2_main-processor/ChibiOS//os/hal/include/ext.h"
 2037              		.file 37 "../../lib/e-puck2_main-processor/ChibiOS//os/hal/ports/STM32/LLD/ext_lld.h"
 2038              		.file 38 "../../lib/e-puck2_main-processor/ChibiOS//os/hal/include/gpt.h"
ARM GAS  C:\Users\sjacq\AppData\Local\Temp\cchqjAcS.s 			page 37


 2039              		.file 39 "../../lib/e-puck2_main-processor/ChibiOS//os/hal/ports/STM32/LLD/TIMv1/gpt_lld.h"
 2040              		.file 40 "../../lib/e-puck2_main-processor/ChibiOS//os/hal/ports/STM32/LLD/TIMv1/stm32_tim.h"
 2041              		.file 41 "../../lib/e-puck2_main-processor/ChibiOS//os/hal/include/i2c.h"
 2042              		.file 42 "../../lib/e-puck2_main-processor/ChibiOS//os/hal/ports/STM32/LLD/I2Cv1/i2c_lld.h"
 2043              		.file 43 "../../lib/e-puck2_main-processor/ChibiOS//os/hal/include/i2s.h"
 2044              		.file 44 "../../lib/e-puck2_main-processor/ChibiOS//os/hal/ports/STM32/LLD/SPIv1/i2s_lld.h"
 2045              		.file 45 "../../lib/e-puck2_main-processor/ChibiOS//os/hal/include/pwm.h"
 2046              		.file 46 "../../lib/e-puck2_main-processor/ChibiOS//os/hal/ports/STM32/LLD/TIMv1/pwm_lld.h"
 2047              		.file 47 "../../lib/e-puck2_main-processor/ChibiOS//os/hal/include/serial.h"
 2048              		.file 48 "../../lib/e-puck2_main-processor/ChibiOS//os/hal/ports/STM32/LLD/USARTv1/serial_lld.h"
 2049              		.file 49 "../../lib/e-puck2_main-processor/ChibiOS//os/hal/include/sdc.h"
 2050              		.file 50 "../../lib/e-puck2_main-processor/ChibiOS//os/hal/ports/STM32/LLD/sdc_lld.h"
 2051              		.file 51 "../../lib/e-puck2_main-processor/ChibiOS//os/hal/include/spi.h"
 2052              		.file 52 "../../lib/e-puck2_main-processor/ChibiOS//os/hal/ports/STM32/LLD/SPIv1/spi_lld.h"
 2053              		.file 53 "../../lib/e-puck2_main-processor/ChibiOS//os/hal/include/usb.h"
 2054              		.file 54 "../../lib/e-puck2_main-processor/ChibiOS//os/hal/ports/STM32/LLD/OTGv1/usb_lld.h"
 2055              		.file 55 "../../lib/e-puck2_main-processor/ChibiOS//os/hal/ports/STM32/LLD/OTGv1/stm32_otg.h"
 2056              		.file 56 "../../lib/e-puck2_main-processor/ChibiOS//os/hal/include/serial_usb.h"
 2057              		.file 57 "../../lib/e-puck2_main-processor/ChibiOS_ext/os/hal/include/../ports/STM32/STM32F4xx/dcm
 2058              		.file 58 "c:\\users\\sjacq\\desktop\\eclipse_e-puck2_win32_29_jan_2020\\eclipse_e-puck2\\tools\\gc
 2059              		.file 59 "c:\\users\\sjacq\\desktop\\eclipse_e-puck2_win32_29_jan_2020\\eclipse_e-puck2\\tools\\gc
 2060              		.file 60 "c:\\users\\sjacq\\desktop\\eclipse_e-puck2_win32_29_jan_2020\\eclipse_e-puck2\\tools\\gc
 2061              		.file 61 "../../lib/e-puck2_main-processor/src/msgbus/messagebus.h"
 2062              		.file 62 "c:\\users\\sjacq\\desktop\\eclipse_e-puck2_win32_29_jan_2020\\eclipse_e-puck2\\tools\\gc
 2063              		.file 63 "c:\\users\\sjacq\\desktop\\eclipse_e-puck2_win32_29_jan_2020\\eclipse_e-puck2\\tools\\gc
 2064              		.file 64 "../../lib/e-puck2_main-processor/src/parameter/parameter.h"
 2065              		.file 65 "../../lib/e-puck2_main-processor/src/sensors/mpu9250.h"
 2066              		.file 66 "../../lib/e-puck2_main-processor/src/sensors/imu.h"
 2067              		.file 67 "./Restart_Programm.h"
 2068              		.file 68 "./main.h"
 2069              		.file 69 "../../lib/e-puck2_main-processor/src/usbcfg.h"
 2070              		.file 70 "../../lib/e-puck2_main-processor/src/exti.h"
 2071              		.file 71 "../../lib/e-puck2_main-processor/src/i2c_bus.h"