ARM GAS  C:\Users\sjacq\AppData\Local\Temp\ccBl8mzn.s 			page 1


   1              		.cpu cortex-m4
   2              		.eabi_attribute 27, 1
   3              		.eabi_attribute 28, 1
   4              		.eabi_attribute 20, 1
   5              		.eabi_attribute 21, 1
   6              		.eabi_attribute 23, 3
   7              		.eabi_attribute 24, 1
   8              		.eabi_attribute 25, 1
   9              		.eabi_attribute 26, 1
  10              		.eabi_attribute 30, 2
  11              		.eabi_attribute 34, 1
  12              		.eabi_attribute 18, 4
  13              		.file	"main.c"
  14              		.text
  15              	.Ltext0:
  16              		.cfi_sections	.debug_frame
  17              		.section	.text.ThdSwitch_Selector,"ax",%progbits
  18              		.align	1
  19              		.p2align 4,,15
  20              		.syntax unified
  21              		.thumb
  22              		.thumb_func
  23              		.fpu fpv4-sp-d16
  24              		.type	ThdSwitch_Selector, %function
  25              	ThdSwitch_Selector:
  26              	.LFB268:
  27              		.file 1 "main.c"
  28              		.loc 1 175 0
  29              		.cfi_startproc
  30              		@ args = 0, pretend = 0, frame = 8
  31              		@ frame_needed = 0, uses_anonymous_args = 0
  32              	.LVL0:
  33 0000 00B5     		push	{lr}
  34              		.cfi_def_cfa_offset 4
  35              		.cfi_offset 14, -4
  36              	.LBB30:
  37              	.LBB31:
  38              		.file 2 "../../lib/e-puck2_main-processor/ChibiOS//os/rt/include/chregistry.h"
  39              		.loc 2 135 0
  40 0002 054A     		ldr	r2, .L7
  41              	.LBE31:
  42              	.LBE30:
  43              		.loc 1 175 0
  44 0004 054B     		ldr	r3, .L7+4
  45              	.LBB34:
  46              	.LBB32:
  47              		.loc 2 135 0
  48 0006 9269     		ldr	r2, [r2, #24]
  49 0008 0549     		ldr	r1, .L7+8
  50              	.LBE32:
  51              	.LBE34:
  52              		.loc 1 175 0
  53 000a 1B68     		ldr	r3, [r3]
  54              	.LBB35:
  55              	.LBB33:
  56              		.loc 2 135 0
  57 000c 9161     		str	r1, [r2, #24]
ARM GAS  C:\Users\sjacq\AppData\Local\Temp\ccBl8mzn.s 			page 2


  58              	.LBE33:
  59              	.LBE35:
  60              		.loc 1 175 0
  61 000e 83B0     		sub	sp, sp, #12
  62              		.cfi_def_cfa_offset 16
  63              		.loc 1 175 0
  64 0010 0193     		str	r3, [sp, #4]
  65              	.LVL1:
  66              	.L5:
  67              		.loc 1 179 0
  68 0012 FFF7FEFF 		bl	get_selector
  69              	.LVL2:
  70 0016 FCE7     		b	.L5
  71              	.L8:
  72              		.align	2
  73              	.L7:
  74 0018 00000000 		.word	ch
  75 001c 00000000 		.word	__stack_chk_guard
  76 0020 00000000 		.word	.LANCHOR0
  77              		.cfi_endproc
  78              	.LFE268:
  79              		.size	ThdSwitch_Selector, .-ThdSwitch_Selector
  80              		.section	.text.ThdIMU_Pen_Tracker,"ax",%progbits
  81              		.align	1
  82              		.p2align 4,,15
  83              		.syntax unified
  84              		.thumb
  85              		.thumb_func
  86              		.fpu fpv4-sp-d16
  87              		.type	ThdIMU_Pen_Tracker, %function
  88              	ThdIMU_Pen_Tracker:
  89              	.LFB269:
  90              		.loc 1 191 0
  91              		.cfi_startproc
  92              		@ args = 0, pretend = 0, frame = 8
  93              		@ frame_needed = 0, uses_anonymous_args = 0
  94              	.LVL3:
  95 0000 10B5     		push	{r4, lr}
  96              		.cfi_def_cfa_offset 8
  97              		.cfi_offset 4, -8
  98              		.cfi_offset 14, -4
  99              	.LBB36:
 100              	.LBB37:
 101              		.loc 2 135 0
 102 0002 254A     		ldr	r2, .L20
 103              	.LBE37:
 104              	.LBE36:
 105              		.loc 1 191 0
 106 0004 254B     		ldr	r3, .L20+4
 107              	.LBB40:
 108              	.LBB38:
 109              		.loc 2 135 0
 110 0006 9269     		ldr	r2, [r2, #24]
 111 0008 2549     		ldr	r1, .L20+8
 112              	.LBE38:
 113              	.LBE40:
 114              		.loc 1 191 0
ARM GAS  C:\Users\sjacq\AppData\Local\Temp\ccBl8mzn.s 			page 3


 115 000a 1B68     		ldr	r3, [r3]
 116              	.LBB41:
 117              	.LBB39:
 118              		.loc 2 135 0
 119 000c 9161     		str	r1, [r2, #24]
 120              	.LBE39:
 121              	.LBE41:
 122              		.loc 1 191 0
 123 000e 82B0     		sub	sp, sp, #8
 124              		.cfi_def_cfa_offset 16
 125              		.loc 1 199 0
 126 0010 0020     		movs	r0, #0
 127              	.LVL4:
 128              		.loc 1 191 0
 129 0012 0193     		str	r3, [sp, #4]
 130              	.LVL5:
 131              		.loc 1 199 0
 132 0014 FFF7FEFF 		bl	left_motor_set_pos
 133              	.LVL6:
 134              		.loc 1 200 0
 135 0018 0020     		movs	r0, #0
 136 001a FFF7FEFF 		bl	right_motor_set_pos
 137              	.LVL7:
 138              	.L10:
 139              	.LBB42:
 140              		.loc 1 203 0
 141 001e FFF7FEFF 		bl	left_motor_get_pos
 142              	.LVL8:
 143 0022 0446     		mov	r4, r0
 144              	.LVL9:
 145              		.loc 1 204 0
 146 0024 FFF7FEFF 		bl	right_motor_get_pos
 147              	.LVL10:
 148              		.loc 1 207 0
 149 0028 B4F5FA7F 		cmp	r4, #500
 150 002c 16DC     		bgt	.L17
 151              	.L11:
 152              		.loc 1 211 0
 153 002e 0A34     		adds	r4, r4, #10
 154              	.LVL11:
 155 0030 1EDB     		blt	.L18
 156              		.loc 1 215 0
 157 0032 B0F5FA7F 		cmp	r0, #500
 158 0036 24DC     		bgt	.L19
 159              		.loc 1 219 0
 160 0038 0A30     		adds	r0, r0, #10
 161              	.LVL12:
 162 003a F0DA     		bge	.L10
 163              		.loc 1 220 0
 164 003c 0020     		movs	r0, #0
 165              	.LVL13:
 166 003e FFF7FEFF 		bl	right_motor_set_speed
 167              	.LVL14:
 168              		.loc 1 221 0
 169 0042 0A21     		movs	r1, #10
 170 0044 4FF49670 		mov	r0, #300
 171 0048 FFF7FEFF 		bl	right_motor_get_to_the_pos
ARM GAS  C:\Users\sjacq\AppData\Local\Temp\ccBl8mzn.s 			page 4


 172              	.LVL15:
 173              		.loc 1 203 0
 174 004c FFF7FEFF 		bl	left_motor_get_pos
 175              	.LVL16:
 176 0050 0446     		mov	r4, r0
 177              	.LVL17:
 178              		.loc 1 204 0
 179 0052 FFF7FEFF 		bl	right_motor_get_pos
 180              	.LVL18:
 181              		.loc 1 207 0
 182 0056 B4F5FA7F 		cmp	r4, #500
 183 005a E8DD     		ble	.L11
 184              	.L17:
 185              		.loc 1 208 0
 186 005c 0020     		movs	r0, #0
 187              	.LVL19:
 188 005e FFF7FEFF 		bl	left_motor_set_speed
 189              	.LVL20:
 190              		.loc 1 209 0
 191 0062 6FF00901 		mvn	r1, #9
 192 0066 4FF49670 		mov	r0, #300
 193 006a FFF7FEFF 		bl	left_motor_get_to_the_pos
 194              	.LVL21:
 195 006e D6E7     		b	.L10
 196              	.LVL22:
 197              	.L18:
 198              		.loc 1 212 0
 199 0070 0020     		movs	r0, #0
 200              	.LVL23:
 201 0072 FFF7FEFF 		bl	left_motor_set_speed
 202              	.LVL24:
 203              		.loc 1 213 0
 204 0076 0A21     		movs	r1, #10
 205 0078 4FF49670 		mov	r0, #300
 206 007c FFF7FEFF 		bl	left_motor_get_to_the_pos
 207              	.LVL25:
 208 0080 CDE7     		b	.L10
 209              	.LVL26:
 210              	.L19:
 211              		.loc 1 216 0
 212 0082 0020     		movs	r0, #0
 213              	.LVL27:
 214 0084 FFF7FEFF 		bl	right_motor_set_speed
 215              	.LVL28:
 216              		.loc 1 217 0
 217 0088 6FF00901 		mvn	r1, #9
 218 008c 4FF49670 		mov	r0, #300
 219 0090 FFF7FEFF 		bl	right_motor_get_to_the_pos
 220              	.LVL29:
 221 0094 C3E7     		b	.L10
 222              	.L21:
 223 0096 00BF     		.align	2
 224              	.L20:
 225 0098 00000000 		.word	ch
 226 009c 00000000 		.word	__stack_chk_guard
 227 00a0 00000000 		.word	.LANCHOR1
 228              	.LBE42:
ARM GAS  C:\Users\sjacq\AppData\Local\Temp\ccBl8mzn.s 			page 5


 229              		.cfi_endproc
 230              	.LFE269:
 231              		.size	ThdIMU_Pen_Tracker, .-ThdIMU_Pen_Tracker
 232              		.section	.text.Drawing_test_func,"ax",%progbits
 233              		.align	1
 234              		.p2align 4,,15
 235              		.global	Drawing_test_func
 236              		.syntax unified
 237              		.thumb
 238              		.thumb_func
 239              		.fpu fpv4-sp-d16
 240              		.type	Drawing_test_func, %function
 241              	Drawing_test_func:
 242              	.LFB260:
 243              		.file 3 "./Drawing_test_function.c"
 244              		.loc 3 82 0
 245              		.cfi_startproc
 246              		@ args = 0, pretend = 0, frame = 8
 247              		@ frame_needed = 0, uses_anonymous_args = 0
 248 0000 F0B5     		push	{r4, r5, r6, r7, lr}
 249              		.cfi_def_cfa_offset 20
 250              		.cfi_offset 4, -20
 251              		.cfi_offset 5, -16
 252              		.cfi_offset 6, -12
 253              		.cfi_offset 7, -8
 254              		.cfi_offset 14, -4
 255 0002 224D     		ldr	r5, .L32
 256 0004 224C     		ldr	r4, .L32+4
 257 0006 2B68     		ldr	r3, [r5]
 258 0008 83B0     		sub	sp, sp, #12
 259              		.cfi_def_cfa_offset 32
 260              		.loc 3 84 0
 261 000a 44F62060 		movw	r0, #20000
 262              		.loc 3 82 0
 263 000e 0193     		str	r3, [sp, #4]
 264 0010 04F5C077 		add	r7, r4, #384
 265              		.loc 3 84 0
 266 0014 FFF7FEFF 		bl	chThdSleep
 267              	.LVL30:
 268 0018 0026     		movs	r6, #0
 269 001a 0121     		movs	r1, #1
 270 001c 4FF4CD73 		mov	r3, #410
 271 0020 08E0     		b	.L26
 272              	.LVL31:
 273              	.L23:
 274              	.LBB43:
 275              		.loc 3 102 0
 276 0022 012E     		cmp	r6, #1
 277 0024 21D0     		beq	.L29
 278              	.LVL32:
 279              	.L24:
 280 0026 0C34     		adds	r4, r4, #12
 281              		.loc 3 91 0 discriminator 2
 282 0028 BC42     		cmp	r4, r7
 283 002a 18D0     		beq	.L22
 284              	.L30:
 285 002c 54E90213 		ldrd	r1, r3, [r4, #-8]
ARM GAS  C:\Users\sjacq\AppData\Local\Temp\ccBl8mzn.s 			page 6


 286 0030 54F80C6C 		ldr	r6, [r4, #-12]
 287              	.L26:
 288              		.loc 3 93 0
 289 0034 9BB2     		uxth	r3, r3
 290              	.LVL33:
 291              		.loc 3 94 0
 292 0036 49B2     		sxtb	r1, r1
 293              	.LVL34:
 294              		.loc 3 96 0
 295 0038 002E     		cmp	r6, #0
 296 003a F2D1     		bne	.L23
 297              		.loc 3 98 0
 298 003c 11FB03F1 		smulbb	r1, r1, r3
 299              	.LVL35:
 300 0040 09B2     		sxth	r1, r1
 301 0042 4FF49670 		mov	r0, #300
 302 0046 FFF7FEFF 		bl	left_motor_get_to_the_pos
 303              	.LVL36:
 304              		.loc 3 99 0
 305 004a 3046     		mov	r0, r6
 306 004c 3221     		movs	r1, #50
 307 004e FFF7FEFF 		bl	left_motor_get_to_the_pos
 308              	.LVL37:
 309 0052 0C34     		adds	r4, r4, #12
 310              		.loc 3 100 0
 311 0054 6420     		movs	r0, #100
 312 0056 FFF7FEFF 		bl	chThdSleep
 313              	.LVL38:
 314              		.loc 3 91 0
 315 005a BC42     		cmp	r4, r7
 316 005c E6D1     		bne	.L30
 317              	.L22:
 318              	.LBE43:
 319              		.loc 3 110 0
 320 005e 019A     		ldr	r2, [sp, #4]
 321 0060 2B68     		ldr	r3, [r5]
 322 0062 9A42     		cmp	r2, r3
 323 0064 10D1     		bne	.L31
 324 0066 03B0     		add	sp, sp, #12
 325              		.cfi_remember_state
 326              		.cfi_def_cfa_offset 20
 327              		@ sp needed
 328 0068 F0BD     		pop	{r4, r5, r6, r7, pc}
 329              	.LVL39:
 330              	.L29:
 331              		.cfi_restore_state
 332              	.LBB44:
 333              		.loc 3 104 0
 334 006a 11FB03F1 		smulbb	r1, r1, r3
 335              	.LVL40:
 336 006e 09B2     		sxth	r1, r1
 337 0070 4FF49670 		mov	r0, #300
 338 0074 FFF7FEFF 		bl	right_motor_get_to_the_pos
 339              	.LVL41:
 340              		.loc 3 105 0
 341 0078 3221     		movs	r1, #50
 342 007a 0020     		movs	r0, #0
ARM GAS  C:\Users\sjacq\AppData\Local\Temp\ccBl8mzn.s 			page 7


 343 007c FFF7FEFF 		bl	right_motor_get_to_the_pos
 344              	.LVL42:
 345              		.loc 3 106 0
 346 0080 6420     		movs	r0, #100
 347 0082 FFF7FEFF 		bl	chThdSleep
 348              	.LVL43:
 349 0086 CEE7     		b	.L24
 350              	.L31:
 351              	.LBE44:
 352              		.loc 3 110 0
 353 0088 FFF7FEFF 		bl	__stack_chk_fail
 354              	.LVL44:
 355              	.L33:
 356              		.align	2
 357              	.L32:
 358 008c 00000000 		.word	__stack_chk_guard
 359 0090 0C000000 		.word	.LANCHOR2+12
 360              		.cfi_endproc
 361              	.LFE260:
 362              		.size	Drawing_test_func, .-Drawing_test_func
 363              		.global	__aeabi_f2d
 364              		.global	__aeabi_d2f
 365              		.section	.text.Drawing_IMU,"ax",%progbits
 366              		.align	1
 367              		.p2align 4,,15
 368              		.global	Drawing_IMU
 369              		.syntax unified
 370              		.thumb
 371              		.thumb_func
 372              		.fpu fpv4-sp-d16
 373              		.type	Drawing_IMU, %function
 374              	Drawing_IMU:
 375              	.LFB263:
 376              		.file 4 "./Drawing_IMU_function.c"
 377              		.loc 4 65 0
 378              		.cfi_startproc
 379              		@ args = 0, pretend = 0, frame = 16
 380              		@ frame_needed = 0, uses_anonymous_args = 0
 381              	.LVL45:
 382 0000 70B5     		push	{r4, r5, r6, lr}
 383              		.cfi_def_cfa_offset 16
 384              		.cfi_offset 4, -16
 385              		.cfi_offset 5, -12
 386              		.cfi_offset 6, -8
 387              		.cfi_offset 14, -4
 388 0002 2DED028B 		vpush.64	{d8}
 389              		.cfi_def_cfa_offset 24
 390              		.cfi_offset 80, -24
 391              		.cfi_offset 81, -20
 392 0006 994D     		ldr	r5, .L109
 393              		.loc 4 68 0
 394 0008 994A     		ldr	r2, .L109+4
 395              		.loc 4 65 0
 396 000a 2B68     		ldr	r3, [r5]
 397              		.loc 4 68 0
 398 000c 9949     		ldr	r1, .L109+8
 399              		.loc 4 65 0
ARM GAS  C:\Users\sjacq\AppData\Local\Temp\ccBl8mzn.s 			page 8


 400 000e 84B0     		sub	sp, sp, #16
 401              		.cfi_def_cfa_offset 40
 402              		.loc 4 65 0
 403 0010 0446     		mov	r4, r0
 404              		.loc 4 68 0
 405 0012 9948     		ldr	r0, .L109+12
 406              	.LVL46:
 407              		.loc 4 65 0
 408 0014 0393     		str	r3, [sp, #12]
 409              		.loc 4 68 0
 410 0016 FFF7FEFF 		bl	messagebus_init
 411              	.LVL47:
 412              		.loc 4 118 0
 413 001a D4ED007A 		vldr.32	s15, [r4]
 414 001e 9FED977A 		vldr.32	s14, .L109+16
 415 0022 F0EEE77A 		vabs.f32	s15, s15
 416 0026 F4EEC77A 		vcmpe.f32	s15, s14
 417              		.loc 4 77 0
 418 002a 0023     		movs	r3, #0
 419              		.loc 4 118 0
 420 002c F1EE10FA 		vmrs	APSR_nzcv, FPSCR
 421              		.loc 4 77 0
 422 0030 ADF80A30 		strh	r3, [sp, #10]	@ movhi
 423              	.LVL48:
 424              		.loc 4 118 0
 425 0034 09DC     		bgt	.L35
 426              		.loc 4 118 0 is_stmt 0 discriminator 1
 427 0036 D4ED017A 		vldr.32	s15, [r4, #4]
 428 003a F0EEE77A 		vabs.f32	s15, s15
 429 003e F4EEC77A 		vcmpe.f32	s15, s14
 430 0042 F1EE10FA 		vmrs	APSR_nzcv, FPSCR
 431 0046 40F39580 		ble	.L34
 432              	.L35:
 433              	.LVL49:
 434              	.LBB56:
 435              	.LBB57:
 436              	.LBB58:
 437              	.LBB59:
 438              	.LBB60:
 439              	.LBB61:
 440              		.file 5 "../../lib/e-puck2_main-processor/ChibiOS//os/ext/CMSIS/include/core_cmFunc.h"
 441              		.loc 5 546 0 is_stmt 1
 442 004a 2023     		movs	r3, #32
 443              		.syntax unified
 444              	@ 546 "../../lib/e-puck2_main-processor/ChibiOS//os/ext/CMSIS/include/core_cmFunc.h" 1
 445 004c 83F31188 		MSR basepri, r3
 446              	@ 0 "" 2
 447              	.LVL50:
 448              		.thumb
 449              		.syntax unified
 450              	.LBE61:
 451              	.LBE60:
 452              	.LBE59:
 453              	.LBE58:
 454              	.LBE57:
 455              		.loc 4 122 0
 456 0050 8B4E     		ldr	r6, .L109+20
ARM GAS  C:\Users\sjacq\AppData\Local\Temp\ccBl8mzn.s 			page 9


 457              	.LBB63:
 458              	.LBB62:
 459              		.file 6 "../../lib/e-puck2_main-processor/ChibiOS//os/rt/include/chsys.h"
 460              		.loc 6 349 0
 461 0052 FFF7FEFF 		bl	_stats_start_measure_crit_thd
 462              	.LVL51:
 463              		.loc 6 350 0
 464 0056 FFF7FEFF 		bl	_dbg_check_lock
 465              	.LVL52:
 466              	.LBE62:
 467              	.LBE63:
 468              		.loc 4 122 0
 469 005a F368     		ldr	r3, [r6, #12]
 470 005c 0022     		movs	r2, #0
 471 005e 5A62     		str	r2, [r3, #36]
 472              		.loc 4 124 0
 473 0060 6068     		ldr	r0, [r4, #4]	@ float
 474 0062 FFF7FEFF 		bl	__aeabi_f2d
 475              	.LVL53:
 476 0066 CDE90001 		strd	r0, [sp]
 477 006a 2068     		ldr	r0, [r4]	@ float
 478 006c FFF7FEFF 		bl	__aeabi_f2d
 479              	.LVL54:
 480 0070 9DED001B 		vldr.64	d1, [sp]
 481 0074 41EC100B 		vmov	d0, r0, r1
 482 0078 FFF7FEFF 		bl	atan2
 483              	.LVL55:
 484 007c 51EC100B 		vmov	r0, r1, d0
 485 0080 FFF7FEFF 		bl	__aeabi_d2f
 486              	.LVL56:
 487              		.loc 4 126 0
 488 0084 F368     		ldr	r3, [r6, #12]
 489 0086 5B6A     		ldr	r3, [r3, #36]
 490 0088 9BB2     		uxth	r3, r3
 491 008a ADF80A30 		strh	r3, [sp, #10]	@ movhi
 492              		.loc 4 124 0
 493 008e 08EE100A 		vmov	s16, r0
 494              	.LVL57:
 495              	.LBB64:
 496              	.LBB65:
 497              		.loc 6 360 0
 498 0092 FFF7FEFF 		bl	_dbg_check_unlock
 499              	.LVL58:
 500              		.loc 6 361 0
 501 0096 FFF7FEFF 		bl	_stats_stop_measure_crit_thd
 502              	.LVL59:
 503              		.loc 6 367 0
 504 009a 7A4B     		ldr	r3, .L109+24
 505 009c 1A68     		ldr	r2, [r3]
 506 009e 9A42     		cmp	r2, r3
 507 00a0 05D0     		beq	.L37
 508 00a2 9969     		ldr	r1, [r3, #24]
 509 00a4 9368     		ldr	r3, [r2, #8]
 510 00a6 8A68     		ldr	r2, [r1, #8]
 511 00a8 9A42     		cmp	r2, r3
 512 00aa C0F0B680 		bcc	.L101
 513              	.L37:
ARM GAS  C:\Users\sjacq\AppData\Local\Temp\ccBl8mzn.s 			page 10


 514              	.LVL60:
 515              	.LBB66:
 516              	.LBB67:
 517              	.LBB68:
 518              		.loc 5 546 0
 519 00ae 0023     		movs	r3, #0
 520              		.syntax unified
 521              	@ 546 "../../lib/e-puck2_main-processor/ChibiOS//os/ext/CMSIS/include/core_cmFunc.h" 1
 522 00b0 83F31188 		MSR basepri, r3
 523              	@ 0 "" 2
 524              	.LVL61:
 525              		.thumb
 526              		.syntax unified
 527              	.LBE68:
 528              	.LBE67:
 529              	.LBE66:
 530              	.LBE65:
 531              	.LBE64:
 532              		.loc 4 130 0
 533 00b4 DFED747A 		vldr.32	s15, .L109+28
 534              		.loc 4 135 0
 535 00b8 9FED747A 		vldr.32	s14, .L109+32
 536              		.loc 4 130 0
 537 00bc 78EE277A 		vadd.f32	s15, s16, s15
 538              	.LVL62:
 539              		.loc 4 135 0
 540 00c0 F4EEC77A 		vcmpe.f32	s15, s14
 541 00c4 F1EE10FA 		vmrs	APSR_nzcv, FPSCR
 542              		.loc 4 136 0
 543 00c8 C4BF     		itt	gt
 544 00ca 9FED717A 		vldrgt.32	s14, .L109+36
 545 00ce 77EEC77A 		vsubgt.f32	s15, s15, s14
 546              	.LVL63:
 547              		.loc 4 140 0
 548 00d2 9FED707A 		vldr.32	s14, .L109+40
 549 00d6 F4EEC77A 		vcmpe.f32	s15, s14
 550 00da F1EE10FA 		vmrs	APSR_nzcv, FPSCR
 551 00de 07DD     		ble	.L40
 552              		.loc 4 140 0 is_stmt 0 discriminator 1
 553 00e0 9FED6D7A 		vldr.32	s14, .L109+44
 554 00e4 F4EEC77A 		vcmpe.f32	s15, s14
 555 00e8 F1EE10FA 		vmrs	APSR_nzcv, FPSCR
 556 00ec 00F1A380 		bmi	.L102
 557              	.L40:
 558              		.loc 4 144 0 is_stmt 1
 559 00f0 9FED697A 		vldr.32	s14, .L109+44
 560 00f4 F4EEC77A 		vcmpe.f32	s15, s14
 561 00f8 F1EE10FA 		vmrs	APSR_nzcv, FPSCR
 562 00fc 07DB     		blt	.L44
 563              		.loc 4 144 0 is_stmt 0 discriminator 1
 564 00fe 9FED677A 		vldr.32	s14, .L109+48
 565 0102 F4EEC77A 		vcmpe.f32	s15, s14
 566 0106 F1EE10FA 		vmrs	APSR_nzcv, FPSCR
 567 010a 00F1A580 		bmi	.L103
 568              	.L44:
 569              		.loc 4 148 0 is_stmt 1
 570 010e 9FED637A 		vldr.32	s14, .L109+48
ARM GAS  C:\Users\sjacq\AppData\Local\Temp\ccBl8mzn.s 			page 11


 571 0112 F4EEC77A 		vcmpe.f32	s15, s14
 572 0116 F1EE10FA 		vmrs	APSR_nzcv, FPSCR
 573 011a 33DA     		bge	.L104
 574              	.L48:
 575              		.loc 4 152 0
 576 011c 9FED607A 		vldr.32	s14, .L109+52
 577 0120 F4EEC77A 		vcmpe.f32	s15, s14
 578 0124 F1EE10FA 		vmrs	APSR_nzcv, FPSCR
 579 0128 07DB     		blt	.L52
 580              		.loc 4 152 0 is_stmt 0 discriminator 1
 581 012a 9FED5E7A 		vldr.32	s14, .L109+56
 582 012e F4EEC77A 		vcmpe.f32	s15, s14
 583 0132 F1EE10FA 		vmrs	APSR_nzcv, FPSCR
 584 0136 00F19180 		bmi	.L105
 585              	.L52:
 586              		.loc 4 156 0 is_stmt 1
 587 013a 9FED5A7A 		vldr.32	s14, .L109+56
 588 013e F4EEC77A 		vcmpe.f32	s15, s14
 589 0142 F1EE10FA 		vmrs	APSR_nzcv, FPSCR
 590 0146 26DB     		blt	.L56
 591              		.loc 4 156 0 is_stmt 0 discriminator 1
 592 0148 9FED577A 		vldr.32	s14, .L109+60
 593 014c F4EEC77A 		vcmpe.f32	s15, s14
 594 0150 F1EE10FA 		vmrs	APSR_nzcv, FPSCR
 595 0154 1FD5     		bpl	.L56
 596              		.loc 4 157 0 is_stmt 1
 597 0156 0020     		movs	r0, #0
 598              	.L98:
 599              		.loc 4 161 0
 600 0158 FFF7FEFF 		bl	left_motor_set_speed
 601              	.LVL64:
 602              		.loc 4 162 0
 603 015c 039A     		ldr	r2, [sp, #12]
 604 015e 2B68     		ldr	r3, [r5]
 605 0160 9A42     		cmp	r2, r3
 606 0162 58D1     		bne	.L96
 607 0164 5148     		ldr	r0, .L109+64
 608              	.L95:
 609              	.LBE56:
 610              		.loc 4 176 0
 611 0166 04B0     		add	sp, sp, #16
 612              		.cfi_remember_state
 613              		.cfi_def_cfa_offset 24
 614              		@ sp needed
 615 0168 BDEC028B 		vldm	sp!, {d8}
 616              		.cfi_restore 80
 617              		.cfi_restore 81
 618              		.cfi_def_cfa_offset 16
 619              	.LVL65:
 620 016c BDE87040 		pop	{r4, r5, r6, lr}
 621              		.cfi_restore 14
 622              		.cfi_restore 6
 623              		.cfi_restore 5
 624              		.cfi_restore 4
 625              		.cfi_def_cfa_offset 0
 626              	.LVL66:
 627              	.LBB71:
ARM GAS  C:\Users\sjacq\AppData\Local\Temp\ccBl8mzn.s 			page 12


 628              		.loc 4 173 0
 629 0170 FFF7FEBF 		b	right_motor_set_speed
 630              	.LVL67:
 631              	.L34:
 632              		.cfi_restore_state
 633              	.LBE71:
 634              		.loc 4 176 0
 635 0174 039A     		ldr	r2, [sp, #12]
 636 0176 2B68     		ldr	r3, [r5]
 637 0178 9A42     		cmp	r2, r3
 638 017a 4CD1     		bne	.L96
 639 017c 04B0     		add	sp, sp, #16
 640              		.cfi_remember_state
 641              		.cfi_def_cfa_offset 24
 642              		@ sp needed
 643 017e BDEC028B 		vldm	sp!, {d8}
 644              		.cfi_restore 80
 645              		.cfi_restore 81
 646              		.cfi_def_cfa_offset 16
 647 0182 70BD     		pop	{r4, r5, r6, pc}
 648              	.LVL68:
 649              	.L104:
 650              		.cfi_restore_state
 651              	.LBB72:
 652              		.loc 4 148 0 discriminator 1
 653 0184 9FED467A 		vldr.32	s14, .L109+52
 654 0188 F4EEC77A 		vcmpe.f32	s15, s14
 655 018c F1EE10FA 		vmrs	APSR_nzcv, FPSCR
 656 0190 C4D5     		bpl	.L48
 657              		.loc 4 149 0
 658 0192 4648     		ldr	r0, .L109+64
 659 0194 37E0     		b	.L97
 660              	.L56:
 661              		.loc 4 160 0
 662 0196 9FED447A 		vldr.32	s14, .L109+60
 663 019a F4EEC77A 		vcmpe.f32	s15, s14
 664 019e F1EE10FA 		vmrs	APSR_nzcv, FPSCR
 665 01a2 06DB     		blt	.L60
 666              		.loc 4 160 0 is_stmt 0 discriminator 1
 667 01a4 9FED427A 		vldr.32	s14, .L109+68
 668 01a8 F4EEC77A 		vcmpe.f32	s15, s14
 669 01ac F1EE10FA 		vmrs	APSR_nzcv, FPSCR
 670 01b0 56D4     		bmi	.L106
 671              	.L60:
 672              		.loc 4 164 0 is_stmt 1
 673 01b2 9FED3F7A 		vldr.32	s14, .L109+68
 674 01b6 F4EEC77A 		vcmpe.f32	s15, s14
 675 01ba F1EE10FA 		vmrs	APSR_nzcv, FPSCR
 676 01be 06DB     		blt	.L64
 677              		.loc 4 164 0 is_stmt 0 discriminator 1
 678 01c0 9FED3C7A 		vldr.32	s14, .L109+72
 679 01c4 F4EEC77A 		vcmpe.f32	s15, s14
 680 01c8 F1EE10FA 		vmrs	APSR_nzcv, FPSCR
 681 01cc 4BD4     		bmi	.L107
 682              	.L64:
 683              		.loc 4 168 0 is_stmt 1
 684 01ce 9FED397A 		vldr.32	s14, .L109+72
ARM GAS  C:\Users\sjacq\AppData\Local\Temp\ccBl8mzn.s 			page 13


 685 01d2 F4EEC77A 		vcmpe.f32	s15, s14
 686 01d6 F1EE10FA 		vmrs	APSR_nzcv, FPSCR
 687 01da 22DA     		bge	.L108
 688              	.L68:
 689              		.loc 4 171 0
 690 01dc D4ED007A 		vldr.32	s15, [r4]
 691              	.LVL69:
 692 01e0 9FED267A 		vldr.32	s14, .L109+16
 693 01e4 F0EEE77A 		vabs.f32	s15, s15
 694 01e8 F4EEC77A 		vcmpe.f32	s15, s14
 695 01ec F1EE10FA 		vmrs	APSR_nzcv, FPSCR
 696 01f0 08D4     		bmi	.L72
 697              		.loc 4 171 0 is_stmt 0 discriminator 1
 698 01f2 D4ED017A 		vldr.32	s15, [r4, #4]
 699 01f6 F0EEE77A 		vabs.f32	s15, s15
 700 01fa F4EEC77A 		vcmpe.f32	s15, s14
 701 01fe F1EE10FA 		vmrs	APSR_nzcv, FPSCR
 702 0202 B7D5     		bpl	.L34
 703              	.L72:
 704              		.loc 4 172 0 is_stmt 1
 705 0204 0020     		movs	r0, #0
 706              	.L97:
 707 0206 FFF7FEFF 		bl	left_motor_set_speed
 708              	.LVL70:
 709              		.loc 4 173 0
 710 020a 039A     		ldr	r2, [sp, #12]
 711 020c 2B68     		ldr	r3, [r5]
 712 020e 9A42     		cmp	r2, r3
 713 0210 08BF     		it	eq
 714 0212 0020     		moveq	r0, #0
 715 0214 A7D0     		beq	.L95
 716              	.LVL71:
 717              	.L96:
 718              	.LBE72:
 719              		.loc 4 176 0
 720 0216 FFF7FEFF 		bl	__stack_chk_fail
 721              	.LVL72:
 722              	.L101:
 723              	.LBB73:
 724              	.LBB70:
 725              	.LBB69:
 726              		.loc 6 367 0
 727 021a 2748     		ldr	r0, .L109+76
 728 021c FFF7FEFF 		bl	chSysHalt
 729              	.LVL73:
 730 0220 45E7     		b	.L37
 731              	.LVL74:
 732              	.L108:
 733              	.LBE69:
 734              	.LBE70:
 735              		.loc 4 168 0 discriminator 1
 736 0222 9FED1C7A 		vldr.32	s14, .L109+40
 737 0226 F4EEC77A 		vcmpe.f32	s15, s14
 738 022a F1EE10FA 		vmrs	APSR_nzcv, FPSCR
 739 022e D5D5     		bpl	.L68
 740              		.loc 4 169 0
 741 0230 4FF49670 		mov	r0, #300
ARM GAS  C:\Users\sjacq\AppData\Local\Temp\ccBl8mzn.s 			page 14


 742 0234 00E0     		b	.L99
 743              	.L102:
 744              		.loc 4 141 0
 745 0236 0020     		movs	r0, #0
 746              	.L99:
 747              		.loc 4 169 0
 748 0238 FFF7FEFF 		bl	left_motor_set_speed
 749              	.LVL75:
 750              		.loc 4 170 0
 751 023c 039A     		ldr	r2, [sp, #12]
 752 023e 2B68     		ldr	r3, [r5]
 753 0240 9A42     		cmp	r2, r3
 754 0242 08BF     		it	eq
 755 0244 4FF49670 		moveq	r0, #300
 756 0248 E5D1     		bne	.L96
 757              	.LBE73:
 758              		.loc 4 176 0
 759 024a 04B0     		add	sp, sp, #16
 760              		.cfi_remember_state
 761              		.cfi_def_cfa_offset 24
 762              		@ sp needed
 763 024c BDEC028B 		vldm	sp!, {d8}
 764              		.cfi_restore 80
 765              		.cfi_restore 81
 766              		.cfi_def_cfa_offset 16
 767              	.LVL76:
 768 0250 BDE87040 		pop	{r4, r5, r6, lr}
 769              		.cfi_restore 14
 770              		.cfi_restore 6
 771              		.cfi_restore 5
 772              		.cfi_restore 4
 773              		.cfi_def_cfa_offset 0
 774              	.LVL77:
 775              	.LBB74:
 776              		.loc 4 173 0
 777 0254 FFF7FEBF 		b	right_motor_set_speed
 778              	.LVL78:
 779              	.L103:
 780              		.cfi_restore_state
 781              		.loc 4 145 0
 782 0258 1448     		ldr	r0, .L109+64
 783 025a EDE7     		b	.L99
 784              	.L105:
 785              		.loc 4 153 0
 786 025c 1348     		ldr	r0, .L109+64
 787 025e 7BE7     		b	.L98
 788              	.L106:
 789              		.loc 4 161 0
 790 0260 4FF49670 		mov	r0, #300
 791 0264 78E7     		b	.L98
 792              	.L107:
 793              		.loc 4 165 0
 794 0266 4FF49670 		mov	r0, #300
 795 026a CCE7     		b	.L97
 796              	.L110:
 797              		.align	2
 798              	.L109:
ARM GAS  C:\Users\sjacq\AppData\Local\Temp\ccBl8mzn.s 			page 15


 799 026c 00000000 		.word	__stack_chk_guard
 800 0270 00000000 		.word	.LANCHOR3
 801 0274 00000000 		.word	.LANCHOR4
 802 0278 00000000 		.word	.LANCHOR5
 803 027c CDCCCC3E 		.word	1053609165
 804 0280 00000000 		.word	GPTD11
 805 0284 00000000 		.word	ch
 806 0288 DB0F493F 		.word	1061752795
 807 028c DB0F4940 		.word	1078530011
 808 0290 DB0FC940 		.word	1086918619
 809 0294 7CD9A0BE 		.word	-1096754820
 810 0298 7CD9A03E 		.word	1050728828
 811 029c 7CD9A03F 		.word	1067506044
 812 02a0 3A46F13F 		.word	1072776762
 813 02a4 ACF43440 		.word	1077212332
 814 02a8 ACF434C0 		.word	-1070271316
 815 02ac D4FEFFFF 		.word	-300
 816 02b0 3A46F1BF 		.word	-1074706886
 817 02b4 7CD9A0BF 		.word	-1079977604
 818 02b8 00000000 		.word	.LANCHOR6
 819              	.LBE74:
 820              		.cfi_endproc
 821              	.LFE263:
 822              		.size	Drawing_IMU, .-Drawing_IMU
 823              		.section	.text.ThdDrawing_IMU,"ax",%progbits
 824              		.align	1
 825              		.p2align 4,,15
 826              		.syntax unified
 827              		.thumb
 828              		.thumb_func
 829              		.fpu fpv4-sp-d16
 830              		.type	ThdDrawing_IMU, %function
 831              	ThdDrawing_IMU:
 832              	.LFB267:
 833              		.loc 1 151 0
 834              		.cfi_startproc
 835              		@ args = 0, pretend = 0, frame = 88
 836              		@ frame_needed = 0, uses_anonymous_args = 0
 837              	.LVL79:
 838 0000 10B5     		push	{r4, lr}
 839              		.cfi_def_cfa_offset 8
 840              		.cfi_offset 4, -8
 841              		.cfi_offset 14, -4
 842              	.LBB75:
 843              	.LBB76:
 844              		.loc 2 135 0
 845 0002 144A     		ldr	r2, .L115
 846              	.LBE76:
 847              	.LBE75:
 848              		.loc 1 151 0
 849 0004 144B     		ldr	r3, .L115+4
 850              	.LBB79:
 851              	.LBB77:
 852              		.loc 2 135 0
 853 0006 9269     		ldr	r2, [r2, #24]
 854 0008 1449     		ldr	r1, .L115+8
 855              	.LBE77:
ARM GAS  C:\Users\sjacq\AppData\Local\Temp\ccBl8mzn.s 			page 16


 856              	.LBE79:
 857              		.loc 1 151 0
 858 000a 1B68     		ldr	r3, [r3]
 859              	.LBB80:
 860              	.LBB78:
 861              		.loc 2 135 0
 862 000c 9161     		str	r1, [r2, #24]
 863              	.LBE78:
 864              	.LBE80:
 865              		.loc 1 151 0
 866 000e 96B0     		sub	sp, sp, #88
 867              		.cfi_def_cfa_offset 96
 868              		.loc 1 156 0
 869 0010 134A     		ldr	r2, .L115+12
 870 0012 1449     		ldr	r1, .L115+16
 871 0014 1448     		ldr	r0, .L115+20
 872              	.LVL80:
 873              		.loc 1 151 0
 874 0016 1593     		str	r3, [sp, #84]
 875              		.loc 1 156 0
 876 0018 FFF7FEFF 		bl	messagebus_init
 877              	.LVL81:
 878              		.loc 1 157 0
 879 001c FFF7FEFF 		bl	imu_start
 880              	.LVL82:
 881              		.loc 1 159 0
 882 0020 1249     		ldr	r1, .L115+24
 883 0022 1148     		ldr	r0, .L115+20
 884 0024 FFF7FEFF 		bl	messagebus_find_topic_blocking
 885              	.LVL83:
 886 0028 0446     		mov	r4, r0
 887              	.LVL84:
 888              		.loc 1 163 0
 889 002a 4FF4FA60 		mov	r0, #2000
 890              	.LVL85:
 891 002e FFF7FEFF 		bl	chThdSleep
 892              	.LVL86:
 893              		.loc 1 164 0
 894 0032 2046     		mov	r0, r4
 895 0034 C821     		movs	r1, #200
 896 0036 FFF7FEFF 		bl	imu_compute_offset
 897              	.LVL87:
 898              	.L112:
 899              		.loc 1 168 0 discriminator 1
 900 003a 5022     		movs	r2, #80
 901 003c 01A9     		add	r1, sp, #4
 902 003e 2046     		mov	r0, r4
 903 0040 FFF7FEFF 		bl	messagebus_topic_wait
 904              	.LVL88:
 905              		.loc 1 169 0 discriminator 1
 906 0044 01A8     		add	r0, sp, #4
 907 0046 FFF7FEFF 		bl	Drawing_IMU
 908              	.LVL89:
 909              		.loc 1 170 0 discriminator 1
 910 004a 6420     		movs	r0, #100
 911 004c FFF7FEFF 		bl	chThdSleep
 912              	.LVL90:
ARM GAS  C:\Users\sjacq\AppData\Local\Temp\ccBl8mzn.s 			page 17


 913 0050 F3E7     		b	.L112
 914              	.L116:
 915 0052 00BF     		.align	2
 916              	.L115:
 917 0054 00000000 		.word	ch
 918 0058 00000000 		.word	__stack_chk_guard
 919 005c 00000000 		.word	.LANCHOR7
 920 0060 00000000 		.word	.LANCHOR3
 921 0064 00000000 		.word	.LANCHOR4
 922 0068 00000000 		.word	.LANCHOR5
 923 006c 00000000 		.word	.LC0
 924              		.cfi_endproc
 925              	.LFE267:
 926              		.size	ThdDrawing_IMU, .-ThdDrawing_IMU
 927              		.section	.text.Drawing_Mighty,"ax",%progbits
 928              		.align	1
 929              		.p2align 4,,15
 930              		.global	Drawing_Mighty
 931              		.syntax unified
 932              		.thumb
 933              		.thumb_func
 934              		.fpu fpv4-sp-d16
 935              		.type	Drawing_Mighty, %function
 936              	Drawing_Mighty:
 937              	.LFB264:
 938              		.file 7 "./Mighty_logo_function.c"
 939              		.loc 7 75 0
 940              		.cfi_startproc
 941              		@ args = 0, pretend = 0, frame = 8
 942              		@ frame_needed = 0, uses_anonymous_args = 0
 943 0000 F0B5     		push	{r4, r5, r6, r7, lr}
 944              		.cfi_def_cfa_offset 20
 945              		.cfi_offset 4, -20
 946              		.cfi_offset 5, -16
 947              		.cfi_offset 6, -12
 948              		.cfi_offset 7, -8
 949              		.cfi_offset 14, -4
 950 0002 254C     		ldr	r4, .L127
 951 0004 254D     		ldr	r5, .L127+4
 952 0006 2368     		ldr	r3, [r4]
 953 0008 83B0     		sub	sp, sp, #12
 954              		.cfi_def_cfa_offset 32
 955              		.loc 7 77 0
 956 000a 44F62060 		movw	r0, #20000
 957              		.loc 7 75 0
 958 000e 0193     		str	r3, [sp, #4]
 959 0010 05F5E476 		add	r6, r5, #456
 960              		.loc 7 77 0
 961 0014 FFF7FEFF 		bl	chThdSleep
 962              	.LVL91:
 963 0018 0127     		movs	r7, #1
 964 001a 4FF0FF33 		mov	r3, #-1
 965 001e 1022     		movs	r2, #16
 966 0020 08E0     		b	.L121
 967              	.LVL92:
 968              	.L118:
 969              	.LBB81:
ARM GAS  C:\Users\sjacq\AppData\Local\Temp\ccBl8mzn.s 			page 18


 970              		.loc 7 95 0
 971 0022 012F     		cmp	r7, #1
 972 0024 24D0     		beq	.L124
 973              	.LVL93:
 974              	.L119:
 975 0026 0C35     		adds	r5, r5, #12
 976              		.loc 7 84 0 discriminator 2
 977 0028 B542     		cmp	r5, r6
 978 002a 1BD0     		beq	.L117
 979              	.L125:
 980 002c 55E90232 		ldrd	r3, r2, [r5, #-8]
 981 0030 55F80C7C 		ldr	r7, [r5, #-12]
 982              	.L121:
 983              		.loc 7 86 0
 984 0034 D2B2     		uxtb	r2, r2
 985              	.LVL94:
 986              		.loc 7 87 0
 987 0036 5BB2     		sxtb	r3, r3
 988              	.LVL95:
 989              		.loc 7 89 0
 990 0038 002F     		cmp	r7, #0
 991 003a F2D1     		bne	.L118
 992              		.loc 7 91 0
 993 003c 13FB02F3 		smulbb	r3, r3, r2
 994              	.LVL96:
 995 0040 C3EBC303 		rsb	r3, r3, r3, lsl #3
 996 0044 5900     		lsls	r1, r3, #1
 997 0046 09B2     		sxth	r1, r1
 998 0048 4FF49670 		mov	r0, #300
 999 004c FFF7FEFF 		bl	left_motor_get_to_the_pos
 1000              	.LVL97:
 1001              		.loc 7 92 0
 1002 0050 3846     		mov	r0, r7
 1003 0052 3221     		movs	r1, #50
 1004 0054 FFF7FEFF 		bl	left_motor_get_to_the_pos
 1005              	.LVL98:
 1006 0058 0C35     		adds	r5, r5, #12
 1007              		.loc 7 93 0
 1008 005a 6420     		movs	r0, #100
 1009 005c FFF7FEFF 		bl	chThdSleep
 1010              	.LVL99:
 1011              		.loc 7 84 0
 1012 0060 B542     		cmp	r5, r6
 1013 0062 E3D1     		bne	.L125
 1014              	.L117:
 1015              	.LBE81:
 1016              		.loc 7 103 0
 1017 0064 019A     		ldr	r2, [sp, #4]
 1018 0066 2368     		ldr	r3, [r4]
 1019 0068 9A42     		cmp	r2, r3
 1020 006a 13D1     		bne	.L126
 1021 006c 03B0     		add	sp, sp, #12
 1022              		.cfi_remember_state
 1023              		.cfi_def_cfa_offset 20
 1024              		@ sp needed
 1025 006e F0BD     		pop	{r4, r5, r6, r7, pc}
 1026              	.LVL100:
ARM GAS  C:\Users\sjacq\AppData\Local\Temp\ccBl8mzn.s 			page 19


 1027              	.L124:
 1028              		.cfi_restore_state
 1029              	.LBB82:
 1030              		.loc 7 97 0
 1031 0070 13FB02F3 		smulbb	r3, r3, r2
 1032              	.LVL101:
 1033 0074 C3EBC303 		rsb	r3, r3, r3, lsl #3
 1034 0078 5900     		lsls	r1, r3, #1
 1035 007a 09B2     		sxth	r1, r1
 1036 007c 4FF49670 		mov	r0, #300
 1037 0080 FFF7FEFF 		bl	right_motor_get_to_the_pos
 1038              	.LVL102:
 1039              		.loc 7 98 0
 1040 0084 3221     		movs	r1, #50
 1041 0086 0020     		movs	r0, #0
 1042 0088 FFF7FEFF 		bl	right_motor_get_to_the_pos
 1043              	.LVL103:
 1044              		.loc 7 99 0
 1045 008c 6420     		movs	r0, #100
 1046 008e FFF7FEFF 		bl	chThdSleep
 1047              	.LVL104:
 1048 0092 C8E7     		b	.L119
 1049              	.L126:
 1050              	.LBE82:
 1051              		.loc 7 103 0
 1052 0094 FFF7FEFF 		bl	__stack_chk_fail
 1053              	.LVL105:
 1054              	.L128:
 1055              		.align	2
 1056              	.L127:
 1057 0098 00000000 		.word	__stack_chk_guard
 1058 009c 0C000000 		.word	.LANCHOR8+12
 1059              		.cfi_endproc
 1060              	.LFE264:
 1061              		.size	Drawing_Mighty, .-Drawing_Mighty
 1062              		.section	.text.SendUint8ToComputer,"ax",%progbits
 1063              		.align	1
 1064              		.p2align 4,,15
 1065              		.global	SendUint8ToComputer
 1066              		.syntax unified
 1067              		.thumb
 1068              		.thumb_func
 1069              		.fpu fpv4-sp-d16
 1070              		.type	SendUint8ToComputer, %function
 1071              	SendUint8ToComputer:
 1072              	.LFB265:
 1073              		.loc 1 49 0
 1074              		.cfi_startproc
 1075              		@ args = 0, pretend = 0, frame = 16
 1076              		@ frame_needed = 0, uses_anonymous_args = 0
 1077              	.LVL106:
 1078 0000 70B5     		push	{r4, r5, r6, lr}
 1079              		.cfi_def_cfa_offset 16
 1080              		.cfi_offset 4, -16
 1081              		.cfi_offset 5, -12
 1082              		.cfi_offset 6, -8
 1083              		.cfi_offset 14, -4
ARM GAS  C:\Users\sjacq\AppData\Local\Temp\ccBl8mzn.s 			page 20


 1084              		.loc 1 50 0
 1085 0002 124C     		ldr	r4, .L133
 1086              		.loc 1 49 0
 1087 0004 124D     		ldr	r5, .L133+4
 1088              		.loc 1 50 0
 1089 0006 2368     		ldr	r3, [r4]
 1090              		.loc 1 49 0
 1091 0008 2A68     		ldr	r2, [r5]
 1092 000a 84B0     		sub	sp, sp, #16
 1093              		.cfi_def_cfa_offset 32
 1094              		.loc 1 49 0
 1095 000c 0646     		mov	r6, r0
 1096 000e ADF80610 		strh	r1, [sp, #6]	@ movhi
 1097              		.loc 1 50 0
 1098 0012 1B68     		ldr	r3, [r3]
 1099 0014 0F49     		ldr	r1, .L133+8
 1100              	.LVL107:
 1101              		.loc 1 49 0
 1102 0016 0392     		str	r2, [sp, #12]
 1103              		.loc 1 50 0
 1104 0018 2046     		mov	r0, r4
 1105              	.LVL108:
 1106 001a 0522     		movs	r2, #5
 1107 001c 9847     		blx	r3
 1108              	.LVL109:
 1109              		.loc 1 51 0
 1110 001e 2368     		ldr	r3, [r4]
 1111 0020 0222     		movs	r2, #2
 1112 0022 1B68     		ldr	r3, [r3]
 1113 0024 0DF10601 		add	r1, sp, #6
 1114 0028 2046     		mov	r0, r4
 1115 002a 9847     		blx	r3
 1116              	.LVL110:
 1117              		.loc 1 52 0
 1118 002c 2368     		ldr	r3, [r4]
 1119 002e BDF80620 		ldrh	r2, [sp, #6]
 1120 0032 1B68     		ldr	r3, [r3]
 1121 0034 3146     		mov	r1, r6
 1122 0036 2046     		mov	r0, r4
 1123 0038 9847     		blx	r3
 1124              	.LVL111:
 1125              		.loc 1 53 0
 1126 003a 039A     		ldr	r2, [sp, #12]
 1127 003c 2B68     		ldr	r3, [r5]
 1128 003e 9A42     		cmp	r2, r3
 1129 0040 01D1     		bne	.L132
 1130 0042 04B0     		add	sp, sp, #16
 1131              		.cfi_remember_state
 1132              		.cfi_def_cfa_offset 16
 1133              		@ sp needed
 1134 0044 70BD     		pop	{r4, r5, r6, pc}
 1135              	.LVL112:
 1136              	.L132:
 1137              		.cfi_restore_state
 1138 0046 FFF7FEFF 		bl	__stack_chk_fail
 1139              	.LVL113:
 1140              	.L134:
ARM GAS  C:\Users\sjacq\AppData\Local\Temp\ccBl8mzn.s 			page 21


 1141 004a 00BF     		.align	2
 1142              	.L133:
 1143 004c 00000000 		.word	SD3
 1144 0050 00000000 		.word	__stack_chk_guard
 1145 0054 00000000 		.word	.LC1
 1146              		.cfi_endproc
 1147              	.LFE265:
 1148              		.size	SendUint8ToComputer, .-SendUint8ToComputer
 1149              		.section	.text.FindTheOrigin,"ax",%progbits
 1150              		.align	1
 1151              		.p2align 4,,15
 1152              		.global	FindTheOrigin
 1153              		.syntax unified
 1154              		.thumb
 1155              		.thumb_func
 1156              		.fpu fpv4-sp-d16
 1157              		.type	FindTheOrigin, %function
 1158              	FindTheOrigin:
 1159              	.LFB266:
 1160              		.loc 1 95 0
 1161              		.cfi_startproc
 1162              		@ args = 0, pretend = 0, frame = 8
 1163              		@ frame_needed = 0, uses_anonymous_args = 0
 1164 0000 30B5     		push	{r4, r5, lr}
 1165              		.cfi_def_cfa_offset 12
 1166              		.cfi_offset 4, -12
 1167              		.cfi_offset 5, -8
 1168              		.cfi_offset 14, -4
 1169 0002 204D     		ldr	r5, .L144
 1170              		.loc 1 96 0
 1171 0004 204A     		ldr	r2, .L144+4
 1172              		.loc 1 95 0
 1173 0006 2B68     		ldr	r3, [r5]
 1174              		.loc 1 96 0
 1175 0008 2049     		ldr	r1, .L144+8
 1176 000a 2148     		ldr	r0, .L144+12
 1177              		.loc 1 109 0
 1178 000c 214C     		ldr	r4, .L144+16
 1179              		.loc 1 95 0
 1180 000e 83B0     		sub	sp, sp, #12
 1181              		.cfi_def_cfa_offset 24
 1182              		.loc 1 95 0
 1183 0010 0193     		str	r3, [sp, #4]
 1184              		.loc 1 96 0
 1185 0012 FFF7FEFF 		bl	messagebus_init
 1186              	.LVL114:
 1187              		.loc 1 98 0
 1188 0016 FFF7FEFF 		bl	proximity_start
 1189              	.LVL115:
 1190              		.loc 1 100 0
 1191 001a FFF7FEFF 		bl	calibrate_ir
 1192              	.LVL116:
 1193              	.L136:
 1194              		.loc 1 109 0
 1195 001e 2046     		mov	r0, r4
 1196 0020 FFF7FEFF 		bl	left_motor_set_speed
 1197              	.LVL117:
ARM GAS  C:\Users\sjacq\AppData\Local\Temp\ccBl8mzn.s 			page 22


 1198              		.loc 1 110 0
 1199 0024 0220     		movs	r0, #2
 1200 0026 FFF7FEFF 		bl	get_prox
 1201              	.LVL118:
 1202 002a B0F5C87F 		cmp	r0, #400
 1203 002e F6DD     		ble	.L136
 1204              		.loc 1 112 0
 1205 0030 0020     		movs	r0, #0
 1206 0032 FFF7FEFF 		bl	left_motor_set_speed
 1207              	.LVL119:
 1208              		.loc 1 121 0
 1209 0036 4FF49670 		mov	r0, #300
 1210 003a 4FF4F071 		mov	r1, #480
 1211 003e FFF7FEFF 		bl	left_motor_get_to_the_pos
 1212              	.LVL120:
 1213              		.loc 1 122 0
 1214 0042 FA20     		movs	r0, #250
 1215 0044 FFF7FEFF 		bl	chThdSleep
 1216              	.LVL121:
 1217              	.L137:
 1218              		.loc 1 131 0
 1219 0048 4FF49670 		mov	r0, #300
 1220 004c FFF7FEFF 		bl	right_motor_set_speed
 1221              	.LVL122:
 1222              		.loc 1 132 0
 1223 0050 0020     		movs	r0, #0
 1224 0052 FFF7FEFF 		bl	get_prox
 1225              	.LVL123:
 1226 0056 B0F5C87F 		cmp	r0, #400
 1227 005a F5DD     		ble	.L137
 1228              		.loc 1 134 0
 1229 005c 0020     		movs	r0, #0
 1230 005e FFF7FEFF 		bl	right_motor_set_speed
 1231              	.LVL124:
 1232              		.loc 1 143 0
 1233 0062 0D49     		ldr	r1, .L144+20
 1234 0064 4FF49670 		mov	r0, #300
 1235 0068 FFF7FEFF 		bl	left_motor_get_to_the_pos
 1236              	.LVL125:
 1237              		.loc 1 144 0
 1238 006c 019A     		ldr	r2, [sp, #4]
 1239 006e 2B68     		ldr	r3, [r5]
 1240 0070 9A42     		cmp	r2, r3
 1241 0072 05D1     		bne	.L143
 1242 0074 FA20     		movs	r0, #250
 1243              		.loc 1 145 0
 1244 0076 03B0     		add	sp, sp, #12
 1245              		.cfi_remember_state
 1246              		.cfi_def_cfa_offset 12
 1247              		@ sp needed
 1248 0078 BDE83040 		pop	{r4, r5, lr}
 1249              		.cfi_restore 14
 1250              		.cfi_restore 5
 1251              		.cfi_restore 4
 1252              		.cfi_def_cfa_offset 0
 1253              		.loc 1 144 0
 1254 007c FFF7FEBF 		b	chThdSleep
ARM GAS  C:\Users\sjacq\AppData\Local\Temp\ccBl8mzn.s 			page 23


 1255              	.LVL126:
 1256              	.L143:
 1257              		.cfi_restore_state
 1258 0080 FFF7FEFF 		bl	__stack_chk_fail
 1259              	.LVL127:
 1260              	.L145:
 1261              		.align	2
 1262              	.L144:
 1263 0084 00000000 		.word	__stack_chk_guard
 1264 0088 00000000 		.word	.LANCHOR3
 1265 008c 00000000 		.word	.LANCHOR4
 1266 0090 00000000 		.word	.LANCHOR5
 1267 0094 D4FEFFFF 		.word	-300
 1268 0098 3EFEFFFF 		.word	-450
 1269              		.cfi_endproc
 1270              	.LFE266:
 1271              		.size	FindTheOrigin, .-FindTheOrigin
 1272              		.section	.text.startup.main,"ax",%progbits
 1273              		.align	1
 1274              		.p2align 4,,15
 1275              		.global	main
 1276              		.syntax unified
 1277              		.thumb
 1278              		.thumb_func
 1279              		.fpu fpv4-sp-d16
 1280              		.type	main, %function
 1281              	main:
 1282              	.LFB270:
 1283              		.loc 1 228 0
 1284              		.cfi_startproc
 1285              		@ args = 0, pretend = 0, frame = 8
 1286              		@ frame_needed = 0, uses_anonymous_args = 0
 1287 0000 70B5     		push	{r4, r5, r6, lr}
 1288              		.cfi_def_cfa_offset 16
 1289              		.cfi_offset 4, -16
 1290              		.cfi_offset 5, -12
 1291              		.cfi_offset 6, -8
 1292              		.cfi_offset 14, -4
 1293 0002 294B     		ldr	r3, .L156
 1294 0004 84B0     		sub	sp, sp, #16
 1295              		.cfi_def_cfa_offset 32
 1296              		.loc 1 228 0
 1297 0006 1B68     		ldr	r3, [r3]
 1298 0008 0393     		str	r3, [sp, #12]
 1299              		.loc 1 230 0
 1300 000a FFF7FEFF 		bl	halInit
 1301              	.LVL128:
 1302              		.loc 1 231 0
 1303 000e FFF7FEFF 		bl	chSysInit
 1304              	.LVL129:
 1305              		.loc 1 232 0
 1306 0012 FFF7FEFF 		bl	mpu_init
 1307              	.LVL130:
 1308              		.loc 1 233 0
 1309 0016 FFF7FEFF 		bl	motors_init
 1310              	.LVL131:
 1311              	.LBB83:
ARM GAS  C:\Users\sjacq\AppData\Local\Temp\ccBl8mzn.s 			page 24


 1312              	.LBB84:
 1313              		.loc 4 33 0
 1314 001a 2449     		ldr	r1, .L156+4
 1315 001c 2448     		ldr	r0, .L156+8
 1316 001e FFF7FEFF 		bl	sdStart
 1317              	.LVL132:
 1318              	.LBE84:
 1319              	.LBE83:
 1320              		.loc 1 237 0
 1321 0022 FFF7FEFF 		bl	usb_start
 1322              	.LVL133:
 1323              		.loc 1 238 0
 1324 0026 FFF7FEFF 		bl	dcmi_start
 1325              	.LVL134:
 1326              		.loc 1 239 0
 1327 002a FFF7FEFF 		bl	po8030_start
 1328              	.LVL135:
 1329              		.loc 1 240 0
 1330 002e FFF7FEFF 		bl	i2c_start
 1331              	.LVL136:
 1332              		.loc 1 243 0
 1333 0032 FFF7FEFF 		bl	FindTheOrigin
 1334              	.LVL137:
 1335              		.loc 1 247 0
 1336 0036 FFF7FEFF 		bl	get_selector
 1337              	.LVL138:
 1338              		.loc 1 249 0
 1339 003a 43B2     		sxtb	r3, r0
 1340 003c 013B     		subs	r3, r3, #1
 1341 003e 032B     		cmp	r3, #3
 1342 0040 03D8     		bhi	.L147
 1343 0042 DFE803F0 		tbb	[pc, r3]
 1344              	.L149:
 1345 0046 2D       		.byte	(.L148-.L149)/2
 1346 0047 1B       		.byte	(.L150-.L149)/2
 1347 0048 18       		.byte	(.L151-.L149)/2
 1348 0049 08       		.byte	(.L152-.L149)/2
 1349              		.p2align 1
 1350              	.L147:
 1351              		.loc 1 277 0
 1352 004a 0120     		movs	r0, #1
 1353              	.LVL139:
 1354 004c FFF7FEFF 		bl	set_body_led
 1355              	.LVL140:
 1356              		.loc 1 278 0
 1357 0050 0120     		movs	r0, #1
 1358 0052 FFF7FEFF 		bl	set_front_led
 1359              	.LVL141:
 1360              	.L152:
 1361              		.loc 1 285 0 discriminator 1
 1362 0056 174D     		ldr	r5, .L156+12
 1363 0058 174C     		ldr	r4, .L156+16
 1364 005a 0026     		movs	r6, #0
 1365              	.L153:
 1366 005c 0096     		str	r6, [sp]
 1367 005e 2B46     		mov	r3, r5
 1368 0060 4022     		movs	r2, #64
ARM GAS  C:\Users\sjacq\AppData\Local\Temp\ccBl8mzn.s 			page 25


 1369 0062 4FF4FC71 		mov	r1, #504
 1370 0066 2046     		mov	r0, r4
 1371 0068 FFF7FEFF 		bl	chThdCreateStatic
 1372              	.LVL142:
 1373              		.loc 1 287 0 discriminator 1
 1374 006c 4FF47A70 		mov	r0, #1000
 1375 0070 FFF7FEFF 		bl	chThdSleep
 1376              	.LVL143:
 1377 0074 F2E7     		b	.L153
 1378              	.LVL144:
 1379              	.L151:
 1380              		.loc 1 264 0
 1381 0076 FFF7FEFF 		bl	Drawing_Mighty
 1382              	.LVL145:
 1383              		.loc 1 265 0
 1384 007a ECE7     		b	.L152
 1385              	.LVL146:
 1386              	.L150:
 1387              		.loc 1 259 0
 1388 007c 0024     		movs	r4, #0
 1389 007e 0094     		str	r4, [sp]
 1390 0080 0E4B     		ldr	r3, .L156+20
 1391 0082 0F48     		ldr	r0, .L156+24
 1392              	.LVL147:
 1393 0084 4122     		movs	r2, #65
 1394 0086 4FF4FC71 		mov	r1, #504
 1395 008a FFF7FEFF 		bl	chThdCreateStatic
 1396              	.LVL148:
 1397              		.loc 1 260 0
 1398 008e 0094     		str	r4, [sp]
 1399 0090 0C4B     		ldr	r3, .L156+28
 1400 0092 0D48     		ldr	r0, .L156+32
 1401 0094 4022     		movs	r2, #64
 1402 0096 4FF4FC71 		mov	r1, #504
 1403 009a FFF7FEFF 		bl	chThdCreateStatic
 1404              	.LVL149:
 1405              		.loc 1 261 0
 1406 009e DAE7     		b	.L152
 1407              	.LVL150:
 1408              	.L148:
 1409              		.loc 1 255 0
 1410 00a0 FFF7FEFF 		bl	Drawing_test_func
 1411              	.LVL151:
 1412              		.loc 1 256 0
 1413 00a4 D7E7     		b	.L152
 1414              	.L157:
 1415 00a6 00BF     		.align	2
 1416              	.L156:
 1417 00a8 00000000 		.word	__stack_chk_guard
 1418 00ac 00000000 		.word	.LANCHOR9
 1419 00b0 00000000 		.word	SD3
 1420 00b4 00000000 		.word	ThdSwitch_Selector
 1421 00b8 00000000 		.word	.LANCHOR12
 1422 00bc 00000000 		.word	ThdDrawing_IMU
 1423 00c0 00000000 		.word	.LANCHOR10
 1424 00c4 00000000 		.word	ThdIMU_Pen_Tracker
 1425 00c8 00000000 		.word	.LANCHOR11
ARM GAS  C:\Users\sjacq\AppData\Local\Temp\ccBl8mzn.s 			page 26


 1426              		.cfi_endproc
 1427              	.LFE270:
 1428              		.size	main, .-main
 1429              		.section	.text.__stack_chk_fail,"ax",%progbits
 1430              		.align	1
 1431              		.p2align 4,,15
 1432              		.global	__stack_chk_fail
 1433              		.syntax unified
 1434              		.thumb
 1435              		.thumb_func
 1436              		.fpu fpv4-sp-d16
 1437              		.type	__stack_chk_fail, %function
 1438              	__stack_chk_fail:
 1439              	.LFB271:
 1440              		.loc 1 295 0
 1441              		.cfi_startproc
 1442              		@ args = 0, pretend = 0, frame = 8
 1443              		@ frame_needed = 0, uses_anonymous_args = 0
 1444 0000 00B5     		push	{lr}
 1445              		.cfi_def_cfa_offset 4
 1446              		.cfi_offset 14, -4
 1447 0002 084B     		ldr	r3, .L163
 1448 0004 83B0     		sub	sp, sp, #12
 1449              		.cfi_def_cfa_offset 16
 1450              		.loc 1 295 0
 1451 0006 1A68     		ldr	r2, [r3]
 1452 0008 0192     		str	r2, [sp, #4]
 1453              		.loc 1 296 0
 1454 000a 019A     		ldr	r2, [sp, #4]
 1455 000c 1B68     		ldr	r3, [r3]
 1456 000e 9A42     		cmp	r2, r3
 1457 0010 05D1     		bne	.L162
 1458 0012 0548     		ldr	r0, .L163+4
 1459              		.loc 1 297 0
 1460 0014 03B0     		add	sp, sp, #12
 1461              		.cfi_remember_state
 1462              		.cfi_def_cfa_offset 4
 1463              		@ sp needed
 1464 0016 5DF804EB 		ldr	lr, [sp], #4
 1465              		.cfi_restore 14
 1466              		.cfi_def_cfa_offset 0
 1467              		.loc 1 296 0
 1468 001a FFF7FEBF 		b	chSysHalt
 1469              	.LVL152:
 1470              	.L162:
 1471              		.cfi_restore_state
 1472 001e FFF7FEFF 		bl	__stack_chk_fail
 1473              	.LVL153:
 1474              	.L164:
 1475 0022 00BF     		.align	2
 1476              	.L163:
 1477 0024 00000000 		.word	__stack_chk_guard
 1478 0028 00000000 		.word	.LC2
 1479              		.cfi_endproc
 1480              	.LFE271:
 1481              		.size	__stack_chk_fail, .-__stack_chk_fail
 1482              		.global	__stack_chk_guard
ARM GAS  C:\Users\sjacq\AppData\Local\Temp\ccBl8mzn.s 			page 27


 1483              		.global	Mighty_sequence_array
 1484              		.global	bus_condvar
 1485              		.global	bus_lock
 1486              		.global	bus
 1487              		.global	Drawing_test_array
 1488              		.section	.bss.bus,"aw",%nobits
 1489              		.align	2
 1490              		.set	.LANCHOR5,. + 0
 1491              		.type	bus, %object
 1492              		.size	bus, 12
 1493              	bus:
 1494 0000 00000000 		.space	12
 1494      00000000 
 1494      00000000 
 1495              		.section	.bss.waThdDrawing_IMU,"aw",%nobits
 1496              		.align	3
 1497              		.set	.LANCHOR10,. + 0
 1498              		.type	waThdDrawing_IMU, %object
 1499              		.size	waThdDrawing_IMU, 504
 1500              	waThdDrawing_IMU:
 1501 0000 00000000 		.space	504
 1501      00000000 
 1501      00000000 
 1501      00000000 
 1501      00000000 
 1502              		.section	.bss.waThdIMU_Pen_Tracker,"aw",%nobits
 1503              		.align	3
 1504              		.set	.LANCHOR11,. + 0
 1505              		.type	waThdIMU_Pen_Tracker, %object
 1506              		.size	waThdIMU_Pen_Tracker, 504
 1507              	waThdIMU_Pen_Tracker:
 1508 0000 00000000 		.space	504
 1508      00000000 
 1508      00000000 
 1508      00000000 
 1508      00000000 
 1509              		.section	.bss.waThdSwitch_Selector,"aw",%nobits
 1510              		.align	3
 1511              		.set	.LANCHOR12,. + 0
 1512              		.type	waThdSwitch_Selector, %object
 1513              		.size	waThdSwitch_Selector, 504
 1514              	waThdSwitch_Selector:
 1515 0000 00000000 		.space	504
 1515      00000000 
 1515      00000000 
 1515      00000000 
 1515      00000000 
 1516              		.section	.data.__stack_chk_guard,"aw",%progbits
 1517              		.align	2
 1518              		.type	__stack_chk_guard, %object
 1519              		.size	__stack_chk_guard, 4
 1520              	__stack_chk_guard:
 1521 0000 96E3DEE2 		.word	-488709226
 1522              		.section	.data.bus_condvar,"aw",%progbits
 1523              		.align	2
 1524              		.set	.LANCHOR3,. + 0
 1525              		.type	bus_condvar, %object
ARM GAS  C:\Users\sjacq\AppData\Local\Temp\ccBl8mzn.s 			page 28


 1526              		.size	bus_condvar, 8
 1527              	bus_condvar:
 1528 0000 00000000 		.word	bus_condvar
 1529 0004 00000000 		.word	bus_condvar
 1530              		.section	.data.bus_lock,"aw",%progbits
 1531              		.align	2
 1532              		.set	.LANCHOR4,. + 0
 1533              		.type	bus_lock, %object
 1534              		.size	bus_lock, 20
 1535              	bus_lock:
 1536 0000 00000000 		.word	bus_lock
 1537 0004 00000000 		.word	bus_lock
 1538 0008 00000000 		.word	0
 1539 000c 00000000 		.word	0
 1540 0010 00000000 		.word	0
 1541              		.section	.data.ser_cfg.12986,"aw",%progbits
 1542              		.align	2
 1543              		.set	.LANCHOR9,. + 0
 1544              		.type	ser_cfg.12986, %object
 1545              		.size	ser_cfg.12986, 12
 1546              	ser_cfg.12986:
 1547 0000 00C20100 		.word	115200
 1548 0004 0000     		.short	0
 1549 0006 0000     		.short	0
 1550 0008 0000     		.short	0
 1551 000a 0000     		.space	2
 1552              		.section	.rodata.Drawing_test_array,"a",%progbits
 1553              		.align	2
 1554              		.set	.LANCHOR2,. + 0
 1555              		.type	Drawing_test_array, %object
 1556              		.size	Drawing_test_array, 384
 1557              	Drawing_test_array:
 1558 0000 00000000 		.word	0
 1559 0004 01000000 		.word	1
 1560 0008 9A010000 		.word	410
 1561 000c 01000000 		.word	1
 1562 0010 FFFFFFFF 		.word	-1
 1563 0014 9A010000 		.word	410
 1564 0018 00000000 		.word	0
 1565 001c FFFFFFFF 		.word	-1
 1566 0020 86010000 		.word	390
 1567 0024 01000000 		.word	1
 1568 0028 01000000 		.word	1
 1569 002c 86010000 		.word	390
 1570 0030 00000000 		.word	0
 1571 0034 01000000 		.word	1
 1572 0038 68010000 		.word	360
 1573 003c 01000000 		.word	1
 1574 0040 FFFFFFFF 		.word	-1
 1575 0044 68010000 		.word	360
 1576 0048 00000000 		.word	0
 1577 004c FFFFFFFF 		.word	-1
 1578 0050 4A010000 		.word	330
 1579 0054 01000000 		.word	1
 1580 0058 01000000 		.word	1
 1581 005c 4A010000 		.word	330
 1582 0060 00000000 		.word	0
ARM GAS  C:\Users\sjacq\AppData\Local\Temp\ccBl8mzn.s 			page 29


 1583 0064 01000000 		.word	1
 1584 0068 2C010000 		.word	300
 1585 006c 01000000 		.word	1
 1586 0070 FFFFFFFF 		.word	-1
 1587 0074 2C010000 		.word	300
 1588 0078 00000000 		.word	0
 1589 007c FFFFFFFF 		.word	-1
 1590 0080 0E010000 		.word	270
 1591 0084 01000000 		.word	1
 1592 0088 01000000 		.word	1
 1593 008c 0E010000 		.word	270
 1594 0090 00000000 		.word	0
 1595 0094 01000000 		.word	1
 1596 0098 F0000000 		.word	240
 1597 009c 01000000 		.word	1
 1598 00a0 FFFFFFFF 		.word	-1
 1599 00a4 F0000000 		.word	240
 1600 00a8 00000000 		.word	0
 1601 00ac FFFFFFFF 		.word	-1
 1602 00b0 D2000000 		.word	210
 1603 00b4 01000000 		.word	1
 1604 00b8 01000000 		.word	1
 1605 00bc D2000000 		.word	210
 1606 00c0 00000000 		.word	0
 1607 00c4 01000000 		.word	1
 1608 00c8 B4000000 		.word	180
 1609 00cc 01000000 		.word	1
 1610 00d0 FFFFFFFF 		.word	-1
 1611 00d4 B4000000 		.word	180
 1612 00d8 00000000 		.word	0
 1613 00dc FFFFFFFF 		.word	-1
 1614 00e0 96000000 		.word	150
 1615 00e4 01000000 		.word	1
 1616 00e8 01000000 		.word	1
 1617 00ec 96000000 		.word	150
 1618 00f0 00000000 		.word	0
 1619 00f4 01000000 		.word	1
 1620 00f8 78000000 		.word	120
 1621 00fc 01000000 		.word	1
 1622 0100 FFFFFFFF 		.word	-1
 1623 0104 78000000 		.word	120
 1624 0108 00000000 		.word	0
 1625 010c FFFFFFFF 		.word	-1
 1626 0110 5A000000 		.word	90
 1627 0114 01000000 		.word	1
 1628 0118 01000000 		.word	1
 1629 011c 5A000000 		.word	90
 1630 0120 00000000 		.word	0
 1631 0124 01000000 		.word	1
 1632 0128 3C000000 		.word	60
 1633 012c 01000000 		.word	1
 1634 0130 FFFFFFFF 		.word	-1
 1635 0134 3C000000 		.word	60
 1636 0138 00000000 		.word	0
 1637 013c FFFFFFFF 		.word	-1
 1638 0140 1E000000 		.word	30
 1639 0144 01000000 		.word	1
ARM GAS  C:\Users\sjacq\AppData\Local\Temp\ccBl8mzn.s 			page 30


 1640 0148 01000000 		.word	1
 1641 014c 1E000000 		.word	30
 1642 0150 00000000 		.space	48
 1642      00000000 
 1642      00000000 
 1642      00000000 
 1642      00000000 
 1643              		.section	.rodata.Mighty_sequence_array,"a",%progbits
 1644              		.align	2
 1645              		.set	.LANCHOR8,. + 0
 1646              		.type	Mighty_sequence_array, %object
 1647              		.size	Mighty_sequence_array, 468
 1648              	Mighty_sequence_array:
 1649 0000 01000000 		.word	1
 1650 0004 FFFFFFFF 		.word	-1
 1651 0008 10000000 		.word	16
 1652 000c 00000000 		.word	0
 1653 0010 01000000 		.word	1
 1654 0014 08000000 		.word	8
 1655 0018 01000000 		.word	1
 1656 001c 01000000 		.word	1
 1657 0020 02000000 		.word	2
 1658 0024 00000000 		.word	0
 1659 0028 FFFFFFFF 		.word	-1
 1660 002c 06000000 		.word	6
 1661 0030 01000000 		.word	1
 1662 0034 01000000 		.word	1
 1663 0038 04000000 		.word	4
 1664 003c 00000000 		.word	0
 1665 0040 01000000 		.word	1
 1666 0044 05000000 		.word	5
 1667 0048 01000000 		.word	1
 1668 004c FFFFFFFF 		.word	-1
 1669 0050 02000000 		.word	2
 1670 0054 00000000 		.word	0
 1671 0058 FFFFFFFF 		.word	-1
 1672 005c 05000000 		.word	5
 1673 0060 01000000 		.word	1
 1674 0064 01000000 		.word	1
 1675 0068 05000000 		.word	5
 1676 006c 00000000 		.word	0
 1677 0070 01000000 		.word	1
 1678 0074 06000000 		.word	6
 1679 0078 01000000 		.word	1
 1680 007c 01000000 		.word	1
 1681 0080 02000000 		.word	2
 1682 0084 00000000 		.word	0
 1683 0088 FFFFFFFF 		.word	-1
 1684 008c 08000000 		.word	8
 1685 0090 00000000 		.word	0
 1686 0094 01000000 		.word	1
 1687 0098 0C000000 		.word	12
 1688 009c 01000000 		.word	1
 1689 00a0 FFFFFFFF 		.word	-1
 1690 00a4 09000000 		.word	9
 1691 00a8 00000000 		.word	0
 1692 00ac 01000000 		.word	1
ARM GAS  C:\Users\sjacq\AppData\Local\Temp\ccBl8mzn.s 			page 31


 1693 00b0 04000000 		.word	4
 1694 00b4 01000000 		.word	1
 1695 00b8 01000000 		.word	1
 1696 00bc 03000000 		.word	3
 1697 00c0 00000000 		.word	0
 1698 00c4 FFFFFFFF 		.word	-1
 1699 00c8 04000000 		.word	4
 1700 00cc 01000000 		.word	1
 1701 00d0 01000000 		.word	1
 1702 00d4 02000000 		.word	2
 1703 00d8 00000000 		.word	0
 1704 00dc 01000000 		.word	1
 1705 00e0 06000000 		.word	6
 1706 00e4 01000000 		.word	1
 1707 00e8 FFFFFFFF 		.word	-1
 1708 00ec 07000000 		.word	7
 1709 00f0 00000000 		.word	0
 1710 00f4 FFFFFFFF 		.word	-1
 1711 00f8 09000000 		.word	9
 1712 00fc 01000000 		.word	1
 1713 0100 01000000 		.word	1
 1714 0104 0B000000 		.word	11
 1715 0108 00000000 		.word	0
 1716 010c 01000000 		.word	1
 1717 0110 0D000000 		.word	13
 1718 0114 01000000 		.word	1
 1719 0118 FFFFFFFF 		.word	-1
 1720 011c 0A000000 		.word	10
 1721 0120 00000000 		.word	0
 1722 0124 01000000 		.word	1
 1723 0128 06000000 		.word	6
 1724 012c 01000000 		.word	1
 1725 0130 FFFFFFFF 		.word	-1
 1726 0134 02000000 		.word	2
 1727 0138 00000000 		.word	0
 1728 013c FFFFFFFF 		.word	-1
 1729 0140 08000000 		.word	8
 1730 0144 01000000 		.word	1
 1731 0148 01000000 		.word	1
 1732 014c 05000000 		.word	5
 1733 0150 00000000 		.word	0
 1734 0154 01000000 		.word	1
 1735 0158 08000000 		.word	8
 1736 015c 01000000 		.word	1
 1737 0160 01000000 		.word	1
 1738 0164 02000000 		.word	2
 1739 0168 00000000 		.word	0
 1740 016c FFFFFFFF 		.word	-1
 1741 0170 08000000 		.word	8
 1742 0174 01000000 		.word	1
 1743 0178 01000000 		.word	1
 1744 017c 05000000 		.word	5
 1745 0180 00000000 		.word	0
 1746 0184 01000000 		.word	1
 1747 0188 12000000 		.word	18
 1748 018c 01000000 		.word	1
 1749 0190 FFFFFFFF 		.word	-1
ARM GAS  C:\Users\sjacq\AppData\Local\Temp\ccBl8mzn.s 			page 32


 1750 0194 02000000 		.word	2
 1751 0198 00000000 		.word	0
 1752 019c FFFFFFFF 		.word	-1
 1753 01a0 06000000 		.word	6
 1754 01a4 01000000 		.word	1
 1755 01a8 FFFFFFFF 		.word	-1
 1756 01ac 09000000 		.word	9
 1757 01b0 00000000 		.word	0
 1758 01b4 FFFFFFFF 		.word	-1
 1759 01b8 03000000 		.word	3
 1760 01bc 01000000 		.word	1
 1761 01c0 01000000 		.word	1
 1762 01c4 0B000000 		.word	11
 1763 01c8 00000000 		.word	0
 1764 01cc 01000000 		.word	1
 1765 01d0 08000000 		.word	8
 1766              		.section	.rodata.SendUint8ToComputer.str1.4,"aMS",%progbits,1
 1767              		.align	2
 1768              	.LC1:
 1769 0000 53544152 		.ascii	"START\000"
 1769      5400
 1770              		.section	.rodata.ThdDrawing_IMU.str1.4,"aMS",%progbits,1
 1771              		.align	2
 1772              	.LC0:
 1773 0000 2F696D75 		.ascii	"/imu\000"
 1773      00
 1774              		.section	.rodata.__FUNCTION__.13027,"a",%progbits
 1775              		.align	2
 1776              		.set	.LANCHOR7,. + 0
 1777              		.type	__FUNCTION__.13027, %object
 1778              		.size	__FUNCTION__.13027, 15
 1779              	__FUNCTION__.13027:
 1780 0000 54686444 		.ascii	"ThdDrawing_IMU\000"
 1780      72617769 
 1780      6E675F49 
 1780      4D5500
 1781              		.section	.rodata.__FUNCTION__.13035,"a",%progbits
 1782              		.align	2
 1783              		.set	.LANCHOR0,. + 0
 1784              		.type	__FUNCTION__.13035, %object
 1785              		.size	__FUNCTION__.13035, 19
 1786              	__FUNCTION__.13035:
 1787 0000 54686453 		.ascii	"ThdSwitch_Selector\000"
 1787      77697463 
 1787      685F5365 
 1787      6C656374 
 1787      6F7200
 1788              		.section	.rodata.__FUNCTION__.13043,"a",%progbits
 1789              		.align	2
 1790              		.set	.LANCHOR1,. + 0
 1791              		.type	__FUNCTION__.13043, %object
 1792              		.size	__FUNCTION__.13043, 19
 1793              	__FUNCTION__.13043:
 1794 0000 54686449 		.ascii	"ThdIMU_Pen_Tracker\000"
 1794      4D555F50 
 1794      656E5F54 
 1794      7261636B 
ARM GAS  C:\Users\sjacq\AppData\Local\Temp\ccBl8mzn.s 			page 33


 1794      657200
 1795              		.section	.rodata.__func__.9289,"a",%progbits
 1796              		.align	2
 1797              		.set	.LANCHOR6,. + 0
 1798              		.type	__func__.9289, %object
 1799              		.size	__func__.9289, 12
 1800              	__func__.9289:
 1801 0000 63685379 		.ascii	"chSysUnlock\000"
 1801      73556E6C 
 1801      6F636B00 
 1802              		.section	.rodata.__stack_chk_fail.str1.4,"aMS",%progbits,1
 1803              		.align	2
 1804              	.LC2:
 1805 0000 53746163 		.ascii	"Stack smashing detected\000"
 1805      6B20736D 
 1805      61736869 
 1805      6E672064 
 1805      65746563 
 1806              		.text
 1807              	.Letext0:
 1808              		.file 8 "c:\\users\\sjacq\\desktop\\eclipse_e-puck2_win32_29_jan_2020\\eclipse_e-puck2\\tools\\gcc
 1809              		.file 9 "c:\\users\\sjacq\\desktop\\eclipse_e-puck2_win32_29_jan_2020\\eclipse_e-puck2\\tools\\gcc
 1810              		.file 10 "c:\\users\\sjacq\\desktop\\eclipse_e-puck2_win32_29_jan_2020\\eclipse_e-puck2\\tools\\gc
 1811              		.file 11 "c:\\users\\sjacq\\desktop\\eclipse_e-puck2_win32_29_jan_2020\\eclipse_e-puck2\\tools\\gc
 1812              		.file 12 "c:\\users\\sjacq\\desktop\\eclipse_e-puck2_win32_29_jan_2020\\eclipse_e-puck2\\tools\\gc
 1813              		.file 13 "c:\\users\\sjacq\\desktop\\eclipse_e-puck2_win32_29_jan_2020\\eclipse_e-puck2\\tools\\gc
 1814              		.file 14 "c:\\users\\sjacq\\desktop\\eclipse_e-puck2_win32_29_jan_2020\\eclipse_e-puck2\\tools\\gc
 1815              		.file 15 "c:\\users\\sjacq\\desktop\\eclipse_e-puck2_win32_29_jan_2020\\eclipse_e-puck2\\tools\\gc
 1816              		.file 16 "../../lib/e-puck2_main-processor/ChibiOS//os/rt/ports/ARMCMx/compilers/GCC/chtypes.h"
 1817              		.file 17 "../../lib/e-puck2_main-processor/ChibiOS//os/rt/include/chsystypes.h"
 1818              		.file 18 "../../lib/e-puck2_main-processor/ChibiOS//os/rt/include/chschd.h"
 1819              		.file 19 "../../lib/e-puck2_main-processor/ChibiOS//os/ext/CMSIS/include/core_cm4.h"
 1820              		.file 20 "../../lib/e-puck2_main-processor/ChibiOS//os/ext/CMSIS/ST/system_stm32f4xx.h"
 1821              		.file 21 "../../lib/e-puck2_main-processor/ChibiOS//os/ext/CMSIS/ST/stm32f407xx.h"
 1822              		.file 22 "../../lib/e-puck2_main-processor/ChibiOS//os/rt/ports/ARMCMx/chcore.h"
 1823              		.file 23 "../../lib/e-puck2_main-processor/ChibiOS//os/rt/ports/ARMCMx/chcore_v7m.h"
 1824              		.file 24 "../../lib/e-puck2_main-processor/ChibiOS//os/rt/include/chdebug.h"
 1825              		.file 25 "../../lib/e-puck2_main-processor/ChibiOS//os/rt/include/chtm.h"
 1826              		.file 26 "../../lib/e-puck2_main-processor/ChibiOS//os/rt/include/chstats.h"
 1827              		.file 27 "../../lib/e-puck2_main-processor/ChibiOS//os/rt/include/chsem.h"
 1828              		.file 28 "../../lib/e-puck2_main-processor/ChibiOS//os/rt/include/chmtx.h"
 1829              		.file 29 "../../lib/e-puck2_main-processor/ChibiOS//os/rt/include/chcond.h"
 1830              		.file 30 "../../lib/e-puck2_main-processor/ChibiOS//os/rt/include/chevents.h"
 1831              		.file 31 "../../lib/e-puck2_main-processor/ChibiOS//os/rt/include/chqueues.h"
 1832              		.file 32 "../../lib/e-puck2_main-processor/ChibiOS//os/rt/include/chstreams.h"
 1833              		.file 33 "../../lib/e-puck2_main-processor/ChibiOS//os/hal/ports/STM32/STM32F4xx/stm32_dma.h"
 1834              		.file 34 "../../lib/e-puck2_main-processor/ChibiOS//os/hal/include/hal_ioblock.h"
 1835              		.file 35 "../../lib/e-puck2_main-processor/ChibiOS//os/hal/ports/STM32/LLD/GPIOv2/pal_lld.h"
 1836              		.file 36 "../../lib/e-puck2_main-processor/ChibiOS//os/hal/include/adc.h"
 1837              		.file 37 "../../lib/e-puck2_main-processor/ChibiOS//os/hal/ports/STM32/STM32F4xx/adc_lld.h"
 1838              		.file 38 "../../lib/e-puck2_main-processor/ChibiOS//os/hal/include/can.h"
 1839              		.file 39 "../../lib/e-puck2_main-processor/ChibiOS//os/hal/ports/STM32/LLD/can_lld.h"
 1840              		.file 40 "../../lib/e-puck2_main-processor/ChibiOS//os/hal/include/dac.h"
 1841              		.file 41 "../../lib/e-puck2_main-processor/ChibiOS//os/hal/ports/STM32/LLD/DACv1/dac_lld.h"
 1842              		.file 42 "../../lib/e-puck2_main-processor/ChibiOS//os/hal/include/ext.h"
 1843              		.file 43 "../../lib/e-puck2_main-processor/ChibiOS//os/hal/ports/STM32/LLD/ext_lld.h"
 1844              		.file 44 "../../lib/e-puck2_main-processor/ChibiOS//os/hal/include/gpt.h"
ARM GAS  C:\Users\sjacq\AppData\Local\Temp\ccBl8mzn.s 			page 34


 1845              		.file 45 "../../lib/e-puck2_main-processor/ChibiOS//os/hal/ports/STM32/LLD/TIMv1/gpt_lld.h"
 1846              		.file 46 "../../lib/e-puck2_main-processor/ChibiOS//os/hal/ports/STM32/LLD/TIMv1/stm32_tim.h"
 1847              		.file 47 "../../lib/e-puck2_main-processor/ChibiOS//os/hal/include/i2c.h"
 1848              		.file 48 "../../lib/e-puck2_main-processor/ChibiOS//os/hal/ports/STM32/LLD/I2Cv1/i2c_lld.h"
 1849              		.file 49 "../../lib/e-puck2_main-processor/ChibiOS//os/hal/include/i2s.h"
 1850              		.file 50 "../../lib/e-puck2_main-processor/ChibiOS//os/hal/ports/STM32/LLD/SPIv1/i2s_lld.h"
 1851              		.file 51 "../../lib/e-puck2_main-processor/ChibiOS//os/hal/include/pwm.h"
 1852              		.file 52 "../../lib/e-puck2_main-processor/ChibiOS//os/hal/ports/STM32/LLD/TIMv1/pwm_lld.h"
 1853              		.file 53 "../../lib/e-puck2_main-processor/ChibiOS//os/hal/include/serial.h"
 1854              		.file 54 "../../lib/e-puck2_main-processor/ChibiOS//os/hal/ports/STM32/LLD/USARTv1/serial_lld.h"
 1855              		.file 55 "../../lib/e-puck2_main-processor/ChibiOS//os/hal/include/sdc.h"
 1856              		.file 56 "../../lib/e-puck2_main-processor/ChibiOS//os/hal/ports/STM32/LLD/sdc_lld.h"
 1857              		.file 57 "../../lib/e-puck2_main-processor/ChibiOS//os/hal/include/spi.h"
 1858              		.file 58 "../../lib/e-puck2_main-processor/ChibiOS//os/hal/ports/STM32/LLD/SPIv1/spi_lld.h"
 1859              		.file 59 "../../lib/e-puck2_main-processor/ChibiOS//os/hal/include/usb.h"
 1860              		.file 60 "../../lib/e-puck2_main-processor/ChibiOS//os/hal/ports/STM32/LLD/OTGv1/usb_lld.h"
 1861              		.file 61 "../../lib/e-puck2_main-processor/ChibiOS//os/hal/ports/STM32/LLD/OTGv1/stm32_otg.h"
 1862              		.file 62 "../../lib/e-puck2_main-processor/ChibiOS//os/hal/include/serial_usb.h"
 1863              		.file 63 "../../lib/e-puck2_main-processor/ChibiOS_ext/os/hal/include/../ports/STM32/STM32F4xx/dcm
 1864              		.file 64 "c:\\users\\sjacq\\desktop\\eclipse_e-puck2_win32_29_jan_2020\\eclipse_e-puck2\\tools\\gc
 1865              		.file 65 "../../lib/e-puck2_main-processor/src/msgbus/messagebus.h"
 1866              		.file 66 "../../lib/e-puck2_main-processor/src/parameter/parameter.h"
 1867              		.file 67 "../../lib/e-puck2_main-processor/src/sensors/mpu9250.h"
 1868              		.file 68 "../../lib/e-puck2_main-processor/src/sensors/imu.h"
 1869              		.file 69 "./main.h"
 1870              		.file 70 "../../lib/e-puck2_main-processor/src/usbcfg.h"
 1871              		.file 71 "../../lib/e-puck2_main-processor/src/exti.h"
 1872              		.file 72 "../../lib/e-puck2_main-processor/ChibiOS//os/hal/include/hal.h"
 1873              		.file 73 "../../lib/e-puck2_main-processor/src/memory_protection.h"
 1874              		.file 74 "../../lib/e-puck2_main-processor/src/motors.h"
 1875              		.file 75 "../../lib/e-puck2_main-processor/src/camera/dcmi_camera.h"
 1876              		.file 76 "../../lib/e-puck2_main-processor/src/camera/po8030.h"
 1877              		.file 77 "../../lib/e-puck2_main-processor/src/i2c_bus.h"
 1878              		.file 78 "../../lib/e-puck2_main-processor/src/selector.h"
 1879              		.file 79 "../../lib/e-puck2_main-processor/src/leds.h"
 1880              		.file 80 "../../lib/e-puck2_main-processor/ChibiOS//os/rt/include/chthreads.h"
 1881              		.file 81 "../../lib/e-puck2_main-processor/src/sensors/proximity.h"