ARM GAS  C:\Users\sjacq\AppData\Local\Temp\cchZZHT8.s 			page 1


   1              		.cpu cortex-m4
   2              		.eabi_attribute 27, 1
   3              		.eabi_attribute 28, 1
   4              		.eabi_attribute 20, 1
   5              		.eabi_attribute 21, 1
   6              		.eabi_attribute 23, 3
   7              		.eabi_attribute 24, 1
   8              		.eabi_attribute 25, 1
   9              		.eabi_attribute 26, 1
  10              		.eabi_attribute 30, 2
  11              		.eabi_attribute 34, 1
  12              		.eabi_attribute 18, 4
  13              		.file	"Mighty_logo_function.c"
  14              		.text
  15              	.Ltext0:
  16              		.cfi_sections	.debug_frame
  17              		.section	.text.Drawing_Mighty,"ax",%progbits
  18              		.align	1
  19              		.p2align 4,,15
  20              		.global	Drawing_Mighty
  21              		.syntax unified
  22              		.thumb
  23              		.thumb_func
  24              		.fpu fpv4-sp-d16
  25              		.type	Drawing_Mighty, %function
  26              	Drawing_Mighty:
  27              	.LFB260:
  28              		.file 1 "Mighty_logo_function.c"
  29              		.loc 1 75 0
  30              		.cfi_startproc
  31              		@ args = 0, pretend = 0, frame = 8
  32              		@ frame_needed = 0, uses_anonymous_args = 0
  33 0000 F0B5     		push	{r4, r5, r6, r7, lr}
  34              		.cfi_def_cfa_offset 20
  35              		.cfi_offset 4, -20
  36              		.cfi_offset 5, -16
  37              		.cfi_offset 6, -12
  38              		.cfi_offset 7, -8
  39              		.cfi_offset 14, -4
  40 0002 254C     		ldr	r4, .L12
  41 0004 254D     		ldr	r5, .L12+4
  42 0006 2368     		ldr	r3, [r4]
  43 0008 83B0     		sub	sp, sp, #12
  44              		.cfi_def_cfa_offset 32
  45              		.loc 1 77 0
  46 000a 44F62060 		movw	r0, #20000
  47              		.loc 1 75 0
  48 000e 0193     		str	r3, [sp, #4]
  49 0010 05F5EA76 		add	r6, r5, #468
  50              		.loc 1 77 0
  51 0014 FFF7FEFF 		bl	chThdSleep
  52              	.LVL0:
  53 0018 0127     		movs	r7, #1
  54 001a 4FF0FF33 		mov	r3, #-1
  55 001e 1022     		movs	r2, #16
  56 0020 08E0     		b	.L5
  57              	.LVL1:
ARM GAS  C:\Users\sjacq\AppData\Local\Temp\cchZZHT8.s 			page 2


  58              	.L2:
  59              	.LBB2:
  60              		.loc 1 96 0
  61 0022 012F     		cmp	r7, #1
  62 0024 24D0     		beq	.L9
  63              	.LVL2:
  64              	.L3:
  65 0026 0C35     		adds	r5, r5, #12
  66              		.loc 1 85 0 discriminator 2
  67 0028 B542     		cmp	r5, r6
  68 002a 1BD0     		beq	.L1
  69              	.L10:
  70 002c 55E90232 		ldrd	r3, r2, [r5, #-8]
  71 0030 55F80C7C 		ldr	r7, [r5, #-12]
  72              	.L5:
  73              		.loc 1 87 0
  74 0034 D2B2     		uxtb	r2, r2
  75              	.LVL3:
  76              		.loc 1 88 0
  77 0036 5BB2     		sxtb	r3, r3
  78              	.LVL4:
  79              		.loc 1 90 0
  80 0038 002F     		cmp	r7, #0
  81 003a F2D1     		bne	.L2
  82              		.loc 1 92 0
  83 003c 13FB02F3 		smulbb	r3, r3, r2
  84              	.LVL5:
  85 0040 C3EBC303 		rsb	r3, r3, r3, lsl #3
  86 0044 5900     		lsls	r1, r3, #1
  87 0046 09B2     		sxth	r1, r1
  88 0048 4FF49670 		mov	r0, #300
  89 004c FFF7FEFF 		bl	left_motor_get_to_the_pos
  90              	.LVL6:
  91              		.loc 1 93 0
  92 0050 3846     		mov	r0, r7
  93 0052 3221     		movs	r1, #50
  94 0054 FFF7FEFF 		bl	left_motor_get_to_the_pos
  95              	.LVL7:
  96 0058 0C35     		adds	r5, r5, #12
  97              		.loc 1 94 0
  98 005a 6420     		movs	r0, #100
  99 005c FFF7FEFF 		bl	chThdSleep
 100              	.LVL8:
 101              		.loc 1 85 0
 102 0060 B542     		cmp	r5, r6
 103 0062 E3D1     		bne	.L10
 104              	.L1:
 105              	.LBE2:
 106              		.loc 1 104 0
 107 0064 019A     		ldr	r2, [sp, #4]
 108 0066 2368     		ldr	r3, [r4]
 109 0068 9A42     		cmp	r2, r3
 110 006a 13D1     		bne	.L11
 111 006c 03B0     		add	sp, sp, #12
 112              		.cfi_remember_state
 113              		.cfi_def_cfa_offset 20
 114              		@ sp needed
ARM GAS  C:\Users\sjacq\AppData\Local\Temp\cchZZHT8.s 			page 3


 115 006e F0BD     		pop	{r4, r5, r6, r7, pc}
 116              	.LVL9:
 117              	.L9:
 118              		.cfi_restore_state
 119              	.LBB3:
 120              		.loc 1 98 0
 121 0070 13FB02F3 		smulbb	r3, r3, r2
 122              	.LVL10:
 123 0074 C3EBC303 		rsb	r3, r3, r3, lsl #3
 124 0078 5900     		lsls	r1, r3, #1
 125 007a 09B2     		sxth	r1, r1
 126 007c 4FF49670 		mov	r0, #300
 127 0080 FFF7FEFF 		bl	right_motor_get_to_the_pos
 128              	.LVL11:
 129              		.loc 1 99 0
 130 0084 3221     		movs	r1, #50
 131 0086 0020     		movs	r0, #0
 132 0088 FFF7FEFF 		bl	right_motor_get_to_the_pos
 133              	.LVL12:
 134              		.loc 1 100 0
 135 008c 6420     		movs	r0, #100
 136 008e FFF7FEFF 		bl	chThdSleep
 137              	.LVL13:
 138 0092 C8E7     		b	.L3
 139              	.L11:
 140              	.LBE3:
 141              		.loc 1 104 0
 142 0094 FFF7FEFF 		bl	__stack_chk_fail
 143              	.LVL14:
 144              	.L13:
 145              		.align	2
 146              	.L12:
 147 0098 00000000 		.word	__stack_chk_guard
 148 009c 0C000000 		.word	.LANCHOR0+12
 149              		.cfi_endproc
 150              	.LFE260:
 151              		.size	Drawing_Mighty, .-Drawing_Mighty
 152              		.global	Mighty_sequence_array
 153              		.section	.rodata.Mighty_sequence_array,"a",%progbits
 154              		.align	2
 155              		.set	.LANCHOR0,. + 0
 156              		.type	Mighty_sequence_array, %object
 157              		.size	Mighty_sequence_array, 468
 158              	Mighty_sequence_array:
 159 0000 01000000 		.word	1
 160 0004 FFFFFFFF 		.word	-1
 161 0008 10000000 		.word	16
 162 000c 00000000 		.word	0
 163 0010 01000000 		.word	1
 164 0014 08000000 		.word	8
 165 0018 01000000 		.word	1
 166 001c 01000000 		.word	1
 167 0020 02000000 		.word	2
 168 0024 00000000 		.word	0
 169 0028 FFFFFFFF 		.word	-1
 170 002c 06000000 		.word	6
 171 0030 01000000 		.word	1
ARM GAS  C:\Users\sjacq\AppData\Local\Temp\cchZZHT8.s 			page 4


 172 0034 01000000 		.word	1
 173 0038 04000000 		.word	4
 174 003c 00000000 		.word	0
 175 0040 01000000 		.word	1
 176 0044 05000000 		.word	5
 177 0048 01000000 		.word	1
 178 004c FFFFFFFF 		.word	-1
 179 0050 02000000 		.word	2
 180 0054 00000000 		.word	0
 181 0058 FFFFFFFF 		.word	-1
 182 005c 05000000 		.word	5
 183 0060 01000000 		.word	1
 184 0064 01000000 		.word	1
 185 0068 05000000 		.word	5
 186 006c 00000000 		.word	0
 187 0070 01000000 		.word	1
 188 0074 06000000 		.word	6
 189 0078 01000000 		.word	1
 190 007c 01000000 		.word	1
 191 0080 02000000 		.word	2
 192 0084 00000000 		.word	0
 193 0088 FFFFFFFF 		.word	-1
 194 008c 08000000 		.word	8
 195 0090 00000000 		.word	0
 196 0094 01000000 		.word	1
 197 0098 0C000000 		.word	12
 198 009c 01000000 		.word	1
 199 00a0 FFFFFFFF 		.word	-1
 200 00a4 09000000 		.word	9
 201 00a8 00000000 		.word	0
 202 00ac 01000000 		.word	1
 203 00b0 04000000 		.word	4
 204 00b4 01000000 		.word	1
 205 00b8 01000000 		.word	1
 206 00bc 03000000 		.word	3
 207 00c0 00000000 		.word	0
 208 00c4 FFFFFFFF 		.word	-1
 209 00c8 04000000 		.word	4
 210 00cc 01000000 		.word	1
 211 00d0 01000000 		.word	1
 212 00d4 02000000 		.word	2
 213 00d8 00000000 		.word	0
 214 00dc 01000000 		.word	1
 215 00e0 06000000 		.word	6
 216 00e4 01000000 		.word	1
 217 00e8 FFFFFFFF 		.word	-1
 218 00ec 07000000 		.word	7
 219 00f0 00000000 		.word	0
 220 00f4 FFFFFFFF 		.word	-1
 221 00f8 09000000 		.word	9
 222 00fc 01000000 		.word	1
 223 0100 01000000 		.word	1
 224 0104 0B000000 		.word	11
 225 0108 00000000 		.word	0
 226 010c 01000000 		.word	1
 227 0110 0D000000 		.word	13
 228 0114 01000000 		.word	1
ARM GAS  C:\Users\sjacq\AppData\Local\Temp\cchZZHT8.s 			page 5


 229 0118 FFFFFFFF 		.word	-1
 230 011c 09000000 		.word	9
 231 0120 00000000 		.word	0
 232 0124 01000000 		.word	1
 233 0128 06000000 		.word	6
 234 012c 01000000 		.word	1
 235 0130 FFFFFFFF 		.word	-1
 236 0134 02000000 		.word	2
 237 0138 00000000 		.word	0
 238 013c FFFFFFFF 		.word	-1
 239 0140 08000000 		.word	8
 240 0144 01000000 		.word	1
 241 0148 01000000 		.word	1
 242 014c 05000000 		.word	5
 243 0150 00000000 		.word	0
 244 0154 01000000 		.word	1
 245 0158 08000000 		.word	8
 246 015c 01000000 		.word	1
 247 0160 01000000 		.word	1
 248 0164 01000000 		.word	1
 249 0168 00000000 		.word	0
 250 016c FFFFFFFF 		.word	-1
 251 0170 08000000 		.word	8
 252 0174 01000000 		.word	1
 253 0178 01000000 		.word	1
 254 017c 05000000 		.word	5
 255 0180 00000000 		.word	0
 256 0184 01000000 		.word	1
 257 0188 12000000 		.word	18
 258 018c 01000000 		.word	1
 259 0190 FFFFFFFF 		.word	-1
 260 0194 02000000 		.word	2
 261 0198 00000000 		.word	0
 262 019c FFFFFFFF 		.word	-1
 263 01a0 06000000 		.word	6
 264 01a4 01000000 		.word	1
 265 01a8 FFFFFFFF 		.word	-1
 266 01ac 09000000 		.word	9
 267 01b0 00000000 		.word	0
 268 01b4 FFFFFFFF 		.word	-1
 269 01b8 03000000 		.word	3
 270 01bc 01000000 		.word	1
 271 01c0 01000000 		.word	1
 272 01c4 0B000000 		.word	11
 273 01c8 00000000 		.word	0
 274 01cc 01000000 		.word	1
 275 01d0 08000000 		.word	8
 276              		.text
 277              	.Letext0:
 278              		.file 2 "c:\\users\\sjacq\\desktop\\eclipse_e-puck2_win32_29_jan_2020\\eclipse_e-puck2\\tools\\gcc
 279              		.file 3 "c:\\users\\sjacq\\desktop\\eclipse_e-puck2_win32_29_jan_2020\\eclipse_e-puck2\\tools\\gcc
 280              		.file 4 "c:\\users\\sjacq\\desktop\\eclipse_e-puck2_win32_29_jan_2020\\eclipse_e-puck2\\tools\\gcc
 281              		.file 5 "c:\\users\\sjacq\\desktop\\eclipse_e-puck2_win32_29_jan_2020\\eclipse_e-puck2\\tools\\gcc
 282              		.file 6 "c:\\users\\sjacq\\desktop\\eclipse_e-puck2_win32_29_jan_2020\\eclipse_e-puck2\\tools\\gcc
 283              		.file 7 "c:\\users\\sjacq\\desktop\\eclipse_e-puck2_win32_29_jan_2020\\eclipse_e-puck2\\tools\\gcc
 284              		.file 8 "c:\\users\\sjacq\\desktop\\eclipse_e-puck2_win32_29_jan_2020\\eclipse_e-puck2\\tools\\gcc
 285              		.file 9 "c:\\users\\sjacq\\desktop\\eclipse_e-puck2_win32_29_jan_2020\\eclipse_e-puck2\\tools\\gcc
ARM GAS  C:\Users\sjacq\AppData\Local\Temp\cchZZHT8.s 			page 6


 286              		.file 10 "../../lib/e-puck2_main-processor/ChibiOS//os/rt/ports/ARMCMx/compilers/GCC/chtypes.h"
 287              		.file 11 "../../lib/e-puck2_main-processor/ChibiOS//os/rt/include/chsystypes.h"
 288              		.file 12 "../../lib/e-puck2_main-processor/ChibiOS//os/rt/include/chschd.h"
 289              		.file 13 "../../lib/e-puck2_main-processor/ChibiOS//os/ext/CMSIS/include/core_cm4.h"
 290              		.file 14 "../../lib/e-puck2_main-processor/ChibiOS//os/ext/CMSIS/ST/system_stm32f4xx.h"
 291              		.file 15 "../../lib/e-puck2_main-processor/ChibiOS//os/ext/CMSIS/ST/stm32f407xx.h"
 292              		.file 16 "../../lib/e-puck2_main-processor/ChibiOS//os/rt/ports/ARMCMx/chcore.h"
 293              		.file 17 "../../lib/e-puck2_main-processor/ChibiOS//os/rt/ports/ARMCMx/chcore_v7m.h"
 294              		.file 18 "../../lib/e-puck2_main-processor/ChibiOS//os/rt/include/chdebug.h"
 295              		.file 19 "../../lib/e-puck2_main-processor/ChibiOS//os/rt/include/chtm.h"
 296              		.file 20 "../../lib/e-puck2_main-processor/ChibiOS//os/rt/include/chstats.h"
 297              		.file 21 "../../lib/e-puck2_main-processor/ChibiOS//os/rt/include/chsem.h"
 298              		.file 22 "../../lib/e-puck2_main-processor/ChibiOS//os/rt/include/chmtx.h"
 299              		.file 23 "../../lib/e-puck2_main-processor/ChibiOS//os/rt/include/chregistry.h"
 300              		.file 24 "../../lib/e-puck2_main-processor/ChibiOS//os/rt/include/chevents.h"
 301              		.file 25 "../../lib/e-puck2_main-processor/ChibiOS//os/rt/include/chqueues.h"
 302              		.file 26 "../../lib/e-puck2_main-processor/ChibiOS//os/hal/ports/STM32/STM32F4xx/stm32_dma.h"
 303              		.file 27 "../../lib/e-puck2_main-processor/ChibiOS//os/hal/include/hal_ioblock.h"
 304              		.file 28 "../../lib/e-puck2_main-processor/ChibiOS//os/hal/ports/STM32/LLD/GPIOv2/pal_lld.h"
 305              		.file 29 "../../lib/e-puck2_main-processor/ChibiOS//os/hal/include/adc.h"
 306              		.file 30 "../../lib/e-puck2_main-processor/ChibiOS//os/hal/ports/STM32/STM32F4xx/adc_lld.h"
 307              		.file 31 "../../lib/e-puck2_main-processor/ChibiOS//os/hal/include/can.h"
 308              		.file 32 "../../lib/e-puck2_main-processor/ChibiOS//os/hal/ports/STM32/LLD/can_lld.h"
 309              		.file 33 "../../lib/e-puck2_main-processor/ChibiOS//os/hal/include/dac.h"
 310              		.file 34 "../../lib/e-puck2_main-processor/ChibiOS//os/hal/ports/STM32/LLD/DACv1/dac_lld.h"
 311              		.file 35 "../../lib/e-puck2_main-processor/ChibiOS//os/hal/include/ext.h"
 312              		.file 36 "../../lib/e-puck2_main-processor/ChibiOS//os/hal/ports/STM32/LLD/ext_lld.h"
 313              		.file 37 "../../lib/e-puck2_main-processor/ChibiOS//os/hal/include/gpt.h"
 314              		.file 38 "../../lib/e-puck2_main-processor/ChibiOS//os/hal/ports/STM32/LLD/TIMv1/gpt_lld.h"
 315              		.file 39 "../../lib/e-puck2_main-processor/ChibiOS//os/hal/ports/STM32/LLD/TIMv1/stm32_tim.h"
 316              		.file 40 "../../lib/e-puck2_main-processor/ChibiOS//os/hal/include/i2c.h"
 317              		.file 41 "../../lib/e-puck2_main-processor/ChibiOS//os/hal/ports/STM32/LLD/I2Cv1/i2c_lld.h"
 318              		.file 42 "../../lib/e-puck2_main-processor/ChibiOS//os/hal/include/i2s.h"
 319              		.file 43 "../../lib/e-puck2_main-processor/ChibiOS//os/hal/ports/STM32/LLD/SPIv1/i2s_lld.h"
 320              		.file 44 "../../lib/e-puck2_main-processor/ChibiOS//os/hal/include/pwm.h"
 321              		.file 45 "../../lib/e-puck2_main-processor/ChibiOS//os/hal/ports/STM32/LLD/TIMv1/pwm_lld.h"
 322              		.file 46 "../../lib/e-puck2_main-processor/ChibiOS//os/hal/include/serial.h"
 323              		.file 47 "../../lib/e-puck2_main-processor/ChibiOS//os/hal/ports/STM32/LLD/USARTv1/serial_lld.h"
 324              		.file 48 "../../lib/e-puck2_main-processor/ChibiOS//os/hal/include/sdc.h"
 325              		.file 49 "../../lib/e-puck2_main-processor/ChibiOS//os/hal/ports/STM32/LLD/sdc_lld.h"
 326              		.file 50 "../../lib/e-puck2_main-processor/ChibiOS//os/hal/include/spi.h"
 327              		.file 51 "../../lib/e-puck2_main-processor/ChibiOS//os/hal/ports/STM32/LLD/SPIv1/spi_lld.h"
 328              		.file 52 "../../lib/e-puck2_main-processor/ChibiOS//os/hal/include/usb.h"
 329              		.file 53 "../../lib/e-puck2_main-processor/ChibiOS//os/hal/ports/STM32/LLD/OTGv1/usb_lld.h"
 330              		.file 54 "../../lib/e-puck2_main-processor/ChibiOS//os/hal/ports/STM32/LLD/OTGv1/stm32_otg.h"
 331              		.file 55 "../../lib/e-puck2_main-processor/ChibiOS//os/hal/include/serial_usb.h"
 332              		.file 56 "../../lib/e-puck2_main-processor/src/usbcfg.h"
 333              		.file 57 "../../lib/e-puck2_main-processor/ChibiOS_ext/os/hal/include/../ports/STM32/STM32F4xx/dcm
 334              		.file 58 "c:\\users\\sjacq\\desktop\\eclipse_e-puck2_win32_29_jan_2020\\eclipse_e-puck2\\tools\\gc
 335              		.file 59 "../../lib/e-puck2_main-processor/src/msgbus/messagebus.h"
 336              		.file 60 "../../lib/e-puck2_main-processor/src/parameter/parameter.h"
 337              		.file 61 "./main.h"
 338              		.file 62 "../../lib/e-puck2_main-processor/src/motors.h"
 339              		.file 63 "../../lib/e-puck2_main-processor/ChibiOS//os/rt/include/chthreads.h"