ARM GAS  C:\Users\sjacq\AppData\Local\Temp\ccaP5Wbh.s 			page 1


   1              		.cpu cortex-m4
   2              		.eabi_attribute 27, 1
   3              		.eabi_attribute 28, 1
   4              		.eabi_attribute 20, 1
   5              		.eabi_attribute 21, 1
   6              		.eabi_attribute 23, 3
   7              		.eabi_attribute 24, 1
   8              		.eabi_attribute 25, 1
   9              		.eabi_attribute 26, 1
  10              		.eabi_attribute 30, 2
  11              		.eabi_attribute 34, 1
  12              		.eabi_attribute 18, 4
  13              		.file	"process_image.c"
  14              		.text
  15              	.Ltext0:
  16              		.cfi_sections	.debug_frame
  17              		.section	.text.CaptureImage,"ax",%progbits
  18              		.align	1
  19              		.p2align 4,,15
  20              		.syntax unified
  21              		.thumb
  22              		.thumb_func
  23              		.fpu fpv4-sp-d16
  24              		.type	CaptureImage, %function
  25              	CaptureImage:
  26              	.LFB259:
  27              		.file 1 "process_image.c"
  28              		.loc 1 131 0
  29              		.cfi_startproc
  30              		@ Volatile: function does not return.
  31              		@ args = 0, pretend = 0, frame = 8
  32              		@ frame_needed = 0, uses_anonymous_args = 0
  33              	.LVL0:
  34 0000 80B5     		push	{r7, lr}
  35              		.cfi_def_cfa_offset 8
  36              		.cfi_offset 7, -8
  37              		.cfi_offset 14, -4
  38              	.LBB57:
  39              	.LBB58:
  40              		.file 2 "../../lib/e-puck2_main-processor/ChibiOS//os/rt/include/chregistry.h"
  41              		.loc 2 135 0
  42 0002 224C     		ldr	r4, .L8
  43              	.LBE58:
  44              	.LBE57:
  45              		.loc 1 131 0
  46 0004 224A     		ldr	r2, .L8+4
  47              	.LBB61:
  48              	.LBB59:
  49              		.loc 2 135 0
  50 0006 A369     		ldr	r3, [r4, #24]
  51 0008 2249     		ldr	r1, .L8+8
  52              	.LBE59:
  53              	.LBE61:
  54              		.loc 1 131 0
  55 000a 1568     		ldr	r5, [r2]
  56              	.LBB62:
  57              	.LBB60:
ARM GAS  C:\Users\sjacq\AppData\Local\Temp\ccaP5Wbh.s 			page 2


  58              		.loc 2 135 0
  59 000c 9961     		str	r1, [r3, #24]
  60              	.LBE60:
  61              	.LBE62:
  62              		.loc 1 131 0
  63 000e 86B0     		sub	sp, sp, #24
  64              		.cfi_def_cfa_offset 32
  65              		.loc 1 137 0
  66 0010 8021     		movs	r1, #128
  67 0012 4FF4C073 		mov	r3, #384
  68 0016 CDE90111 		strd	r1, r1, [sp, #4]
  69 001a 0093     		str	r3, [sp]
  70 001c 0A22     		movs	r2, #10
  71              		.loc 1 131 0
  72 001e 0595     		str	r5, [sp, #20]
  73              		.loc 1 137 0
  74 0020 3020     		movs	r0, #48
  75              	.LVL1:
  76 0022 1D4D     		ldr	r5, .L8+12
  77              	.LBB63:
  78              	.LBB64:
  79              	.LBB65:
  80              	.LBB66:
  81              		.file 3 "../../lib/e-puck2_main-processor/ChibiOS//os/rt/include/chsys.h"
  82              		.loc 3 367 0
  83 0024 1D4F     		ldr	r7, .L8+16
  84              	.LBE66:
  85              	.LBE65:
  86              	.LBE64:
  87              	.LBE63:
  88              		.loc 1 137 0
  89 0026 FFF7FEFF 		bl	po8030_advanced_config
  90              	.LVL2:
  91              		.loc 1 138 0
  92 002a FFF7FEFF 		bl	dcmi_disable_double_buffering
  93              	.LVL3:
  94              		.loc 1 139 0
  95 002e 0020     		movs	r0, #0
  96 0030 FFF7FEFF 		bl	dcmi_set_capture_mode
  97              	.LVL4:
  98              	.LBB89:
  99              	.LBB86:
 100              	.LBB71:
 101              	.LBB72:
 102              		.file 4 "../../lib/e-puck2_main-processor/ChibiOS//os/rt/include/chbsem.h"
 103              		.loc 4 271 0
 104 0034 A846     		mov	r8, r5
 105              	.LBE72:
 106              	.LBE71:
 107              	.LBE86:
 108              	.LBE89:
 109              		.loc 1 140 0
 110 0036 FFF7FEFF 		bl	dcmi_prepare
 111              	.LVL5:
 112              	.LBB90:
 113              	.LBB87:
 114              	.LBB74:
ARM GAS  C:\Users\sjacq\AppData\Local\Temp\ccaP5Wbh.s 			page 3


 115              	.LBB75:
 116              	.LBB76:
 117              	.LBB77:
 118              	.LBB78:
 119              		.file 5 "../../lib/e-puck2_main-processor/ChibiOS//os/ext/CMSIS/include/core_cmFunc.h"
 120              		.loc 5 546 0
 121 003a 2026     		movs	r6, #32
 122 003c 13E0     		b	.L4
 123              	.LVL6:
 124              	.L2:
 125              	.LBE78:
 126              	.LBE77:
 127              	.LBE76:
 128              	.LBE75:
 129              	.LBE74:
 130              		.loc 4 286 0
 131 003e FFF7FEFF 		bl	chSchRescheduleS
 132              	.LVL7:
 133              	.LBB83:
 134              	.LBB70:
 135              		.loc 3 360 0
 136 0042 FFF7FEFF 		bl	_dbg_check_unlock
 137              	.LVL8:
 138              		.loc 3 361 0
 139 0046 FFF7FEFF 		bl	_stats_stop_measure_crit_thd
 140              	.LVL9:
 141              		.loc 3 367 0
 142 004a 2368     		ldr	r3, [r4]
 143 004c A342     		cmp	r3, r4
 144 004e 07D0     		beq	.L3
 145 0050 A269     		ldr	r2, [r4, #24]
 146 0052 9B68     		ldr	r3, [r3, #8]
 147 0054 9268     		ldr	r2, [r2, #8]
 148 0056 9A42     		cmp	r2, r3
 149 0058 02D2     		bcs	.L3
 150 005a 3846     		mov	r0, r7
 151 005c FFF7FEFF 		bl	chSysHalt
 152              	.LVL10:
 153              	.L3:
 154              	.LBB67:
 155              	.LBB68:
 156              	.LBB69:
 157              		.loc 5 546 0
 158 0060 0023     		movs	r3, #0
 159              		.syntax unified
 160              	@ 546 "../../lib/e-puck2_main-processor/ChibiOS//os/ext/CMSIS/include/core_cmFunc.h" 1
 161 0062 83F31188 		MSR basepri, r3
 162              	@ 0 "" 2
 163              	.LVL11:
 164              		.thumb
 165              		.syntax unified
 166              	.L4:
 167              	.LBE69:
 168              	.LBE68:
 169              	.LBE67:
 170              	.LBE70:
 171              	.LBE83:
ARM GAS  C:\Users\sjacq\AppData\Local\Temp\ccaP5Wbh.s 			page 4


 172              	.LBE87:
 173              	.LBE90:
 174              		.loc 1 144 0 discriminator 1
 175 0066 FFF7FEFF 		bl	dcmi_capture_start
 176              	.LVL12:
 177              		.loc 1 146 0 discriminator 1
 178 006a FFF7FEFF 		bl	wait_image_ready
 179              	.LVL13:
 180              	.LBB91:
 181              	.LBB88:
 182              	.LBB84:
 183              	.LBB82:
 184              	.LBB81:
 185              	.LBB80:
 186              	.LBB79:
 187              		.loc 5 546 0 discriminator 1
 188              		.syntax unified
 189              	@ 546 "../../lib/e-puck2_main-processor/ChibiOS//os/ext/CMSIS/include/core_cmFunc.h" 1
 190 006e 86F31188 		MSR basepri, r6
 191              	@ 0 "" 2
 192              	.LVL14:
 193              		.thumb
 194              		.syntax unified
 195              	.LBE79:
 196              	.LBE80:
 197              	.LBE81:
 198              		.loc 3 349 0 discriminator 1
 199 0072 FFF7FEFF 		bl	_stats_start_measure_crit_thd
 200              	.LVL15:
 201              		.loc 3 350 0 discriminator 1
 202 0076 FFF7FEFF 		bl	_dbg_check_lock
 203              	.LVL16:
 204              	.LBE82:
 205              	.LBE84:
 206              	.LBB85:
 207              	.LBB73:
 208              		.loc 4 268 0 discriminator 1
 209 007a FFF7FEFF 		bl	chDbgCheckClassI
 210              	.LVL17:
 211              		.loc 4 270 0 discriminator 1
 212 007e AB68     		ldr	r3, [r5, #8]
 213 0080 002B     		cmp	r3, #0
 214 0082 DCDC     		bgt	.L2
 215              		.loc 4 271 0
 216 0084 4046     		mov	r0, r8
 217 0086 FFF7FEFF 		bl	chSemSignalI
 218              	.LVL18:
 219 008a D8E7     		b	.L2
 220              	.L9:
 221              		.align	2
 222              	.L8:
 223 008c 00000000 		.word	ch
 224 0090 00000000 		.word	__stack_chk_guard
 225 0094 00000000 		.word	.LANCHOR0
 226 0098 00000000 		.word	.LANCHOR1
 227 009c 00000000 		.word	.LANCHOR2
 228              	.LBE73:
ARM GAS  C:\Users\sjacq\AppData\Local\Temp\ccaP5Wbh.s 			page 5


 229              	.LBE85:
 230              	.LBE88:
 231              	.LBE91:
 232              		.cfi_endproc
 233              	.LFE259:
 234              		.size	CaptureImage, .-CaptureImage
 235              		.section	.text.get_line_data,"ax",%progbits
 236              		.align	1
 237              		.p2align 4,,15
 238              		.global	get_line_data
 239              		.syntax unified
 240              		.thumb
 241              		.thumb_func
 242              		.fpu fpv4-sp-d16
 243              		.type	get_line_data, %function
 244              	get_line_data:
 245              	.LFB257:
 246              		.loc 1 22 0
 247              		.cfi_startproc
 248              		@ args = 0, pretend = 0, frame = 8
 249              		@ frame_needed = 0, uses_anonymous_args = 0
 250              	.LVL19:
 251 0000 F0B5     		push	{r4, r5, r6, r7, lr}
 252              		.cfi_def_cfa_offset 20
 253              		.cfi_offset 4, -20
 254              		.cfi_offset 5, -16
 255              		.cfi_offset 6, -12
 256              		.cfi_offset 7, -8
 257              		.cfi_offset 14, -4
 258 0002 2B4D     		ldr	r5, .L32
 259 0004 83B0     		sub	sp, sp, #12
 260              		.cfi_def_cfa_offset 32
 261              		.loc 1 22 0
 262 0006 2B68     		ldr	r3, [r5]
 263 0008 0193     		str	r3, [sp, #4]
 264              	.LVL20:
 265 000a 00F15F04 		add	r4, r0, #95
 266 000e 431E     		subs	r3, r0, #1
 267              		.loc 1 26 0
 268 0010 0022     		movs	r2, #0
 269              	.LVL21:
 270              	.L11:
 271              	.LBB92:
 272              		.loc 1 31 0 discriminator 3
 273 0012 13F8011F 		ldrb	r1, [r3, #1]!	@ zero_extendqisi2
 274              		.loc 1 30 0 discriminator 3
 275 0016 9C42     		cmp	r4, r3
 276              		.loc 1 31 0 discriminator 3
 277 0018 0A44     		add	r2, r2, r1
 278              	.LVL22:
 279              		.loc 1 30 0 discriminator 3
 280 001a FAD1     		bne	.L11
 281              	.LBE92:
 282              		.loc 1 33 0
 283 001c 254B     		ldr	r3, .L32+4
 284 001e 0178     		ldrb	r1, [r0]	@ zero_extendqisi2
 285 0020 A3FB0232 		umull	r3, r2, r3, r2
ARM GAS  C:\Users\sjacq\AppData\Local\Temp\ccaP5Wbh.s 			page 6


 286              	.LVL23:
 287 0024 9709     		lsrs	r7, r2, #6
 288              	.LVL24:
 289              		.loc 1 24 0
 290 0026 0024     		movs	r4, #0
 291              		.loc 1 46 0
 292 0028 D209     		lsrs	r2, r2, #7
 293              		.loc 1 55 0
 294 002a 4FF6FC7C 		movw	ip, #65532
 295              	.LVL25:
 296              	.L12:
 297 002e 631C     		adds	r3, r4, #1
 298              		.loc 1 46 0
 299 0030 9142     		cmp	r1, r2
 300 0032 9BB2     		uxth	r3, r3
 301 0034 2FD2     		bcs	.L14
 302              	.L31:
 303              		.loc 1 46 0 is_stmt 0 discriminator 1
 304 0036 0119     		adds	r1, r0, r4
 305 0038 8978     		ldrb	r1, [r1, #2]	@ zero_extendqisi2
 306 003a B942     		cmp	r1, r7
 307 003c 2BD9     		bls	.L14
 308              	.LVL26:
 309              		.loc 1 55 0 is_stmt 1
 310 003e A11E     		subs	r1, r4, #2
 311 0040 89B2     		uxth	r1, r1
 312 0042 6145     		cmp	r1, ip
 313 0044 10D9     		bls	.L15
 314              	.LVL27:
 315              	.L23:
 316              		.loc 1 27 0
 317 0046 0020     		movs	r0, #0
 318              	.LVL28:
 319 0048 0346     		mov	r3, r0
 320              	.LVL29:
 321              	.L13:
 322              		.loc 1 107 0
 323 004a 0199     		ldr	r1, [sp, #4]
 324 004c 2A68     		ldr	r2, [r5]
 325              		.loc 1 105 0
 326 004e ADF80200 		strh	r0, [sp, #2]	@ movhi
 327              	.LVL30:
 328              		.loc 1 107 0
 329 0052 9142     		cmp	r1, r2
 330              		.loc 1 105 0
 331 0054 ADF80030 		strh	r3, [sp]	@ movhi
 332              		.loc 1 107 0
 333 0058 43EA0040 		orr	r0, r3, r0, lsl #16
 334 005c 25D1     		bne	.L29
 335 005e 03B0     		add	sp, sp, #12
 336              		.cfi_remember_state
 337              		.cfi_def_cfa_offset 20
 338              		@ sp needed
 339 0060 F0BD     		pop	{r4, r5, r6, r7, pc}
 340              	.LVL31:
 341              	.L17:
 342              		.cfi_restore_state
ARM GAS  C:\Users\sjacq\AppData\Local\Temp\ccaP5Wbh.s 			page 7


 343              		.loc 1 60 0 discriminator 1
 344 0062 022E     		cmp	r6, #2
 345 0064 3346     		mov	r3, r6
 346 0066 EED9     		bls	.L23
 347              	.LVL32:
 348              	.L15:
 349              		.loc 1 62 0
 350 0068 C15C     		ldrb	r1, [r0, r3]	@ zero_extendqisi2
 351 006a 5E1C     		adds	r6, r3, #1
 352 006c 8A42     		cmp	r2, r1
 353 006e B6B2     		uxth	r6, r6
 354 0070 F7D9     		bls	.L17
 355              		.loc 1 62 0 is_stmt 0 discriminator 1
 356 0072 00EB030E 		add	lr, r0, r3
 357 0076 1EF802EC 		ldrb	lr, [lr, #-2]	@ zero_extendqisi2
 358 007a BE45     		cmp	lr, r7
 359 007c F1D9     		bls	.L17
 360              	.LVL33:
 361              		.loc 1 70 0 is_stmt 1
 362 007e 602E     		cmp	r6, #96
 363 0080 E1D8     		bhi	.L23
 364              	.LVL34:
 365              		.loc 1 83 0
 366 0082 1E1B     		subs	r6, r3, r4
 367 0084 452E     		cmp	r6, #69
 368 0086 0BDC     		bgt	.L30
 369              	.LVL35:
 370              		.loc 1 41 0
 371 0088 192B     		cmp	r3, #25
 372 008a DCD8     		bhi	.L23
 373 008c 1C46     		mov	r4, r3
 374 008e 631C     		adds	r3, r4, #1
 375              	.LVL36:
 376              		.loc 1 46 0
 377 0090 9142     		cmp	r1, r2
 378 0092 9BB2     		uxth	r3, r3
 379 0094 CFD3     		bcc	.L31
 380              	.LVL37:
 381              	.L14:
 382              		.loc 1 41 0 discriminator 1
 383 0096 192B     		cmp	r3, #25
 384 0098 D5D8     		bhi	.L23
 385 009a C15C     		ldrb	r1, [r0, r3]	@ zero_extendqisi2
 386              	.LVL38:
 387              		.loc 1 41 0 is_stmt 0
 388 009c 1C46     		mov	r4, r3
 389 009e C6E7     		b	.L12
 390              	.LVL39:
 391              	.L30:
 392              		.loc 1 99 0 is_stmt 1
 393 00a0 2344     		add	r3, r3, r4
 394              	.LVL40:
 395 00a2 C3F34F03 		ubfx	r3, r3, #1, #16
 396              		.loc 1 98 0
 397 00a6 B0B2     		uxth	r0, r6
 398              	.LVL41:
 399 00a8 CFE7     		b	.L13
ARM GAS  C:\Users\sjacq\AppData\Local\Temp\ccaP5Wbh.s 			page 8


 400              	.LVL42:
 401              	.L29:
 402              		.loc 1 107 0
 403 00aa FFF7FEFF 		bl	__stack_chk_fail
 404              	.LVL43:
 405              	.L33:
 406 00ae 00BF     		.align	2
 407              	.L32:
 408 00b0 00000000 		.word	__stack_chk_guard
 409 00b4 ABAAAAAA 		.word	-1431655765
 410              		.cfi_endproc
 411              	.LFE257:
 412              		.size	get_line_data, .-get_line_data
 413              		.section	.text.test_continuity,"ax",%progbits
 414              		.align	1
 415              		.p2align 4,,15
 416              		.global	test_continuity
 417              		.syntax unified
 418              		.thumb
 419              		.thumb_func
 420              		.fpu fpv4-sp-d16
 421              		.type	test_continuity, %function
 422              	test_continuity:
 423              	.LFB258:
 424              		.loc 1 108 0
 425              		.cfi_startproc
 426              		@ args = 0, pretend = 0, frame = 8
 427              		@ frame_needed = 0, uses_anonymous_args = 0
 428              	.LVL44:
 429 0000 F0B5     		push	{r4, r5, r6, r7, lr}
 430              		.cfi_def_cfa_offset 20
 431              		.cfi_offset 4, -20
 432              		.cfi_offset 5, -16
 433              		.cfi_offset 6, -12
 434              		.cfi_offset 7, -8
 435              		.cfi_offset 14, -4
 436 0002 1949     		ldr	r1, .L48
 437 0004 83B0     		sub	sp, sp, #12
 438              		.cfi_def_cfa_offset 32
 439              		.loc 1 108 0
 440 0006 0B68     		ldr	r3, [r1]
 441 0008 0193     		str	r3, [sp, #4]
 442              	.LVL45:
 443 000a 00F15104 		add	r4, r0, #81
 444              	.LVL46:
 445              	.L37:
 446              	.LBB93:
 447              		.loc 1 111 0
 448 000e 10F8013B 		ldrb	r3, [r0], #1	@ zero_extendqisi2
 449              	.LVL47:
 450 0012 13B3     		cbz	r3, .L35
 451              		.loc 1 113 0
 452 0014 10F8023C 		ldrb	r3, [r0, #-2]	@ zero_extendqisi2
 453 0018 90F800E0 		ldrb	lr, [r0]	@ zero_extendqisi2
 454 001c 10F80ACC 		ldrb	ip, [r0, #-10]	@ zero_extendqisi2
 455              		.loc 1 114 0
 456 0020 457A     		ldrb	r5, [r0, #9]	@ zero_extendqisi2
ARM GAS  C:\Users\sjacq\AppData\Local\Temp\ccaP5Wbh.s 			page 9


 457 0022 10F8092C 		ldrb	r2, [r0, #-9]	@ zero_extendqisi2
 458              		.loc 1 113 0
 459 0026 077A     		ldrb	r7, [r0, #8]	@ zero_extendqisi2
 460              		.loc 1 114 0
 461 0028 10F80B6C 		ldrb	r6, [r0, #-11]	@ zero_extendqisi2
 462              		.loc 1 113 0
 463 002c 7344     		add	r3, r3, lr
 464 002e 6344     		add	r3, r3, ip
 465              		.loc 1 114 0
 466 0030 2A44     		add	r2, r2, r5
 467              		.loc 1 113 0
 468 0032 3B44     		add	r3, r3, r7
 469              		.loc 1 114 0
 470 0034 C579     		ldrb	r5, [r0, #7]	@ zero_extendqisi2
 471 0036 3244     		add	r2, r2, r6
 472              		.loc 1 113 0
 473 0038 DBB2     		uxtb	r3, r3
 474              	.LVL48:
 475              		.loc 1 114 0
 476 003a 2A44     		add	r2, r2, r5
 477              		.loc 1 115 0
 478 003c 022B     		cmp	r3, #2
 479              		.loc 1 114 0
 480 003e D2B2     		uxtb	r2, r2
 481              	.LVL49:
 482              		.loc 1 115 0
 483 0040 04D8     		bhi	.L41
 484              		.loc 1 115 0 is_stmt 0 discriminator 1
 485 0042 022A     		cmp	r2, #2
 486 0044 02D8     		bhi	.L41
 487              		.loc 1 115 0 discriminator 2
 488 0046 1344     		add	r3, r3, r2
 489              	.LVL50:
 490 0048 012B     		cmp	r3, #1
 491 004a 06DC     		bgt	.L35
 492              	.L41:
 493              		.loc 1 116 0 is_stmt 1
 494 004c 0020     		movs	r0, #0
 495              	.LVL51:
 496              	.L36:
 497              	.LBE93:
 498              		.loc 1 127 0
 499 004e 019A     		ldr	r2, [sp, #4]
 500 0050 0B68     		ldr	r3, [r1]
 501 0052 9A42     		cmp	r2, r3
 502 0054 05D1     		bne	.L47
 503 0056 03B0     		add	sp, sp, #12
 504              		.cfi_remember_state
 505              		.cfi_def_cfa_offset 20
 506              		@ sp needed
 507 0058 F0BD     		pop	{r4, r5, r6, r7, pc}
 508              	.LVL52:
 509              	.L35:
 510              		.cfi_restore_state
 511              	.LBB94:
 512              		.loc 1 110 0 discriminator 2
 513 005a 8442     		cmp	r4, r0
ARM GAS  C:\Users\sjacq\AppData\Local\Temp\ccaP5Wbh.s 			page 10


 514 005c D7D1     		bne	.L37
 515              	.LBE94:
 516              		.loc 1 126 0
 517 005e 0120     		movs	r0, #1
 518              	.LVL53:
 519              	.LBB95:
 520 0060 F5E7     		b	.L36
 521              	.L47:
 522              	.LBE95:
 523              		.loc 1 127 0
 524 0062 FFF7FEFF 		bl	__stack_chk_fail
 525              	.LVL54:
 526              	.L49:
 527 0066 00BF     		.align	2
 528              	.L48:
 529 0068 00000000 		.word	__stack_chk_guard
 530              		.cfi_endproc
 531              	.LFE258:
 532              		.size	test_continuity, .-test_continuity
 533              		.section	.text.ProcessImage,"ax",%progbits
 534              		.align	1
 535              		.p2align 4,,15
 536              		.syntax unified
 537              		.thumb
 538              		.thumb_func
 539              		.fpu fpv4-sp-d16
 540              		.type	ProcessImage, %function
 541              	ProcessImage:
 542              	.LFB260:
 543              		.loc 1 154 0
 544              		.cfi_startproc
 545              		@ args = 0, pretend = 0, frame = 120
 546              		@ frame_needed = 0, uses_anonymous_args = 0
 547              	.LVL55:
 548 0000 2DE9F04F 		push	{r4, r5, r6, r7, r8, r9, r10, fp, lr}
 549              		.cfi_def_cfa_offset 36
 550              		.cfi_offset 4, -36
 551              		.cfi_offset 5, -32
 552              		.cfi_offset 6, -28
 553              		.cfi_offset 7, -24
 554              		.cfi_offset 8, -20
 555              		.cfi_offset 9, -16
 556              		.cfi_offset 10, -12
 557              		.cfi_offset 11, -8
 558              		.cfi_offset 14, -4
 559              	.LBB96:
 560              	.LBB97:
 561              		.loc 2 135 0
 562 0004 934A     		ldr	r2, .L93
 563              	.LBE97:
 564              	.LBE96:
 565              		.loc 1 154 0
 566 0006 944B     		ldr	r3, .L93+4
 567              	.LBB99:
 568              	.LBB98:
 569              		.loc 2 135 0
 570 0008 9269     		ldr	r2, [r2, #24]
ARM GAS  C:\Users\sjacq\AppData\Local\Temp\ccaP5Wbh.s 			page 11


 571 000a 9449     		ldr	r1, .L93+8
 572 000c DFF86082 		ldr	r8, .L93+28
 573 0010 9161     		str	r1, [r2, #24]
 574              	.LBE98:
 575              	.LBE99:
 576              		.loc 1 154 0
 577 0012 9FB0     		sub	sp, sp, #124
 578              		.cfi_def_cfa_offset 160
 579              		.loc 1 154 0
 580 0014 1B68     		ldr	r3, [r3]
 581 0016 1D93     		str	r3, [sp, #116]
 582              	.LVL56:
 583              		.loc 1 160 0
 584 0018 05A8     		add	r0, sp, #20
 585              	.LVL57:
 586 001a 6022     		movs	r2, #96
 587 001c 0021     		movs	r1, #0
 588              		.loc 1 161 0
 589 001e 0024     		movs	r4, #0
 590              		.loc 1 160 0
 591 0020 FFF7FEFF 		bl	memset
 592              	.LVL58:
 593 0024 08F15009 		add	r9, r8, #80
 594 0028 08F1510B 		add	fp, r8, #81
 595              		.loc 1 158 0
 596 002c 0194     		str	r4, [sp, #4]
 597              	.LVL59:
 598              	.L51:
 599              		.loc 1 168 0
 600 002e 8C4B     		ldr	r3, .L93+12
 601              	.LBB100:
 602              	.LBB101:
 603              		.loc 4 143 0
 604 0030 8C48     		ldr	r0, .L93+16
 605              	.LBE101:
 606              	.LBE100:
 607              		.loc 1 168 0
 608 0032 0025     		movs	r5, #0
 609 0034 1D70     		strb	r5, [r3]
 610              	.LVL60:
 611              	.LBB103:
 612              	.LBB102:
 613              		.loc 4 143 0
 614 0036 FFF7FEFF 		bl	chSemWait
 615              	.LVL61:
 616              	.LBE102:
 617              	.LBE103:
 618              		.loc 1 173 0
 619 003a FFF7FEFF 		bl	dcmi_get_last_image_ptr
 620              	.LVL62:
 621 003e 2B46     		mov	r3, r5
 622 0040 0646     		mov	r6, r0
 623              	.LVL63:
 624              	.LBB104:
 625              		.loc 1 179 0
 626 0042 42F20140 		movw	r0, #9217
 627              	.LVL64:
ARM GAS  C:\Users\sjacq\AppData\Local\Temp\ccaP5Wbh.s 			page 12


 628              	.L52:
 629              		.loc 1 179 0 is_stmt 0 discriminator 3
 630 0046 1918     		adds	r1, r3, r0
 631 0048 C3F34E02 		ubfx	r2, r3, #1, #15
 632 004c 715C     		ldrb	r1, [r6, r1]	@ zero_extendqisi2
 633 004e 1EAD     		add	r5, sp, #120
 634 0050 2A44     		add	r2, r2, r5
 635 0052 0233     		adds	r3, r3, #2
 636              	.LVL65:
 637 0054 01F01F01 		and	r1, r1, #31
 638              		.loc 1 176 0 is_stmt 1 discriminator 3
 639 0058 C02B     		cmp	r3, #192
 640              		.loc 1 179 0 discriminator 3
 641 005a 02F8641C 		strb	r1, [r2, #-100]
 642              		.loc 1 176 0 discriminator 3
 643 005e F2D1     		bne	.L52
 644              	.LBE104:
 645              		.loc 1 183 0
 646 0060 05A8     		add	r0, sp, #20
 647 0062 FFF7FEFF 		bl	get_line_data
 648              	.LVL66:
 649 0066 85B2     		uxth	r5, r0
 650              	.LVL67:
 651 0068 0390     		str	r0, [sp, #12]
 652              	.LVL68:
 653              		.loc 1 185 0
 654 006a 002D     		cmp	r5, #0
 655 006c 00F08E80 		beq	.L89
 656 0070 7D4A     		ldr	r2, .L93+20
 657              		.loc 1 183 0
 658 0072 BDF80E70 		ldrh	r7, [sp, #14]
 659              		.loc 1 185 0
 660 0076 4FF40013 		mov	r3, #2097152
 661 007a 9361     		str	r3, [r2, #24]
 662              	.LVL69:
 663 007c 06EB4500 		add	r0, r6, r5, lsl #1
 664 0080 0023     		movs	r3, #0
 665              	.LVL70:
 666              	.L55:
 667              	.LBB105:
 668              		.loc 1 193 0 discriminator 3
 669 0082 4178     		ldrb	r1, [r0, #1]	@ zero_extendqisi2
 670 0084 C3F34E02 		ubfx	r2, r3, #1, #15
 671 0088 0DF1780C 		add	ip, sp, #120
 672 008c 6244     		add	r2, r2, ip
 673 008e 0233     		adds	r3, r3, #2
 674              	.LVL71:
 675 0090 01F01F01 		and	r1, r1, #31
 676              		.loc 1 189 0 discriminator 3
 677 0094 C02B     		cmp	r3, #192
 678              		.loc 1 193 0 discriminator 3
 679 0096 02F8641C 		strb	r1, [r2, #-100]
 680 009a 00F1C000 		add	r0, r0, #192
 681              		.loc 1 189 0 discriminator 3
 682 009e F0D1     		bne	.L55
 683              	.LBE105:
 684              		.loc 1 196 0
ARM GAS  C:\Users\sjacq\AppData\Local\Temp\ccaP5Wbh.s 			page 13


 685 00a0 05A8     		add	r0, sp, #20
 686 00a2 FFF7FEFF 		bl	get_line_data
 687              	.LVL72:
 688              		.loc 1 203 0
 689 00a6 7049     		ldr	r1, .L93+20
 690              		.loc 1 196 0
 691 00a8 0490     		str	r0, [sp, #16]
 692 00aa 83B2     		uxth	r3, r0
 693              	.LVL73:
 694              		.loc 1 203 0
 695 00ac 4FF40012 		mov	r2, #2097152
 696              		.loc 1 196 0
 697 00b0 000C     		lsrs	r0, r0, #16
 698              	.LVL74:
 699              		.loc 1 203 0
 700 00b2 8A61     		str	r2, [r1, #24]
 701              		.loc 1 204 0
 702 00b4 002B     		cmp	r3, #0
 703 00b6 00F0C180 		beq	.L56
 704              		.loc 1 204 0 is_stmt 0 discriminator 8
 705 00ba 4FF48002 		mov	r2, #4194304
 706              		.loc 1 205 0 is_stmt 1 discriminator 8
 707 00be 1D42     		tst	r5, r3
 708              		.loc 1 204 0 discriminator 8
 709 00c0 8A61     		str	r2, [r1, #24]
 710              		.loc 1 205 0 discriminator 8
 711 00c2 69D0     		beq	.L57
 712              	.LBB106:
 713              	.LBB107:
 714              	.LBB108:
 715              		.loc 1 211 0
 716 00c4 6949     		ldr	r1, .L93+24
 717 00c6 A3EB5003 		sub	r3, r3, r0, lsr #1
 718              	.LVL75:
 719 00ca 0533     		adds	r3, r3, #5
 720 00cc A1FB0020 		umull	r2, r0, r1, r0
 721              	.LVL76:
 722 00d0 A5EB570A 		sub	r10, r5, r7, lsr #1
 723 00d4 03EB4302 		add	r2, r3, r3, lsl #1
 724 00d8 4308     		lsrs	r3, r0, #1
 725 00da 0AF1050A 		add	r10, r10, #5
 726 00de 03EB4303 		add	r3, r3, r3, lsl #1
 727 00e2 0AEB421A 		add	r10, r10, r2, lsl #5
 728 00e6 9B01     		lsls	r3, r3, #6
 729              		.loc 1 212 0
 730 00e8 A1FB072E 		umull	r2, lr, r1, r7
 731 00ec 4FEA4A0A 		lsl	r10, r10, #1
 732 00f0 4FEA5E0E 		lsr	lr, lr, #1
 733 00f4 9BB2     		uxth	r3, r3
 734 00f6 0093     		str	r3, [sp]
 735 00f8 1FFA8AFA 		uxth	r10, r10
 736 00fc 4FEA4E0E 		lsl	lr, lr, #1
 737 0100 0027     		movs	r7, #0
 738              	.LVL77:
 739              	.L58:
 740 0102 07F1120C 		add	ip, r7, #18
 741              	.LBE108:
ARM GAS  C:\Users\sjacq\AppData\Local\Temp\ccaP5Wbh.s 			page 14


 742              	.LBE107:
 743              	.LBE106:
 744              		.loc 1 185 0
 745 0106 5546     		mov	r5, r10
 746              	.LVL78:
 747              	.L59:
 748              	.LBB111:
 749              	.LBB110:
 750              	.LBB109:
 751              		.loc 1 217 0
 752 0108 AA1C     		adds	r2, r5, #2
 753 010a 92B2     		uxth	r2, r2
 754              		.loc 1 215 0
 755 010c 05F1C003 		add	r3, r5, #192
 756 0110 705D     		ldrb	r0, [r6, r5]	@ zero_extendqisi2
 757              		.loc 1 217 0
 758 0112 B15C     		ldrb	r1, [r6, r2]	@ zero_extendqisi2
 759              		.loc 1 215 0
 760 0114 9BB2     		uxth	r3, r3
 761              		.loc 1 217 0
 762 0116 05F1C202 		add	r2, r5, #194
 763 011a 92B2     		uxth	r2, r2
 764              		.loc 1 215 0
 765 011c F35C     		ldrb	r3, [r6, r3]	@ zero_extendqisi2
 766              		.loc 1 217 0
 767 011e B25C     		ldrb	r2, [r6, r2]	@ zero_extendqisi2
 768              		.loc 1 215 0
 769 0120 00F0F800 		and	r0, r0, #248
 770 0124 0444     		add	r4, r4, r0
 771              	.LVL79:
 772              		.loc 1 217 0
 773 0126 01F0F801 		and	r1, r1, #248
 774 012a 2144     		add	r1, r1, r4
 775              		.loc 1 215 0
 776 012c 03F0F803 		and	r3, r3, #248
 777              		.loc 1 217 0
 778 0130 02F0F802 		and	r2, r2, #248
 779 0134 0B44     		add	r3, r3, r1
 780 0136 12FA83F3 		uxtah	r3, r2, r3
 781              	.LVL80:
 782              	.LBE109:
 783              		.loc 1 223 0
 784 013a 7A10     		asrs	r2, r7, #1
 785 013c 0237     		adds	r7, r7, #2
 786              	.LVL81:
 787              		.loc 1 222 0
 788 013e C3F38D03 		ubfx	r3, r3, #2, #14
 789              	.LVL82:
 790 0142 7544     		add	r5, r5, lr
 791              	.LVL83:
 792              		.loc 1 208 0
 793 0144 BC45     		cmp	ip, r7
 794 0146 ADB2     		uxth	r5, r5
 795              		.loc 1 223 0
 796 0148 08F80230 		strb	r3, [r8, r2]
 797              	.LVL84:
 798              		.loc 1 224 0
ARM GAS  C:\Users\sjacq\AppData\Local\Temp\ccaP5Wbh.s 			page 15


 799 014c 4FF00004 		mov	r4, #0
 800              		.loc 1 208 0
 801 0150 DAD1     		bne	.L59
 802              	.LVL85:
 803 0152 009B     		ldr	r3, [sp]
 804              	.LBE110:
 805              		.loc 1 207 0 discriminator 2
 806 0154 BCF5AB7F 		cmp	ip, #342
 807 0158 9A44     		add	r10, r10, r3
 808 015a 1FFA8AFA 		uxth	r10, r10
 809 015e D0D1     		bne	.L58
 810              	.LBE111:
 811              		.loc 1 229 0
 812 0160 98F80030 		ldrb	r3, [r8]	@ zero_extendqisi2
 813              	.LVL86:
 814 0164 4249     		ldr	r1, .L93+28
 815 0166 1A46     		mov	r2, r3
 816 0168 1C46     		mov	r4, r3
 817 016a 1D46     		mov	r5, r3
 818 016c 0846     		mov	r0, r1
 819 016e 8846     		mov	r8, r1
 820              	.LVL87:
 821              	.L63:
 822              	.LBB112:
 823              		.loc 1 231 0
 824 0170 32B1     		cbz	r2, .L61
 825              		.loc 1 231 0 is_stmt 0 discriminator 1
 826 0172 9442     		cmp	r4, r2
 827 0174 04D8     		bhi	.L61
 828 0176 AA42     		cmp	r2, r5
 829 0178 38BF     		it	cc
 830 017a 2A46     		movcc	r2, r5
 831 017c D5B2     		uxtb	r5, r2
 832              	.LVL88:
 833 017e 2246     		mov	r2, r4
 834              	.L61:
 835              	.LVL89:
 836              		.loc 1 230 0 is_stmt 1 discriminator 2
 837 0180 4845     		cmp	r0, r9
 838 0182 13D0     		beq	.L62
 839              		.loc 1 230 0 is_stmt 0
 840 0184 1446     		mov	r4, r2
 841 0186 10F8012F 		ldrb	r2, [r0, #1]!	@ zero_extendqisi2
 842              	.LVL90:
 843 018a F1E7     		b	.L63
 844              	.LVL91:
 845              	.L89:
 846              	.LBE112:
 847              		.loc 1 185 0 is_stmt 1
 848 018c 3649     		ldr	r1, .L93+20
 849 018e 2023     		movs	r3, #32
 850              		.loc 1 204 0
 851 0190 4022     		movs	r2, #64
 852              		.loc 1 185 0
 853 0192 8B61     		str	r3, [r1, #24]
 854              	.LVL92:
 855              		.loc 1 203 0
ARM GAS  C:\Users\sjacq\AppData\Local\Temp\ccaP5Wbh.s 			page 16


 856 0194 8B61     		str	r3, [r1, #24]
 857              		.loc 1 204 0
 858 0196 8A61     		str	r2, [r1, #24]
 859              	.LVL93:
 860              	.L57:
 861              		.loc 1 284 0 discriminator 8
 862 0198 3349     		ldr	r1, .L93+20
 863 019a 4FF48062 		mov	r2, #1024
 864 019e 8A61     		str	r2, [r1, #24]
 865              		.loc 1 285 0 discriminator 8
 866 01a0 4FF40063 		mov	r3, #2048
 867              		.loc 1 282 0 discriminator 8
 868 01a4 0022     		movs	r2, #0
 869 01a6 0192     		str	r2, [sp, #4]
 870              		.loc 1 285 0 discriminator 8
 871 01a8 8B61     		str	r3, [r1, #24]
 872 01aa 40E7     		b	.L51
 873              	.LVL94:
 874              	.L62:
 875              		.loc 1 240 0
 876 01ac AD1A     		subs	r5, r5, r2
 877              	.LVL95:
 878 01ae 05EBD575 		add	r5, r5, r5, lsr #31
 879 01b2 02EB6502 		add	r2, r2, r5, asr #1
 880              	.LVL96:
 881 01b6 94B2     		uxth	r4, r2
 882              	.LVL97:
 883              		.loc 1 243 0
 884 01b8 0025     		movs	r5, #0
 885 01ba 00E0     		b	.L65
 886              	.LVL98:
 887              	.L90:
 888 01bc 0B78     		ldrb	r3, [r1]	@ zero_extendqisi2
 889              	.LVL99:
 890              	.L65:
 891              	.LBB113:
 892              		.loc 1 245 0 discriminator 3
 893 01be A342     		cmp	r3, r4
 894 01c0 2CBF     		ite	cs
 895 01c2 0023     		movcs	r3, #0
 896 01c4 0123     		movcc	r3, #1
 897 01c6 01F8013B 		strb	r3, [r1], #1
 898              	.LVL100:
 899              		.loc 1 246 0 discriminator 3
 900 01ca 1D44     		add	r5, r5, r3
 901              	.LVL101:
 902              		.loc 1 244 0 discriminator 3
 903 01cc 8B45     		cmp	fp, r1
 904              		.loc 1 246 0 discriminator 3
 905 01ce EDB2     		uxtb	r5, r5
 906              	.LVL102:
 907              		.loc 1 244 0 discriminator 3
 908 01d0 F4D1     		bne	.L90
 909              	.LBE113:
 910              		.loc 1 258 0
 911 01d2 2748     		ldr	r0, .L93+28
 912              	.LVL103:
ARM GAS  C:\Users\sjacq\AppData\Local\Temp\ccaP5Wbh.s 			page 17


 913 01d4 FFF7FEFF 		bl	test_continuity
 914              	.LVL104:
 915 01d8 A0B9     		cbnz	r0, .L91
 916              	.LVL105:
 917              		.loc 1 274 0
 918 01da 019B     		ldr	r3, [sp, #4]
 919 01dc 224A     		ldr	r2, .L93+20
 920 01de 002B     		cmp	r3, #0
 921 01e0 0CBF     		ite	eq
 922 01e2 4FF48063 		moveq	r3, #1024
 923 01e6 4FF08063 		movne	r3, #67108864
 924              		.loc 1 275 0
 925 01ea 142D     		cmp	r5, #20
 926              		.loc 1 274 0
 927 01ec 9361     		str	r3, [r2, #24]
 928              	.LVL106:
 929              		.loc 1 275 0
 930 01ee 14BF     		ite	ne
 931 01f0 4FF40063 		movne	r3, #2048
 932 01f4 4FF00063 		moveq	r3, #134217728
 933              	.LVL107:
 934              	.L70:
 935              		.loc 1 275 0 is_stmt 0 discriminator 8
 936 01f8 1B4A     		ldr	r2, .L93+20
 937              		.loc 1 277 0 is_stmt 1 discriminator 8
 938 01fa C820     		movs	r0, #200
 939              		.loc 1 275 0 discriminator 8
 940 01fc 9361     		str	r3, [r2, #24]
 941              		.loc 1 277 0 discriminator 8
 942 01fe FFF7FEFF 		bl	chThdSleep
 943              	.LVL108:
 944 0202 14E7     		b	.L51
 945              	.LVL109:
 946              	.L91:
 947              		.loc 1 261 0
 948 0204 4FF47A73 		mov	r3, #1000
 949 0208 A820     		movs	r0, #168
 950 020a 10FB0530 		smlabb	r0, r0, r5, r3
 951 020e 03FB00F0 		mul	r0, r3, r0
 952 0212 184B     		ldr	r3, .L93+32
 953 0214 00F2E730 		addw	r0, r0, #999
 954 0218 A3FB0030 		umull	r3, r0, r3, r0
 955              		.loc 1 260 0
 956 021c 104B     		ldr	r3, .L93+12
 957              		.loc 1 261 0
 958 021e 8009     		lsrs	r0, r0, #6
 959              		.loc 1 260 0
 960 0220 0126     		movs	r6, #1
 961              	.LVL110:
 962 0222 1E70     		strb	r6, [r3]
 963              		.loc 1 261 0
 964 0224 FFF7FEFF 		bl	chThdSleep
 965              	.LVL111:
 966              		.loc 1 267 0
 967 0228 142D     		cmp	r5, #20
 968 022a 0BD0     		beq	.L92
 969              	.LVL112:
ARM GAS  C:\Users\sjacq\AppData\Local\Temp\ccaP5Wbh.s 			page 18


 970              		.loc 1 274 0
 971 022c 0E4A     		ldr	r2, .L93+20
 972              		.loc 1 259 0
 973 022e 0196     		str	r6, [sp, #4]
 974              		.loc 1 274 0
 975 0230 4FF08063 		mov	r3, #67108864
 976 0234 9361     		str	r3, [r2, #24]
 977 0236 4FF40063 		mov	r3, #2048
 978 023a DDE7     		b	.L70
 979              	.LVL113:
 980              	.L56:
 981              		.loc 1 204 0
 982 023c 0A4A     		ldr	r2, .L93+20
 983 023e 4023     		movs	r3, #64
 984              	.LVL114:
 985 0240 9361     		str	r3, [r2, #24]
 986 0242 A9E7     		b	.L57
 987              	.LVL115:
 988              	.L92:
 989              		.loc 1 274 0
 990 0244 084A     		ldr	r2, .L93+20
 991              		.loc 1 259 0
 992 0246 0196     		str	r6, [sp, #4]
 993              		.loc 1 274 0
 994 0248 4FF08063 		mov	r3, #67108864
 995 024c 9361     		str	r3, [r2, #24]
 996 024e 4FF00063 		mov	r3, #134217728
 997 0252 D1E7     		b	.L70
 998              	.L94:
 999              		.align	2
 1000              	.L93:
 1001 0254 00000000 		.word	ch
 1002 0258 00000000 		.word	__stack_chk_guard
 1003 025c 00000000 		.word	.LANCHOR3
 1004 0260 00000000 		.word	.LANCHOR4
 1005 0264 00000000 		.word	.LANCHOR1
 1006 0268 000C0240 		.word	1073875968
 1007 026c 398EE338 		.word	954437177
 1008 0270 00000000 		.word	.LANCHOR5
 1009 0274 D34D6210 		.word	274877907
 1010              		.cfi_endproc
 1011              	.LFE260:
 1012              		.size	ProcessImage, .-ProcessImage
 1013              		.section	.text.get_points_location,"ax",%progbits
 1014              		.align	1
 1015              		.p2align 4,,15
 1016              		.global	get_points_location
 1017              		.syntax unified
 1018              		.thumb
 1019              		.thumb_func
 1020              		.fpu fpv4-sp-d16
 1021              		.type	get_points_location, %function
 1022              	get_points_location:
 1023              	.LFB261:
 1024              		.loc 1 292 0
 1025              		.cfi_startproc
 1026              		@ args = 0, pretend = 0, frame = 8
ARM GAS  C:\Users\sjacq\AppData\Local\Temp\ccaP5Wbh.s 			page 19


 1027              		@ frame_needed = 0, uses_anonymous_args = 0
 1028 0000 00B5     		push	{lr}
 1029              		.cfi_def_cfa_offset 4
 1030              		.cfi_offset 14, -4
 1031 0002 074B     		ldr	r3, .L99
 1032 0004 83B0     		sub	sp, sp, #12
 1033              		.cfi_def_cfa_offset 16
 1034              		.loc 1 292 0
 1035 0006 1A68     		ldr	r2, [r3]
 1036 0008 0192     		str	r2, [sp, #4]
 1037              		.loc 1 294 0
 1038 000a 019A     		ldr	r2, [sp, #4]
 1039 000c 1B68     		ldr	r3, [r3]
 1040 000e 9A42     		cmp	r2, r3
 1041 0010 03D1     		bne	.L98
 1042 0012 0448     		ldr	r0, .L99+4
 1043 0014 03B0     		add	sp, sp, #12
 1044              		.cfi_remember_state
 1045              		.cfi_def_cfa_offset 4
 1046              		@ sp needed
 1047 0016 5DF804FB 		ldr	pc, [sp], #4
 1048              	.L98:
 1049              		.cfi_restore_state
 1050 001a FFF7FEFF 		bl	__stack_chk_fail
 1051              	.LVL116:
 1052              	.L100:
 1053 001e 00BF     		.align	2
 1054              	.L99:
 1055 0020 00000000 		.word	__stack_chk_guard
 1056 0024 00000000 		.word	.LANCHOR5
 1057              		.cfi_endproc
 1058              	.LFE261:
 1059              		.size	get_points_location, .-get_points_location
 1060              		.section	.text.get_draw_start,"ax",%progbits
 1061              		.align	1
 1062              		.p2align 4,,15
 1063              		.global	get_draw_start
 1064              		.syntax unified
 1065              		.thumb
 1066              		.thumb_func
 1067              		.fpu fpv4-sp-d16
 1068              		.type	get_draw_start, %function
 1069              	get_draw_start:
 1070              	.LFB262:
 1071              		.loc 1 296 0
 1072              		.cfi_startproc
 1073              		@ args = 0, pretend = 0, frame = 8
 1074              		@ frame_needed = 0, uses_anonymous_args = 0
 1075 0000 00B5     		push	{lr}
 1076              		.cfi_def_cfa_offset 4
 1077              		.cfi_offset 14, -4
 1078 0002 074B     		ldr	r3, .L105
 1079              		.loc 1 297 0
 1080 0004 0749     		ldr	r1, .L105+4
 1081              		.loc 1 296 0
 1082 0006 1A68     		ldr	r2, [r3]
 1083              		.loc 1 298 0
ARM GAS  C:\Users\sjacq\AppData\Local\Temp\ccaP5Wbh.s 			page 20


 1084 0008 0878     		ldrb	r0, [r1]	@ zero_extendqisi2
 1085              		.loc 1 296 0
 1086 000a 83B0     		sub	sp, sp, #12
 1087              		.cfi_def_cfa_offset 16
 1088              		.loc 1 296 0
 1089 000c 0192     		str	r2, [sp, #4]
 1090              		.loc 1 298 0
 1091 000e 019A     		ldr	r2, [sp, #4]
 1092 0010 1B68     		ldr	r3, [r3]
 1093 0012 9A42     		cmp	r2, r3
 1094 0014 02D1     		bne	.L104
 1095 0016 03B0     		add	sp, sp, #12
 1096              		.cfi_remember_state
 1097              		.cfi_def_cfa_offset 4
 1098              		@ sp needed
 1099 0018 5DF804FB 		ldr	pc, [sp], #4
 1100              	.L104:
 1101              		.cfi_restore_state
 1102 001c FFF7FEFF 		bl	__stack_chk_fail
 1103              	.LVL117:
 1104              	.L106:
 1105              		.align	2
 1106              	.L105:
 1107 0020 00000000 		.word	__stack_chk_guard
 1108 0024 00000000 		.word	.LANCHOR4
 1109              		.cfi_endproc
 1110              	.LFE262:
 1111              		.size	get_draw_start, .-get_draw_start
 1112              		.section	.text.process_image_start,"ax",%progbits
 1113              		.align	1
 1114              		.p2align 4,,15
 1115              		.global	process_image_start
 1116              		.syntax unified
 1117              		.thumb
 1118              		.thumb_func
 1119              		.fpu fpv4-sp-d16
 1120              		.type	process_image_start, %function
 1121              	process_image_start:
 1122              	.LFB263:
 1123              		.loc 1 300 0
 1124              		.cfi_startproc
 1125              		@ args = 0, pretend = 0, frame = 8
 1126              		@ frame_needed = 0, uses_anonymous_args = 0
 1127 0000 30B5     		push	{r4, r5, lr}
 1128              		.cfi_def_cfa_offset 12
 1129              		.cfi_offset 4, -12
 1130              		.cfi_offset 5, -8
 1131              		.cfi_offset 14, -4
 1132 0002 0E4C     		ldr	r4, .L111
 1133              		.loc 1 301 0
 1134 0004 0E4B     		ldr	r3, .L111+4
 1135              		.loc 1 300 0
 1136 0006 2268     		ldr	r2, [r4]
 1137              		.loc 1 301 0
 1138 0008 0E48     		ldr	r0, .L111+8
 1139              		.loc 1 300 0
 1140 000a 85B0     		sub	sp, sp, #20
ARM GAS  C:\Users\sjacq\AppData\Local\Temp\ccaP5Wbh.s 			page 21


 1141              		.cfi_def_cfa_offset 32
 1142              		.loc 1 301 0
 1143 000c 0025     		movs	r5, #0
 1144              		.loc 1 300 0
 1145 000e 0392     		str	r2, [sp, #12]
 1146              		.loc 1 301 0
 1147 0010 4FF4AF61 		mov	r1, #1400
 1148 0014 4022     		movs	r2, #64
 1149 0016 0095     		str	r5, [sp]
 1150 0018 FFF7FEFF 		bl	chThdCreateStatic
 1151              	.LVL118:
 1152              		.loc 1 302 0
 1153 001c 0A4B     		ldr	r3, .L111+12
 1154 001e 0095     		str	r5, [sp]
 1155 0020 4022     		movs	r2, #64
 1156 0022 0A48     		ldr	r0, .L111+16
 1157 0024 4FF41E71 		mov	r1, #632
 1158 0028 FFF7FEFF 		bl	chThdCreateStatic
 1159              	.LVL119:
 1160              		.loc 1 303 0
 1161 002c 039A     		ldr	r2, [sp, #12]
 1162 002e 2368     		ldr	r3, [r4]
 1163 0030 9A42     		cmp	r2, r3
 1164 0032 01D1     		bne	.L110
 1165 0034 05B0     		add	sp, sp, #20
 1166              		.cfi_remember_state
 1167              		.cfi_def_cfa_offset 12
 1168              		@ sp needed
 1169 0036 30BD     		pop	{r4, r5, pc}
 1170              	.L110:
 1171              		.cfi_restore_state
 1172 0038 FFF7FEFF 		bl	__stack_chk_fail
 1173              	.LVL120:
 1174              	.L112:
 1175              		.align	2
 1176              	.L111:
 1177 003c 00000000 		.word	__stack_chk_guard
 1178 0040 00000000 		.word	ProcessImage
 1179 0044 00000000 		.word	.LANCHOR6
 1180 0048 00000000 		.word	CaptureImage
 1181 004c 00000000 		.word	.LANCHOR7
 1182              		.cfi_endproc
 1183              	.LFE263:
 1184              		.size	process_image_start, .-process_image_start
 1185              		.section	.bss.draw_start,"aw",%nobits
 1186              		.set	.LANCHOR4,. + 0
 1187              		.type	draw_start, %object
 1188              		.size	draw_start, 1
 1189              	draw_start:
 1190 0000 00       		.space	1
 1191              		.section	.bss.points,"aw",%nobits
 1192              		.align	2
 1193              		.set	.LANCHOR5,. + 0
 1194              		.type	points, %object
 1195              		.size	points, 81
 1196              	points:
 1197 0000 00000000 		.space	81
ARM GAS  C:\Users\sjacq\AppData\Local\Temp\ccaP5Wbh.s 			page 22


 1197      00000000 
 1197      00000000 
 1197      00000000 
 1197      00000000 
 1198              		.section	.bss.waCaptureImage,"aw",%nobits
 1199              		.align	3
 1200              		.set	.LANCHOR7,. + 0
 1201              		.type	waCaptureImage, %object
 1202              		.size	waCaptureImage, 632
 1203              	waCaptureImage:
 1204 0000 00000000 		.space	632
 1204      00000000 
 1204      00000000 
 1204      00000000 
 1204      00000000 
 1205              		.section	.bss.waProcessImage,"aw",%nobits
 1206              		.align	3
 1207              		.set	.LANCHOR6,. + 0
 1208              		.type	waProcessImage, %object
 1209              		.size	waProcessImage, 1400
 1210              	waProcessImage:
 1211 0000 00000000 		.space	1400
 1211      00000000 
 1211      00000000 
 1211      00000000 
 1211      00000000 
 1212              		.section	.data.image_ready_sem,"aw",%progbits
 1213              		.align	2
 1214              		.set	.LANCHOR1,. + 0
 1215              		.type	image_ready_sem, %object
 1216              		.size	image_ready_sem, 12
 1217              	image_ready_sem:
 1218 0000 00000000 		.word	image_ready_sem
 1219 0004 00000000 		.word	image_ready_sem
 1220 0008 00000000 		.word	0
 1221              		.section	.rodata.__FUNCTION__.11503,"a",%progbits
 1222              		.align	2
 1223              		.set	.LANCHOR0,. + 0
 1224              		.type	__FUNCTION__.11503, %object
 1225              		.size	__FUNCTION__.11503, 13
 1226              	__FUNCTION__.11503:
 1227 0000 43617074 		.ascii	"CaptureImage\000"
 1227      75726549 
 1227      6D616765 
 1227      00
 1228              		.section	.rodata.__FUNCTION__.11509,"a",%progbits
 1229              		.align	2
 1230              		.set	.LANCHOR3,. + 0
 1231              		.type	__FUNCTION__.11509, %object
 1232              		.size	__FUNCTION__.11509, 13
 1233              	__FUNCTION__.11509:
 1234 0000 50726F63 		.ascii	"ProcessImage\000"
 1234      65737349 
 1234      6D616765 
 1234      00
 1235              		.section	.rodata.__func__.7153,"a",%progbits
 1236              		.align	2
ARM GAS  C:\Users\sjacq\AppData\Local\Temp\ccaP5Wbh.s 			page 23


 1237              		.set	.LANCHOR2,. + 0
 1238              		.type	__func__.7153, %object
 1239              		.size	__func__.7153, 12
 1240              	__func__.7153:
 1241 0000 63685379 		.ascii	"chSysUnlock\000"
 1241      73556E6C 
 1241      6F636B00 
 1242              		.text
 1243              	.Letext0:
 1244              		.file 6 "c:\\users\\sjacq\\desktop\\eclipse_e-puck2_win32_29_jan_2020\\eclipse_e-puck2\\tools\\gcc
 1245              		.file 7 "c:\\users\\sjacq\\desktop\\eclipse_e-puck2_win32_29_jan_2020\\eclipse_e-puck2\\tools\\gcc
 1246              		.file 8 "c:\\users\\sjacq\\desktop\\eclipse_e-puck2_win32_29_jan_2020\\eclipse_e-puck2\\tools\\gcc
 1247              		.file 9 "../../lib/e-puck2_main-processor/ChibiOS//os/rt/ports/ARMCMx/compilers/GCC/chtypes.h"
 1248              		.file 10 "../../lib/e-puck2_main-processor/ChibiOS//os/rt/include/chsystypes.h"
 1249              		.file 11 "../../lib/e-puck2_main-processor/ChibiOS//os/rt/include/chschd.h"
 1250              		.file 12 "../../lib/e-puck2_main-processor/ChibiOS//os/ext/CMSIS/include/core_cm4.h"
 1251              		.file 13 "../../lib/e-puck2_main-processor/ChibiOS//os/ext/CMSIS/ST/system_stm32f4xx.h"
 1252              		.file 14 "../../lib/e-puck2_main-processor/ChibiOS//os/ext/CMSIS/ST/stm32f407xx.h"
 1253              		.file 15 "../../lib/e-puck2_main-processor/ChibiOS//os/rt/ports/ARMCMx/chcore.h"
 1254              		.file 16 "../../lib/e-puck2_main-processor/ChibiOS//os/rt/ports/ARMCMx/chcore_v7m.h"
 1255              		.file 17 "../../lib/e-puck2_main-processor/ChibiOS//os/rt/include/chdebug.h"
 1256              		.file 18 "../../lib/e-puck2_main-processor/ChibiOS//os/rt/include/chtm.h"
 1257              		.file 19 "../../lib/e-puck2_main-processor/ChibiOS//os/rt/include/chstats.h"
 1258              		.file 20 "../../lib/e-puck2_main-processor/ChibiOS//os/rt/include/chsem.h"
 1259              		.file 21 "../../lib/e-puck2_main-processor/ChibiOS//os/rt/include/chmtx.h"
 1260              		.file 22 "../../lib/e-puck2_main-processor/ChibiOS//os/rt/include/chevents.h"
 1261              		.file 23 "../../lib/e-puck2_main-processor/ChibiOS//os/rt/include/chqueues.h"
 1262              		.file 24 "../../lib/e-puck2_main-processor/ChibiOS//os/hal/ports/STM32/STM32F4xx/stm32_dma.h"
 1263              		.file 25 "../../lib/e-puck2_main-processor/ChibiOS//os/hal/include/hal_ioblock.h"
 1264              		.file 26 "../../lib/e-puck2_main-processor/ChibiOS//os/hal/ports/STM32/LLD/GPIOv2/pal_lld.h"
 1265              		.file 27 "../../lib/e-puck2_main-processor/ChibiOS//os/hal/include/adc.h"
 1266              		.file 28 "../../lib/e-puck2_main-processor/ChibiOS//os/hal/ports/STM32/STM32F4xx/adc_lld.h"
 1267              		.file 29 "../../lib/e-puck2_main-processor/ChibiOS//os/hal/include/can.h"
 1268              		.file 30 "../../lib/e-puck2_main-processor/ChibiOS//os/hal/ports/STM32/LLD/can_lld.h"
 1269              		.file 31 "../../lib/e-puck2_main-processor/ChibiOS//os/hal/include/dac.h"
 1270              		.file 32 "../../lib/e-puck2_main-processor/ChibiOS//os/hal/ports/STM32/LLD/DACv1/dac_lld.h"
 1271              		.file 33 "../../lib/e-puck2_main-processor/ChibiOS//os/hal/include/ext.h"
 1272              		.file 34 "../../lib/e-puck2_main-processor/ChibiOS//os/hal/ports/STM32/LLD/ext_lld.h"
 1273              		.file 35 "../../lib/e-puck2_main-processor/ChibiOS//os/hal/include/gpt.h"
 1274              		.file 36 "../../lib/e-puck2_main-processor/ChibiOS//os/hal/ports/STM32/LLD/TIMv1/gpt_lld.h"
 1275              		.file 37 "../../lib/e-puck2_main-processor/ChibiOS//os/hal/ports/STM32/LLD/TIMv1/stm32_tim.h"
 1276              		.file 38 "../../lib/e-puck2_main-processor/ChibiOS//os/hal/include/i2c.h"
 1277              		.file 39 "../../lib/e-puck2_main-processor/ChibiOS//os/hal/ports/STM32/LLD/I2Cv1/i2c_lld.h"
 1278              		.file 40 "../../lib/e-puck2_main-processor/ChibiOS//os/hal/include/i2s.h"
 1279              		.file 41 "../../lib/e-puck2_main-processor/ChibiOS//os/hal/ports/STM32/LLD/SPIv1/i2s_lld.h"
 1280              		.file 42 "../../lib/e-puck2_main-processor/ChibiOS//os/hal/include/pwm.h"
 1281              		.file 43 "../../lib/e-puck2_main-processor/ChibiOS//os/hal/ports/STM32/LLD/TIMv1/pwm_lld.h"
 1282              		.file 44 "../../lib/e-puck2_main-processor/ChibiOS//os/hal/include/serial.h"
 1283              		.file 45 "../../lib/e-puck2_main-processor/ChibiOS//os/hal/ports/STM32/LLD/USARTv1/serial_lld.h"
 1284              		.file 46 "../../lib/e-puck2_main-processor/ChibiOS//os/hal/include/sdc.h"
 1285              		.file 47 "../../lib/e-puck2_main-processor/ChibiOS//os/hal/ports/STM32/LLD/sdc_lld.h"
 1286              		.file 48 "../../lib/e-puck2_main-processor/ChibiOS//os/hal/include/spi.h"
 1287              		.file 49 "../../lib/e-puck2_main-processor/ChibiOS//os/hal/ports/STM32/LLD/SPIv1/spi_lld.h"
 1288              		.file 50 "../../lib/e-puck2_main-processor/ChibiOS//os/hal/include/usb.h"
 1289              		.file 51 "../../lib/e-puck2_main-processor/ChibiOS//os/hal/ports/STM32/LLD/OTGv1/usb_lld.h"
 1290              		.file 52 "../../lib/e-puck2_main-processor/ChibiOS//os/hal/ports/STM32/LLD/OTGv1/stm32_otg.h"
 1291              		.file 53 "../../lib/e-puck2_main-processor/ChibiOS//os/hal/include/serial_usb.h"
ARM GAS  C:\Users\sjacq\AppData\Local\Temp\ccaP5Wbh.s 			page 24


 1292              		.file 54 "../../lib/e-puck2_main-processor/src/usbcfg.h"
 1293              		.file 55 "../../lib/e-puck2_main-processor/ChibiOS_ext/os/hal/include/../ports/STM32/STM32F4xx/dcm
 1294              		.file 56 "../../lib/e-puck2_main-processor/src/camera/po8030.h"
 1295              		.file 57 "../../lib/e-puck2_main-processor/src/camera/dcmi_camera.h"
 1296              		.file 58 "c:\\users\\sjacq\\desktop\\eclipse_e-puck2_win32_29_jan_2020\\eclipse_e-puck2\\tools\\gc
 1297              		.file 59 "c:\\users\\sjacq\\desktop\\eclipse_e-puck2_win32_29_jan_2020\\eclipse_e-puck2\\tools\\gc
 1298              		.file 60 "c:\\users\\sjacq\\desktop\\eclipse_e-puck2_win32_29_jan_2020\\eclipse_e-puck2\\tools\\gc
 1299              		.file 61 "../../lib/e-puck2_main-processor/src/msgbus/messagebus.h"
 1300              		.file 62 "c:\\users\\sjacq\\desktop\\eclipse_e-puck2_win32_29_jan_2020\\eclipse_e-puck2\\tools\\gc
 1301              		.file 63 "c:\\users\\sjacq\\desktop\\eclipse_e-puck2_win32_29_jan_2020\\eclipse_e-puck2\\tools\\gc
 1302              		.file 64 "../../lib/e-puck2_main-processor/src/parameter/parameter.h"
 1303              		.file 65 "./process_image.h"
 1304              		.file 66 "./main.h"
 1305              		.file 67 "../../lib/e-puck2_main-processor/ChibiOS//os/rt/include/chthreads.h"
 1306              		.file 68 "<built-in>"