
build/PlotterMultiAxis.elf:     file format elf32-littlearm


Disassembly of section .text:

080001c0 <Reset_Handler>:
 80001c0:	b672      	cpsid	i
 80001c2:	482e      	ldr	r0, [pc, #184]	; (800027c <endfiniloop+0x4>)
 80001c4:	f380 8809 	msr	PSP, r0
 80001c8:	f240 0000 	movw	r0, #0
 80001cc:	f2cc 0000 	movt	r0, #49152	; 0xc000
 80001d0:	f64e 7134 	movw	r1, #61236	; 0xef34
 80001d4:	f2ce 0100 	movt	r1, #57344	; 0xe000
 80001d8:	6008      	str	r0, [r1, #0]
 80001da:	f240 0000 	movw	r0, #0
 80001de:	f2c0 00f0 	movt	r0, #240	; 0xf0
 80001e2:	f64e 5188 	movw	r1, #60808	; 0xed88
 80001e6:	f2ce 0100 	movt	r1, #57344	; 0xe000
 80001ea:	6008      	str	r0, [r1, #0]
 80001ec:	f04f 0000 	mov.w	r0, #0
 80001f0:	eee1 0a10 	vmsr	fpscr, r0
 80001f4:	f64e 713c 	movw	r1, #61244	; 0xef3c
 80001f8:	f2ce 0100 	movt	r1, #57344	; 0xe000
 80001fc:	6008      	str	r0, [r1, #0]
 80001fe:	2006      	movs	r0, #6
 8000200:	f380 8814 	msr	CONTROL, r0
 8000204:	f3bf 8f6f 	isb	sy
 8000208:	f00a fc42 	bl	800aa90 <__early_init>
 800020c:	f04f 3055 	mov.w	r0, #1431655765	; 0x55555555
 8000210:	491b      	ldr	r1, [pc, #108]	; (8000280 <endfiniloop+0x8>)
 8000212:	4a1c      	ldr	r2, [pc, #112]	; (8000284 <endfiniloop+0xc>)

08000214 <msloop>:
 8000214:	4291      	cmp	r1, r2
 8000216:	bf3c      	itt	cc
 8000218:	f841 0b04 	strcc.w	r0, [r1], #4
 800021c:	e7fa      	bcc.n	8000214 <msloop>
 800021e:	491a      	ldr	r1, [pc, #104]	; (8000288 <endfiniloop+0x10>)
 8000220:	4a16      	ldr	r2, [pc, #88]	; (800027c <endfiniloop+0x4>)

08000222 <psloop>:
 8000222:	4291      	cmp	r1, r2
 8000224:	bf3c      	itt	cc
 8000226:	f841 0b04 	strcc.w	r0, [r1], #4
 800022a:	e7fa      	bcc.n	8000222 <psloop>
 800022c:	4917      	ldr	r1, [pc, #92]	; (800028c <endfiniloop+0x14>)
 800022e:	4a18      	ldr	r2, [pc, #96]	; (8000290 <endfiniloop+0x18>)
 8000230:	4b18      	ldr	r3, [pc, #96]	; (8000294 <endfiniloop+0x1c>)

08000232 <dloop>:
 8000232:	429a      	cmp	r2, r3
 8000234:	bf3e      	ittt	cc
 8000236:	f851 0b04 	ldrcc.w	r0, [r1], #4
 800023a:	f842 0b04 	strcc.w	r0, [r2], #4
 800023e:	e7f8      	bcc.n	8000232 <dloop>
 8000240:	2000      	movs	r0, #0
 8000242:	4915      	ldr	r1, [pc, #84]	; (8000298 <endfiniloop+0x20>)
 8000244:	4a15      	ldr	r2, [pc, #84]	; (800029c <endfiniloop+0x24>)

08000246 <bloop>:
 8000246:	4291      	cmp	r1, r2
 8000248:	bf3c      	itt	cc
 800024a:	f841 0b04 	strcc.w	r0, [r1], #4
 800024e:	e7fa      	bcc.n	8000246 <bloop>
 8000250:	f002 f956 	bl	8002500 <__late_init>
 8000254:	4c12      	ldr	r4, [pc, #72]	; (80002a0 <endfiniloop+0x28>)
 8000256:	4d13      	ldr	r5, [pc, #76]	; (80002a4 <endfiniloop+0x2c>)

08000258 <initloop>:
 8000258:	42ac      	cmp	r4, r5
 800025a:	da03      	bge.n	8000264 <endinitloop>
 800025c:	f854 1b04 	ldr.w	r1, [r4], #4
 8000260:	4788      	blx	r1
 8000262:	e7f9      	b.n	8000258 <initloop>

08000264 <endinitloop>:
 8000264:	f000 ffd4 	bl	8001210 <main>
 8000268:	4c0f      	ldr	r4, [pc, #60]	; (80002a8 <endfiniloop+0x30>)
 800026a:	4d10      	ldr	r5, [pc, #64]	; (80002ac <endfiniloop+0x34>)

0800026c <finiloop>:
 800026c:	42ac      	cmp	r4, r5
 800026e:	da03      	bge.n	8000278 <endfiniloop>
 8000270:	f854 1b04 	ldr.w	r1, [r4], #4
 8000274:	4788      	blx	r1
 8000276:	e7f9      	b.n	800026c <finiloop>

08000278 <endfiniloop>:
 8000278:	f002 b952 	b.w	8002520 <__default_exit>
 800027c:	20000800 	.word	0x20000800
 8000280:	20000000 	.word	0x20000000
 8000284:	20000400 	.word	0x20000400
 8000288:	20000400 	.word	0x20000400
 800028c:	0800f468 	.word	0x0800f468
 8000290:	20000800 	.word	0x20000800
 8000294:	200011d4 	.word	0x200011d4
 8000298:	200011d8 	.word	0x200011d8
 800029c:	20002410 	.word	0x20002410
 80002a0:	080001c0 	.word	0x080001c0
 80002a4:	080001c0 	.word	0x080001c0
 80002a8:	080001c0 	.word	0x080001c0
 80002ac:	080001c0 	.word	0x080001c0

080002b0 <_port_switch>:
 80002b0:	e92d 4ff0 	stmdb	sp!, {r4, r5, r6, r7, r8, r9, sl, fp, lr}
 80002b4:	ed2d 8a10 	vpush	{s16-s31}
 80002b8:	f8c1 d00c 	str.w	sp, [r1, #12]
 80002bc:	f8d0 d00c 	ldr.w	sp, [r0, #12]
 80002c0:	ecbd 8a10 	vpop	{s16-s31}
 80002c4:	e8bd 8ff0 	ldmia.w	sp!, {r4, r5, r6, r7, r8, r9, sl, fp, pc}

080002c8 <_port_thread_start>:
 80002c8:	f002 fa72 	bl	80027b0 <_dbg_check_unlock>
 80002cc:	f003 fa60 	bl	8003790 <_stats_stop_measure_crit_thd>
 80002d0:	2300      	movs	r3, #0
 80002d2:	f383 8811 	msr	BASEPRI, r3
 80002d6:	4628      	mov	r0, r5
 80002d8:	47a0      	blx	r4
 80002da:	2000      	movs	r0, #0
 80002dc:	f002 fff8 	bl	80032d0 <chThdExit>

080002e0 <_port_switch_from_isr>:
 80002e0:	f003 fa3e 	bl	8003760 <_stats_start_measure_crit_thd>
 80002e4:	f002 fa44 	bl	8002770 <_dbg_check_lock>
 80002e8:	f002 fe62 	bl	8002fb0 <chSchDoReschedule>
 80002ec:	f002 fa60 	bl	80027b0 <_dbg_check_unlock>
 80002f0:	f003 fa4e 	bl	8003790 <_stats_stop_measure_crit_thd>

080002f4 <_port_exit_from_isr>:
 80002f4:	df00      	svc	0
 80002f6:	e7fe      	b.n	80002f6 <_port_exit_from_isr+0x2>
	...

08000300 <__aeabi_drsub>:
 8000300:	f081 4100 	eor.w	r1, r1, #2147483648	; 0x80000000
 8000304:	e002      	b.n	800030c <__adddf3>
 8000306:	bf00      	nop

08000308 <__aeabi_dsub>:
 8000308:	f083 4300 	eor.w	r3, r3, #2147483648	; 0x80000000

0800030c <__adddf3>:
 800030c:	b530      	push	{r4, r5, lr}
 800030e:	ea4f 0441 	mov.w	r4, r1, lsl #1
 8000312:	ea4f 0543 	mov.w	r5, r3, lsl #1
 8000316:	ea94 0f05 	teq	r4, r5
 800031a:	bf08      	it	eq
 800031c:	ea90 0f02 	teqeq	r0, r2
 8000320:	bf1f      	itttt	ne
 8000322:	ea54 0c00 	orrsne.w	ip, r4, r0
 8000326:	ea55 0c02 	orrsne.w	ip, r5, r2
 800032a:	ea7f 5c64 	mvnsne.w	ip, r4, asr #21
 800032e:	ea7f 5c65 	mvnsne.w	ip, r5, asr #21
 8000332:	f000 80e2 	beq.w	80004fa <__adddf3+0x1ee>
 8000336:	ea4f 5454 	mov.w	r4, r4, lsr #21
 800033a:	ebd4 5555 	rsbs	r5, r4, r5, lsr #21
 800033e:	bfb8      	it	lt
 8000340:	426d      	neglt	r5, r5
 8000342:	dd0c      	ble.n	800035e <__adddf3+0x52>
 8000344:	442c      	add	r4, r5
 8000346:	ea80 0202 	eor.w	r2, r0, r2
 800034a:	ea81 0303 	eor.w	r3, r1, r3
 800034e:	ea82 0000 	eor.w	r0, r2, r0
 8000352:	ea83 0101 	eor.w	r1, r3, r1
 8000356:	ea80 0202 	eor.w	r2, r0, r2
 800035a:	ea81 0303 	eor.w	r3, r1, r3
 800035e:	2d36      	cmp	r5, #54	; 0x36
 8000360:	bf88      	it	hi
 8000362:	bd30      	pophi	{r4, r5, pc}
 8000364:	f011 4f00 	tst.w	r1, #2147483648	; 0x80000000
 8000368:	ea4f 3101 	mov.w	r1, r1, lsl #12
 800036c:	f44f 1c80 	mov.w	ip, #1048576	; 0x100000
 8000370:	ea4c 3111 	orr.w	r1, ip, r1, lsr #12
 8000374:	d002      	beq.n	800037c <__adddf3+0x70>
 8000376:	4240      	negs	r0, r0
 8000378:	eb61 0141 	sbc.w	r1, r1, r1, lsl #1
 800037c:	f013 4f00 	tst.w	r3, #2147483648	; 0x80000000
 8000380:	ea4f 3303 	mov.w	r3, r3, lsl #12
 8000384:	ea4c 3313 	orr.w	r3, ip, r3, lsr #12
 8000388:	d002      	beq.n	8000390 <__adddf3+0x84>
 800038a:	4252      	negs	r2, r2
 800038c:	eb63 0343 	sbc.w	r3, r3, r3, lsl #1
 8000390:	ea94 0f05 	teq	r4, r5
 8000394:	f000 80a7 	beq.w	80004e6 <__adddf3+0x1da>
 8000398:	f1a4 0401 	sub.w	r4, r4, #1
 800039c:	f1d5 0e20 	rsbs	lr, r5, #32
 80003a0:	db0d      	blt.n	80003be <__adddf3+0xb2>
 80003a2:	fa02 fc0e 	lsl.w	ip, r2, lr
 80003a6:	fa22 f205 	lsr.w	r2, r2, r5
 80003aa:	1880      	adds	r0, r0, r2
 80003ac:	f141 0100 	adc.w	r1, r1, #0
 80003b0:	fa03 f20e 	lsl.w	r2, r3, lr
 80003b4:	1880      	adds	r0, r0, r2
 80003b6:	fa43 f305 	asr.w	r3, r3, r5
 80003ba:	4159      	adcs	r1, r3
 80003bc:	e00e      	b.n	80003dc <__adddf3+0xd0>
 80003be:	f1a5 0520 	sub.w	r5, r5, #32
 80003c2:	f10e 0e20 	add.w	lr, lr, #32
 80003c6:	2a01      	cmp	r2, #1
 80003c8:	fa03 fc0e 	lsl.w	ip, r3, lr
 80003cc:	bf28      	it	cs
 80003ce:	f04c 0c02 	orrcs.w	ip, ip, #2
 80003d2:	fa43 f305 	asr.w	r3, r3, r5
 80003d6:	18c0      	adds	r0, r0, r3
 80003d8:	eb51 71e3 	adcs.w	r1, r1, r3, asr #31
 80003dc:	f001 4500 	and.w	r5, r1, #2147483648	; 0x80000000
 80003e0:	d507      	bpl.n	80003f2 <__adddf3+0xe6>
 80003e2:	f04f 0e00 	mov.w	lr, #0
 80003e6:	f1dc 0c00 	rsbs	ip, ip, #0
 80003ea:	eb7e 0000 	sbcs.w	r0, lr, r0
 80003ee:	eb6e 0101 	sbc.w	r1, lr, r1
 80003f2:	f5b1 1f80 	cmp.w	r1, #1048576	; 0x100000
 80003f6:	d31b      	bcc.n	8000430 <__adddf3+0x124>
 80003f8:	f5b1 1f00 	cmp.w	r1, #2097152	; 0x200000
 80003fc:	d30c      	bcc.n	8000418 <__adddf3+0x10c>
 80003fe:	0849      	lsrs	r1, r1, #1
 8000400:	ea5f 0030 	movs.w	r0, r0, rrx
 8000404:	ea4f 0c3c 	mov.w	ip, ip, rrx
 8000408:	f104 0401 	add.w	r4, r4, #1
 800040c:	ea4f 5244 	mov.w	r2, r4, lsl #21
 8000410:	f512 0f80 	cmn.w	r2, #4194304	; 0x400000
 8000414:	f080 809a 	bcs.w	800054c <__adddf3+0x240>
 8000418:	f1bc 4f00 	cmp.w	ip, #2147483648	; 0x80000000
 800041c:	bf08      	it	eq
 800041e:	ea5f 0c50 	movseq.w	ip, r0, lsr #1
 8000422:	f150 0000 	adcs.w	r0, r0, #0
 8000426:	eb41 5104 	adc.w	r1, r1, r4, lsl #20
 800042a:	ea41 0105 	orr.w	r1, r1, r5
 800042e:	bd30      	pop	{r4, r5, pc}
 8000430:	ea5f 0c4c 	movs.w	ip, ip, lsl #1
 8000434:	4140      	adcs	r0, r0
 8000436:	eb41 0101 	adc.w	r1, r1, r1
 800043a:	f411 1f80 	tst.w	r1, #1048576	; 0x100000
 800043e:	f1a4 0401 	sub.w	r4, r4, #1
 8000442:	d1e9      	bne.n	8000418 <__adddf3+0x10c>
 8000444:	f091 0f00 	teq	r1, #0
 8000448:	bf04      	itt	eq
 800044a:	4601      	moveq	r1, r0
 800044c:	2000      	moveq	r0, #0
 800044e:	fab1 f381 	clz	r3, r1
 8000452:	bf08      	it	eq
 8000454:	3320      	addeq	r3, #32
 8000456:	f1a3 030b 	sub.w	r3, r3, #11
 800045a:	f1b3 0220 	subs.w	r2, r3, #32
 800045e:	da0c      	bge.n	800047a <__adddf3+0x16e>
 8000460:	320c      	adds	r2, #12
 8000462:	dd08      	ble.n	8000476 <__adddf3+0x16a>
 8000464:	f102 0c14 	add.w	ip, r2, #20
 8000468:	f1c2 020c 	rsb	r2, r2, #12
 800046c:	fa01 f00c 	lsl.w	r0, r1, ip
 8000470:	fa21 f102 	lsr.w	r1, r1, r2
 8000474:	e00c      	b.n	8000490 <__adddf3+0x184>
 8000476:	f102 0214 	add.w	r2, r2, #20
 800047a:	bfd8      	it	le
 800047c:	f1c2 0c20 	rsble	ip, r2, #32
 8000480:	fa01 f102 	lsl.w	r1, r1, r2
 8000484:	fa20 fc0c 	lsr.w	ip, r0, ip
 8000488:	bfdc      	itt	le
 800048a:	ea41 010c 	orrle.w	r1, r1, ip
 800048e:	4090      	lslle	r0, r2
 8000490:	1ae4      	subs	r4, r4, r3
 8000492:	bfa2      	ittt	ge
 8000494:	eb01 5104 	addge.w	r1, r1, r4, lsl #20
 8000498:	4329      	orrge	r1, r5
 800049a:	bd30      	popge	{r4, r5, pc}
 800049c:	ea6f 0404 	mvn.w	r4, r4
 80004a0:	3c1f      	subs	r4, #31
 80004a2:	da1c      	bge.n	80004de <__adddf3+0x1d2>
 80004a4:	340c      	adds	r4, #12
 80004a6:	dc0e      	bgt.n	80004c6 <__adddf3+0x1ba>
 80004a8:	f104 0414 	add.w	r4, r4, #20
 80004ac:	f1c4 0220 	rsb	r2, r4, #32
 80004b0:	fa20 f004 	lsr.w	r0, r0, r4
 80004b4:	fa01 f302 	lsl.w	r3, r1, r2
 80004b8:	ea40 0003 	orr.w	r0, r0, r3
 80004bc:	fa21 f304 	lsr.w	r3, r1, r4
 80004c0:	ea45 0103 	orr.w	r1, r5, r3
 80004c4:	bd30      	pop	{r4, r5, pc}
 80004c6:	f1c4 040c 	rsb	r4, r4, #12
 80004ca:	f1c4 0220 	rsb	r2, r4, #32
 80004ce:	fa20 f002 	lsr.w	r0, r0, r2
 80004d2:	fa01 f304 	lsl.w	r3, r1, r4
 80004d6:	ea40 0003 	orr.w	r0, r0, r3
 80004da:	4629      	mov	r1, r5
 80004dc:	bd30      	pop	{r4, r5, pc}
 80004de:	fa21 f004 	lsr.w	r0, r1, r4
 80004e2:	4629      	mov	r1, r5
 80004e4:	bd30      	pop	{r4, r5, pc}
 80004e6:	f094 0f00 	teq	r4, #0
 80004ea:	f483 1380 	eor.w	r3, r3, #1048576	; 0x100000
 80004ee:	bf06      	itte	eq
 80004f0:	f481 1180 	eoreq.w	r1, r1, #1048576	; 0x100000
 80004f4:	3401      	addeq	r4, #1
 80004f6:	3d01      	subne	r5, #1
 80004f8:	e74e      	b.n	8000398 <__adddf3+0x8c>
 80004fa:	ea7f 5c64 	mvns.w	ip, r4, asr #21
 80004fe:	bf18      	it	ne
 8000500:	ea7f 5c65 	mvnsne.w	ip, r5, asr #21
 8000504:	d029      	beq.n	800055a <__adddf3+0x24e>
 8000506:	ea94 0f05 	teq	r4, r5
 800050a:	bf08      	it	eq
 800050c:	ea90 0f02 	teqeq	r0, r2
 8000510:	d005      	beq.n	800051e <__adddf3+0x212>
 8000512:	ea54 0c00 	orrs.w	ip, r4, r0
 8000516:	bf04      	itt	eq
 8000518:	4619      	moveq	r1, r3
 800051a:	4610      	moveq	r0, r2
 800051c:	bd30      	pop	{r4, r5, pc}
 800051e:	ea91 0f03 	teq	r1, r3
 8000522:	bf1e      	ittt	ne
 8000524:	2100      	movne	r1, #0
 8000526:	2000      	movne	r0, #0
 8000528:	bd30      	popne	{r4, r5, pc}
 800052a:	ea5f 5c54 	movs.w	ip, r4, lsr #21
 800052e:	d105      	bne.n	800053c <__adddf3+0x230>
 8000530:	0040      	lsls	r0, r0, #1
 8000532:	4149      	adcs	r1, r1
 8000534:	bf28      	it	cs
 8000536:	f041 4100 	orrcs.w	r1, r1, #2147483648	; 0x80000000
 800053a:	bd30      	pop	{r4, r5, pc}
 800053c:	f514 0480 	adds.w	r4, r4, #4194304	; 0x400000
 8000540:	bf3c      	itt	cc
 8000542:	f501 1180 	addcc.w	r1, r1, #1048576	; 0x100000
 8000546:	bd30      	popcc	{r4, r5, pc}
 8000548:	f001 4500 	and.w	r5, r1, #2147483648	; 0x80000000
 800054c:	f045 41fe 	orr.w	r1, r5, #2130706432	; 0x7f000000
 8000550:	f441 0170 	orr.w	r1, r1, #15728640	; 0xf00000
 8000554:	f04f 0000 	mov.w	r0, #0
 8000558:	bd30      	pop	{r4, r5, pc}
 800055a:	ea7f 5c64 	mvns.w	ip, r4, asr #21
 800055e:	bf1a      	itte	ne
 8000560:	4619      	movne	r1, r3
 8000562:	4610      	movne	r0, r2
 8000564:	ea7f 5c65 	mvnseq.w	ip, r5, asr #21
 8000568:	bf1c      	itt	ne
 800056a:	460b      	movne	r3, r1
 800056c:	4602      	movne	r2, r0
 800056e:	ea50 3401 	orrs.w	r4, r0, r1, lsl #12
 8000572:	bf06      	itte	eq
 8000574:	ea52 3503 	orrseq.w	r5, r2, r3, lsl #12
 8000578:	ea91 0f03 	teqeq	r1, r3
 800057c:	f441 2100 	orrne.w	r1, r1, #524288	; 0x80000
 8000580:	bd30      	pop	{r4, r5, pc}
 8000582:	bf00      	nop

08000584 <__aeabi_ui2d>:
 8000584:	f090 0f00 	teq	r0, #0
 8000588:	bf04      	itt	eq
 800058a:	2100      	moveq	r1, #0
 800058c:	4770      	bxeq	lr
 800058e:	b530      	push	{r4, r5, lr}
 8000590:	f44f 6480 	mov.w	r4, #1024	; 0x400
 8000594:	f104 0432 	add.w	r4, r4, #50	; 0x32
 8000598:	f04f 0500 	mov.w	r5, #0
 800059c:	f04f 0100 	mov.w	r1, #0
 80005a0:	e750      	b.n	8000444 <__adddf3+0x138>
 80005a2:	bf00      	nop

080005a4 <__aeabi_i2d>:
 80005a4:	f090 0f00 	teq	r0, #0
 80005a8:	bf04      	itt	eq
 80005aa:	2100      	moveq	r1, #0
 80005ac:	4770      	bxeq	lr
 80005ae:	b530      	push	{r4, r5, lr}
 80005b0:	f44f 6480 	mov.w	r4, #1024	; 0x400
 80005b4:	f104 0432 	add.w	r4, r4, #50	; 0x32
 80005b8:	f010 4500 	ands.w	r5, r0, #2147483648	; 0x80000000
 80005bc:	bf48      	it	mi
 80005be:	4240      	negmi	r0, r0
 80005c0:	f04f 0100 	mov.w	r1, #0
 80005c4:	e73e      	b.n	8000444 <__adddf3+0x138>
 80005c6:	bf00      	nop

080005c8 <__aeabi_f2d>:
 80005c8:	0042      	lsls	r2, r0, #1
 80005ca:	ea4f 01e2 	mov.w	r1, r2, asr #3
 80005ce:	ea4f 0131 	mov.w	r1, r1, rrx
 80005d2:	ea4f 7002 	mov.w	r0, r2, lsl #28
 80005d6:	bf1f      	itttt	ne
 80005d8:	f012 437f 	andsne.w	r3, r2, #4278190080	; 0xff000000
 80005dc:	f093 4f7f 	teqne	r3, #4278190080	; 0xff000000
 80005e0:	f081 5160 	eorne.w	r1, r1, #939524096	; 0x38000000
 80005e4:	4770      	bxne	lr
 80005e6:	f032 427f 	bics.w	r2, r2, #4278190080	; 0xff000000
 80005ea:	bf08      	it	eq
 80005ec:	4770      	bxeq	lr
 80005ee:	f093 4f7f 	teq	r3, #4278190080	; 0xff000000
 80005f2:	bf04      	itt	eq
 80005f4:	f441 2100 	orreq.w	r1, r1, #524288	; 0x80000
 80005f8:	4770      	bxeq	lr
 80005fa:	b530      	push	{r4, r5, lr}
 80005fc:	f44f 7460 	mov.w	r4, #896	; 0x380
 8000600:	f001 4500 	and.w	r5, r1, #2147483648	; 0x80000000
 8000604:	f021 4100 	bic.w	r1, r1, #2147483648	; 0x80000000
 8000608:	e71c      	b.n	8000444 <__adddf3+0x138>
 800060a:	bf00      	nop

0800060c <__aeabi_ul2d>:
 800060c:	ea50 0201 	orrs.w	r2, r0, r1
 8000610:	bf08      	it	eq
 8000612:	4770      	bxeq	lr
 8000614:	b530      	push	{r4, r5, lr}
 8000616:	f04f 0500 	mov.w	r5, #0
 800061a:	e00a      	b.n	8000632 <__aeabi_l2d+0x16>

0800061c <__aeabi_l2d>:
 800061c:	ea50 0201 	orrs.w	r2, r0, r1
 8000620:	bf08      	it	eq
 8000622:	4770      	bxeq	lr
 8000624:	b530      	push	{r4, r5, lr}
 8000626:	f011 4500 	ands.w	r5, r1, #2147483648	; 0x80000000
 800062a:	d502      	bpl.n	8000632 <__aeabi_l2d+0x16>
 800062c:	4240      	negs	r0, r0
 800062e:	eb61 0141 	sbc.w	r1, r1, r1, lsl #1
 8000632:	f44f 6480 	mov.w	r4, #1024	; 0x400
 8000636:	f104 0432 	add.w	r4, r4, #50	; 0x32
 800063a:	ea5f 5c91 	movs.w	ip, r1, lsr #22
 800063e:	f43f aed8 	beq.w	80003f2 <__adddf3+0xe6>
 8000642:	f04f 0203 	mov.w	r2, #3
 8000646:	ea5f 0cdc 	movs.w	ip, ip, lsr #3
 800064a:	bf18      	it	ne
 800064c:	3203      	addne	r2, #3
 800064e:	ea5f 0cdc 	movs.w	ip, ip, lsr #3
 8000652:	bf18      	it	ne
 8000654:	3203      	addne	r2, #3
 8000656:	eb02 02dc 	add.w	r2, r2, ip, lsr #3
 800065a:	f1c2 0320 	rsb	r3, r2, #32
 800065e:	fa00 fc03 	lsl.w	ip, r0, r3
 8000662:	fa20 f002 	lsr.w	r0, r0, r2
 8000666:	fa01 fe03 	lsl.w	lr, r1, r3
 800066a:	ea40 000e 	orr.w	r0, r0, lr
 800066e:	fa21 f102 	lsr.w	r1, r1, r2
 8000672:	4414      	add	r4, r2
 8000674:	e6bd      	b.n	80003f2 <__adddf3+0xe6>
 8000676:	bf00      	nop
	...

08000680 <__aeabi_dmul>:
 8000680:	b570      	push	{r4, r5, r6, lr}
 8000682:	f04f 0cff 	mov.w	ip, #255	; 0xff
 8000686:	f44c 6ce0 	orr.w	ip, ip, #1792	; 0x700
 800068a:	ea1c 5411 	ands.w	r4, ip, r1, lsr #20
 800068e:	bf1d      	ittte	ne
 8000690:	ea1c 5513 	andsne.w	r5, ip, r3, lsr #20
 8000694:	ea94 0f0c 	teqne	r4, ip
 8000698:	ea95 0f0c 	teqne	r5, ip
 800069c:	f000 f8de 	bleq	800085c <__aeabi_dmul+0x1dc>
 80006a0:	442c      	add	r4, r5
 80006a2:	ea81 0603 	eor.w	r6, r1, r3
 80006a6:	ea21 514c 	bic.w	r1, r1, ip, lsl #21
 80006aa:	ea23 534c 	bic.w	r3, r3, ip, lsl #21
 80006ae:	ea50 3501 	orrs.w	r5, r0, r1, lsl #12
 80006b2:	bf18      	it	ne
 80006b4:	ea52 3503 	orrsne.w	r5, r2, r3, lsl #12
 80006b8:	f441 1180 	orr.w	r1, r1, #1048576	; 0x100000
 80006bc:	f443 1380 	orr.w	r3, r3, #1048576	; 0x100000
 80006c0:	d038      	beq.n	8000734 <__aeabi_dmul+0xb4>
 80006c2:	fba0 ce02 	umull	ip, lr, r0, r2
 80006c6:	f04f 0500 	mov.w	r5, #0
 80006ca:	fbe1 e502 	umlal	lr, r5, r1, r2
 80006ce:	f006 4200 	and.w	r2, r6, #2147483648	; 0x80000000
 80006d2:	fbe0 e503 	umlal	lr, r5, r0, r3
 80006d6:	f04f 0600 	mov.w	r6, #0
 80006da:	fbe1 5603 	umlal	r5, r6, r1, r3
 80006de:	f09c 0f00 	teq	ip, #0
 80006e2:	bf18      	it	ne
 80006e4:	f04e 0e01 	orrne.w	lr, lr, #1
 80006e8:	f1a4 04ff 	sub.w	r4, r4, #255	; 0xff
 80006ec:	f5b6 7f00 	cmp.w	r6, #512	; 0x200
 80006f0:	f564 7440 	sbc.w	r4, r4, #768	; 0x300
 80006f4:	d204      	bcs.n	8000700 <__aeabi_dmul+0x80>
 80006f6:	ea5f 0e4e 	movs.w	lr, lr, lsl #1
 80006fa:	416d      	adcs	r5, r5
 80006fc:	eb46 0606 	adc.w	r6, r6, r6
 8000700:	ea42 21c6 	orr.w	r1, r2, r6, lsl #11
 8000704:	ea41 5155 	orr.w	r1, r1, r5, lsr #21
 8000708:	ea4f 20c5 	mov.w	r0, r5, lsl #11
 800070c:	ea40 505e 	orr.w	r0, r0, lr, lsr #21
 8000710:	ea4f 2ece 	mov.w	lr, lr, lsl #11
 8000714:	f1b4 0cfd 	subs.w	ip, r4, #253	; 0xfd
 8000718:	bf88      	it	hi
 800071a:	f5bc 6fe0 	cmphi.w	ip, #1792	; 0x700
 800071e:	d81e      	bhi.n	800075e <__aeabi_dmul+0xde>
 8000720:	f1be 4f00 	cmp.w	lr, #2147483648	; 0x80000000
 8000724:	bf08      	it	eq
 8000726:	ea5f 0e50 	movseq.w	lr, r0, lsr #1
 800072a:	f150 0000 	adcs.w	r0, r0, #0
 800072e:	eb41 5104 	adc.w	r1, r1, r4, lsl #20
 8000732:	bd70      	pop	{r4, r5, r6, pc}
 8000734:	f006 4600 	and.w	r6, r6, #2147483648	; 0x80000000
 8000738:	ea46 0101 	orr.w	r1, r6, r1
 800073c:	ea40 0002 	orr.w	r0, r0, r2
 8000740:	ea81 0103 	eor.w	r1, r1, r3
 8000744:	ebb4 045c 	subs.w	r4, r4, ip, lsr #1
 8000748:	bfc2      	ittt	gt
 800074a:	ebd4 050c 	rsbsgt	r5, r4, ip
 800074e:	ea41 5104 	orrgt.w	r1, r1, r4, lsl #20
 8000752:	bd70      	popgt	{r4, r5, r6, pc}
 8000754:	f441 1180 	orr.w	r1, r1, #1048576	; 0x100000
 8000758:	f04f 0e00 	mov.w	lr, #0
 800075c:	3c01      	subs	r4, #1
 800075e:	f300 80ab 	bgt.w	80008b8 <__aeabi_dmul+0x238>
 8000762:	f114 0f36 	cmn.w	r4, #54	; 0x36
 8000766:	bfde      	ittt	le
 8000768:	2000      	movle	r0, #0
 800076a:	f001 4100 	andle.w	r1, r1, #2147483648	; 0x80000000
 800076e:	bd70      	pople	{r4, r5, r6, pc}
 8000770:	f1c4 0400 	rsb	r4, r4, #0
 8000774:	3c20      	subs	r4, #32
 8000776:	da35      	bge.n	80007e4 <__aeabi_dmul+0x164>
 8000778:	340c      	adds	r4, #12
 800077a:	dc1b      	bgt.n	80007b4 <__aeabi_dmul+0x134>
 800077c:	f104 0414 	add.w	r4, r4, #20
 8000780:	f1c4 0520 	rsb	r5, r4, #32
 8000784:	fa00 f305 	lsl.w	r3, r0, r5
 8000788:	fa20 f004 	lsr.w	r0, r0, r4
 800078c:	fa01 f205 	lsl.w	r2, r1, r5
 8000790:	ea40 0002 	orr.w	r0, r0, r2
 8000794:	f001 4200 	and.w	r2, r1, #2147483648	; 0x80000000
 8000798:	f021 4100 	bic.w	r1, r1, #2147483648	; 0x80000000
 800079c:	eb10 70d3 	adds.w	r0, r0, r3, lsr #31
 80007a0:	fa21 f604 	lsr.w	r6, r1, r4
 80007a4:	eb42 0106 	adc.w	r1, r2, r6
 80007a8:	ea5e 0e43 	orrs.w	lr, lr, r3, lsl #1
 80007ac:	bf08      	it	eq
 80007ae:	ea20 70d3 	biceq.w	r0, r0, r3, lsr #31
 80007b2:	bd70      	pop	{r4, r5, r6, pc}
 80007b4:	f1c4 040c 	rsb	r4, r4, #12
 80007b8:	f1c4 0520 	rsb	r5, r4, #32
 80007bc:	fa00 f304 	lsl.w	r3, r0, r4
 80007c0:	fa20 f005 	lsr.w	r0, r0, r5
 80007c4:	fa01 f204 	lsl.w	r2, r1, r4
 80007c8:	ea40 0002 	orr.w	r0, r0, r2
 80007cc:	f001 4100 	and.w	r1, r1, #2147483648	; 0x80000000
 80007d0:	eb10 70d3 	adds.w	r0, r0, r3, lsr #31
 80007d4:	f141 0100 	adc.w	r1, r1, #0
 80007d8:	ea5e 0e43 	orrs.w	lr, lr, r3, lsl #1
 80007dc:	bf08      	it	eq
 80007de:	ea20 70d3 	biceq.w	r0, r0, r3, lsr #31
 80007e2:	bd70      	pop	{r4, r5, r6, pc}
 80007e4:	f1c4 0520 	rsb	r5, r4, #32
 80007e8:	fa00 f205 	lsl.w	r2, r0, r5
 80007ec:	ea4e 0e02 	orr.w	lr, lr, r2
 80007f0:	fa20 f304 	lsr.w	r3, r0, r4
 80007f4:	fa01 f205 	lsl.w	r2, r1, r5
 80007f8:	ea43 0302 	orr.w	r3, r3, r2
 80007fc:	fa21 f004 	lsr.w	r0, r1, r4
 8000800:	f001 4100 	and.w	r1, r1, #2147483648	; 0x80000000
 8000804:	fa21 f204 	lsr.w	r2, r1, r4
 8000808:	ea20 0002 	bic.w	r0, r0, r2
 800080c:	eb00 70d3 	add.w	r0, r0, r3, lsr #31
 8000810:	ea5e 0e43 	orrs.w	lr, lr, r3, lsl #1
 8000814:	bf08      	it	eq
 8000816:	ea20 70d3 	biceq.w	r0, r0, r3, lsr #31
 800081a:	bd70      	pop	{r4, r5, r6, pc}
 800081c:	f094 0f00 	teq	r4, #0
 8000820:	d10f      	bne.n	8000842 <__aeabi_dmul+0x1c2>
 8000822:	f001 4600 	and.w	r6, r1, #2147483648	; 0x80000000
 8000826:	0040      	lsls	r0, r0, #1
 8000828:	eb41 0101 	adc.w	r1, r1, r1
 800082c:	f411 1f80 	tst.w	r1, #1048576	; 0x100000
 8000830:	bf08      	it	eq
 8000832:	3c01      	subeq	r4, #1
 8000834:	d0f7      	beq.n	8000826 <__aeabi_dmul+0x1a6>
 8000836:	ea41 0106 	orr.w	r1, r1, r6
 800083a:	f095 0f00 	teq	r5, #0
 800083e:	bf18      	it	ne
 8000840:	4770      	bxne	lr
 8000842:	f003 4600 	and.w	r6, r3, #2147483648	; 0x80000000
 8000846:	0052      	lsls	r2, r2, #1
 8000848:	eb43 0303 	adc.w	r3, r3, r3
 800084c:	f413 1f80 	tst.w	r3, #1048576	; 0x100000
 8000850:	bf08      	it	eq
 8000852:	3d01      	subeq	r5, #1
 8000854:	d0f7      	beq.n	8000846 <__aeabi_dmul+0x1c6>
 8000856:	ea43 0306 	orr.w	r3, r3, r6
 800085a:	4770      	bx	lr
 800085c:	ea94 0f0c 	teq	r4, ip
 8000860:	ea0c 5513 	and.w	r5, ip, r3, lsr #20
 8000864:	bf18      	it	ne
 8000866:	ea95 0f0c 	teqne	r5, ip
 800086a:	d00c      	beq.n	8000886 <__aeabi_dmul+0x206>
 800086c:	ea50 0641 	orrs.w	r6, r0, r1, lsl #1
 8000870:	bf18      	it	ne
 8000872:	ea52 0643 	orrsne.w	r6, r2, r3, lsl #1
 8000876:	d1d1      	bne.n	800081c <__aeabi_dmul+0x19c>
 8000878:	ea81 0103 	eor.w	r1, r1, r3
 800087c:	f001 4100 	and.w	r1, r1, #2147483648	; 0x80000000
 8000880:	f04f 0000 	mov.w	r0, #0
 8000884:	bd70      	pop	{r4, r5, r6, pc}
 8000886:	ea50 0641 	orrs.w	r6, r0, r1, lsl #1
 800088a:	bf06      	itte	eq
 800088c:	4610      	moveq	r0, r2
 800088e:	4619      	moveq	r1, r3
 8000890:	ea52 0643 	orrsne.w	r6, r2, r3, lsl #1
 8000894:	d019      	beq.n	80008ca <__aeabi_dmul+0x24a>
 8000896:	ea94 0f0c 	teq	r4, ip
 800089a:	d102      	bne.n	80008a2 <__aeabi_dmul+0x222>
 800089c:	ea50 3601 	orrs.w	r6, r0, r1, lsl #12
 80008a0:	d113      	bne.n	80008ca <__aeabi_dmul+0x24a>
 80008a2:	ea95 0f0c 	teq	r5, ip
 80008a6:	d105      	bne.n	80008b4 <__aeabi_dmul+0x234>
 80008a8:	ea52 3603 	orrs.w	r6, r2, r3, lsl #12
 80008ac:	bf1c      	itt	ne
 80008ae:	4610      	movne	r0, r2
 80008b0:	4619      	movne	r1, r3
 80008b2:	d10a      	bne.n	80008ca <__aeabi_dmul+0x24a>
 80008b4:	ea81 0103 	eor.w	r1, r1, r3
 80008b8:	f001 4100 	and.w	r1, r1, #2147483648	; 0x80000000
 80008bc:	f041 41fe 	orr.w	r1, r1, #2130706432	; 0x7f000000
 80008c0:	f441 0170 	orr.w	r1, r1, #15728640	; 0xf00000
 80008c4:	f04f 0000 	mov.w	r0, #0
 80008c8:	bd70      	pop	{r4, r5, r6, pc}
 80008ca:	f041 41fe 	orr.w	r1, r1, #2130706432	; 0x7f000000
 80008ce:	f441 0178 	orr.w	r1, r1, #16252928	; 0xf80000
 80008d2:	bd70      	pop	{r4, r5, r6, pc}

080008d4 <__aeabi_ddiv>:
 80008d4:	b570      	push	{r4, r5, r6, lr}
 80008d6:	f04f 0cff 	mov.w	ip, #255	; 0xff
 80008da:	f44c 6ce0 	orr.w	ip, ip, #1792	; 0x700
 80008de:	ea1c 5411 	ands.w	r4, ip, r1, lsr #20
 80008e2:	bf1d      	ittte	ne
 80008e4:	ea1c 5513 	andsne.w	r5, ip, r3, lsr #20
 80008e8:	ea94 0f0c 	teqne	r4, ip
 80008ec:	ea95 0f0c 	teqne	r5, ip
 80008f0:	f000 f8a7 	bleq	8000a42 <__aeabi_ddiv+0x16e>
 80008f4:	eba4 0405 	sub.w	r4, r4, r5
 80008f8:	ea81 0e03 	eor.w	lr, r1, r3
 80008fc:	ea52 3503 	orrs.w	r5, r2, r3, lsl #12
 8000900:	ea4f 3101 	mov.w	r1, r1, lsl #12
 8000904:	f000 8088 	beq.w	8000a18 <__aeabi_ddiv+0x144>
 8000908:	ea4f 3303 	mov.w	r3, r3, lsl #12
 800090c:	f04f 5580 	mov.w	r5, #268435456	; 0x10000000
 8000910:	ea45 1313 	orr.w	r3, r5, r3, lsr #4
 8000914:	ea43 6312 	orr.w	r3, r3, r2, lsr #24
 8000918:	ea4f 2202 	mov.w	r2, r2, lsl #8
 800091c:	ea45 1511 	orr.w	r5, r5, r1, lsr #4
 8000920:	ea45 6510 	orr.w	r5, r5, r0, lsr #24
 8000924:	ea4f 2600 	mov.w	r6, r0, lsl #8
 8000928:	f00e 4100 	and.w	r1, lr, #2147483648	; 0x80000000
 800092c:	429d      	cmp	r5, r3
 800092e:	bf08      	it	eq
 8000930:	4296      	cmpeq	r6, r2
 8000932:	f144 04fd 	adc.w	r4, r4, #253	; 0xfd
 8000936:	f504 7440 	add.w	r4, r4, #768	; 0x300
 800093a:	d202      	bcs.n	8000942 <__aeabi_ddiv+0x6e>
 800093c:	085b      	lsrs	r3, r3, #1
 800093e:	ea4f 0232 	mov.w	r2, r2, rrx
 8000942:	1ab6      	subs	r6, r6, r2
 8000944:	eb65 0503 	sbc.w	r5, r5, r3
 8000948:	085b      	lsrs	r3, r3, #1
 800094a:	ea4f 0232 	mov.w	r2, r2, rrx
 800094e:	f44f 1080 	mov.w	r0, #1048576	; 0x100000
 8000952:	f44f 2c00 	mov.w	ip, #524288	; 0x80000
 8000956:	ebb6 0e02 	subs.w	lr, r6, r2
 800095a:	eb75 0e03 	sbcs.w	lr, r5, r3
 800095e:	bf22      	ittt	cs
 8000960:	1ab6      	subcs	r6, r6, r2
 8000962:	4675      	movcs	r5, lr
 8000964:	ea40 000c 	orrcs.w	r0, r0, ip
 8000968:	085b      	lsrs	r3, r3, #1
 800096a:	ea4f 0232 	mov.w	r2, r2, rrx
 800096e:	ebb6 0e02 	subs.w	lr, r6, r2
 8000972:	eb75 0e03 	sbcs.w	lr, r5, r3
 8000976:	bf22      	ittt	cs
 8000978:	1ab6      	subcs	r6, r6, r2
 800097a:	4675      	movcs	r5, lr
 800097c:	ea40 005c 	orrcs.w	r0, r0, ip, lsr #1
 8000980:	085b      	lsrs	r3, r3, #1
 8000982:	ea4f 0232 	mov.w	r2, r2, rrx
 8000986:	ebb6 0e02 	subs.w	lr, r6, r2
 800098a:	eb75 0e03 	sbcs.w	lr, r5, r3
 800098e:	bf22      	ittt	cs
 8000990:	1ab6      	subcs	r6, r6, r2
 8000992:	4675      	movcs	r5, lr
 8000994:	ea40 009c 	orrcs.w	r0, r0, ip, lsr #2
 8000998:	085b      	lsrs	r3, r3, #1
 800099a:	ea4f 0232 	mov.w	r2, r2, rrx
 800099e:	ebb6 0e02 	subs.w	lr, r6, r2
 80009a2:	eb75 0e03 	sbcs.w	lr, r5, r3
 80009a6:	bf22      	ittt	cs
 80009a8:	1ab6      	subcs	r6, r6, r2
 80009aa:	4675      	movcs	r5, lr
 80009ac:	ea40 00dc 	orrcs.w	r0, r0, ip, lsr #3
 80009b0:	ea55 0e06 	orrs.w	lr, r5, r6
 80009b4:	d018      	beq.n	80009e8 <__aeabi_ddiv+0x114>
 80009b6:	ea4f 1505 	mov.w	r5, r5, lsl #4
 80009ba:	ea45 7516 	orr.w	r5, r5, r6, lsr #28
 80009be:	ea4f 1606 	mov.w	r6, r6, lsl #4
 80009c2:	ea4f 03c3 	mov.w	r3, r3, lsl #3
 80009c6:	ea43 7352 	orr.w	r3, r3, r2, lsr #29
 80009ca:	ea4f 02c2 	mov.w	r2, r2, lsl #3
 80009ce:	ea5f 1c1c 	movs.w	ip, ip, lsr #4
 80009d2:	d1c0      	bne.n	8000956 <__aeabi_ddiv+0x82>
 80009d4:	f411 1f80 	tst.w	r1, #1048576	; 0x100000
 80009d8:	d10b      	bne.n	80009f2 <__aeabi_ddiv+0x11e>
 80009da:	ea41 0100 	orr.w	r1, r1, r0
 80009de:	f04f 0000 	mov.w	r0, #0
 80009e2:	f04f 4c00 	mov.w	ip, #2147483648	; 0x80000000
 80009e6:	e7b6      	b.n	8000956 <__aeabi_ddiv+0x82>
 80009e8:	f411 1f80 	tst.w	r1, #1048576	; 0x100000
 80009ec:	bf04      	itt	eq
 80009ee:	4301      	orreq	r1, r0
 80009f0:	2000      	moveq	r0, #0
 80009f2:	f1b4 0cfd 	subs.w	ip, r4, #253	; 0xfd
 80009f6:	bf88      	it	hi
 80009f8:	f5bc 6fe0 	cmphi.w	ip, #1792	; 0x700
 80009fc:	f63f aeaf 	bhi.w	800075e <__aeabi_dmul+0xde>
 8000a00:	ebb5 0c03 	subs.w	ip, r5, r3
 8000a04:	bf04      	itt	eq
 8000a06:	ebb6 0c02 	subseq.w	ip, r6, r2
 8000a0a:	ea5f 0c50 	movseq.w	ip, r0, lsr #1
 8000a0e:	f150 0000 	adcs.w	r0, r0, #0
 8000a12:	eb41 5104 	adc.w	r1, r1, r4, lsl #20
 8000a16:	bd70      	pop	{r4, r5, r6, pc}
 8000a18:	f00e 4e00 	and.w	lr, lr, #2147483648	; 0x80000000
 8000a1c:	ea4e 3111 	orr.w	r1, lr, r1, lsr #12
 8000a20:	eb14 045c 	adds.w	r4, r4, ip, lsr #1
 8000a24:	bfc2      	ittt	gt
 8000a26:	ebd4 050c 	rsbsgt	r5, r4, ip
 8000a2a:	ea41 5104 	orrgt.w	r1, r1, r4, lsl #20
 8000a2e:	bd70      	popgt	{r4, r5, r6, pc}
 8000a30:	f441 1180 	orr.w	r1, r1, #1048576	; 0x100000
 8000a34:	f04f 0e00 	mov.w	lr, #0
 8000a38:	3c01      	subs	r4, #1
 8000a3a:	e690      	b.n	800075e <__aeabi_dmul+0xde>
 8000a3c:	ea45 0e06 	orr.w	lr, r5, r6
 8000a40:	e68d      	b.n	800075e <__aeabi_dmul+0xde>
 8000a42:	ea0c 5513 	and.w	r5, ip, r3, lsr #20
 8000a46:	ea94 0f0c 	teq	r4, ip
 8000a4a:	bf08      	it	eq
 8000a4c:	ea95 0f0c 	teqeq	r5, ip
 8000a50:	f43f af3b 	beq.w	80008ca <__aeabi_dmul+0x24a>
 8000a54:	ea94 0f0c 	teq	r4, ip
 8000a58:	d10a      	bne.n	8000a70 <__aeabi_ddiv+0x19c>
 8000a5a:	ea50 3401 	orrs.w	r4, r0, r1, lsl #12
 8000a5e:	f47f af34 	bne.w	80008ca <__aeabi_dmul+0x24a>
 8000a62:	ea95 0f0c 	teq	r5, ip
 8000a66:	f47f af25 	bne.w	80008b4 <__aeabi_dmul+0x234>
 8000a6a:	4610      	mov	r0, r2
 8000a6c:	4619      	mov	r1, r3
 8000a6e:	e72c      	b.n	80008ca <__aeabi_dmul+0x24a>
 8000a70:	ea95 0f0c 	teq	r5, ip
 8000a74:	d106      	bne.n	8000a84 <__aeabi_ddiv+0x1b0>
 8000a76:	ea52 3503 	orrs.w	r5, r2, r3, lsl #12
 8000a7a:	f43f aefd 	beq.w	8000878 <__aeabi_dmul+0x1f8>
 8000a7e:	4610      	mov	r0, r2
 8000a80:	4619      	mov	r1, r3
 8000a82:	e722      	b.n	80008ca <__aeabi_dmul+0x24a>
 8000a84:	ea50 0641 	orrs.w	r6, r0, r1, lsl #1
 8000a88:	bf18      	it	ne
 8000a8a:	ea52 0643 	orrsne.w	r6, r2, r3, lsl #1
 8000a8e:	f47f aec5 	bne.w	800081c <__aeabi_dmul+0x19c>
 8000a92:	ea50 0441 	orrs.w	r4, r0, r1, lsl #1
 8000a96:	f47f af0d 	bne.w	80008b4 <__aeabi_dmul+0x234>
 8000a9a:	ea52 0543 	orrs.w	r5, r2, r3, lsl #1
 8000a9e:	f47f aeeb 	bne.w	8000878 <__aeabi_dmul+0x1f8>
 8000aa2:	e712      	b.n	80008ca <__aeabi_dmul+0x24a>
	...

08000ab0 <__aeabi_d2iz>:
 8000ab0:	ea4f 0241 	mov.w	r2, r1, lsl #1
 8000ab4:	f512 1200 	adds.w	r2, r2, #2097152	; 0x200000
 8000ab8:	d215      	bcs.n	8000ae6 <__aeabi_d2iz+0x36>
 8000aba:	d511      	bpl.n	8000ae0 <__aeabi_d2iz+0x30>
 8000abc:	f46f 7378 	mvn.w	r3, #992	; 0x3e0
 8000ac0:	ebb3 5262 	subs.w	r2, r3, r2, asr #21
 8000ac4:	d912      	bls.n	8000aec <__aeabi_d2iz+0x3c>
 8000ac6:	ea4f 23c1 	mov.w	r3, r1, lsl #11
 8000aca:	f043 4300 	orr.w	r3, r3, #2147483648	; 0x80000000
 8000ace:	ea43 5350 	orr.w	r3, r3, r0, lsr #21
 8000ad2:	f011 4f00 	tst.w	r1, #2147483648	; 0x80000000
 8000ad6:	fa23 f002 	lsr.w	r0, r3, r2
 8000ada:	bf18      	it	ne
 8000adc:	4240      	negne	r0, r0
 8000ade:	4770      	bx	lr
 8000ae0:	f04f 0000 	mov.w	r0, #0
 8000ae4:	4770      	bx	lr
 8000ae6:	ea50 3001 	orrs.w	r0, r0, r1, lsl #12
 8000aea:	d105      	bne.n	8000af8 <__aeabi_d2iz+0x48>
 8000aec:	f011 4000 	ands.w	r0, r1, #2147483648	; 0x80000000
 8000af0:	bf08      	it	eq
 8000af2:	f06f 4000 	mvneq.w	r0, #2147483648	; 0x80000000
 8000af6:	4770      	bx	lr
 8000af8:	f04f 0000 	mov.w	r0, #0
 8000afc:	4770      	bx	lr
 8000afe:	bf00      	nop

08000b00 <__aeabi_uldivmod>:
 8000b00:	b953      	cbnz	r3, 8000b18 <__aeabi_uldivmod+0x18>
 8000b02:	b94a      	cbnz	r2, 8000b18 <__aeabi_uldivmod+0x18>
 8000b04:	2900      	cmp	r1, #0
 8000b06:	bf08      	it	eq
 8000b08:	2800      	cmpeq	r0, #0
 8000b0a:	bf1c      	itt	ne
 8000b0c:	f04f 31ff 	movne.w	r1, #4294967295
 8000b10:	f04f 30ff 	movne.w	r0, #4294967295
 8000b14:	f000 b974 	b.w	8000e00 <__aeabi_idiv0>
 8000b18:	f1ad 0c08 	sub.w	ip, sp, #8
 8000b1c:	e96d ce04 	strd	ip, lr, [sp, #-16]!
 8000b20:	f000 f806 	bl	8000b30 <__udivmoddi4>
 8000b24:	f8dd e004 	ldr.w	lr, [sp, #4]
 8000b28:	e9dd 2302 	ldrd	r2, r3, [sp, #8]
 8000b2c:	b004      	add	sp, #16
 8000b2e:	4770      	bx	lr

08000b30 <__udivmoddi4>:
 8000b30:	e92d 47f0 	stmdb	sp!, {r4, r5, r6, r7, r8, r9, sl, lr}
 8000b34:	9e08      	ldr	r6, [sp, #32]
 8000b36:	4604      	mov	r4, r0
 8000b38:	4688      	mov	r8, r1
 8000b3a:	2b00      	cmp	r3, #0
 8000b3c:	d14b      	bne.n	8000bd6 <__udivmoddi4+0xa6>
 8000b3e:	428a      	cmp	r2, r1
 8000b40:	4615      	mov	r5, r2
 8000b42:	d967      	bls.n	8000c14 <__udivmoddi4+0xe4>
 8000b44:	fab2 f282 	clz	r2, r2
 8000b48:	b14a      	cbz	r2, 8000b5e <__udivmoddi4+0x2e>
 8000b4a:	f1c2 0720 	rsb	r7, r2, #32
 8000b4e:	fa01 f302 	lsl.w	r3, r1, r2
 8000b52:	fa20 f707 	lsr.w	r7, r0, r7
 8000b56:	4095      	lsls	r5, r2
 8000b58:	ea47 0803 	orr.w	r8, r7, r3
 8000b5c:	4094      	lsls	r4, r2
 8000b5e:	ea4f 4e15 	mov.w	lr, r5, lsr #16
 8000b62:	0c23      	lsrs	r3, r4, #16
 8000b64:	fbb8 f7fe 	udiv	r7, r8, lr
 8000b68:	fa1f fc85 	uxth.w	ip, r5
 8000b6c:	fb0e 8817 	mls	r8, lr, r7, r8
 8000b70:	ea43 4308 	orr.w	r3, r3, r8, lsl #16
 8000b74:	fb07 f10c 	mul.w	r1, r7, ip
 8000b78:	4299      	cmp	r1, r3
 8000b7a:	d909      	bls.n	8000b90 <__udivmoddi4+0x60>
 8000b7c:	18eb      	adds	r3, r5, r3
 8000b7e:	f107 30ff 	add.w	r0, r7, #4294967295
 8000b82:	f080 811b 	bcs.w	8000dbc <__udivmoddi4+0x28c>
 8000b86:	4299      	cmp	r1, r3
 8000b88:	f240 8118 	bls.w	8000dbc <__udivmoddi4+0x28c>
 8000b8c:	3f02      	subs	r7, #2
 8000b8e:	442b      	add	r3, r5
 8000b90:	1a5b      	subs	r3, r3, r1
 8000b92:	b2a4      	uxth	r4, r4
 8000b94:	fbb3 f0fe 	udiv	r0, r3, lr
 8000b98:	fb0e 3310 	mls	r3, lr, r0, r3
 8000b9c:	ea44 4403 	orr.w	r4, r4, r3, lsl #16
 8000ba0:	fb00 fc0c 	mul.w	ip, r0, ip
 8000ba4:	45a4      	cmp	ip, r4
 8000ba6:	d909      	bls.n	8000bbc <__udivmoddi4+0x8c>
 8000ba8:	192c      	adds	r4, r5, r4
 8000baa:	f100 33ff 	add.w	r3, r0, #4294967295
 8000bae:	f080 8107 	bcs.w	8000dc0 <__udivmoddi4+0x290>
 8000bb2:	45a4      	cmp	ip, r4
 8000bb4:	f240 8104 	bls.w	8000dc0 <__udivmoddi4+0x290>
 8000bb8:	3802      	subs	r0, #2
 8000bba:	442c      	add	r4, r5
 8000bbc:	ea40 4007 	orr.w	r0, r0, r7, lsl #16
 8000bc0:	eba4 040c 	sub.w	r4, r4, ip
 8000bc4:	2700      	movs	r7, #0
 8000bc6:	b11e      	cbz	r6, 8000bd0 <__udivmoddi4+0xa0>
 8000bc8:	40d4      	lsrs	r4, r2
 8000bca:	2300      	movs	r3, #0
 8000bcc:	e9c6 4300 	strd	r4, r3, [r6]
 8000bd0:	4639      	mov	r1, r7
 8000bd2:	e8bd 87f0 	ldmia.w	sp!, {r4, r5, r6, r7, r8, r9, sl, pc}
 8000bd6:	428b      	cmp	r3, r1
 8000bd8:	d909      	bls.n	8000bee <__udivmoddi4+0xbe>
 8000bda:	2e00      	cmp	r6, #0
 8000bdc:	f000 80eb 	beq.w	8000db6 <__udivmoddi4+0x286>
 8000be0:	2700      	movs	r7, #0
 8000be2:	e9c6 0100 	strd	r0, r1, [r6]
 8000be6:	4638      	mov	r0, r7
 8000be8:	4639      	mov	r1, r7
 8000bea:	e8bd 87f0 	ldmia.w	sp!, {r4, r5, r6, r7, r8, r9, sl, pc}
 8000bee:	fab3 f783 	clz	r7, r3
 8000bf2:	2f00      	cmp	r7, #0
 8000bf4:	d147      	bne.n	8000c86 <__udivmoddi4+0x156>
 8000bf6:	428b      	cmp	r3, r1
 8000bf8:	d302      	bcc.n	8000c00 <__udivmoddi4+0xd0>
 8000bfa:	4282      	cmp	r2, r0
 8000bfc:	f200 80fa 	bhi.w	8000df4 <__udivmoddi4+0x2c4>
 8000c00:	1a84      	subs	r4, r0, r2
 8000c02:	eb61 0303 	sbc.w	r3, r1, r3
 8000c06:	2001      	movs	r0, #1
 8000c08:	4698      	mov	r8, r3
 8000c0a:	2e00      	cmp	r6, #0
 8000c0c:	d0e0      	beq.n	8000bd0 <__udivmoddi4+0xa0>
 8000c0e:	e9c6 4800 	strd	r4, r8, [r6]
 8000c12:	e7dd      	b.n	8000bd0 <__udivmoddi4+0xa0>
 8000c14:	b902      	cbnz	r2, 8000c18 <__udivmoddi4+0xe8>
 8000c16:	deff      	udf	#255	; 0xff
 8000c18:	fab2 f282 	clz	r2, r2
 8000c1c:	2a00      	cmp	r2, #0
 8000c1e:	f040 808f 	bne.w	8000d40 <__udivmoddi4+0x210>
 8000c22:	1b49      	subs	r1, r1, r5
 8000c24:	ea4f 4e15 	mov.w	lr, r5, lsr #16
 8000c28:	fa1f f885 	uxth.w	r8, r5
 8000c2c:	2701      	movs	r7, #1
 8000c2e:	fbb1 fcfe 	udiv	ip, r1, lr
 8000c32:	0c23      	lsrs	r3, r4, #16
 8000c34:	fb0e 111c 	mls	r1, lr, ip, r1
 8000c38:	ea43 4301 	orr.w	r3, r3, r1, lsl #16
 8000c3c:	fb08 f10c 	mul.w	r1, r8, ip
 8000c40:	4299      	cmp	r1, r3
 8000c42:	d907      	bls.n	8000c54 <__udivmoddi4+0x124>
 8000c44:	18eb      	adds	r3, r5, r3
 8000c46:	f10c 30ff 	add.w	r0, ip, #4294967295
 8000c4a:	d202      	bcs.n	8000c52 <__udivmoddi4+0x122>
 8000c4c:	4299      	cmp	r1, r3
 8000c4e:	f200 80cd 	bhi.w	8000dec <__udivmoddi4+0x2bc>
 8000c52:	4684      	mov	ip, r0
 8000c54:	1a59      	subs	r1, r3, r1
 8000c56:	b2a3      	uxth	r3, r4
 8000c58:	fbb1 f0fe 	udiv	r0, r1, lr
 8000c5c:	fb0e 1410 	mls	r4, lr, r0, r1
 8000c60:	ea43 4404 	orr.w	r4, r3, r4, lsl #16
 8000c64:	fb08 f800 	mul.w	r8, r8, r0
 8000c68:	45a0      	cmp	r8, r4
 8000c6a:	d907      	bls.n	8000c7c <__udivmoddi4+0x14c>
 8000c6c:	192c      	adds	r4, r5, r4
 8000c6e:	f100 33ff 	add.w	r3, r0, #4294967295
 8000c72:	d202      	bcs.n	8000c7a <__udivmoddi4+0x14a>
 8000c74:	45a0      	cmp	r8, r4
 8000c76:	f200 80b6 	bhi.w	8000de6 <__udivmoddi4+0x2b6>
 8000c7a:	4618      	mov	r0, r3
 8000c7c:	eba4 0408 	sub.w	r4, r4, r8
 8000c80:	ea40 400c 	orr.w	r0, r0, ip, lsl #16
 8000c84:	e79f      	b.n	8000bc6 <__udivmoddi4+0x96>
 8000c86:	f1c7 0c20 	rsb	ip, r7, #32
 8000c8a:	40bb      	lsls	r3, r7
 8000c8c:	fa22 fe0c 	lsr.w	lr, r2, ip
 8000c90:	ea4e 0e03 	orr.w	lr, lr, r3
 8000c94:	fa01 f407 	lsl.w	r4, r1, r7
 8000c98:	fa20 f50c 	lsr.w	r5, r0, ip
 8000c9c:	fa21 f30c 	lsr.w	r3, r1, ip
 8000ca0:	ea4f 481e 	mov.w	r8, lr, lsr #16
 8000ca4:	4325      	orrs	r5, r4
 8000ca6:	fbb3 f9f8 	udiv	r9, r3, r8
 8000caa:	0c2c      	lsrs	r4, r5, #16
 8000cac:	fb08 3319 	mls	r3, r8, r9, r3
 8000cb0:	fa1f fa8e 	uxth.w	sl, lr
 8000cb4:	ea44 4303 	orr.w	r3, r4, r3, lsl #16
 8000cb8:	fb09 f40a 	mul.w	r4, r9, sl
 8000cbc:	429c      	cmp	r4, r3
 8000cbe:	fa02 f207 	lsl.w	r2, r2, r7
 8000cc2:	fa00 f107 	lsl.w	r1, r0, r7
 8000cc6:	d90b      	bls.n	8000ce0 <__udivmoddi4+0x1b0>
 8000cc8:	eb1e 0303 	adds.w	r3, lr, r3
 8000ccc:	f109 30ff 	add.w	r0, r9, #4294967295
 8000cd0:	f080 8087 	bcs.w	8000de2 <__udivmoddi4+0x2b2>
 8000cd4:	429c      	cmp	r4, r3
 8000cd6:	f240 8084 	bls.w	8000de2 <__udivmoddi4+0x2b2>
 8000cda:	f1a9 0902 	sub.w	r9, r9, #2
 8000cde:	4473      	add	r3, lr
 8000ce0:	1b1b      	subs	r3, r3, r4
 8000ce2:	b2ad      	uxth	r5, r5
 8000ce4:	fbb3 f0f8 	udiv	r0, r3, r8
 8000ce8:	fb08 3310 	mls	r3, r8, r0, r3
 8000cec:	ea45 4403 	orr.w	r4, r5, r3, lsl #16
 8000cf0:	fb00 fa0a 	mul.w	sl, r0, sl
 8000cf4:	45a2      	cmp	sl, r4
 8000cf6:	d908      	bls.n	8000d0a <__udivmoddi4+0x1da>
 8000cf8:	eb1e 0404 	adds.w	r4, lr, r4
 8000cfc:	f100 33ff 	add.w	r3, r0, #4294967295
 8000d00:	d26b      	bcs.n	8000dda <__udivmoddi4+0x2aa>
 8000d02:	45a2      	cmp	sl, r4
 8000d04:	d969      	bls.n	8000dda <__udivmoddi4+0x2aa>
 8000d06:	3802      	subs	r0, #2
 8000d08:	4474      	add	r4, lr
 8000d0a:	ea40 4009 	orr.w	r0, r0, r9, lsl #16
 8000d0e:	fba0 8902 	umull	r8, r9, r0, r2
 8000d12:	eba4 040a 	sub.w	r4, r4, sl
 8000d16:	454c      	cmp	r4, r9
 8000d18:	46c2      	mov	sl, r8
 8000d1a:	464b      	mov	r3, r9
 8000d1c:	d354      	bcc.n	8000dc8 <__udivmoddi4+0x298>
 8000d1e:	d051      	beq.n	8000dc4 <__udivmoddi4+0x294>
 8000d20:	2e00      	cmp	r6, #0
 8000d22:	d069      	beq.n	8000df8 <__udivmoddi4+0x2c8>
 8000d24:	ebb1 050a 	subs.w	r5, r1, sl
 8000d28:	eb64 0403 	sbc.w	r4, r4, r3
 8000d2c:	fa04 fc0c 	lsl.w	ip, r4, ip
 8000d30:	40fd      	lsrs	r5, r7
 8000d32:	40fc      	lsrs	r4, r7
 8000d34:	ea4c 0505 	orr.w	r5, ip, r5
 8000d38:	e9c6 5400 	strd	r5, r4, [r6]
 8000d3c:	2700      	movs	r7, #0
 8000d3e:	e747      	b.n	8000bd0 <__udivmoddi4+0xa0>
 8000d40:	f1c2 0320 	rsb	r3, r2, #32
 8000d44:	fa20 f703 	lsr.w	r7, r0, r3
 8000d48:	4095      	lsls	r5, r2
 8000d4a:	fa01 f002 	lsl.w	r0, r1, r2
 8000d4e:	fa21 f303 	lsr.w	r3, r1, r3
 8000d52:	ea4f 4e15 	mov.w	lr, r5, lsr #16
 8000d56:	4338      	orrs	r0, r7
 8000d58:	0c01      	lsrs	r1, r0, #16
 8000d5a:	fbb3 f7fe 	udiv	r7, r3, lr
 8000d5e:	fa1f f885 	uxth.w	r8, r5
 8000d62:	fb0e 3317 	mls	r3, lr, r7, r3
 8000d66:	ea41 4103 	orr.w	r1, r1, r3, lsl #16
 8000d6a:	fb07 f308 	mul.w	r3, r7, r8
 8000d6e:	428b      	cmp	r3, r1
 8000d70:	fa04 f402 	lsl.w	r4, r4, r2
 8000d74:	d907      	bls.n	8000d86 <__udivmoddi4+0x256>
 8000d76:	1869      	adds	r1, r5, r1
 8000d78:	f107 3cff 	add.w	ip, r7, #4294967295
 8000d7c:	d22f      	bcs.n	8000dde <__udivmoddi4+0x2ae>
 8000d7e:	428b      	cmp	r3, r1
 8000d80:	d92d      	bls.n	8000dde <__udivmoddi4+0x2ae>
 8000d82:	3f02      	subs	r7, #2
 8000d84:	4429      	add	r1, r5
 8000d86:	1acb      	subs	r3, r1, r3
 8000d88:	b281      	uxth	r1, r0
 8000d8a:	fbb3 f0fe 	udiv	r0, r3, lr
 8000d8e:	fb0e 3310 	mls	r3, lr, r0, r3
 8000d92:	ea41 4103 	orr.w	r1, r1, r3, lsl #16
 8000d96:	fb00 f308 	mul.w	r3, r0, r8
 8000d9a:	428b      	cmp	r3, r1
 8000d9c:	d907      	bls.n	8000dae <__udivmoddi4+0x27e>
 8000d9e:	1869      	adds	r1, r5, r1
 8000da0:	f100 3cff 	add.w	ip, r0, #4294967295
 8000da4:	d217      	bcs.n	8000dd6 <__udivmoddi4+0x2a6>
 8000da6:	428b      	cmp	r3, r1
 8000da8:	d915      	bls.n	8000dd6 <__udivmoddi4+0x2a6>
 8000daa:	3802      	subs	r0, #2
 8000dac:	4429      	add	r1, r5
 8000dae:	1ac9      	subs	r1, r1, r3
 8000db0:	ea40 4707 	orr.w	r7, r0, r7, lsl #16
 8000db4:	e73b      	b.n	8000c2e <__udivmoddi4+0xfe>
 8000db6:	4637      	mov	r7, r6
 8000db8:	4630      	mov	r0, r6
 8000dba:	e709      	b.n	8000bd0 <__udivmoddi4+0xa0>
 8000dbc:	4607      	mov	r7, r0
 8000dbe:	e6e7      	b.n	8000b90 <__udivmoddi4+0x60>
 8000dc0:	4618      	mov	r0, r3
 8000dc2:	e6fb      	b.n	8000bbc <__udivmoddi4+0x8c>
 8000dc4:	4541      	cmp	r1, r8
 8000dc6:	d2ab      	bcs.n	8000d20 <__udivmoddi4+0x1f0>
 8000dc8:	ebb8 0a02 	subs.w	sl, r8, r2
 8000dcc:	eb69 020e 	sbc.w	r2, r9, lr
 8000dd0:	3801      	subs	r0, #1
 8000dd2:	4613      	mov	r3, r2
 8000dd4:	e7a4      	b.n	8000d20 <__udivmoddi4+0x1f0>
 8000dd6:	4660      	mov	r0, ip
 8000dd8:	e7e9      	b.n	8000dae <__udivmoddi4+0x27e>
 8000dda:	4618      	mov	r0, r3
 8000ddc:	e795      	b.n	8000d0a <__udivmoddi4+0x1da>
 8000dde:	4667      	mov	r7, ip
 8000de0:	e7d1      	b.n	8000d86 <__udivmoddi4+0x256>
 8000de2:	4681      	mov	r9, r0
 8000de4:	e77c      	b.n	8000ce0 <__udivmoddi4+0x1b0>
 8000de6:	3802      	subs	r0, #2
 8000de8:	442c      	add	r4, r5
 8000dea:	e747      	b.n	8000c7c <__udivmoddi4+0x14c>
 8000dec:	f1ac 0c02 	sub.w	ip, ip, #2
 8000df0:	442b      	add	r3, r5
 8000df2:	e72f      	b.n	8000c54 <__udivmoddi4+0x124>
 8000df4:	4638      	mov	r0, r7
 8000df6:	e708      	b.n	8000c0a <__udivmoddi4+0xda>
 8000df8:	4637      	mov	r7, r6
 8000dfa:	e6e9      	b.n	8000bd0 <__udivmoddi4+0xa0>
 8000dfc:	0000      	movs	r0, r0
	...

08000e00 <__aeabi_idiv0>:
 8000e00:	4770      	bx	lr
 8000e02:	bf00      	nop
	...

08000e10 <memcpy>:
 8000e10:	4684      	mov	ip, r0
 8000e12:	ea41 0300 	orr.w	r3, r1, r0
 8000e16:	f013 0303 	ands.w	r3, r3, #3
 8000e1a:	d16d      	bne.n	8000ef8 <memcpy+0xe8>
 8000e1c:	3a40      	subs	r2, #64	; 0x40
 8000e1e:	d341      	bcc.n	8000ea4 <memcpy+0x94>
 8000e20:	f851 3b04 	ldr.w	r3, [r1], #4
 8000e24:	f840 3b04 	str.w	r3, [r0], #4
 8000e28:	f851 3b04 	ldr.w	r3, [r1], #4
 8000e2c:	f840 3b04 	str.w	r3, [r0], #4
 8000e30:	f851 3b04 	ldr.w	r3, [r1], #4
 8000e34:	f840 3b04 	str.w	r3, [r0], #4
 8000e38:	f851 3b04 	ldr.w	r3, [r1], #4
 8000e3c:	f840 3b04 	str.w	r3, [r0], #4
 8000e40:	f851 3b04 	ldr.w	r3, [r1], #4
 8000e44:	f840 3b04 	str.w	r3, [r0], #4
 8000e48:	f851 3b04 	ldr.w	r3, [r1], #4
 8000e4c:	f840 3b04 	str.w	r3, [r0], #4
 8000e50:	f851 3b04 	ldr.w	r3, [r1], #4
 8000e54:	f840 3b04 	str.w	r3, [r0], #4
 8000e58:	f851 3b04 	ldr.w	r3, [r1], #4
 8000e5c:	f840 3b04 	str.w	r3, [r0], #4
 8000e60:	f851 3b04 	ldr.w	r3, [r1], #4
 8000e64:	f840 3b04 	str.w	r3, [r0], #4
 8000e68:	f851 3b04 	ldr.w	r3, [r1], #4
 8000e6c:	f840 3b04 	str.w	r3, [r0], #4
 8000e70:	f851 3b04 	ldr.w	r3, [r1], #4
 8000e74:	f840 3b04 	str.w	r3, [r0], #4
 8000e78:	f851 3b04 	ldr.w	r3, [r1], #4
 8000e7c:	f840 3b04 	str.w	r3, [r0], #4
 8000e80:	f851 3b04 	ldr.w	r3, [r1], #4
 8000e84:	f840 3b04 	str.w	r3, [r0], #4
 8000e88:	f851 3b04 	ldr.w	r3, [r1], #4
 8000e8c:	f840 3b04 	str.w	r3, [r0], #4
 8000e90:	f851 3b04 	ldr.w	r3, [r1], #4
 8000e94:	f840 3b04 	str.w	r3, [r0], #4
 8000e98:	f851 3b04 	ldr.w	r3, [r1], #4
 8000e9c:	f840 3b04 	str.w	r3, [r0], #4
 8000ea0:	3a40      	subs	r2, #64	; 0x40
 8000ea2:	d2bd      	bcs.n	8000e20 <memcpy+0x10>
 8000ea4:	3230      	adds	r2, #48	; 0x30
 8000ea6:	d311      	bcc.n	8000ecc <memcpy+0xbc>
 8000ea8:	f851 3b04 	ldr.w	r3, [r1], #4
 8000eac:	f840 3b04 	str.w	r3, [r0], #4
 8000eb0:	f851 3b04 	ldr.w	r3, [r1], #4
 8000eb4:	f840 3b04 	str.w	r3, [r0], #4
 8000eb8:	f851 3b04 	ldr.w	r3, [r1], #4
 8000ebc:	f840 3b04 	str.w	r3, [r0], #4
 8000ec0:	f851 3b04 	ldr.w	r3, [r1], #4
 8000ec4:	f840 3b04 	str.w	r3, [r0], #4
 8000ec8:	3a10      	subs	r2, #16
 8000eca:	d2ed      	bcs.n	8000ea8 <memcpy+0x98>
 8000ecc:	320c      	adds	r2, #12
 8000ece:	d305      	bcc.n	8000edc <memcpy+0xcc>
 8000ed0:	f851 3b04 	ldr.w	r3, [r1], #4
 8000ed4:	f840 3b04 	str.w	r3, [r0], #4
 8000ed8:	3a04      	subs	r2, #4
 8000eda:	d2f9      	bcs.n	8000ed0 <memcpy+0xc0>
 8000edc:	3204      	adds	r2, #4
 8000ede:	d008      	beq.n	8000ef2 <memcpy+0xe2>
 8000ee0:	07d2      	lsls	r2, r2, #31
 8000ee2:	bf1c      	itt	ne
 8000ee4:	f811 3b01 	ldrbne.w	r3, [r1], #1
 8000ee8:	f800 3b01 	strbne.w	r3, [r0], #1
 8000eec:	d301      	bcc.n	8000ef2 <memcpy+0xe2>
 8000eee:	880b      	ldrh	r3, [r1, #0]
 8000ef0:	8003      	strh	r3, [r0, #0]
 8000ef2:	4660      	mov	r0, ip
 8000ef4:	4770      	bx	lr
 8000ef6:	bf00      	nop
 8000ef8:	2a08      	cmp	r2, #8
 8000efa:	d313      	bcc.n	8000f24 <memcpy+0x114>
 8000efc:	078b      	lsls	r3, r1, #30
 8000efe:	d08d      	beq.n	8000e1c <memcpy+0xc>
 8000f00:	f010 0303 	ands.w	r3, r0, #3
 8000f04:	d08a      	beq.n	8000e1c <memcpy+0xc>
 8000f06:	f1c3 0304 	rsb	r3, r3, #4
 8000f0a:	1ad2      	subs	r2, r2, r3
 8000f0c:	07db      	lsls	r3, r3, #31
 8000f0e:	bf1c      	itt	ne
 8000f10:	f811 3b01 	ldrbne.w	r3, [r1], #1
 8000f14:	f800 3b01 	strbne.w	r3, [r0], #1
 8000f18:	d380      	bcc.n	8000e1c <memcpy+0xc>
 8000f1a:	f831 3b02 	ldrh.w	r3, [r1], #2
 8000f1e:	f820 3b02 	strh.w	r3, [r0], #2
 8000f22:	e77b      	b.n	8000e1c <memcpy+0xc>
 8000f24:	3a04      	subs	r2, #4
 8000f26:	d3d9      	bcc.n	8000edc <memcpy+0xcc>
 8000f28:	3a01      	subs	r2, #1
 8000f2a:	f811 3b01 	ldrb.w	r3, [r1], #1
 8000f2e:	f800 3b01 	strb.w	r3, [r0], #1
 8000f32:	d2f9      	bcs.n	8000f28 <memcpy+0x118>
 8000f34:	780b      	ldrb	r3, [r1, #0]
 8000f36:	7003      	strb	r3, [r0, #0]
 8000f38:	784b      	ldrb	r3, [r1, #1]
 8000f3a:	7043      	strb	r3, [r0, #1]
 8000f3c:	788b      	ldrb	r3, [r1, #2]
 8000f3e:	7083      	strb	r3, [r0, #2]
 8000f40:	4660      	mov	r0, ip
 8000f42:	4770      	bx	lr
	...

08000f50 <strlen>:
 8000f50:	f890 f000 	pld	[r0]
 8000f54:	e96d 4502 	strd	r4, r5, [sp, #-8]!
 8000f58:	f020 0107 	bic.w	r1, r0, #7
 8000f5c:	f06f 0c00 	mvn.w	ip, #0
 8000f60:	f010 0407 	ands.w	r4, r0, #7
 8000f64:	f891 f020 	pld	[r1, #32]
 8000f68:	f040 8049 	bne.w	8000ffe <strlen+0xae>
 8000f6c:	f04f 0400 	mov.w	r4, #0
 8000f70:	f06f 0007 	mvn.w	r0, #7
 8000f74:	e9d1 2300 	ldrd	r2, r3, [r1]
 8000f78:	f891 f040 	pld	[r1, #64]	; 0x40
 8000f7c:	f100 0008 	add.w	r0, r0, #8
 8000f80:	fa82 f24c 	uadd8	r2, r2, ip
 8000f84:	faa4 f28c 	sel	r2, r4, ip
 8000f88:	fa83 f34c 	uadd8	r3, r3, ip
 8000f8c:	faa2 f38c 	sel	r3, r2, ip
 8000f90:	bb4b      	cbnz	r3, 8000fe6 <strlen+0x96>
 8000f92:	e9d1 2302 	ldrd	r2, r3, [r1, #8]
 8000f96:	fa82 f24c 	uadd8	r2, r2, ip
 8000f9a:	f100 0008 	add.w	r0, r0, #8
 8000f9e:	faa4 f28c 	sel	r2, r4, ip
 8000fa2:	fa83 f34c 	uadd8	r3, r3, ip
 8000fa6:	faa2 f38c 	sel	r3, r2, ip
 8000faa:	b9e3      	cbnz	r3, 8000fe6 <strlen+0x96>
 8000fac:	e9d1 2304 	ldrd	r2, r3, [r1, #16]
 8000fb0:	fa82 f24c 	uadd8	r2, r2, ip
 8000fb4:	f100 0008 	add.w	r0, r0, #8
 8000fb8:	faa4 f28c 	sel	r2, r4, ip
 8000fbc:	fa83 f34c 	uadd8	r3, r3, ip
 8000fc0:	faa2 f38c 	sel	r3, r2, ip
 8000fc4:	b97b      	cbnz	r3, 8000fe6 <strlen+0x96>
 8000fc6:	e9d1 2306 	ldrd	r2, r3, [r1, #24]
 8000fca:	f101 0120 	add.w	r1, r1, #32
 8000fce:	fa82 f24c 	uadd8	r2, r2, ip
 8000fd2:	f100 0008 	add.w	r0, r0, #8
 8000fd6:	faa4 f28c 	sel	r2, r4, ip
 8000fda:	fa83 f34c 	uadd8	r3, r3, ip
 8000fde:	faa2 f38c 	sel	r3, r2, ip
 8000fe2:	2b00      	cmp	r3, #0
 8000fe4:	d0c6      	beq.n	8000f74 <strlen+0x24>
 8000fe6:	2a00      	cmp	r2, #0
 8000fe8:	bf04      	itt	eq
 8000fea:	3004      	addeq	r0, #4
 8000fec:	461a      	moveq	r2, r3
 8000fee:	ba12      	rev	r2, r2
 8000ff0:	fab2 f282 	clz	r2, r2
 8000ff4:	e8fd 4502 	ldrd	r4, r5, [sp], #8
 8000ff8:	eb00 00d2 	add.w	r0, r0, r2, lsr #3
 8000ffc:	4770      	bx	lr
 8000ffe:	e9d1 2300 	ldrd	r2, r3, [r1]
 8001002:	f004 0503 	and.w	r5, r4, #3
 8001006:	f1c4 0000 	rsb	r0, r4, #0
 800100a:	ea4f 05c5 	mov.w	r5, r5, lsl #3
 800100e:	f014 0f04 	tst.w	r4, #4
 8001012:	f891 f040 	pld	[r1, #64]	; 0x40
 8001016:	fa0c f505 	lsl.w	r5, ip, r5
 800101a:	ea62 0205 	orn	r2, r2, r5
 800101e:	bf1c      	itt	ne
 8001020:	ea63 0305 	ornne	r3, r3, r5
 8001024:	4662      	movne	r2, ip
 8001026:	f04f 0400 	mov.w	r4, #0
 800102a:	e7a9      	b.n	8000f80 <strlen+0x30>
 800102c:	0000      	movs	r0, r0
	...

08001030 <memchr>:
 8001030:	f001 01ff 	and.w	r1, r1, #255	; 0xff
 8001034:	2a10      	cmp	r2, #16
 8001036:	db2b      	blt.n	8001090 <memchr+0x60>
 8001038:	f010 0f07 	tst.w	r0, #7
 800103c:	d008      	beq.n	8001050 <memchr+0x20>
 800103e:	f810 3b01 	ldrb.w	r3, [r0], #1
 8001042:	3a01      	subs	r2, #1
 8001044:	428b      	cmp	r3, r1
 8001046:	d02d      	beq.n	80010a4 <memchr+0x74>
 8001048:	f010 0f07 	tst.w	r0, #7
 800104c:	b342      	cbz	r2, 80010a0 <memchr+0x70>
 800104e:	d1f6      	bne.n	800103e <memchr+0xe>
 8001050:	b4f0      	push	{r4, r5, r6, r7}
 8001052:	ea41 2101 	orr.w	r1, r1, r1, lsl #8
 8001056:	ea41 4101 	orr.w	r1, r1, r1, lsl #16
 800105a:	f022 0407 	bic.w	r4, r2, #7
 800105e:	f07f 0700 	mvns.w	r7, #0
 8001062:	2300      	movs	r3, #0
 8001064:	e8f0 5602 	ldrd	r5, r6, [r0], #8
 8001068:	3c08      	subs	r4, #8
 800106a:	ea85 0501 	eor.w	r5, r5, r1
 800106e:	ea86 0601 	eor.w	r6, r6, r1
 8001072:	fa85 f547 	uadd8	r5, r5, r7
 8001076:	faa3 f587 	sel	r5, r3, r7
 800107a:	fa86 f647 	uadd8	r6, r6, r7
 800107e:	faa5 f687 	sel	r6, r5, r7
 8001082:	b98e      	cbnz	r6, 80010a8 <memchr+0x78>
 8001084:	d1ee      	bne.n	8001064 <memchr+0x34>
 8001086:	bcf0      	pop	{r4, r5, r6, r7}
 8001088:	f001 01ff 	and.w	r1, r1, #255	; 0xff
 800108c:	f002 0207 	and.w	r2, r2, #7
 8001090:	b132      	cbz	r2, 80010a0 <memchr+0x70>
 8001092:	f810 3b01 	ldrb.w	r3, [r0], #1
 8001096:	3a01      	subs	r2, #1
 8001098:	ea83 0301 	eor.w	r3, r3, r1
 800109c:	b113      	cbz	r3, 80010a4 <memchr+0x74>
 800109e:	d1f8      	bne.n	8001092 <memchr+0x62>
 80010a0:	2000      	movs	r0, #0
 80010a2:	4770      	bx	lr
 80010a4:	3801      	subs	r0, #1
 80010a6:	4770      	bx	lr
 80010a8:	2d00      	cmp	r5, #0
 80010aa:	bf06      	itte	eq
 80010ac:	4635      	moveq	r5, r6
 80010ae:	3803      	subeq	r0, #3
 80010b0:	3807      	subne	r0, #7
 80010b2:	f015 0f01 	tst.w	r5, #1
 80010b6:	d107      	bne.n	80010c8 <memchr+0x98>
 80010b8:	3001      	adds	r0, #1
 80010ba:	f415 7f80 	tst.w	r5, #256	; 0x100
 80010be:	bf02      	ittt	eq
 80010c0:	3001      	addeq	r0, #1
 80010c2:	f415 3fc0 	tsteq.w	r5, #98304	; 0x18000
 80010c6:	3001      	addeq	r0, #1
 80010c8:	bcf0      	pop	{r4, r5, r6, r7}
 80010ca:	3801      	subs	r0, #1
 80010cc:	4770      	bx	lr
 80010ce:	bf00      	nop

080010d0 <__gedf2>:
 80010d0:	f04f 3cff 	mov.w	ip, #4294967295
 80010d4:	e006      	b.n	80010e4 <__cmpdf2+0x4>
 80010d6:	bf00      	nop

080010d8 <__ledf2>:
 80010d8:	f04f 0c01 	mov.w	ip, #1
 80010dc:	e002      	b.n	80010e4 <__cmpdf2+0x4>
 80010de:	bf00      	nop

080010e0 <__cmpdf2>:
 80010e0:	f04f 0c01 	mov.w	ip, #1
 80010e4:	f84d cd04 	str.w	ip, [sp, #-4]!
 80010e8:	ea4f 0c41 	mov.w	ip, r1, lsl #1
 80010ec:	ea7f 5c6c 	mvns.w	ip, ip, asr #21
 80010f0:	ea4f 0c43 	mov.w	ip, r3, lsl #1
 80010f4:	bf18      	it	ne
 80010f6:	ea7f 5c6c 	mvnsne.w	ip, ip, asr #21
 80010fa:	d01b      	beq.n	8001134 <__cmpdf2+0x54>
 80010fc:	b001      	add	sp, #4
 80010fe:	ea50 0c41 	orrs.w	ip, r0, r1, lsl #1
 8001102:	bf0c      	ite	eq
 8001104:	ea52 0c43 	orrseq.w	ip, r2, r3, lsl #1
 8001108:	ea91 0f03 	teqne	r1, r3
 800110c:	bf02      	ittt	eq
 800110e:	ea90 0f02 	teqeq	r0, r2
 8001112:	2000      	moveq	r0, #0
 8001114:	4770      	bxeq	lr
 8001116:	f110 0f00 	cmn.w	r0, #0
 800111a:	ea91 0f03 	teq	r1, r3
 800111e:	bf58      	it	pl
 8001120:	4299      	cmppl	r1, r3
 8001122:	bf08      	it	eq
 8001124:	4290      	cmpeq	r0, r2
 8001126:	bf2c      	ite	cs
 8001128:	17d8      	asrcs	r0, r3, #31
 800112a:	ea6f 70e3 	mvncc.w	r0, r3, asr #31
 800112e:	f040 0001 	orr.w	r0, r0, #1
 8001132:	4770      	bx	lr
 8001134:	ea4f 0c41 	mov.w	ip, r1, lsl #1
 8001138:	ea7f 5c6c 	mvns.w	ip, ip, asr #21
 800113c:	d102      	bne.n	8001144 <__cmpdf2+0x64>
 800113e:	ea50 3c01 	orrs.w	ip, r0, r1, lsl #12
 8001142:	d107      	bne.n	8001154 <__cmpdf2+0x74>
 8001144:	ea4f 0c43 	mov.w	ip, r3, lsl #1
 8001148:	ea7f 5c6c 	mvns.w	ip, ip, asr #21
 800114c:	d1d6      	bne.n	80010fc <__cmpdf2+0x1c>
 800114e:	ea52 3c03 	orrs.w	ip, r2, r3, lsl #12
 8001152:	d0d3      	beq.n	80010fc <__cmpdf2+0x1c>
 8001154:	f85d 0b04 	ldr.w	r0, [sp], #4
 8001158:	4770      	bx	lr
 800115a:	bf00      	nop

0800115c <__aeabi_cdrcmple>:
 800115c:	4684      	mov	ip, r0
 800115e:	4610      	mov	r0, r2
 8001160:	4662      	mov	r2, ip
 8001162:	468c      	mov	ip, r1
 8001164:	4619      	mov	r1, r3
 8001166:	4663      	mov	r3, ip
 8001168:	e000      	b.n	800116c <__aeabi_cdcmpeq>
 800116a:	bf00      	nop

0800116c <__aeabi_cdcmpeq>:
 800116c:	b501      	push	{r0, lr}
 800116e:	f7ff ffb7 	bl	80010e0 <__cmpdf2>
 8001172:	2800      	cmp	r0, #0
 8001174:	bf48      	it	mi
 8001176:	f110 0f00 	cmnmi.w	r0, #0
 800117a:	bd01      	pop	{r0, pc}

0800117c <__aeabi_dcmpeq>:
 800117c:	f84d ed08 	str.w	lr, [sp, #-8]!
 8001180:	f7ff fff4 	bl	800116c <__aeabi_cdcmpeq>
 8001184:	bf0c      	ite	eq
 8001186:	2001      	moveq	r0, #1
 8001188:	2000      	movne	r0, #0
 800118a:	f85d fb08 	ldr.w	pc, [sp], #8
 800118e:	bf00      	nop

08001190 <__aeabi_dcmplt>:
 8001190:	f84d ed08 	str.w	lr, [sp, #-8]!
 8001194:	f7ff ffea 	bl	800116c <__aeabi_cdcmpeq>
 8001198:	bf34      	ite	cc
 800119a:	2001      	movcc	r0, #1
 800119c:	2000      	movcs	r0, #0
 800119e:	f85d fb08 	ldr.w	pc, [sp], #8
 80011a2:	bf00      	nop

080011a4 <__aeabi_dcmple>:
 80011a4:	f84d ed08 	str.w	lr, [sp, #-8]!
 80011a8:	f7ff ffe0 	bl	800116c <__aeabi_cdcmpeq>
 80011ac:	bf94      	ite	ls
 80011ae:	2001      	movls	r0, #1
 80011b0:	2000      	movhi	r0, #0
 80011b2:	f85d fb08 	ldr.w	pc, [sp], #8
 80011b6:	bf00      	nop

080011b8 <__aeabi_dcmpge>:
 80011b8:	f84d ed08 	str.w	lr, [sp, #-8]!
 80011bc:	f7ff ffce 	bl	800115c <__aeabi_cdrcmple>
 80011c0:	bf94      	ite	ls
 80011c2:	2001      	movls	r0, #1
 80011c4:	2000      	movhi	r0, #0
 80011c6:	f85d fb08 	ldr.w	pc, [sp], #8
 80011ca:	bf00      	nop

080011cc <__aeabi_dcmpgt>:
 80011cc:	f84d ed08 	str.w	lr, [sp, #-8]!
 80011d0:	f7ff ffc4 	bl	800115c <__aeabi_cdrcmple>
 80011d4:	bf34      	ite	cc
 80011d6:	2001      	movcc	r0, #1
 80011d8:	2000      	movcs	r0, #0
 80011da:	f85d fb08 	ldr.w	pc, [sp], #8
 80011de:	bf00      	nop

080011e0 <__aeabi_dcmpun>:
 80011e0:	ea4f 0c41 	mov.w	ip, r1, lsl #1
 80011e4:	ea7f 5c6c 	mvns.w	ip, ip, asr #21
 80011e8:	d102      	bne.n	80011f0 <__aeabi_dcmpun+0x10>
 80011ea:	ea50 3c01 	orrs.w	ip, r0, r1, lsl #12
 80011ee:	d10a      	bne.n	8001206 <__aeabi_dcmpun+0x26>
 80011f0:	ea4f 0c43 	mov.w	ip, r3, lsl #1
 80011f4:	ea7f 5c6c 	mvns.w	ip, ip, asr #21
 80011f8:	d102      	bne.n	8001200 <__aeabi_dcmpun+0x20>
 80011fa:	ea52 3c03 	orrs.w	ip, r2, r3, lsl #12
 80011fe:	d102      	bne.n	8001206 <__aeabi_dcmpun+0x26>
 8001200:	f04f 0000 	mov.w	r0, #0
 8001204:	4770      	bx	lr
 8001206:	f04f 0001 	mov.w	r0, #1
 800120a:	4770      	bx	lr
 800120c:	0000      	movs	r0, r0
	...

08001210 <main>:
 8001210:	b500      	push	{lr}
 8001212:	4b10      	ldr	r3, [pc, #64]	; (8001254 <main+0x44>)
 8001214:	b083      	sub	sp, #12
 8001216:	681b      	ldr	r3, [r3, #0]
 8001218:	9301      	str	r3, [sp, #4]
 800121a:	f003 f8a1 	bl	8004360 <halInit>
 800121e:	f001 f99f 	bl	8002560 <chSysInit>
 8001222:	f000 fd15 	bl	8001c50 <mpu_init>
 8001226:	490c      	ldr	r1, [pc, #48]	; (8001258 <main+0x48>)
 8001228:	480c      	ldr	r0, [pc, #48]	; (800125c <main+0x4c>)
 800122a:	f004 fad9 	bl	80057e0 <sdStart>
 800122e:	f001 f8cf 	bl	80023d0 <usb_start>
 8001232:	f000 f905 	bl	8001440 <dcmi_start>
 8001236:	f000 fbdb 	bl	80019f0 <po8030_start>
 800123a:	f000 ffc9 	bl	80021d0 <motors_init>
 800123e:	f44f 7096 	mov.w	r0, #300	; 0x12c
 8001242:	f000 ffad 	bl	80021a0 <left_motor_set_speed>
 8001246:	f001 f83b 	bl	80022c0 <get_selector>
 800124a:	f44f 707a 	mov.w	r0, #1000	; 0x3e8
 800124e:	f001 ffc7 	bl	80031e0 <chThdSleep>
 8001252:	e7fa      	b.n	800124a <main+0x3a>
 8001254:	20000800 	.word	0x20000800
 8001258:	20000804 	.word	0x20000804
 800125c:	20002364 	.word	0x20002364

08001260 <__stack_chk_fail>:
 8001260:	b500      	push	{lr}
 8001262:	4b08      	ldr	r3, [pc, #32]	; (8001284 <__stack_chk_fail+0x24>)
 8001264:	b083      	sub	sp, #12
 8001266:	681a      	ldr	r2, [r3, #0]
 8001268:	9201      	str	r2, [sp, #4]
 800126a:	9a01      	ldr	r2, [sp, #4]
 800126c:	681b      	ldr	r3, [r3, #0]
 800126e:	429a      	cmp	r2, r3
 8001270:	d105      	bne.n	800127e <__stack_chk_fail+0x1e>
 8001272:	4805      	ldr	r0, [pc, #20]	; (8001288 <__stack_chk_fail+0x28>)
 8001274:	b003      	add	sp, #12
 8001276:	f85d eb04 	ldr.w	lr, [sp], #4
 800127a:	f001 b9d9 	b.w	8002630 <chSysHalt>
 800127e:	f7ff ffef 	bl	8001260 <__stack_chk_fail>
 8001282:	bf00      	nop
 8001284:	20000800 	.word	0x20000800
 8001288:	0800e480 	.word	0x0800e480
 800128c:	00000000 	.word	0x00000000

08001290 <dcmi_lld_stop_stream.part.0>:
 8001290:	b530      	push	{r4, r5, lr}
 8001292:	4d10      	ldr	r5, [pc, #64]	; (80012d4 <dcmi_lld_stop_stream.part.0+0x44>)
 8001294:	6881      	ldr	r1, [r0, #8]
 8001296:	682b      	ldr	r3, [r5, #0]
 8001298:	4a0f      	ldr	r2, [pc, #60]	; (80012d8 <dcmi_lld_stop_stream.part.0+0x48>)
 800129a:	b083      	sub	sp, #12
 800129c:	9301      	str	r3, [sp, #4]
 800129e:	680b      	ldr	r3, [r1, #0]
 80012a0:	f023 0301 	bic.w	r3, r3, #1
 80012a4:	600b      	str	r3, [r1, #0]
 80012a6:	6881      	ldr	r1, [r0, #8]
 80012a8:	6a94      	ldr	r4, [r2, #40]	; 0x28
 80012aa:	e003      	b.n	80012b4 <dcmi_lld_stop_stream.part.0+0x24>
 80012ac:	6a93      	ldr	r3, [r2, #40]	; 0x28
 80012ae:	1b1b      	subs	r3, r3, r4
 80012b0:	2bc7      	cmp	r3, #199	; 0xc7
 80012b2:	d809      	bhi.n	80012c8 <dcmi_lld_stop_stream.part.0+0x38>
 80012b4:	6808      	ldr	r0, [r1, #0]
 80012b6:	f010 0001 	ands.w	r0, r0, #1
 80012ba:	d1f7      	bne.n	80012ac <dcmi_lld_stop_stream.part.0+0x1c>
 80012bc:	9a01      	ldr	r2, [sp, #4]
 80012be:	682b      	ldr	r3, [r5, #0]
 80012c0:	429a      	cmp	r2, r3
 80012c2:	d104      	bne.n	80012ce <dcmi_lld_stop_stream.part.0+0x3e>
 80012c4:	b003      	add	sp, #12
 80012c6:	bd30      	pop	{r4, r5, pc}
 80012c8:	f04f 30ff 	mov.w	r0, #4294967295
 80012cc:	e7f6      	b.n	80012bc <dcmi_lld_stop_stream.part.0+0x2c>
 80012ce:	f7ff ffc7 	bl	8001260 <__stack_chk_fail>
 80012d2:	bf00      	nop
 80012d4:	20000800 	.word	0x20000800
 80012d8:	20001540 	.word	0x20001540
 80012dc:	00000000 	.word	0x00000000

080012e0 <Vector178>:
 80012e0:	b5f0      	push	{r4, r5, r6, r7, lr}
 80012e2:	4d28      	ldr	r5, [pc, #160]	; (8001384 <Vector178+0xa4>)
 80012e4:	b083      	sub	sp, #12
 80012e6:	682b      	ldr	r3, [r5, #0]
 80012e8:	9301      	str	r3, [sp, #4]
 80012ea:	f002 fa01 	bl	80036f0 <_stats_increase_irq>
 80012ee:	f001 fabf 	bl	8002870 <_dbg_check_enter_isr>
 80012f2:	4b25      	ldr	r3, [pc, #148]	; (8001388 <Vector178+0xa8>)
 80012f4:	691e      	ldr	r6, [r3, #16]
 80012f6:	07f2      	lsls	r2, r6, #31
 80012f8:	d515      	bpl.n	8001326 <Vector178+0x46>
 80012fa:	695a      	ldr	r2, [r3, #20]
 80012fc:	4c23      	ldr	r4, [pc, #140]	; (800138c <Vector178+0xac>)
 80012fe:	f042 0201 	orr.w	r2, r2, #1
 8001302:	615a      	str	r2, [r3, #20]
 8001304:	7827      	ldrb	r7, [r4, #0]
 8001306:	1fbb      	subs	r3, r7, #6
 8001308:	2b01      	cmp	r3, #1
 800130a:	d92a      	bls.n	8001362 <Vector178+0x82>
 800130c:	2205      	movs	r2, #5
 800130e:	6863      	ldr	r3, [r4, #4]
 8001310:	7022      	strb	r2, [r4, #0]
 8001312:	681b      	ldr	r3, [r3, #0]
 8001314:	b10b      	cbz	r3, 800131a <Vector178+0x3a>
 8001316:	4620      	mov	r0, r4
 8001318:	4798      	blx	r3
 800131a:	2f04      	cmp	r7, #4
 800131c:	d027      	beq.n	800136e <Vector178+0x8e>
 800131e:	2f02      	cmp	r7, #2
 8001320:	d025      	beq.n	800136e <Vector178+0x8e>
 8001322:	2303      	movs	r3, #3
 8001324:	7023      	strb	r3, [r4, #0]
 8001326:	07b3      	lsls	r3, r6, #30
 8001328:	d510      	bpl.n	800134c <Vector178+0x6c>
 800132a:	4a17      	ldr	r2, [pc, #92]	; (8001388 <Vector178+0xa8>)
 800132c:	4c17      	ldr	r4, [pc, #92]	; (800138c <Vector178+0xac>)
 800132e:	6953      	ldr	r3, [r2, #20]
 8001330:	f043 0302 	orr.w	r3, r3, #2
 8001334:	6153      	str	r3, [r2, #20]
 8001336:	7823      	ldrb	r3, [r4, #0]
 8001338:	2b03      	cmp	r3, #3
 800133a:	d01d      	beq.n	8001378 <Vector178+0x98>
 800133c:	6863      	ldr	r3, [r4, #4]
 800133e:	689b      	ldr	r3, [r3, #8]
 8001340:	2206      	movs	r2, #6
 8001342:	7022      	strb	r2, [r4, #0]
 8001344:	b113      	cbz	r3, 800134c <Vector178+0x6c>
 8001346:	2101      	movs	r1, #1
 8001348:	4810      	ldr	r0, [pc, #64]	; (800138c <Vector178+0xac>)
 800134a:	4798      	blx	r3
 800134c:	f001 fab8 	bl	80028c0 <_dbg_check_leave_isr>
 8001350:	9a01      	ldr	r2, [sp, #4]
 8001352:	682b      	ldr	r3, [r5, #0]
 8001354:	429a      	cmp	r2, r3
 8001356:	d113      	bne.n	8001380 <Vector178+0xa0>
 8001358:	b003      	add	sp, #12
 800135a:	e8bd 40f0 	ldmia.w	sp!, {r4, r5, r6, r7, lr}
 800135e:	f002 bfbf 	b.w	80042e0 <_port_irq_epilogue>
 8001362:	9a01      	ldr	r2, [sp, #4]
 8001364:	682b      	ldr	r3, [r5, #0]
 8001366:	429a      	cmp	r2, r3
 8001368:	d10a      	bne.n	8001380 <Vector178+0xa0>
 800136a:	b003      	add	sp, #12
 800136c:	bdf0      	pop	{r4, r5, r6, r7, pc}
 800136e:	2302      	movs	r3, #2
 8001370:	7023      	strb	r3, [r4, #0]
 8001372:	07b3      	lsls	r3, r6, #30
 8001374:	d5ea      	bpl.n	800134c <Vector178+0x6c>
 8001376:	e7d8      	b.n	800132a <Vector178+0x4a>
 8001378:	4620      	mov	r0, r4
 800137a:	f7ff ff89 	bl	8001290 <dcmi_lld_stop_stream.part.0>
 800137e:	e7dd      	b.n	800133c <Vector178+0x5c>
 8001380:	f7ff ff6e 	bl	8001260 <__stack_chk_fail>
 8001384:	20000800 	.word	0x20000800
 8001388:	50050000 	.word	0x50050000
 800138c:	200011d8 	.word	0x200011d8

08001390 <dcmi_lld_init>:
 8001390:	b530      	push	{r4, r5, lr}
 8001392:	4d0b      	ldr	r5, [pc, #44]	; (80013c0 <dcmi_lld_init+0x30>)
 8001394:	4c0b      	ldr	r4, [pc, #44]	; (80013c4 <dcmi_lld_init+0x34>)
 8001396:	682b      	ldr	r3, [r5, #0]
 8001398:	b083      	sub	sp, #12
 800139a:	4620      	mov	r0, r4
 800139c:	9301      	str	r3, [sp, #4]
 800139e:	f000 f837 	bl	8001410 <dcmiObjectInit>
 80013a2:	9a01      	ldr	r2, [sp, #4]
 80013a4:	682b      	ldr	r3, [r5, #0]
 80013a6:	4808      	ldr	r0, [pc, #32]	; (80013c8 <dcmi_lld_init+0x38>)
 80013a8:	4d08      	ldr	r5, [pc, #32]	; (80013cc <dcmi_lld_init+0x3c>)
 80013aa:	4909      	ldr	r1, [pc, #36]	; (80013d0 <dcmi_lld_init+0x40>)
 80013ac:	6121      	str	r1, [r4, #16]
 80013ae:	429a      	cmp	r2, r3
 80013b0:	e9c4 5002 	strd	r5, r0, [r4, #8]
 80013b4:	d101      	bne.n	80013ba <dcmi_lld_init+0x2a>
 80013b6:	b003      	add	sp, #12
 80013b8:	bd30      	pop	{r4, r5, pc}
 80013ba:	f7ff ff51 	bl	8001260 <__stack_chk_fail>
 80013be:	bf00      	nop
 80013c0:	20000800 	.word	0x20000800
 80013c4:	200011d8 	.word	0x200011d8
 80013c8:	0800eedc 	.word	0x0800eedc
 80013cc:	50050000 	.word	0x50050000
 80013d0:	02025516 	.word	0x02025516
	...

080013e0 <dcmiInit>:
 80013e0:	b500      	push	{lr}
 80013e2:	4b07      	ldr	r3, [pc, #28]	; (8001400 <dcmiInit+0x20>)
 80013e4:	b083      	sub	sp, #12
 80013e6:	681a      	ldr	r2, [r3, #0]
 80013e8:	9201      	str	r2, [sp, #4]
 80013ea:	9a01      	ldr	r2, [sp, #4]
 80013ec:	681b      	ldr	r3, [r3, #0]
 80013ee:	429a      	cmp	r2, r3
 80013f0:	d104      	bne.n	80013fc <dcmiInit+0x1c>
 80013f2:	b003      	add	sp, #12
 80013f4:	f85d eb04 	ldr.w	lr, [sp], #4
 80013f8:	f7ff bfca 	b.w	8001390 <dcmi_lld_init>
 80013fc:	f7ff ff30 	bl	8001260 <__stack_chk_fail>
 8001400:	20000800 	.word	0x20000800
	...

08001410 <dcmiObjectInit>:
 8001410:	b500      	push	{lr}
 8001412:	4b08      	ldr	r3, [pc, #32]	; (8001434 <dcmiObjectInit+0x24>)
 8001414:	b083      	sub	sp, #12
 8001416:	681a      	ldr	r2, [r3, #0]
 8001418:	9201      	str	r2, [sp, #4]
 800141a:	2201      	movs	r2, #1
 800141c:	7002      	strb	r2, [r0, #0]
 800141e:	9a01      	ldr	r2, [sp, #4]
 8001420:	681b      	ldr	r3, [r3, #0]
 8001422:	2100      	movs	r1, #0
 8001424:	429a      	cmp	r2, r3
 8001426:	6041      	str	r1, [r0, #4]
 8001428:	d102      	bne.n	8001430 <dcmiObjectInit+0x20>
 800142a:	b003      	add	sp, #12
 800142c:	f85d fb04 	ldr.w	pc, [sp], #4
 8001430:	f7ff ff16 	bl	8001260 <__stack_chk_fail>
 8001434:	20000800 	.word	0x20000800
	...

08001440 <dcmi_start>:
 8001440:	b530      	push	{r4, r5, lr}
 8001442:	4d0e      	ldr	r5, [pc, #56]	; (800147c <dcmi_start+0x3c>)
 8001444:	4c0e      	ldr	r4, [pc, #56]	; (8001480 <dcmi_start+0x40>)
 8001446:	682b      	ldr	r3, [r5, #0]
 8001448:	b083      	sub	sp, #12
 800144a:	9301      	str	r3, [sp, #4]
 800144c:	f7ff ffc8 	bl	80013e0 <dcmiInit>
 8001450:	6820      	ldr	r0, [r4, #0]
 8001452:	b108      	cbz	r0, 8001458 <dcmi_start+0x18>
 8001454:	f009 fb7c 	bl	800ab50 <free>
 8001458:	f44f 4096 	mov.w	r0, #19200	; 0x4b00
 800145c:	f009 fb70 	bl	800ab40 <malloc>
 8001460:	9901      	ldr	r1, [sp, #4]
 8001462:	682a      	ldr	r2, [r5, #0]
 8001464:	6020      	str	r0, [r4, #0]
 8001466:	fab0 f380 	clz	r3, r0
 800146a:	095b      	lsrs	r3, r3, #5
 800146c:	4291      	cmp	r1, r2
 800146e:	f1c3 0000 	rsb	r0, r3, #0
 8001472:	d101      	bne.n	8001478 <dcmi_start+0x38>
 8001474:	b003      	add	sp, #12
 8001476:	bd30      	pop	{r4, r5, pc}
 8001478:	f7ff fef2 	bl	8001260 <__stack_chk_fail>
 800147c:	20000800 	.word	0x20000800
 8001480:	200011ec 	.word	0x200011ec
	...

08001490 <po8030_set_format>:
 8001490:	b570      	push	{r4, r5, r6, lr}
 8001492:	4d27      	ldr	r5, [pc, #156]	; (8001530 <po8030_set_format+0xa0>)
 8001494:	b082      	sub	sp, #8
 8001496:	682b      	ldr	r3, [r5, #0]
 8001498:	9301      	str	r3, [sp, #4]
 800149a:	4606      	mov	r6, r0
 800149c:	2201      	movs	r2, #1
 800149e:	2103      	movs	r1, #3
 80014a0:	206e      	movs	r0, #110	; 0x6e
 80014a2:	f000 fb2d 	bl	8001b00 <write_reg>
 80014a6:	4604      	mov	r4, r0
 80014a8:	b130      	cbz	r0, 80014b8 <po8030_set_format+0x28>
 80014aa:	9a01      	ldr	r2, [sp, #4]
 80014ac:	682b      	ldr	r3, [r5, #0]
 80014ae:	429a      	cmp	r2, r3
 80014b0:	4620      	mov	r0, r4
 80014b2:	d13a      	bne.n	800152a <po8030_set_format+0x9a>
 80014b4:	b002      	add	sp, #8
 80014b6:	bd70      	pop	{r4, r5, r6, pc}
 80014b8:	4632      	mov	r2, r6
 80014ba:	214e      	movs	r1, #78	; 0x4e
 80014bc:	206e      	movs	r0, #110	; 0x6e
 80014be:	f000 fb1f 	bl	8001b00 <write_reg>
 80014c2:	4604      	mov	r4, r0
 80014c4:	2800      	cmp	r0, #0
 80014c6:	d1f0      	bne.n	80014aa <po8030_set_format+0x1a>
 80014c8:	2e44      	cmp	r6, #68	; 0x44
 80014ca:	d007      	beq.n	80014dc <po8030_set_format+0x4c>
 80014cc:	4602      	mov	r2, r0
 80014ce:	21b7      	movs	r1, #183	; 0xb7
 80014d0:	206e      	movs	r0, #110	; 0x6e
 80014d2:	f000 fb15 	bl	8001b00 <write_reg>
 80014d6:	b1b8      	cbz	r0, 8001508 <po8030_set_format+0x78>
 80014d8:	4604      	mov	r4, r0
 80014da:	e7e6      	b.n	80014aa <po8030_set_format+0x1a>
 80014dc:	2201      	movs	r2, #1
 80014de:	21b7      	movs	r1, #183	; 0xb7
 80014e0:	206e      	movs	r0, #110	; 0x6e
 80014e2:	f000 fb0d 	bl	8001b00 <write_reg>
 80014e6:	2800      	cmp	r0, #0
 80014e8:	d1f6      	bne.n	80014d8 <po8030_set_format+0x48>
 80014ea:	4622      	mov	r2, r4
 80014ec:	2103      	movs	r1, #3
 80014ee:	206e      	movs	r0, #110	; 0x6e
 80014f0:	f000 fb06 	bl	8001b00 <write_reg>
 80014f4:	2800      	cmp	r0, #0
 80014f6:	d1ef      	bne.n	80014d8 <po8030_set_format+0x48>
 80014f8:	2203      	movs	r2, #3
 80014fa:	2111      	movs	r1, #17
 80014fc:	206e      	movs	r0, #110	; 0x6e
 80014fe:	f000 faff 	bl	8001b00 <write_reg>
 8001502:	b178      	cbz	r0, 8001524 <po8030_set_format+0x94>
 8001504:	4604      	mov	r4, r0
 8001506:	e7d0      	b.n	80014aa <po8030_set_format+0x1a>
 8001508:	4622      	mov	r2, r4
 800150a:	2103      	movs	r1, #3
 800150c:	206e      	movs	r0, #110	; 0x6e
 800150e:	f000 faf7 	bl	8001b00 <write_reg>
 8001512:	2800      	cmp	r0, #0
 8001514:	d1e0      	bne.n	80014d8 <po8030_set_format+0x48>
 8001516:	220a      	movs	r2, #10
 8001518:	2111      	movs	r1, #17
 800151a:	206e      	movs	r0, #110	; 0x6e
 800151c:	f000 faf0 	bl	8001b00 <write_reg>
 8001520:	2800      	cmp	r0, #0
 8001522:	d1d9      	bne.n	80014d8 <po8030_set_format+0x48>
 8001524:	4b03      	ldr	r3, [pc, #12]	; (8001534 <po8030_set_format+0xa4>)
 8001526:	711e      	strb	r6, [r3, #4]
 8001528:	e7bf      	b.n	80014aa <po8030_set_format+0x1a>
 800152a:	f7ff fe99 	bl	8001260 <__stack_chk_fail>
 800152e:	bf00      	nop
 8001530:	20000800 	.word	0x20000800
 8001534:	200011f0 	.word	0x200011f0
	...

08001540 <po8030_advanced_config>:
 8001540:	e92d 4ff0 	stmdb	sp!, {r4, r5, r6, r7, r8, r9, sl, fp, lr}
 8001544:	b08f      	sub	sp, #60	; 0x3c
 8001546:	f8df 8400 	ldr.w	r8, [pc, #1024]	; 8001948 <po8030_advanced_config+0x408>
 800154a:	f8dd c060 	ldr.w	ip, [sp, #96]	; 0x60
 800154e:	f8d8 4000 	ldr.w	r4, [r8]
 8001552:	940d      	str	r4, [sp, #52]	; 0x34
 8001554:	f10c 35ff 	add.w	r5, ip, #4294967295
 8001558:	1e5c      	subs	r4, r3, #1
 800155a:	f5b3 7f20 	cmp.w	r3, #640	; 0x280
 800155e:	f89d 9064 	ldrb.w	r9, [sp, #100]	; 0x64
 8001562:	f89d b068 	ldrb.w	fp, [sp, #104]	; 0x68
 8001566:	440c      	add	r4, r1
 8001568:	4415      	add	r5, r2
 800156a:	f200 8212 	bhi.w	8001992 <po8030_advanced_config+0x452>
 800156e:	f5bc 7ff0 	cmp.w	ip, #480	; 0x1e0
 8001572:	f200 820e 	bhi.w	8001992 <po8030_advanced_config+0x452>
 8001576:	f5b1 7f20 	cmp.w	r1, #640	; 0x280
 800157a:	460e      	mov	r6, r1
 800157c:	f200 8212 	bhi.w	80019a4 <po8030_advanced_config+0x464>
 8001580:	f5b2 7ff0 	cmp.w	r2, #480	; 0x1e0
 8001584:	4617      	mov	r7, r2
 8001586:	f200 8210 	bhi.w	80019aa <po8030_advanced_config+0x46a>
 800158a:	42a1      	cmp	r1, r4
 800158c:	f080 8204 	bcs.w	8001998 <po8030_advanced_config+0x458>
 8001590:	f5b4 7f20 	cmp.w	r4, #640	; 0x280
 8001594:	f200 8200 	bhi.w	8001998 <po8030_advanced_config+0x458>
 8001598:	42aa      	cmp	r2, r5
 800159a:	f080 8200 	bcs.w	800199e <po8030_advanced_config+0x45e>
 800159e:	f5b5 7ff0 	cmp.w	r5, #480	; 0x1e0
 80015a2:	f200 81fc 	bhi.w	800199e <po8030_advanced_config+0x45e>
 80015a6:	f1b9 0f40 	cmp.w	r9, #64	; 0x40
 80015aa:	4682      	mov	sl, r0
 80015ac:	f000 81b0 	beq.w	8001910 <po8030_advanced_config+0x3d0>
 80015b0:	f1b9 0f80 	cmp.w	r9, #128	; 0x80
 80015b4:	d023      	beq.n	80015fe <po8030_advanced_config+0xbe>
 80015b6:	f1b9 0f20 	cmp.w	r9, #32
 80015ba:	f000 819c 	beq.w	80018f6 <po8030_advanced_config+0x3b6>
 80015be:	2300      	movs	r3, #0
 80015c0:	e9cd 3300 	strd	r3, r3, [sp]
 80015c4:	f1bb 0f40 	cmp.w	fp, #64	; 0x40
 80015c8:	d02f      	beq.n	800162a <po8030_advanced_config+0xea>
 80015ca:	f1bb 0f80 	cmp.w	fp, #128	; 0x80
 80015ce:	f000 81cb 	beq.w	8001968 <po8030_advanced_config+0x428>
 80015d2:	f1bb 0f20 	cmp.w	fp, #32
 80015d6:	f000 81b9 	beq.w	800194c <po8030_advanced_config+0x40c>
 80015da:	2300      	movs	r3, #0
 80015dc:	e9cd 3302 	strd	r3, r3, [sp, #8]
 80015e0:	2200      	movs	r2, #0
 80015e2:	2103      	movs	r1, #3
 80015e4:	206e      	movs	r0, #110	; 0x6e
 80015e6:	f000 fa8b 	bl	8001b00 <write_reg>
 80015ea:	b3a0      	cbz	r0, 8001656 <po8030_advanced_config+0x116>
 80015ec:	9a0d      	ldr	r2, [sp, #52]	; 0x34
 80015ee:	f8d8 3000 	ldr.w	r3, [r8]
 80015f2:	429a      	cmp	r2, r3
 80015f4:	f040 81e2 	bne.w	80019bc <po8030_advanced_config+0x47c>
 80015f8:	b00f      	add	sp, #60	; 0x3c
 80015fa:	e8bd 8ff0 	ldmia.w	sp!, {r4, r5, r6, r7, r8, r9, sl, fp, pc}
 80015fe:	079a      	lsls	r2, r3, #30
 8001600:	f040 81d6 	bne.w	80019b0 <po8030_advanced_config+0x470>
 8001604:	4acc      	ldr	r2, [pc, #816]	; (8001938 <po8030_advanced_config+0x3f8>)
 8001606:	088c      	lsrs	r4, r1, #2
 8001608:	0059      	lsls	r1, r3, #1
 800160a:	1c66      	adds	r6, r4, #1
 800160c:	fba2 0101 	umull	r0, r1, r2, r1
 8001610:	fba2 0203 	umull	r0, r2, r2, r3
 8001614:	eb04 0493 	add.w	r4, r4, r3, lsr #2
 8001618:	eb06 03d2 	add.w	r3, r6, r2, lsr #3
 800161c:	9300      	str	r3, [sp, #0]
 800161e:	f1bb 0f40 	cmp.w	fp, #64	; 0x40
 8001622:	eb06 03d1 	add.w	r3, r6, r1, lsr #3
 8001626:	9301      	str	r3, [sp, #4]
 8001628:	d1cf      	bne.n	80015ca <po8030_advanced_config+0x8a>
 800162a:	f01c 0f01 	tst.w	ip, #1
 800162e:	f040 81c2 	bne.w	80019b6 <po8030_advanced_config+0x476>
 8001632:	4bc1      	ldr	r3, [pc, #772]	; (8001938 <po8030_advanced_config+0x3f8>)
 8001634:	087d      	lsrs	r5, r7, #1
 8001636:	ea4f 024c 	mov.w	r2, ip, lsl #1
 800163a:	1c6f      	adds	r7, r5, #1
 800163c:	fba3 1202 	umull	r1, r2, r3, r2
 8001640:	fba3 130c 	umull	r1, r3, r3, ip
 8001644:	eb07 0393 	add.w	r3, r7, r3, lsr #2
 8001648:	9302      	str	r3, [sp, #8]
 800164a:	eb07 0392 	add.w	r3, r7, r2, lsr #2
 800164e:	eb05 055c 	add.w	r5, r5, ip, lsr #1
 8001652:	9303      	str	r3, [sp, #12]
 8001654:	e7c4      	b.n	80015e0 <po8030_advanced_config+0xa0>
 8001656:	4602      	mov	r2, r0
 8001658:	215b      	movs	r1, #91	; 0x5b
 800165a:	206e      	movs	r0, #110	; 0x6e
 800165c:	f000 fa50 	bl	8001b00 <write_reg>
 8001660:	2800      	cmp	r0, #0
 8001662:	d1c3      	bne.n	80015ec <po8030_advanced_config+0xac>
 8001664:	4650      	mov	r0, sl
 8001666:	f7ff ff13 	bl	8001490 <po8030_set_format>
 800166a:	2800      	cmp	r0, #0
 800166c:	d1be      	bne.n	80015ec <po8030_advanced_config+0xac>
 800166e:	4602      	mov	r2, r0
 8001670:	2103      	movs	r1, #3
 8001672:	206e      	movs	r0, #110	; 0x6e
 8001674:	f000 fa44 	bl	8001b00 <write_reg>
 8001678:	2800      	cmp	r0, #0
 800167a:	d1b7      	bne.n	80015ec <po8030_advanced_config+0xac>
 800167c:	f3c6 2307 	ubfx	r3, r6, #8, #8
 8001680:	461a      	mov	r2, r3
 8001682:	2108      	movs	r1, #8
 8001684:	206e      	movs	r0, #110	; 0x6e
 8001686:	9304      	str	r3, [sp, #16]
 8001688:	f000 fa3a 	bl	8001b00 <write_reg>
 800168c:	2800      	cmp	r0, #0
 800168e:	d1ad      	bne.n	80015ec <po8030_advanced_config+0xac>
 8001690:	b2f3      	uxtb	r3, r6
 8001692:	461a      	mov	r2, r3
 8001694:	2109      	movs	r1, #9
 8001696:	206e      	movs	r0, #110	; 0x6e
 8001698:	9305      	str	r3, [sp, #20]
 800169a:	f000 fa31 	bl	8001b00 <write_reg>
 800169e:	2800      	cmp	r0, #0
 80016a0:	d1a4      	bne.n	80015ec <po8030_advanced_config+0xac>
 80016a2:	f3c7 2307 	ubfx	r3, r7, #8, #8
 80016a6:	461a      	mov	r2, r3
 80016a8:	210a      	movs	r1, #10
 80016aa:	206e      	movs	r0, #110	; 0x6e
 80016ac:	9306      	str	r3, [sp, #24]
 80016ae:	f000 fa27 	bl	8001b00 <write_reg>
 80016b2:	2800      	cmp	r0, #0
 80016b4:	d19a      	bne.n	80015ec <po8030_advanced_config+0xac>
 80016b6:	b2fb      	uxtb	r3, r7
 80016b8:	461a      	mov	r2, r3
 80016ba:	210b      	movs	r1, #11
 80016bc:	206e      	movs	r0, #110	; 0x6e
 80016be:	9307      	str	r3, [sp, #28]
 80016c0:	f000 fa1e 	bl	8001b00 <write_reg>
 80016c4:	2800      	cmp	r0, #0
 80016c6:	d191      	bne.n	80015ec <po8030_advanced_config+0xac>
 80016c8:	f3c4 2307 	ubfx	r3, r4, #8, #8
 80016cc:	461a      	mov	r2, r3
 80016ce:	210c      	movs	r1, #12
 80016d0:	206e      	movs	r0, #110	; 0x6e
 80016d2:	9308      	str	r3, [sp, #32]
 80016d4:	f000 fa14 	bl	8001b00 <write_reg>
 80016d8:	2800      	cmp	r0, #0
 80016da:	d187      	bne.n	80015ec <po8030_advanced_config+0xac>
 80016dc:	b2e3      	uxtb	r3, r4
 80016de:	461a      	mov	r2, r3
 80016e0:	210d      	movs	r1, #13
 80016e2:	206e      	movs	r0, #110	; 0x6e
 80016e4:	9309      	str	r3, [sp, #36]	; 0x24
 80016e6:	f000 fa0b 	bl	8001b00 <write_reg>
 80016ea:	2800      	cmp	r0, #0
 80016ec:	f47f af7e 	bne.w	80015ec <po8030_advanced_config+0xac>
 80016f0:	f3c5 2307 	ubfx	r3, r5, #8, #8
 80016f4:	461a      	mov	r2, r3
 80016f6:	210e      	movs	r1, #14
 80016f8:	206e      	movs	r0, #110	; 0x6e
 80016fa:	930a      	str	r3, [sp, #40]	; 0x28
 80016fc:	f000 fa00 	bl	8001b00 <write_reg>
 8001700:	2800      	cmp	r0, #0
 8001702:	f47f af73 	bne.w	80015ec <po8030_advanced_config+0xac>
 8001706:	b2eb      	uxtb	r3, r5
 8001708:	461a      	mov	r2, r3
 800170a:	210f      	movs	r1, #15
 800170c:	206e      	movs	r0, #110	; 0x6e
 800170e:	930b      	str	r3, [sp, #44]	; 0x2c
 8001710:	f000 f9f6 	bl	8001b00 <write_reg>
 8001714:	2800      	cmp	r0, #0
 8001716:	f47f af69 	bne.w	80015ec <po8030_advanced_config+0xac>
 800171a:	9a04      	ldr	r2, [sp, #16]
 800171c:	2135      	movs	r1, #53	; 0x35
 800171e:	206e      	movs	r0, #110	; 0x6e
 8001720:	f000 f9ee 	bl	8001b00 <write_reg>
 8001724:	2800      	cmp	r0, #0
 8001726:	f47f af61 	bne.w	80015ec <po8030_advanced_config+0xac>
 800172a:	9a05      	ldr	r2, [sp, #20]
 800172c:	2136      	movs	r1, #54	; 0x36
 800172e:	206e      	movs	r0, #110	; 0x6e
 8001730:	f000 f9e6 	bl	8001b00 <write_reg>
 8001734:	2800      	cmp	r0, #0
 8001736:	f47f af59 	bne.w	80015ec <po8030_advanced_config+0xac>
 800173a:	9a08      	ldr	r2, [sp, #32]
 800173c:	2137      	movs	r1, #55	; 0x37
 800173e:	206e      	movs	r0, #110	; 0x6e
 8001740:	f000 f9de 	bl	8001b00 <write_reg>
 8001744:	2800      	cmp	r0, #0
 8001746:	f47f af51 	bne.w	80015ec <po8030_advanced_config+0xac>
 800174a:	9a09      	ldr	r2, [sp, #36]	; 0x24
 800174c:	2138      	movs	r1, #56	; 0x38
 800174e:	206e      	movs	r0, #110	; 0x6e
 8001750:	f000 f9d6 	bl	8001b00 <write_reg>
 8001754:	2800      	cmp	r0, #0
 8001756:	f47f af49 	bne.w	80015ec <po8030_advanced_config+0xac>
 800175a:	9a06      	ldr	r2, [sp, #24]
 800175c:	2139      	movs	r1, #57	; 0x39
 800175e:	206e      	movs	r0, #110	; 0x6e
 8001760:	f000 f9ce 	bl	8001b00 <write_reg>
 8001764:	2800      	cmp	r0, #0
 8001766:	f47f af41 	bne.w	80015ec <po8030_advanced_config+0xac>
 800176a:	9a07      	ldr	r2, [sp, #28]
 800176c:	213a      	movs	r1, #58	; 0x3a
 800176e:	206e      	movs	r0, #110	; 0x6e
 8001770:	f000 f9c6 	bl	8001b00 <write_reg>
 8001774:	2800      	cmp	r0, #0
 8001776:	f47f af39 	bne.w	80015ec <po8030_advanced_config+0xac>
 800177a:	9a0a      	ldr	r2, [sp, #40]	; 0x28
 800177c:	213b      	movs	r1, #59	; 0x3b
 800177e:	206e      	movs	r0, #110	; 0x6e
 8001780:	f000 f9be 	bl	8001b00 <write_reg>
 8001784:	2800      	cmp	r0, #0
 8001786:	f47f af31 	bne.w	80015ec <po8030_advanced_config+0xac>
 800178a:	9a0b      	ldr	r2, [sp, #44]	; 0x2c
 800178c:	213c      	movs	r1, #60	; 0x3c
 800178e:	206e      	movs	r0, #110	; 0x6e
 8001790:	f000 f9b6 	bl	8001b00 <write_reg>
 8001794:	2800      	cmp	r0, #0
 8001796:	f47f af29 	bne.w	80015ec <po8030_advanced_config+0xac>
 800179a:	9b00      	ldr	r3, [sp, #0]
 800179c:	213d      	movs	r1, #61	; 0x3d
 800179e:	f3c3 2207 	ubfx	r2, r3, #8, #8
 80017a2:	206e      	movs	r0, #110	; 0x6e
 80017a4:	f000 f9ac 	bl	8001b00 <write_reg>
 80017a8:	2800      	cmp	r0, #0
 80017aa:	f47f af1f 	bne.w	80015ec <po8030_advanced_config+0xac>
 80017ae:	f89d 2000 	ldrb.w	r2, [sp]
 80017b2:	213e      	movs	r1, #62	; 0x3e
 80017b4:	206e      	movs	r0, #110	; 0x6e
 80017b6:	f000 f9a3 	bl	8001b00 <write_reg>
 80017ba:	2800      	cmp	r0, #0
 80017bc:	f47f af16 	bne.w	80015ec <po8030_advanced_config+0xac>
 80017c0:	9b01      	ldr	r3, [sp, #4]
 80017c2:	213f      	movs	r1, #63	; 0x3f
 80017c4:	f3c3 2207 	ubfx	r2, r3, #8, #8
 80017c8:	206e      	movs	r0, #110	; 0x6e
 80017ca:	f000 f999 	bl	8001b00 <write_reg>
 80017ce:	2800      	cmp	r0, #0
 80017d0:	f47f af0c 	bne.w	80015ec <po8030_advanced_config+0xac>
 80017d4:	f89d 2004 	ldrb.w	r2, [sp, #4]
 80017d8:	2140      	movs	r1, #64	; 0x40
 80017da:	206e      	movs	r0, #110	; 0x6e
 80017dc:	f000 f990 	bl	8001b00 <write_reg>
 80017e0:	2800      	cmp	r0, #0
 80017e2:	f47f af03 	bne.w	80015ec <po8030_advanced_config+0xac>
 80017e6:	9b02      	ldr	r3, [sp, #8]
 80017e8:	2141      	movs	r1, #65	; 0x41
 80017ea:	f3c3 2207 	ubfx	r2, r3, #8, #8
 80017ee:	206e      	movs	r0, #110	; 0x6e
 80017f0:	f000 f986 	bl	8001b00 <write_reg>
 80017f4:	2800      	cmp	r0, #0
 80017f6:	f47f aef9 	bne.w	80015ec <po8030_advanced_config+0xac>
 80017fa:	f89d 2008 	ldrb.w	r2, [sp, #8]
 80017fe:	2142      	movs	r1, #66	; 0x42
 8001800:	206e      	movs	r0, #110	; 0x6e
 8001802:	f000 f97d 	bl	8001b00 <write_reg>
 8001806:	2800      	cmp	r0, #0
 8001808:	f47f aef0 	bne.w	80015ec <po8030_advanced_config+0xac>
 800180c:	9b03      	ldr	r3, [sp, #12]
 800180e:	2143      	movs	r1, #67	; 0x43
 8001810:	f3c3 2207 	ubfx	r2, r3, #8, #8
 8001814:	206e      	movs	r0, #110	; 0x6e
 8001816:	f000 f973 	bl	8001b00 <write_reg>
 800181a:	2800      	cmp	r0, #0
 800181c:	f47f aee6 	bne.w	80015ec <po8030_advanced_config+0xac>
 8001820:	f89d 200c 	ldrb.w	r2, [sp, #12]
 8001824:	2144      	movs	r1, #68	; 0x44
 8001826:	206e      	movs	r0, #110	; 0x6e
 8001828:	f000 f96a 	bl	8001b00 <write_reg>
 800182c:	2800      	cmp	r0, #0
 800182e:	f47f aedd 	bne.w	80015ec <po8030_advanced_config+0xac>
 8001832:	2201      	movs	r2, #1
 8001834:	2103      	movs	r1, #3
 8001836:	206e      	movs	r0, #110	; 0x6e
 8001838:	f000 f962 	bl	8001b00 <write_reg>
 800183c:	2800      	cmp	r0, #0
 800183e:	f47f aed5 	bne.w	80015ec <po8030_advanced_config+0xac>
 8001842:	464a      	mov	r2, r9
 8001844:	2193      	movs	r1, #147	; 0x93
 8001846:	206e      	movs	r0, #110	; 0x6e
 8001848:	f000 f95a 	bl	8001b00 <write_reg>
 800184c:	2800      	cmp	r0, #0
 800184e:	f47f aecd 	bne.w	80015ec <po8030_advanced_config+0xac>
 8001852:	465a      	mov	r2, fp
 8001854:	2194      	movs	r1, #148	; 0x94
 8001856:	206e      	movs	r0, #110	; 0x6e
 8001858:	f000 f952 	bl	8001b00 <write_reg>
 800185c:	2800      	cmp	r0, #0
 800185e:	f47f aec5 	bne.w	80015ec <po8030_advanced_config+0xac>
 8001862:	2201      	movs	r2, #1
 8001864:	2103      	movs	r1, #3
 8001866:	206e      	movs	r0, #110	; 0x6e
 8001868:	f000 f94a 	bl	8001b00 <write_reg>
 800186c:	2800      	cmp	r0, #0
 800186e:	f47f aebd 	bne.w	80015ec <po8030_advanced_config+0xac>
 8001872:	3401      	adds	r4, #1
 8001874:	1ba3      	subs	r3, r4, r6
 8001876:	ee07 3a10 	vmov	s14, r3
 800187a:	eddf 7a30 	vldr	s15, [pc, #192]	; 800193c <po8030_advanced_config+0x3fc>
 800187e:	eeb8 7a47 	vcvt.f32.u32	s14, s14
 8001882:	f1ba 0f44 	cmp.w	sl, #68	; 0x44
 8001886:	ee77 7ac7 	vsub.f32	s15, s15, s14
 800188a:	f000 8099 	beq.w	80019c0 <po8030_advanced_config+0x480>
 800188e:	eeb0 6a00 	vmov.f32	s12, #0	; 0x40000000  2.0
 8001892:	eef2 6a00 	vmov.f32	s13, #32	; 0x41000000  8.0
 8001896:	eee7 6a06 	vfma.f32	s13, s14, s12
 800189a:	ee77 7aa7 	vadd.f32	s15, s15, s15
 800189e:	eeb0 7a66 	vmov.f32	s14, s13
 80018a2:	ee67 7a87 	vmul.f32	s15, s15, s14
 80018a6:	eddf 6a26 	vldr	s13, [pc, #152]	; 8001940 <po8030_advanced_config+0x400>
 80018aa:	ee87 7aa6 	vdiv.f32	s14, s15, s13
 80018ae:	eefc 7ac7 	vcvt.u32.f32	s15, s14
 80018b2:	edcd 7a00 	vstr	s15, [sp]
 80018b6:	9b00      	ldr	r3, [sp, #0]
 80018b8:	2195      	movs	r1, #149	; 0x95
 80018ba:	f3c3 2207 	ubfx	r2, r3, #8, #8
 80018be:	206e      	movs	r0, #110	; 0x6e
 80018c0:	f000 f91e 	bl	8001b00 <write_reg>
 80018c4:	2800      	cmp	r0, #0
 80018c6:	f47f ae91 	bne.w	80015ec <po8030_advanced_config+0xac>
 80018ca:	f89d 2000 	ldrb.w	r2, [sp]
 80018ce:	2196      	movs	r1, #150	; 0x96
 80018d0:	206e      	movs	r0, #110	; 0x6e
 80018d2:	f000 f915 	bl	8001b00 <write_reg>
 80018d6:	2800      	cmp	r0, #0
 80018d8:	f47f ae88 	bne.w	80015ec <po8030_advanced_config+0xac>
 80018dc:	4b19      	ldr	r3, [pc, #100]	; (8001944 <po8030_advanced_config+0x404>)
 80018de:	3501      	adds	r5, #1
 80018e0:	1bef      	subs	r7, r5, r7
 80018e2:	1ba4      	subs	r4, r4, r6
 80018e4:	805f      	strh	r7, [r3, #2]
 80018e6:	801c      	strh	r4, [r3, #0]
 80018e8:	f883 a004 	strb.w	sl, [r3, #4]
 80018ec:	f883 9005 	strb.w	r9, [r3, #5]
 80018f0:	f883 b006 	strb.w	fp, [r3, #6]
 80018f4:	e67a      	b.n	80015ec <po8030_advanced_config+0xac>
 80018f6:	4910      	ldr	r1, [pc, #64]	; (8001938 <po8030_advanced_config+0x3f8>)
 80018f8:	005a      	lsls	r2, r3, #1
 80018fa:	fba1 0303 	umull	r0, r3, r1, r3
 80018fe:	eb06 0353 	add.w	r3, r6, r3, lsr #1
 8001902:	fba1 1202 	umull	r1, r2, r1, r2
 8001906:	9300      	str	r3, [sp, #0]
 8001908:	eb06 0352 	add.w	r3, r6, r2, lsr #1
 800190c:	9301      	str	r3, [sp, #4]
 800190e:	e659      	b.n	80015c4 <po8030_advanced_config+0x84>
 8001910:	07d9      	lsls	r1, r3, #31
 8001912:	d44d      	bmi.n	80019b0 <po8030_advanced_config+0x470>
 8001914:	4a08      	ldr	r2, [pc, #32]	; (8001938 <po8030_advanced_config+0x3f8>)
 8001916:	0874      	lsrs	r4, r6, #1
 8001918:	0059      	lsls	r1, r3, #1
 800191a:	1c66      	adds	r6, r4, #1
 800191c:	fba2 0101 	umull	r0, r1, r2, r1
 8001920:	fba2 0203 	umull	r0, r2, r2, r3
 8001924:	eb04 0453 	add.w	r4, r4, r3, lsr #1
 8001928:	eb06 0392 	add.w	r3, r6, r2, lsr #2
 800192c:	9300      	str	r3, [sp, #0]
 800192e:	eb06 0391 	add.w	r3, r6, r1, lsr #2
 8001932:	9301      	str	r3, [sp, #4]
 8001934:	e646      	b.n	80015c4 <po8030_advanced_config+0x84>
 8001936:	bf00      	nop
 8001938:	aaaaaaab 	.word	0xaaaaaaab
 800193c:	44220000 	.word	0x44220000
 8001940:	44a30000 	.word	0x44a30000
 8001944:	200011f0 	.word	0x200011f0
 8001948:	20000800 	.word	0x20000800
 800194c:	4a24      	ldr	r2, [pc, #144]	; (80019e0 <po8030_advanced_config+0x4a0>)
 800194e:	ea4f 034c 	mov.w	r3, ip, lsl #1
 8001952:	fba2 1c0c 	umull	r1, ip, r2, ip
 8001956:	fba2 2303 	umull	r2, r3, r2, r3
 800195a:	eb07 0353 	add.w	r3, r7, r3, lsr #1
 800195e:	eb07 025c 	add.w	r2, r7, ip, lsr #1
 8001962:	9202      	str	r2, [sp, #8]
 8001964:	9303      	str	r3, [sp, #12]
 8001966:	e63b      	b.n	80015e0 <po8030_advanced_config+0xa0>
 8001968:	f01c 0f03 	tst.w	ip, #3
 800196c:	d123      	bne.n	80019b6 <po8030_advanced_config+0x476>
 800196e:	4b1c      	ldr	r3, [pc, #112]	; (80019e0 <po8030_advanced_config+0x4a0>)
 8001970:	08bd      	lsrs	r5, r7, #2
 8001972:	ea4f 024c 	mov.w	r2, ip, lsl #1
 8001976:	1c6f      	adds	r7, r5, #1
 8001978:	fba3 1202 	umull	r1, r2, r3, r2
 800197c:	fba3 130c 	umull	r1, r3, r3, ip
 8001980:	eb07 03d3 	add.w	r3, r7, r3, lsr #3
 8001984:	9302      	str	r3, [sp, #8]
 8001986:	eb07 03d2 	add.w	r3, r7, r2, lsr #3
 800198a:	eb05 059c 	add.w	r5, r5, ip, lsr #2
 800198e:	9303      	str	r3, [sp, #12]
 8001990:	e626      	b.n	80015e0 <po8030_advanced_config+0xa0>
 8001992:	f06f 0007 	mvn.w	r0, #7
 8001996:	e629      	b.n	80015ec <po8030_advanced_config+0xac>
 8001998:	f06f 0003 	mvn.w	r0, #3
 800199c:	e626      	b.n	80015ec <po8030_advanced_config+0xac>
 800199e:	f06f 0004 	mvn.w	r0, #4
 80019a2:	e623      	b.n	80015ec <po8030_advanced_config+0xac>
 80019a4:	f06f 0001 	mvn.w	r0, #1
 80019a8:	e620      	b.n	80015ec <po8030_advanced_config+0xac>
 80019aa:	f06f 0002 	mvn.w	r0, #2
 80019ae:	e61d      	b.n	80015ec <po8030_advanced_config+0xac>
 80019b0:	f06f 0005 	mvn.w	r0, #5
 80019b4:	e61a      	b.n	80015ec <po8030_advanced_config+0xac>
 80019b6:	f06f 0006 	mvn.w	r0, #6
 80019ba:	e617      	b.n	80015ec <po8030_advanced_config+0xac>
 80019bc:	f7ff fc50 	bl	8001260 <__stack_chk_fail>
 80019c0:	eef2 6a00 	vmov.f32	s13, #32	; 0x41000000  8.0
 80019c4:	ee37 7a26 	vadd.f32	s14, s14, s13
 80019c8:	eddf 6a06 	vldr	s13, [pc, #24]	; 80019e4 <po8030_advanced_config+0x4a4>
 80019cc:	ee67 7a27 	vmul.f32	s15, s14, s15
 80019d0:	ee87 7aa6 	vdiv.f32	s14, s15, s13
 80019d4:	eefc 7ac7 	vcvt.u32.f32	s15, s14
 80019d8:	edcd 7a00 	vstr	s15, [sp]
 80019dc:	e76b      	b.n	80018b6 <po8030_advanced_config+0x376>
 80019de:	bf00      	nop
 80019e0:	aaaaaaab 	.word	0xaaaaaaab
 80019e4:	44240000 	.word	0x44240000
	...

080019f0 <po8030_start>:
 80019f0:	b510      	push	{r4, lr}
 80019f2:	4c11      	ldr	r4, [pc, #68]	; (8001a38 <po8030_start+0x48>)
 80019f4:	b086      	sub	sp, #24
 80019f6:	6823      	ldr	r3, [r4, #0]
 80019f8:	9305      	str	r3, [sp, #20]
 80019fa:	f000 f861 	bl	8001ac0 <i2c_start>
 80019fe:	490f      	ldr	r1, [pc, #60]	; (8001a3c <po8030_start+0x4c>)
 8001a00:	480f      	ldr	r0, [pc, #60]	; (8001a40 <po8030_start+0x50>)
 8001a02:	f003 f885 	bl	8004b10 <pwmStart>
 8001a06:	2201      	movs	r2, #1
 8001a08:	2100      	movs	r1, #0
 8001a0a:	480d      	ldr	r0, [pc, #52]	; (8001a40 <po8030_start+0x50>)
 8001a0c:	f003 f918 	bl	8004c40 <pwmEnableChannel>
 8001a10:	2320      	movs	r3, #32
 8001a12:	2278      	movs	r2, #120	; 0x78
 8001a14:	e9cd 3301 	strd	r3, r3, [sp, #4]
 8001a18:	9200      	str	r2, [sp, #0]
 8001a1a:	23a0      	movs	r3, #160	; 0xa0
 8001a1c:	22b4      	movs	r2, #180	; 0xb4
 8001a1e:	21f0      	movs	r1, #240	; 0xf0
 8001a20:	2002      	movs	r0, #2
 8001a22:	f7ff fd8d 	bl	8001540 <po8030_advanced_config>
 8001a26:	9a05      	ldr	r2, [sp, #20]
 8001a28:	6823      	ldr	r3, [r4, #0]
 8001a2a:	429a      	cmp	r2, r3
 8001a2c:	d101      	bne.n	8001a32 <po8030_start+0x42>
 8001a2e:	b006      	add	sp, #24
 8001a30:	bd10      	pop	{r4, pc}
 8001a32:	f7ff fc15 	bl	8001260 <__stack_chk_fail>
 8001a36:	bf00      	nop
 8001a38:	20000800 	.word	0x20000800
 8001a3c:	0800e4a0 	.word	0x0800e4a0
 8001a40:	20002348 	.word	0x20002348
	...

08001a50 <i2c_start.part.0>:
 8001a50:	b570      	push	{r4, r5, r6, lr}
 8001a52:	4e16      	ldr	r6, [pc, #88]	; (8001aac <i2c_start.part.0+0x5c>)
 8001a54:	4816      	ldr	r0, [pc, #88]	; (8001ab0 <i2c_start.part.0+0x60>)
 8001a56:	6833      	ldr	r3, [r6, #0]
 8001a58:	4d15      	ldr	r5, [pc, #84]	; (8001ab0 <i2c_start.part.0+0x60>)
 8001a5a:	b082      	sub	sp, #8
 8001a5c:	2205      	movs	r2, #5
 8001a5e:	f44f 7180 	mov.w	r1, #256	; 0x100
 8001a62:	9301      	str	r3, [sp, #4]
 8001a64:	f006 fed4 	bl	8008810 <_pal_lld_setgroupmode>
 8001a68:	2420      	movs	r4, #32
 8001a6a:	696b      	ldr	r3, [r5, #20]
 8001a6c:	f483 7380 	eor.w	r3, r3, #256	; 0x100
 8001a70:	616b      	str	r3, [r5, #20]
 8001a72:	2001      	movs	r0, #1
 8001a74:	f001 fbb4 	bl	80031e0 <chThdSleep>
 8001a78:	1e63      	subs	r3, r4, #1
 8001a7a:	f013 04ff 	ands.w	r4, r3, #255	; 0xff
 8001a7e:	d1f4      	bne.n	8001a6a <i2c_start.part.0+0x1a>
 8001a80:	f44f 7180 	mov.w	r1, #256	; 0x100
 8001a84:	f240 2206 	movw	r2, #518	; 0x206
 8001a88:	8329      	strh	r1, [r5, #24]
 8001a8a:	4809      	ldr	r0, [pc, #36]	; (8001ab0 <i2c_start.part.0+0x60>)
 8001a8c:	f006 fec0 	bl	8008810 <_pal_lld_setgroupmode>
 8001a90:	9a01      	ldr	r2, [sp, #4]
 8001a92:	6833      	ldr	r3, [r6, #0]
 8001a94:	429a      	cmp	r2, r3
 8001a96:	d106      	bne.n	8001aa6 <i2c_start.part.0+0x56>
 8001a98:	4906      	ldr	r1, [pc, #24]	; (8001ab4 <i2c_start.part.0+0x64>)
 8001a9a:	4807      	ldr	r0, [pc, #28]	; (8001ab8 <i2c_start.part.0+0x68>)
 8001a9c:	b002      	add	sp, #8
 8001a9e:	e8bd 4070 	ldmia.w	sp!, {r4, r5, r6, lr}
 8001aa2:	f002 be7d 	b.w	80047a0 <i2cStart>
 8001aa6:	f7ff fbdb 	bl	8001260 <__stack_chk_fail>
 8001aaa:	bf00      	nop
 8001aac:	20000800 	.word	0x20000800
 8001ab0:	40020400 	.word	0x40020400
 8001ab4:	0800e4e0 	.word	0x0800e4e0
 8001ab8:	20001fc0 	.word	0x20001fc0
 8001abc:	00000000 	.word	0x00000000

08001ac0 <i2c_start>:
 8001ac0:	b500      	push	{lr}
 8001ac2:	4a0c      	ldr	r2, [pc, #48]	; (8001af4 <i2c_start+0x34>)
 8001ac4:	4b0c      	ldr	r3, [pc, #48]	; (8001af8 <i2c_start+0x38>)
 8001ac6:	7812      	ldrb	r2, [r2, #0]
 8001ac8:	6819      	ldr	r1, [r3, #0]
 8001aca:	b083      	sub	sp, #12
 8001acc:	2a01      	cmp	r2, #1
 8001ace:	9101      	str	r1, [sp, #4]
 8001ad0:	9a01      	ldr	r2, [sp, #4]
 8001ad2:	681b      	ldr	r3, [r3, #0]
 8001ad4:	d004      	beq.n	8001ae0 <i2c_start+0x20>
 8001ad6:	429a      	cmp	r2, r3
 8001ad8:	d109      	bne.n	8001aee <i2c_start+0x2e>
 8001ada:	b003      	add	sp, #12
 8001adc:	f85d fb04 	ldr.w	pc, [sp], #4
 8001ae0:	429a      	cmp	r2, r3
 8001ae2:	d104      	bne.n	8001aee <i2c_start+0x2e>
 8001ae4:	b003      	add	sp, #12
 8001ae6:	f85d eb04 	ldr.w	lr, [sp], #4
 8001aea:	f7ff bfb1 	b.w	8001a50 <i2c_start.part.0>
 8001aee:	f7ff fbb7 	bl	8001260 <__stack_chk_fail>
 8001af2:	bf00      	nop
 8001af4:	20001fc0 	.word	0x20001fc0
 8001af8:	20000800 	.word	0x20000800
 8001afc:	00000000 	.word	0x00000000

08001b00 <write_reg>:
 8001b00:	b5f0      	push	{r4, r5, r6, r7, lr}
 8001b02:	4c21      	ldr	r4, [pc, #132]	; (8001b88 <write_reg+0x88>)
 8001b04:	4e21      	ldr	r6, [pc, #132]	; (8001b8c <write_reg+0x8c>)
 8001b06:	b089      	sub	sp, #36	; 0x24
 8001b08:	6833      	ldr	r3, [r6, #0]
 8001b0a:	9307      	str	r3, [sp, #28]
 8001b0c:	4607      	mov	r7, r0
 8001b0e:	2500      	movs	r5, #0
 8001b10:	4620      	mov	r0, r4
 8001b12:	f88d 1018 	strb.w	r1, [sp, #24]
 8001b16:	f88d 2019 	strb.w	r2, [sp, #25]
 8001b1a:	f88d 5014 	strb.w	r5, [sp, #20]
 8001b1e:	f002 ff57 	bl	80049d0 <i2cAcquireBus>
 8001b22:	7823      	ldrb	r3, [r4, #0]
 8001b24:	2b01      	cmp	r3, #1
 8001b26:	d00c      	beq.n	8001b42 <write_reg+0x42>
 8001b28:	2204      	movs	r2, #4
 8001b2a:	ab05      	add	r3, sp, #20
 8001b2c:	9501      	str	r5, [sp, #4]
 8001b2e:	9202      	str	r2, [sp, #8]
 8001b30:	9300      	str	r3, [sp, #0]
 8001b32:	4639      	mov	r1, r7
 8001b34:	2302      	movs	r3, #2
 8001b36:	aa06      	add	r2, sp, #24
 8001b38:	4620      	mov	r0, r4
 8001b3a:	f002 fed9 	bl	80048f0 <i2cMasterTransmitTimeout>
 8001b3e:	4605      	mov	r5, r0
 8001b40:	b948      	cbnz	r0, 8001b56 <write_reg+0x56>
 8001b42:	4811      	ldr	r0, [pc, #68]	; (8001b88 <write_reg+0x88>)
 8001b44:	f002 ff64 	bl	8004a10 <i2cReleaseBus>
 8001b48:	2000      	movs	r0, #0
 8001b4a:	9a07      	ldr	r2, [sp, #28]
 8001b4c:	6833      	ldr	r3, [r6, #0]
 8001b4e:	429a      	cmp	r2, r3
 8001b50:	d117      	bne.n	8001b82 <write_reg+0x82>
 8001b52:	b009      	add	sp, #36	; 0x24
 8001b54:	bdf0      	pop	{r4, r5, r6, r7, pc}
 8001b56:	4620      	mov	r0, r4
 8001b58:	f002 feb2 	bl	80048c0 <i2cGetErrors>
 8001b5c:	7823      	ldrb	r3, [r4, #0]
 8001b5e:	4a0c      	ldr	r2, [pc, #48]	; (8001b90 <write_reg+0x90>)
 8001b60:	2b05      	cmp	r3, #5
 8001b62:	6010      	str	r0, [r2, #0]
 8001b64:	d004      	beq.n	8001b70 <write_reg+0x70>
 8001b66:	4808      	ldr	r0, [pc, #32]	; (8001b88 <write_reg+0x88>)
 8001b68:	f002 ff52 	bl	8004a10 <i2cReleaseBus>
 8001b6c:	b268      	sxtb	r0, r5
 8001b6e:	e7ec      	b.n	8001b4a <write_reg+0x4a>
 8001b70:	4620      	mov	r0, r4
 8001b72:	f002 fe5d 	bl	8004830 <i2cStop>
 8001b76:	7823      	ldrb	r3, [r4, #0]
 8001b78:	2b01      	cmp	r3, #1
 8001b7a:	d1f4      	bne.n	8001b66 <write_reg+0x66>
 8001b7c:	f7ff ff68 	bl	8001a50 <i2c_start.part.0>
 8001b80:	e7f1      	b.n	8001b66 <write_reg+0x66>
 8001b82:	f7ff fb6d 	bl	8001260 <__stack_chk_fail>
 8001b86:	bf00      	nop
 8001b88:	20001fc0 	.word	0x20001fc0
 8001b8c:	20000800 	.word	0x20000800
 8001b90:	200011f8 	.word	0x200011f8
	...

08001ba0 <mpu_configure_region>:
 8001ba0:	e92d 43f0 	stmdb	sp!, {r4, r5, r6, r7, r8, r9, lr}
 8001ba4:	4e25      	ldr	r6, [pc, #148]	; (8001c3c <mpu_configure_region+0x9c>)
 8001ba6:	b083      	sub	sp, #12
 8001ba8:	6834      	ldr	r4, [r6, #0]
 8001baa:	9401      	str	r4, [sp, #4]
 8001bac:	2a04      	cmp	r2, #4
 8001bae:	f89d 9028 	ldrb.w	r9, [sp, #40]	; 0x28
 8001bb2:	4614      	mov	r4, r2
 8001bb4:	4605      	mov	r5, r0
 8001bb6:	460f      	mov	r7, r1
 8001bb8:	4698      	mov	r8, r3
 8001bba:	d939      	bls.n	8001c30 <mpu_configure_region+0x90>
 8001bbc:	f1b9 0f00 	cmp.w	r9, #0
 8001bc0:	bf14      	ite	ne
 8001bc2:	2200      	movne	r2, #0
 8001bc4:	f04f 5280 	moveq.w	r2, #268435456	; 0x10000000
 8001bc8:	0064      	lsls	r4, r4, #1
 8001bca:	eb02 6308 	add.w	r3, r2, r8, lsl #24
 8001bce:	3c01      	subs	r4, #1
 8001bd0:	441c      	add	r4, r3
 8001bd2:	f005 050f 	and.w	r5, r5, #15
 8001bd6:	f027 071f 	bic.w	r7, r7, #31
 8001bda:	2320      	movs	r3, #32
 8001bdc:	f383 8811 	msr	BASEPRI, r3
 8001be0:	f001 fdbe 	bl	8003760 <_stats_start_measure_crit_thd>
 8001be4:	433d      	orrs	r5, r7
 8001be6:	f000 fdc3 	bl	8002770 <_dbg_check_lock>
 8001bea:	4b15      	ldr	r3, [pc, #84]	; (8001c40 <mpu_configure_region+0xa0>)
 8001bec:	3510      	adds	r5, #16
 8001bee:	60dd      	str	r5, [r3, #12]
 8001bf0:	611c      	str	r4, [r3, #16]
 8001bf2:	f000 fddd 	bl	80027b0 <_dbg_check_unlock>
 8001bf6:	f001 fdcb 	bl	8003790 <_stats_stop_measure_crit_thd>
 8001bfa:	4b12      	ldr	r3, [pc, #72]	; (8001c44 <mpu_configure_region+0xa4>)
 8001bfc:	681a      	ldr	r2, [r3, #0]
 8001bfe:	429a      	cmp	r2, r3
 8001c00:	d004      	beq.n	8001c0c <mpu_configure_region+0x6c>
 8001c02:	6999      	ldr	r1, [r3, #24]
 8001c04:	6893      	ldr	r3, [r2, #8]
 8001c06:	688a      	ldr	r2, [r1, #8]
 8001c08:	429a      	cmp	r2, r3
 8001c0a:	d30d      	bcc.n	8001c28 <mpu_configure_region+0x88>
 8001c0c:	2300      	movs	r3, #0
 8001c0e:	f383 8811 	msr	BASEPRI, r3
 8001c12:	f3bf 8f6f 	isb	sy
 8001c16:	f3bf 8f4f 	dsb	sy
 8001c1a:	9a01      	ldr	r2, [sp, #4]
 8001c1c:	6833      	ldr	r3, [r6, #0]
 8001c1e:	429a      	cmp	r2, r3
 8001c20:	d10a      	bne.n	8001c38 <mpu_configure_region+0x98>
 8001c22:	b003      	add	sp, #12
 8001c24:	e8bd 83f0 	ldmia.w	sp!, {r4, r5, r6, r7, r8, r9, pc}
 8001c28:	4807      	ldr	r0, [pc, #28]	; (8001c48 <mpu_configure_region+0xa8>)
 8001c2a:	f000 fd01 	bl	8002630 <chSysHalt>
 8001c2e:	e7ed      	b.n	8001c0c <mpu_configure_region+0x6c>
 8001c30:	4806      	ldr	r0, [pc, #24]	; (8001c4c <mpu_configure_region+0xac>)
 8001c32:	f000 fcfd 	bl	8002630 <chSysHalt>
 8001c36:	e7c1      	b.n	8001bbc <mpu_configure_region+0x1c>
 8001c38:	f7ff fb12 	bl	8001260 <__stack_chk_fail>
 8001c3c:	20000800 	.word	0x20000800
 8001c40:	e000ed90 	.word	0xe000ed90
 8001c44:	20001540 	.word	0x20001540
 8001c48:	0800e570 	.word	0x0800e570
 8001c4c:	0800e550 	.word	0x0800e550

08001c50 <mpu_init>:
 8001c50:	b530      	push	{r4, r5, lr}
 8001c52:	4d22      	ldr	r5, [pc, #136]	; (8001cdc <mpu_init+0x8c>)
 8001c54:	4c22      	ldr	r4, [pc, #136]	; (8001ce0 <mpu_init+0x90>)
 8001c56:	682b      	ldr	r3, [r5, #0]
 8001c58:	4a22      	ldr	r2, [pc, #136]	; (8001ce4 <mpu_init+0x94>)
 8001c5a:	b085      	sub	sp, #20
 8001c5c:	9303      	str	r3, [sp, #12]
 8001c5e:	6863      	ldr	r3, [r4, #4]
 8001c60:	f043 0304 	orr.w	r3, r3, #4
 8001c64:	6063      	str	r3, [r4, #4]
 8001c66:	6a53      	ldr	r3, [r2, #36]	; 0x24
 8001c68:	f443 3380 	orr.w	r3, r3, #65536	; 0x10000
 8001c6c:	6253      	str	r3, [r2, #36]	; 0x24
 8001c6e:	2320      	movs	r3, #32
 8001c70:	f383 8811 	msr	BASEPRI, r3
 8001c74:	f001 fd74 	bl	8003760 <_stats_start_measure_crit_thd>
 8001c78:	f000 fd7a 	bl	8002770 <_dbg_check_lock>
 8001c7c:	2217      	movs	r2, #23
 8001c7e:	4b1a      	ldr	r3, [pc, #104]	; (8001ce8 <mpu_init+0x98>)
 8001c80:	60e2      	str	r2, [r4, #12]
 8001c82:	6123      	str	r3, [r4, #16]
 8001c84:	f000 fd94 	bl	80027b0 <_dbg_check_unlock>
 8001c88:	f001 fd82 	bl	8003790 <_stats_stop_measure_crit_thd>
 8001c8c:	4b17      	ldr	r3, [pc, #92]	; (8001cec <mpu_init+0x9c>)
 8001c8e:	681a      	ldr	r2, [r3, #0]
 8001c90:	429a      	cmp	r2, r3
 8001c92:	d004      	beq.n	8001c9e <mpu_init+0x4e>
 8001c94:	6999      	ldr	r1, [r3, #24]
 8001c96:	6893      	ldr	r3, [r2, #8]
 8001c98:	688a      	ldr	r2, [r1, #8]
 8001c9a:	429a      	cmp	r2, r3
 8001c9c:	d318      	bcc.n	8001cd0 <mpu_init+0x80>
 8001c9e:	2000      	movs	r0, #0
 8001ca0:	f380 8811 	msr	BASEPRI, r0
 8001ca4:	f3bf 8f6f 	isb	sy
 8001ca8:	f3bf 8f4f 	dsb	sy
 8001cac:	2303      	movs	r3, #3
 8001cae:	221d      	movs	r2, #29
 8001cb0:	9000      	str	r0, [sp, #0]
 8001cb2:	f04f 5100 	mov.w	r1, #536870912	; 0x20000000
 8001cb6:	f7ff ff73 	bl	8001ba0 <mpu_configure_region>
 8001cba:	4a09      	ldr	r2, [pc, #36]	; (8001ce0 <mpu_init+0x90>)
 8001cbc:	6853      	ldr	r3, [r2, #4]
 8001cbe:	f043 0301 	orr.w	r3, r3, #1
 8001cc2:	6053      	str	r3, [r2, #4]
 8001cc4:	9a03      	ldr	r2, [sp, #12]
 8001cc6:	682b      	ldr	r3, [r5, #0]
 8001cc8:	429a      	cmp	r2, r3
 8001cca:	d105      	bne.n	8001cd8 <mpu_init+0x88>
 8001ccc:	b005      	add	sp, #20
 8001cce:	bd30      	pop	{r4, r5, pc}
 8001cd0:	4807      	ldr	r0, [pc, #28]	; (8001cf0 <mpu_init+0xa0>)
 8001cd2:	f000 fcad 	bl	8002630 <chSysHalt>
 8001cd6:	e7e2      	b.n	8001c9e <mpu_init+0x4e>
 8001cd8:	f7ff fac2 	bl	8001260 <__stack_chk_fail>
 8001cdc:	20000800 	.word	0x20000800
 8001ce0:	e000ed90 	.word	0xe000ed90
 8001ce4:	e000ed00 	.word	0xe000ed00
 8001ce8:	10000009 	.word	0x10000009
 8001cec:	20001540 	.word	0x20001540
 8001cf0:	0800e570 	.word	0x0800e570
	...

08001d00 <MemManage_Handler>:
 8001d00:	b570      	push	{r4, r5, r6, lr}
 8001d02:	4d1a      	ldr	r5, [pc, #104]	; (8001d6c <MemManage_Handler+0x6c>)
 8001d04:	4c1a      	ldr	r4, [pc, #104]	; (8001d70 <MemManage_Handler+0x70>)
 8001d06:	4e1b      	ldr	r6, [pc, #108]	; (8001d74 <MemManage_Handler+0x74>)
 8001d08:	cd0f      	ldmia	r5!, {r0, r1, r2, r3}
 8001d0a:	c40f      	stmia	r4!, {r0, r1, r2, r3}
 8001d0c:	b09e      	sub	sp, #120	; 0x78
 8001d0e:	682a      	ldr	r2, [r5, #0]
 8001d10:	6833      	ldr	r3, [r6, #0]
 8001d12:	8022      	strh	r2, [r4, #0]
 8001d14:	931d      	str	r3, [sp, #116]	; 0x74
 8001d16:	f3ef 8109 	mrs	r1, PSP
 8001d1a:	2268      	movs	r2, #104	; 0x68
 8001d1c:	a803      	add	r0, sp, #12
 8001d1e:	f7ff f877 	bl	8000e10 <memcpy>
 8001d22:	4b15      	ldr	r3, [pc, #84]	; (8001d78 <MemManage_Handler+0x78>)
 8001d24:	6a9d      	ldr	r5, [r3, #40]	; 0x28
 8001d26:	07aa      	lsls	r2, r5, #30
 8001d28:	d414      	bmi.n	8001d54 <MemManage_Handler+0x54>
 8001d2a:	07eb      	lsls	r3, r5, #31
 8001d2c:	d508      	bpl.n	8001d40 <MemManage_Handler+0x40>
 8001d2e:	4b12      	ldr	r3, [pc, #72]	; (8001d78 <MemManage_Handler+0x78>)
 8001d30:	9908      	ldr	r1, [sp, #32]
 8001d32:	6b5b      	ldr	r3, [r3, #52]	; 0x34
 8001d34:	4a11      	ldr	r2, [pc, #68]	; (8001d7c <MemManage_Handler+0x7c>)
 8001d36:	9100      	str	r1, [sp, #0]
 8001d38:	480d      	ldr	r0, [pc, #52]	; (8001d70 <MemManage_Handler+0x70>)
 8001d3a:	2180      	movs	r1, #128	; 0x80
 8001d3c:	f009 fa20 	bl	800b180 <snprintf>
 8001d40:	9a1d      	ldr	r2, [sp, #116]	; 0x74
 8001d42:	6833      	ldr	r3, [r6, #0]
 8001d44:	429a      	cmp	r2, r3
 8001d46:	d10f      	bne.n	8001d68 <MemManage_Handler+0x68>
 8001d48:	4809      	ldr	r0, [pc, #36]	; (8001d70 <MemManage_Handler+0x70>)
 8001d4a:	b01e      	add	sp, #120	; 0x78
 8001d4c:	e8bd 4070 	ldmia.w	sp!, {r4, r5, r6, lr}
 8001d50:	f000 bc6e 	b.w	8002630 <chSysHalt>
 8001d54:	9a09      	ldr	r2, [sp, #36]	; 0x24
 8001d56:	6b5b      	ldr	r3, [r3, #52]	; 0x34
 8001d58:	9200      	str	r2, [sp, #0]
 8001d5a:	f1a4 0010 	sub.w	r0, r4, #16
 8001d5e:	4a08      	ldr	r2, [pc, #32]	; (8001d80 <MemManage_Handler+0x80>)
 8001d60:	2180      	movs	r1, #128	; 0x80
 8001d62:	f009 fa0d 	bl	800b180 <snprintf>
 8001d66:	e7e0      	b.n	8001d2a <MemManage_Handler+0x2a>
 8001d68:	f7ff fa7a 	bl	8001260 <__stack_chk_fail>
 8001d6c:	0800e534 	.word	0x0800e534
 8001d70:	200011fc 	.word	0x200011fc
 8001d74:	20000800 	.word	0x20000800
 8001d78:	e000ed00 	.word	0xe000ed00
 8001d7c:	0800e510 	.word	0x0800e510
 8001d80:	0800e4f0 	.word	0x0800e4f0
	...

08001d90 <right_motor_update>:
 8001d90:	b500      	push	{lr}
 8001d92:	4b1f      	ldr	r3, [pc, #124]	; (8001e10 <right_motor_update+0x80>)
 8001d94:	7802      	ldrb	r2, [r0, #0]
 8001d96:	6819      	ldr	r1, [r3, #0]
 8001d98:	b083      	sub	sp, #12
 8001d9a:	9101      	str	r1, [sp, #4]
 8001d9c:	b1e2      	cbz	r2, 8001dd8 <right_motor_update+0x48>
 8001d9e:	4a1d      	ldr	r2, [pc, #116]	; (8001e14 <right_motor_update+0x84>)
 8001da0:	f44f 5100 	mov.w	r1, #8192	; 0x2000
 8001da4:	8311      	strh	r1, [r2, #24]
 8001da6:	7842      	ldrb	r2, [r0, #1]
 8001da8:	b1ea      	cbz	r2, 8001de6 <right_motor_update+0x56>
 8001daa:	4a1a      	ldr	r2, [pc, #104]	; (8001e14 <right_motor_update+0x84>)
 8001dac:	f44f 5180 	mov.w	r1, #4096	; 0x1000
 8001db0:	8311      	strh	r1, [r2, #24]
 8001db2:	7882      	ldrb	r2, [r0, #2]
 8001db4:	b1f2      	cbz	r2, 8001df4 <right_motor_update+0x64>
 8001db6:	4a17      	ldr	r2, [pc, #92]	; (8001e14 <right_motor_update+0x84>)
 8001db8:	f44f 4180 	mov.w	r1, #16384	; 0x4000
 8001dbc:	8311      	strh	r1, [r2, #24]
 8001dbe:	78c2      	ldrb	r2, [r0, #3]
 8001dc0:	b9fa      	cbnz	r2, 8001e02 <right_motor_update+0x72>
 8001dc2:	4a14      	ldr	r2, [pc, #80]	; (8001e14 <right_motor_update+0x84>)
 8001dc4:	f44f 4100 	mov.w	r1, #32768	; 0x8000
 8001dc8:	8351      	strh	r1, [r2, #26]
 8001dca:	9a01      	ldr	r2, [sp, #4]
 8001dcc:	681b      	ldr	r3, [r3, #0]
 8001dce:	429a      	cmp	r2, r3
 8001dd0:	d11c      	bne.n	8001e0c <right_motor_update+0x7c>
 8001dd2:	b003      	add	sp, #12
 8001dd4:	f85d fb04 	ldr.w	pc, [sp], #4
 8001dd8:	4a0e      	ldr	r2, [pc, #56]	; (8001e14 <right_motor_update+0x84>)
 8001dda:	f44f 5100 	mov.w	r1, #8192	; 0x2000
 8001dde:	8351      	strh	r1, [r2, #26]
 8001de0:	7842      	ldrb	r2, [r0, #1]
 8001de2:	2a00      	cmp	r2, #0
 8001de4:	d1e1      	bne.n	8001daa <right_motor_update+0x1a>
 8001de6:	4a0b      	ldr	r2, [pc, #44]	; (8001e14 <right_motor_update+0x84>)
 8001de8:	f44f 5180 	mov.w	r1, #4096	; 0x1000
 8001dec:	8351      	strh	r1, [r2, #26]
 8001dee:	7882      	ldrb	r2, [r0, #2]
 8001df0:	2a00      	cmp	r2, #0
 8001df2:	d1e0      	bne.n	8001db6 <right_motor_update+0x26>
 8001df4:	4a07      	ldr	r2, [pc, #28]	; (8001e14 <right_motor_update+0x84>)
 8001df6:	f44f 4180 	mov.w	r1, #16384	; 0x4000
 8001dfa:	8351      	strh	r1, [r2, #26]
 8001dfc:	78c2      	ldrb	r2, [r0, #3]
 8001dfe:	2a00      	cmp	r2, #0
 8001e00:	d0df      	beq.n	8001dc2 <right_motor_update+0x32>
 8001e02:	4a04      	ldr	r2, [pc, #16]	; (8001e14 <right_motor_update+0x84>)
 8001e04:	f44f 4100 	mov.w	r1, #32768	; 0x8000
 8001e08:	8311      	strh	r1, [r2, #24]
 8001e0a:	e7de      	b.n	8001dca <right_motor_update+0x3a>
 8001e0c:	f7ff fa28 	bl	8001260 <__stack_chk_fail>
 8001e10:	20000800 	.word	0x20000800
 8001e14:	40021000 	.word	0x40021000
	...

08001e20 <left_motor_update>:
 8001e20:	b500      	push	{lr}
 8001e22:	4b1f      	ldr	r3, [pc, #124]	; (8001ea0 <left_motor_update+0x80>)
 8001e24:	7802      	ldrb	r2, [r0, #0]
 8001e26:	6819      	ldr	r1, [r3, #0]
 8001e28:	b083      	sub	sp, #12
 8001e2a:	9101      	str	r1, [sp, #4]
 8001e2c:	b1e2      	cbz	r2, 8001e68 <left_motor_update+0x48>
 8001e2e:	4a1d      	ldr	r2, [pc, #116]	; (8001ea4 <left_motor_update+0x84>)
 8001e30:	f44f 7100 	mov.w	r1, #512	; 0x200
 8001e34:	8311      	strh	r1, [r2, #24]
 8001e36:	7842      	ldrb	r2, [r0, #1]
 8001e38:	b1ea      	cbz	r2, 8001e76 <left_motor_update+0x56>
 8001e3a:	4a1a      	ldr	r2, [pc, #104]	; (8001ea4 <left_motor_update+0x84>)
 8001e3c:	f44f 7180 	mov.w	r1, #256	; 0x100
 8001e40:	8311      	strh	r1, [r2, #24]
 8001e42:	7882      	ldrb	r2, [r0, #2]
 8001e44:	b1f2      	cbz	r2, 8001e84 <left_motor_update+0x64>
 8001e46:	4a17      	ldr	r2, [pc, #92]	; (8001ea4 <left_motor_update+0x84>)
 8001e48:	f44f 6100 	mov.w	r1, #2048	; 0x800
 8001e4c:	8311      	strh	r1, [r2, #24]
 8001e4e:	78c2      	ldrb	r2, [r0, #3]
 8001e50:	b9fa      	cbnz	r2, 8001e92 <left_motor_update+0x72>
 8001e52:	4a14      	ldr	r2, [pc, #80]	; (8001ea4 <left_motor_update+0x84>)
 8001e54:	f44f 6180 	mov.w	r1, #1024	; 0x400
 8001e58:	8351      	strh	r1, [r2, #26]
 8001e5a:	9a01      	ldr	r2, [sp, #4]
 8001e5c:	681b      	ldr	r3, [r3, #0]
 8001e5e:	429a      	cmp	r2, r3
 8001e60:	d11c      	bne.n	8001e9c <left_motor_update+0x7c>
 8001e62:	b003      	add	sp, #12
 8001e64:	f85d fb04 	ldr.w	pc, [sp], #4
 8001e68:	4a0e      	ldr	r2, [pc, #56]	; (8001ea4 <left_motor_update+0x84>)
 8001e6a:	f44f 7100 	mov.w	r1, #512	; 0x200
 8001e6e:	8351      	strh	r1, [r2, #26]
 8001e70:	7842      	ldrb	r2, [r0, #1]
 8001e72:	2a00      	cmp	r2, #0
 8001e74:	d1e1      	bne.n	8001e3a <left_motor_update+0x1a>
 8001e76:	4a0b      	ldr	r2, [pc, #44]	; (8001ea4 <left_motor_update+0x84>)
 8001e78:	f44f 7180 	mov.w	r1, #256	; 0x100
 8001e7c:	8351      	strh	r1, [r2, #26]
 8001e7e:	7882      	ldrb	r2, [r0, #2]
 8001e80:	2a00      	cmp	r2, #0
 8001e82:	d1e0      	bne.n	8001e46 <left_motor_update+0x26>
 8001e84:	4a07      	ldr	r2, [pc, #28]	; (8001ea4 <left_motor_update+0x84>)
 8001e86:	f44f 6100 	mov.w	r1, #2048	; 0x800
 8001e8a:	8351      	strh	r1, [r2, #26]
 8001e8c:	78c2      	ldrb	r2, [r0, #3]
 8001e8e:	2a00      	cmp	r2, #0
 8001e90:	d0df      	beq.n	8001e52 <left_motor_update+0x32>
 8001e92:	4a04      	ldr	r2, [pc, #16]	; (8001ea4 <left_motor_update+0x84>)
 8001e94:	f44f 6180 	mov.w	r1, #1024	; 0x400
 8001e98:	8311      	strh	r1, [r2, #24]
 8001e9a:	e7de      	b.n	8001e5a <left_motor_update+0x3a>
 8001e9c:	f7ff f9e0 	bl	8001260 <__stack_chk_fail>
 8001ea0:	20000800 	.word	0x20000800
 8001ea4:	40021000 	.word	0x40021000
	...

08001eb0 <right_motor_pwm_ch1_cb>:
 8001eb0:	b530      	push	{r4, r5, lr}
 8001eb2:	4a0c      	ldr	r2, [pc, #48]	; (8001ee4 <right_motor_pwm_ch1_cb+0x34>)
 8001eb4:	4b0c      	ldr	r3, [pc, #48]	; (8001ee8 <right_motor_pwm_ch1_cb+0x38>)
 8001eb6:	6811      	ldr	r1, [r2, #0]
 8001eb8:	b083      	sub	sp, #12
 8001eba:	f44f 5500 	mov.w	r5, #8192	; 0x2000
 8001ebe:	9101      	str	r1, [sp, #4]
 8001ec0:	f44f 5480 	mov.w	r4, #4096	; 0x1000
 8001ec4:	f44f 4100 	mov.w	r1, #32768	; 0x8000
 8001ec8:	f44f 4080 	mov.w	r0, #16384	; 0x4000
 8001ecc:	835d      	strh	r5, [r3, #26]
 8001ece:	835c      	strh	r4, [r3, #26]
 8001ed0:	8358      	strh	r0, [r3, #26]
 8001ed2:	8359      	strh	r1, [r3, #26]
 8001ed4:	9901      	ldr	r1, [sp, #4]
 8001ed6:	6813      	ldr	r3, [r2, #0]
 8001ed8:	4299      	cmp	r1, r3
 8001eda:	d101      	bne.n	8001ee0 <right_motor_pwm_ch1_cb+0x30>
 8001edc:	b003      	add	sp, #12
 8001ede:	bd30      	pop	{r4, r5, pc}
 8001ee0:	f7ff f9be 	bl	8001260 <__stack_chk_fail>
 8001ee4:	20000800 	.word	0x20000800
 8001ee8:	40021000 	.word	0x40021000
 8001eec:	00000000 	.word	0x00000000

08001ef0 <left_motor_pwm_ch1_cb>:
 8001ef0:	b530      	push	{r4, r5, lr}
 8001ef2:	4a0c      	ldr	r2, [pc, #48]	; (8001f24 <left_motor_pwm_ch1_cb+0x34>)
 8001ef4:	4b0c      	ldr	r3, [pc, #48]	; (8001f28 <left_motor_pwm_ch1_cb+0x38>)
 8001ef6:	6811      	ldr	r1, [r2, #0]
 8001ef8:	b083      	sub	sp, #12
 8001efa:	f44f 7500 	mov.w	r5, #512	; 0x200
 8001efe:	9101      	str	r1, [sp, #4]
 8001f00:	f44f 7480 	mov.w	r4, #256	; 0x100
 8001f04:	f44f 6180 	mov.w	r1, #1024	; 0x400
 8001f08:	f44f 6000 	mov.w	r0, #2048	; 0x800
 8001f0c:	835d      	strh	r5, [r3, #26]
 8001f0e:	835c      	strh	r4, [r3, #26]
 8001f10:	8358      	strh	r0, [r3, #26]
 8001f12:	8359      	strh	r1, [r3, #26]
 8001f14:	9901      	ldr	r1, [sp, #4]
 8001f16:	6813      	ldr	r3, [r2, #0]
 8001f18:	4299      	cmp	r1, r3
 8001f1a:	d101      	bne.n	8001f20 <left_motor_pwm_ch1_cb+0x30>
 8001f1c:	b003      	add	sp, #12
 8001f1e:	bd30      	pop	{r4, r5, pc}
 8001f20:	f7ff f99e 	bl	8001260 <__stack_chk_fail>
 8001f24:	20000800 	.word	0x20000800
 8001f28:	40021000 	.word	0x40021000
 8001f2c:	00000000 	.word	0x00000000

08001f30 <right_motor_enable_power_save>:
 8001f30:	b510      	push	{r4, lr}
 8001f32:	4c0b      	ldr	r4, [pc, #44]	; (8001f60 <right_motor_enable_power_save+0x30>)
 8001f34:	480b      	ldr	r0, [pc, #44]	; (8001f64 <right_motor_enable_power_save+0x34>)
 8001f36:	6823      	ldr	r3, [r4, #0]
 8001f38:	b082      	sub	sp, #8
 8001f3a:	2299      	movs	r2, #153	; 0x99
 8001f3c:	2100      	movs	r1, #0
 8001f3e:	9301      	str	r3, [sp, #4]
 8001f40:	f002 fe7e 	bl	8004c40 <pwmEnableChannel>
 8001f44:	9a01      	ldr	r2, [sp, #4]
 8001f46:	6823      	ldr	r3, [r4, #0]
 8001f48:	429a      	cmp	r2, r3
 8001f4a:	d106      	bne.n	8001f5a <right_motor_enable_power_save+0x2a>
 8001f4c:	4805      	ldr	r0, [pc, #20]	; (8001f64 <right_motor_enable_power_save+0x34>)
 8001f4e:	2100      	movs	r1, #0
 8001f50:	b002      	add	sp, #8
 8001f52:	e8bd 4010 	ldmia.w	sp!, {r4, lr}
 8001f56:	f002 bf5b 	b.w	8004e10 <pwmEnableChannelNotification>
 8001f5a:	f7ff f981 	bl	8001260 <__stack_chk_fail>
 8001f5e:	bf00      	nop
 8001f60:	20000800 	.word	0x20000800
 8001f64:	20002310 	.word	0x20002310
	...

08001f70 <left_motor_enable_power_save>:
 8001f70:	b510      	push	{r4, lr}
 8001f72:	4c0b      	ldr	r4, [pc, #44]	; (8001fa0 <left_motor_enable_power_save+0x30>)
 8001f74:	480b      	ldr	r0, [pc, #44]	; (8001fa4 <left_motor_enable_power_save+0x34>)
 8001f76:	6823      	ldr	r3, [r4, #0]
 8001f78:	b082      	sub	sp, #8
 8001f7a:	2299      	movs	r2, #153	; 0x99
 8001f7c:	2100      	movs	r1, #0
 8001f7e:	9301      	str	r3, [sp, #4]
 8001f80:	f002 fe5e 	bl	8004c40 <pwmEnableChannel>
 8001f84:	9a01      	ldr	r2, [sp, #4]
 8001f86:	6823      	ldr	r3, [r4, #0]
 8001f88:	429a      	cmp	r2, r3
 8001f8a:	d106      	bne.n	8001f9a <left_motor_enable_power_save+0x2a>
 8001f8c:	4805      	ldr	r0, [pc, #20]	; (8001fa4 <left_motor_enable_power_save+0x34>)
 8001f8e:	2100      	movs	r1, #0
 8001f90:	b002      	add	sp, #8
 8001f92:	e8bd 4010 	ldmia.w	sp!, {r4, lr}
 8001f96:	f002 bf3b 	b.w	8004e10 <pwmEnableChannelNotification>
 8001f9a:	f7ff f961 	bl	8001260 <__stack_chk_fail>
 8001f9e:	bf00      	nop
 8001fa0:	20000800 	.word	0x20000800
 8001fa4:	2000232c 	.word	0x2000232c
	...

08001fb0 <right_motor_disable_power_save>:
 8001fb0:	b500      	push	{lr}
 8001fb2:	4b08      	ldr	r3, [pc, #32]	; (8001fd4 <right_motor_disable_power_save+0x24>)
 8001fb4:	b083      	sub	sp, #12
 8001fb6:	681a      	ldr	r2, [r3, #0]
 8001fb8:	9201      	str	r2, [sp, #4]
 8001fba:	9a01      	ldr	r2, [sp, #4]
 8001fbc:	681b      	ldr	r3, [r3, #0]
 8001fbe:	429a      	cmp	r2, r3
 8001fc0:	d106      	bne.n	8001fd0 <right_motor_disable_power_save+0x20>
 8001fc2:	4805      	ldr	r0, [pc, #20]	; (8001fd8 <right_motor_disable_power_save+0x28>)
 8001fc4:	2100      	movs	r1, #0
 8001fc6:	b003      	add	sp, #12
 8001fc8:	f85d eb04 	ldr.w	lr, [sp], #4
 8001fcc:	f002 be88 	b.w	8004ce0 <pwmDisableChannel>
 8001fd0:	f7ff f946 	bl	8001260 <__stack_chk_fail>
 8001fd4:	20000800 	.word	0x20000800
 8001fd8:	20002310 	.word	0x20002310
 8001fdc:	00000000 	.word	0x00000000

08001fe0 <left_motor_disable_power_save>:
 8001fe0:	b500      	push	{lr}
 8001fe2:	4b08      	ldr	r3, [pc, #32]	; (8002004 <left_motor_disable_power_save+0x24>)
 8001fe4:	b083      	sub	sp, #12
 8001fe6:	681a      	ldr	r2, [r3, #0]
 8001fe8:	9201      	str	r2, [sp, #4]
 8001fea:	9a01      	ldr	r2, [sp, #4]
 8001fec:	681b      	ldr	r3, [r3, #0]
 8001fee:	429a      	cmp	r2, r3
 8001ff0:	d106      	bne.n	8002000 <left_motor_disable_power_save+0x20>
 8001ff2:	4805      	ldr	r0, [pc, #20]	; (8002008 <left_motor_disable_power_save+0x28>)
 8001ff4:	2100      	movs	r1, #0
 8001ff6:	b003      	add	sp, #12
 8001ff8:	f85d eb04 	ldr.w	lr, [sp], #4
 8001ffc:	f002 be70 	b.w	8004ce0 <pwmDisableChannel>
 8002000:	f7ff f92e 	bl	8001260 <__stack_chk_fail>
 8002004:	20000800 	.word	0x20000800
 8002008:	2000232c 	.word	0x2000232c
 800200c:	00000000 	.word	0x00000000

08002010 <right_motor_timer_callback>:
 8002010:	b570      	push	{r4, r5, r6, lr}
 8002012:	4c1a      	ldr	r4, [pc, #104]	; (800207c <right_motor_timer_callback+0x6c>)
 8002014:	4e1a      	ldr	r6, [pc, #104]	; (8002080 <right_motor_timer_callback+0x70>)
 8002016:	7823      	ldrb	r3, [r4, #0]
 8002018:	6832      	ldr	r2, [r6, #0]
 800201a:	b082      	sub	sp, #8
 800201c:	2b02      	cmp	r3, #2
 800201e:	9201      	str	r2, [sp, #4]
 8002020:	68a2      	ldr	r2, [r4, #8]
 8002022:	d111      	bne.n	8002048 <right_motor_timer_callback+0x38>
 8002024:	7865      	ldrb	r5, [r4, #1]
 8002026:	4817      	ldr	r0, [pc, #92]	; (8002084 <right_motor_timer_callback+0x74>)
 8002028:	3501      	adds	r5, #1
 800202a:	f005 0507 	and.w	r5, r5, #7
 800202e:	eb00 0085 	add.w	r0, r0, r5, lsl #2
 8002032:	4790      	blx	r2
 8002034:	6863      	ldr	r3, [r4, #4]
 8002036:	7065      	strb	r5, [r4, #1]
 8002038:	3b01      	subs	r3, #1
 800203a:	6063      	str	r3, [r4, #4]
 800203c:	9a01      	ldr	r2, [sp, #4]
 800203e:	6833      	ldr	r3, [r6, #0]
 8002040:	429a      	cmp	r2, r3
 8002042:	d119      	bne.n	8002078 <right_motor_timer_callback+0x68>
 8002044:	b002      	add	sp, #8
 8002046:	bd70      	pop	{r4, r5, r6, pc}
 8002048:	2b01      	cmp	r3, #1
 800204a:	d008      	beq.n	800205e <right_motor_timer_callback+0x4e>
 800204c:	9901      	ldr	r1, [sp, #4]
 800204e:	6833      	ldr	r3, [r6, #0]
 8002050:	4299      	cmp	r1, r3
 8002052:	d111      	bne.n	8002078 <right_motor_timer_callback+0x68>
 8002054:	480c      	ldr	r0, [pc, #48]	; (8002088 <right_motor_timer_callback+0x78>)
 8002056:	b002      	add	sp, #8
 8002058:	e8bd 4070 	ldmia.w	sp!, {r4, r5, r6, lr}
 800205c:	4710      	bx	r2
 800205e:	7865      	ldrb	r5, [r4, #1]
 8002060:	4808      	ldr	r0, [pc, #32]	; (8002084 <right_motor_timer_callback+0x74>)
 8002062:	3d01      	subs	r5, #1
 8002064:	f005 0507 	and.w	r5, r5, #7
 8002068:	eb00 0085 	add.w	r0, r0, r5, lsl #2
 800206c:	4790      	blx	r2
 800206e:	6863      	ldr	r3, [r4, #4]
 8002070:	7065      	strb	r5, [r4, #1]
 8002072:	3301      	adds	r3, #1
 8002074:	6063      	str	r3, [r4, #4]
 8002076:	e7e1      	b.n	800203c <right_motor_timer_callback+0x2c>
 8002078:	f7ff f8f2 	bl	8001260 <__stack_chk_fail>
 800207c:	20001294 	.word	0x20001294
 8002080:	20000800 	.word	0x20000800
 8002084:	0800e610 	.word	0x0800e610
 8002088:	0800e600 	.word	0x0800e600
 800208c:	00000000 	.word	0x00000000

08002090 <left_motor_timer_callback>:
 8002090:	b570      	push	{r4, r5, r6, lr}
 8002092:	4c1a      	ldr	r4, [pc, #104]	; (80020fc <left_motor_timer_callback+0x6c>)
 8002094:	4e1a      	ldr	r6, [pc, #104]	; (8002100 <left_motor_timer_callback+0x70>)
 8002096:	7823      	ldrb	r3, [r4, #0]
 8002098:	6832      	ldr	r2, [r6, #0]
 800209a:	b082      	sub	sp, #8
 800209c:	2b01      	cmp	r3, #1
 800209e:	9201      	str	r2, [sp, #4]
 80020a0:	68a2      	ldr	r2, [r4, #8]
 80020a2:	d111      	bne.n	80020c8 <left_motor_timer_callback+0x38>
 80020a4:	7865      	ldrb	r5, [r4, #1]
 80020a6:	4817      	ldr	r0, [pc, #92]	; (8002104 <left_motor_timer_callback+0x74>)
 80020a8:	3501      	adds	r5, #1
 80020aa:	f005 0507 	and.w	r5, r5, #7
 80020ae:	eb00 0085 	add.w	r0, r0, r5, lsl #2
 80020b2:	4790      	blx	r2
 80020b4:	6863      	ldr	r3, [r4, #4]
 80020b6:	7065      	strb	r5, [r4, #1]
 80020b8:	3301      	adds	r3, #1
 80020ba:	6063      	str	r3, [r4, #4]
 80020bc:	9a01      	ldr	r2, [sp, #4]
 80020be:	6833      	ldr	r3, [r6, #0]
 80020c0:	429a      	cmp	r2, r3
 80020c2:	d119      	bne.n	80020f8 <left_motor_timer_callback+0x68>
 80020c4:	b002      	add	sp, #8
 80020c6:	bd70      	pop	{r4, r5, r6, pc}
 80020c8:	2b02      	cmp	r3, #2
 80020ca:	d008      	beq.n	80020de <left_motor_timer_callback+0x4e>
 80020cc:	9901      	ldr	r1, [sp, #4]
 80020ce:	6833      	ldr	r3, [r6, #0]
 80020d0:	4299      	cmp	r1, r3
 80020d2:	d111      	bne.n	80020f8 <left_motor_timer_callback+0x68>
 80020d4:	480c      	ldr	r0, [pc, #48]	; (8002108 <left_motor_timer_callback+0x78>)
 80020d6:	b002      	add	sp, #8
 80020d8:	e8bd 4070 	ldmia.w	sp!, {r4, r5, r6, lr}
 80020dc:	4710      	bx	r2
 80020de:	7865      	ldrb	r5, [r4, #1]
 80020e0:	4808      	ldr	r0, [pc, #32]	; (8002104 <left_motor_timer_callback+0x74>)
 80020e2:	3d01      	subs	r5, #1
 80020e4:	f005 0507 	and.w	r5, r5, #7
 80020e8:	eb00 0085 	add.w	r0, r0, r5, lsl #2
 80020ec:	4790      	blx	r2
 80020ee:	6863      	ldr	r3, [r4, #4]
 80020f0:	7065      	strb	r5, [r4, #1]
 80020f2:	3b01      	subs	r3, #1
 80020f4:	6063      	str	r3, [r4, #4]
 80020f6:	e7e1      	b.n	80020bc <left_motor_timer_callback+0x2c>
 80020f8:	f7ff f8b2 	bl	8001260 <__stack_chk_fail>
 80020fc:	2000127c 	.word	0x2000127c
 8002100:	20000800 	.word	0x20000800
 8002104:	0800e610 	.word	0x0800e610
 8002108:	0800e600 	.word	0x0800e600
 800210c:	00000000 	.word	0x00000000

08002110 <motor_set_speed>:
 8002110:	b530      	push	{r4, r5, lr}
 8002112:	4d1f      	ldr	r5, [pc, #124]	; (8002190 <motor_set_speed+0x80>)
 8002114:	b085      	sub	sp, #20
 8002116:	682b      	ldr	r3, [r5, #0]
 8002118:	9303      	str	r3, [sp, #12]
 800211a:	f240 434c 	movw	r3, #1100	; 0x44c
 800211e:	4299      	cmp	r1, r3
 8002120:	4604      	mov	r4, r0
 8002122:	dc26      	bgt.n	8002172 <motor_set_speed+0x62>
 8002124:	f6a3 0398 	subw	r3, r3, #2200	; 0x898
 8002128:	4299      	cmp	r1, r3
 800212a:	db11      	blt.n	8002150 <motor_set_speed+0x40>
 800212c:	004b      	lsls	r3, r1, #1
 800212e:	2b00      	cmp	r3, #0
 8002130:	d129      	bne.n	8002186 <motor_set_speed+0x76>
 8002132:	7003      	strb	r3, [r0, #0]
 8002134:	6903      	ldr	r3, [r0, #16]
 8002136:	4798      	blx	r3
 8002138:	f44f 717a 	mov.w	r1, #1000	; 0x3e8
 800213c:	9a03      	ldr	r2, [sp, #12]
 800213e:	682b      	ldr	r3, [r5, #0]
 8002140:	429a      	cmp	r2, r3
 8002142:	d11e      	bne.n	8002182 <motor_set_speed+0x72>
 8002144:	6960      	ldr	r0, [r4, #20]
 8002146:	b005      	add	sp, #20
 8002148:	e8bd 4030 	ldmia.w	sp!, {r4, r5, lr}
 800214c:	f002 bd30 	b.w	8004bb0 <pwmChangePeriod>
 8002150:	4b10      	ldr	r3, [pc, #64]	; (8002194 <motor_set_speed+0x84>)
 8002152:	2202      	movs	r2, #2
 8002154:	425b      	negs	r3, r3
 8002156:	7022      	strb	r2, [r4, #0]
 8002158:	f240 2289 	movw	r2, #649	; 0x289
 800215c:	4293      	cmp	r3, r2
 800215e:	490e      	ldr	r1, [pc, #56]	; (8002198 <motor_set_speed+0x88>)
 8002160:	fb91 f1f3 	sdiv	r1, r1, r3
 8002164:	b289      	uxth	r1, r1
 8002166:	dc07      	bgt.n	8002178 <motor_set_speed+0x68>
 8002168:	9101      	str	r1, [sp, #4]
 800216a:	68e3      	ldr	r3, [r4, #12]
 800216c:	4798      	blx	r3
 800216e:	9901      	ldr	r1, [sp, #4]
 8002170:	e7e4      	b.n	800213c <motor_set_speed+0x2c>
 8002172:	2301      	movs	r3, #1
 8002174:	7003      	strb	r3, [r0, #0]
 8002176:	212d      	movs	r1, #45	; 0x2d
 8002178:	9101      	str	r1, [sp, #4]
 800217a:	6923      	ldr	r3, [r4, #16]
 800217c:	4798      	blx	r3
 800217e:	9901      	ldr	r1, [sp, #4]
 8002180:	e7dc      	b.n	800213c <motor_set_speed+0x2c>
 8002182:	f7ff f86d 	bl	8001260 <__stack_chk_fail>
 8002186:	dde4      	ble.n	8002152 <motor_set_speed+0x42>
 8002188:	2201      	movs	r2, #1
 800218a:	7002      	strb	r2, [r0, #0]
 800218c:	e7e4      	b.n	8002158 <motor_set_speed+0x48>
 800218e:	bf00      	nop
 8002190:	20000800 	.word	0x20000800
 8002194:	fffff768 	.word	0xfffff768
 8002198:	000186a0 	.word	0x000186a0
 800219c:	00000000 	.word	0x00000000

080021a0 <left_motor_set_speed>:
 80021a0:	b500      	push	{lr}
 80021a2:	4b08      	ldr	r3, [pc, #32]	; (80021c4 <left_motor_set_speed+0x24>)
 80021a4:	b083      	sub	sp, #12
 80021a6:	681a      	ldr	r2, [r3, #0]
 80021a8:	9201      	str	r2, [sp, #4]
 80021aa:	9a01      	ldr	r2, [sp, #4]
 80021ac:	681b      	ldr	r3, [r3, #0]
 80021ae:	429a      	cmp	r2, r3
 80021b0:	d106      	bne.n	80021c0 <left_motor_set_speed+0x20>
 80021b2:	4601      	mov	r1, r0
 80021b4:	4804      	ldr	r0, [pc, #16]	; (80021c8 <left_motor_set_speed+0x28>)
 80021b6:	b003      	add	sp, #12
 80021b8:	f85d eb04 	ldr.w	lr, [sp], #4
 80021bc:	f7ff bfa8 	b.w	8002110 <motor_set_speed>
 80021c0:	f7ff f84e 	bl	8001260 <__stack_chk_fail>
 80021c4:	20000800 	.word	0x20000800
 80021c8:	2000127c 	.word	0x2000127c
 80021cc:	00000000 	.word	0x00000000

080021d0 <motors_init>:
 80021d0:	b570      	push	{r4, r5, r6, lr}
 80021d2:	4e1d      	ldr	r6, [pc, #116]	; (8002248 <motors_init+0x78>)
 80021d4:	4a1d      	ldr	r2, [pc, #116]	; (800224c <motors_init+0x7c>)
 80021d6:	4b1e      	ldr	r3, [pc, #120]	; (8002250 <motors_init+0x80>)
 80021d8:	6830      	ldr	r0, [r6, #0]
 80021da:	491e      	ldr	r1, [pc, #120]	; (8002254 <motors_init+0x84>)
 80021dc:	4c1e      	ldr	r4, [pc, #120]	; (8002258 <motors_init+0x88>)
 80021de:	6091      	str	r1, [r2, #8]
 80021e0:	b082      	sub	sp, #8
 80021e2:	2100      	movs	r1, #0
 80021e4:	60d4      	str	r4, [r2, #12]
 80021e6:	9001      	str	r0, [sp, #4]
 80021e8:	4c1c      	ldr	r4, [pc, #112]	; (800225c <motors_init+0x8c>)
 80021ea:	481d      	ldr	r0, [pc, #116]	; (8002260 <motors_init+0x90>)
 80021ec:	4d1d      	ldr	r5, [pc, #116]	; (8002264 <motors_init+0x94>)
 80021ee:	609d      	str	r5, [r3, #8]
 80021f0:	7011      	strb	r1, [r2, #0]
 80021f2:	7051      	strb	r1, [r2, #1]
 80021f4:	6051      	str	r1, [r2, #4]
 80021f6:	6110      	str	r0, [r2, #16]
 80021f8:	6154      	str	r4, [r2, #20]
 80021fa:	481b      	ldr	r0, [pc, #108]	; (8002268 <motors_init+0x98>)
 80021fc:	4a1b      	ldr	r2, [pc, #108]	; (800226c <motors_init+0x9c>)
 80021fe:	4d1c      	ldr	r5, [pc, #112]	; (8002270 <motors_init+0xa0>)
 8002200:	60d8      	str	r0, [r3, #12]
 8002202:	481c      	ldr	r0, [pc, #112]	; (8002274 <motors_init+0xa4>)
 8002204:	7019      	strb	r1, [r3, #0]
 8002206:	7059      	strb	r1, [r3, #1]
 8002208:	6059      	str	r1, [r3, #4]
 800220a:	e9c3 2504 	strd	r2, r5, [r3, #16]
 800220e:	f7ff fdbf 	bl	8001d90 <right_motor_update>
 8002212:	4818      	ldr	r0, [pc, #96]	; (8002274 <motors_init+0xa4>)
 8002214:	f7ff fe04 	bl	8001e20 <left_motor_update>
 8002218:	4917      	ldr	r1, [pc, #92]	; (8002278 <motors_init+0xa8>)
 800221a:	4620      	mov	r0, r4
 800221c:	f002 fc78 	bl	8004b10 <pwmStart>
 8002220:	4620      	mov	r0, r4
 8002222:	f002 fdad 	bl	8004d80 <pwmEnablePeriodicNotification>
 8002226:	4628      	mov	r0, r5
 8002228:	4914      	ldr	r1, [pc, #80]	; (800227c <motors_init+0xac>)
 800222a:	f002 fc71 	bl	8004b10 <pwmStart>
 800222e:	9a01      	ldr	r2, [sp, #4]
 8002230:	6833      	ldr	r3, [r6, #0]
 8002232:	429a      	cmp	r2, r3
 8002234:	d105      	bne.n	8002242 <motors_init+0x72>
 8002236:	4628      	mov	r0, r5
 8002238:	b002      	add	sp, #8
 800223a:	e8bd 4070 	ldmia.w	sp!, {r4, r5, r6, lr}
 800223e:	f002 bd9f 	b.w	8004d80 <pwmEnablePeriodicNotification>
 8002242:	f7ff f80d 	bl	8001260 <__stack_chk_fail>
 8002246:	bf00      	nop
 8002248:	20000800 	.word	0x20000800
 800224c:	20001294 	.word	0x20001294
 8002250:	2000127c 	.word	0x2000127c
 8002254:	08001d91 	.word	0x08001d91
 8002258:	08001f31 	.word	0x08001f31
 800225c:	20002310 	.word	0x20002310
 8002260:	08001fb1 	.word	0x08001fb1
 8002264:	08001e21 	.word	0x08001e21
 8002268:	08001f71 	.word	0x08001f71
 800226c:	08001fe1 	.word	0x08001fe1
 8002270:	2000232c 	.word	0x2000232c
 8002274:	0800e600 	.word	0x0800e600
 8002278:	0800e5c0 	.word	0x0800e5c0
 800227c:	0800e580 	.word	0x0800e580

08002280 <panic_handler>:
 8002280:	490a      	ldr	r1, [pc, #40]	; (80022ac <panic_handler+0x2c>)
 8002282:	4b0b      	ldr	r3, [pc, #44]	; (80022b0 <panic_handler+0x30>)
 8002284:	6809      	ldr	r1, [r1, #0]
 8002286:	4a0b      	ldr	r2, [pc, #44]	; (80022b4 <panic_handler+0x34>)
 8002288:	b082      	sub	sp, #8
 800228a:	2020      	movs	r0, #32
 800228c:	9101      	str	r1, [sp, #4]
 800228e:	2140      	movs	r1, #64	; 0x40
 8002290:	8358      	strh	r0, [r3, #26]
 8002292:	f44f 6580 	mov.w	r5, #1024	; 0x400
 8002296:	8359      	strh	r1, [r3, #26]
 8002298:	f44f 6400 	mov.w	r4, #2048	; 0x800
 800229c:	f44f 4080 	mov.w	r0, #16384	; 0x4000
 80022a0:	2104      	movs	r1, #4
 80022a2:	835d      	strh	r5, [r3, #26]
 80022a4:	835c      	strh	r4, [r3, #26]
 80022a6:	8358      	strh	r0, [r3, #26]
 80022a8:	8351      	strh	r1, [r2, #26]
 80022aa:	e7fe      	b.n	80022aa <panic_handler+0x2a>
 80022ac:	20000800 	.word	0x20000800
 80022b0:	40020c00 	.word	0x40020c00
 80022b4:	40020400 	.word	0x40020400
	...

080022c0 <get_selector>:
 80022c0:	b530      	push	{r4, r5, lr}
 80022c2:	4c10      	ldr	r4, [pc, #64]	; (8002304 <get_selector+0x44>)
 80022c4:	4b10      	ldr	r3, [pc, #64]	; (8002308 <get_selector+0x48>)
 80022c6:	6822      	ldr	r2, [r4, #0]
 80022c8:	4910      	ldr	r1, [pc, #64]	; (800230c <get_selector+0x4c>)
 80022ca:	b083      	sub	sp, #12
 80022cc:	9201      	str	r2, [sp, #4]
 80022ce:	6918      	ldr	r0, [r3, #16]
 80022d0:	691a      	ldr	r2, [r3, #16]
 80022d2:	6909      	ldr	r1, [r1, #16]
 80022d4:	691b      	ldr	r3, [r3, #16]
 80022d6:	9d01      	ldr	r5, [sp, #4]
 80022d8:	6824      	ldr	r4, [r4, #0]
 80022da:	f3c2 32c0 	ubfx	r2, r2, #15, #1
 80022de:	f3c1 1100 	ubfx	r1, r1, #4, #1
 80022e2:	eb02 0241 	add.w	r2, r2, r1, lsl #1
 80022e6:	f3c3 3380 	ubfx	r3, r3, #14, #1
 80022ea:	f3c0 3040 	ubfx	r0, r0, #13, #1
 80022ee:	eb03 0342 	add.w	r3, r3, r2, lsl #1
 80022f2:	42a5      	cmp	r5, r4
 80022f4:	eb00 0043 	add.w	r0, r0, r3, lsl #1
 80022f8:	d101      	bne.n	80022fe <get_selector+0x3e>
 80022fa:	b003      	add	sp, #12
 80022fc:	bd30      	pop	{r4, r5, pc}
 80022fe:	f7fe ffaf 	bl	8001260 <__stack_chk_fail>
 8002302:	bf00      	nop
 8002304:	20000800 	.word	0x20000800
 8002308:	40020800 	.word	0x40020800
 800230c:	40020c00 	.word	0x40020c00

08002310 <get_descriptor>:
 8002310:	b500      	push	{lr}
 8002312:	4b0f      	ldr	r3, [pc, #60]	; (8002350 <get_descriptor+0x40>)
 8002314:	b083      	sub	sp, #12
 8002316:	6818      	ldr	r0, [r3, #0]
 8002318:	9001      	str	r0, [sp, #4]
 800231a:	2902      	cmp	r1, #2
 800231c:	d00c      	beq.n	8002338 <get_descriptor+0x28>
 800231e:	2903      	cmp	r1, #3
 8002320:	d00c      	beq.n	800233c <get_descriptor+0x2c>
 8002322:	2901      	cmp	r1, #1
 8002324:	480b      	ldr	r0, [pc, #44]	; (8002354 <get_descriptor+0x44>)
 8002326:	bf18      	it	ne
 8002328:	2000      	movne	r0, #0
 800232a:	9a01      	ldr	r2, [sp, #4]
 800232c:	681b      	ldr	r3, [r3, #0]
 800232e:	429a      	cmp	r2, r3
 8002330:	d10b      	bne.n	800234a <get_descriptor+0x3a>
 8002332:	b003      	add	sp, #12
 8002334:	f85d fb04 	ldr.w	pc, [sp], #4
 8002338:	4807      	ldr	r0, [pc, #28]	; (8002358 <get_descriptor+0x48>)
 800233a:	e7f6      	b.n	800232a <get_descriptor+0x1a>
 800233c:	2a03      	cmp	r2, #3
 800233e:	bf96      	itet	ls
 8002340:	4806      	ldrls	r0, [pc, #24]	; (800235c <get_descriptor+0x4c>)
 8002342:	2000      	movhi	r0, #0
 8002344:	eb00 00c2 	addls.w	r0, r0, r2, lsl #3
 8002348:	e7ef      	b.n	800232a <get_descriptor+0x1a>
 800234a:	f7fe ff89 	bl	8001260 <__stack_chk_fail>
 800234e:	bf00      	nop
 8002350:	20000800 	.word	0x20000800
 8002354:	0800e710 	.word	0x0800e710
 8002358:	0800e6b0 	.word	0x0800e6b0
 800235c:	0800e7c0 	.word	0x0800e7c0

08002360 <usb_event>:
 8002360:	b570      	push	{r4, r5, r6, lr}
 8002362:	4c15      	ldr	r4, [pc, #84]	; (80023b8 <usb_event+0x58>)
 8002364:	b082      	sub	sp, #8
 8002366:	6823      	ldr	r3, [r4, #0]
 8002368:	9301      	str	r3, [sp, #4]
 800236a:	2902      	cmp	r1, #2
 800236c:	d11c      	bne.n	80023a8 <usb_event+0x48>
 800236e:	460d      	mov	r5, r1
 8002370:	4606      	mov	r6, r0
 8002372:	2320      	movs	r3, #32
 8002374:	f383 8811 	msr	BASEPRI, r3
 8002378:	f001 fa22 	bl	80037c0 <_stats_start_measure_crit_isr>
 800237c:	f000 fa38 	bl	80027f0 <_dbg_check_lock_from_isr>
 8002380:	4630      	mov	r0, r6
 8002382:	4a0e      	ldr	r2, [pc, #56]	; (80023bc <usb_event+0x5c>)
 8002384:	2101      	movs	r1, #1
 8002386:	f003 fecb 	bl	8006120 <usbInitEndpointI>
 800238a:	4629      	mov	r1, r5
 800238c:	4a0c      	ldr	r2, [pc, #48]	; (80023c0 <usb_event+0x60>)
 800238e:	4630      	mov	r0, r6
 8002390:	f003 fec6 	bl	8006120 <usbInitEndpointI>
 8002394:	480b      	ldr	r0, [pc, #44]	; (80023c4 <usb_event+0x64>)
 8002396:	f003 fcc3 	bl	8005d20 <sduConfigureHookI>
 800239a:	f000 fa49 	bl	8002830 <_dbg_check_unlock_from_isr>
 800239e:	f001 fa27 	bl	80037f0 <_stats_stop_measure_crit_isr>
 80023a2:	2300      	movs	r3, #0
 80023a4:	f383 8811 	msr	BASEPRI, r3
 80023a8:	9a01      	ldr	r2, [sp, #4]
 80023aa:	6823      	ldr	r3, [r4, #0]
 80023ac:	429a      	cmp	r2, r3
 80023ae:	d101      	bne.n	80023b4 <usb_event+0x54>
 80023b0:	b002      	add	sp, #8
 80023b2:	bd70      	pop	{r4, r5, r6, pc}
 80023b4:	f7fe ff54 	bl	8001260 <__stack_chk_fail>
 80023b8:	20000800 	.word	0x20000800
 80023bc:	0800e630 	.word	0x0800e630
 80023c0:	0800e660 	.word	0x0800e660
 80023c4:	200012ac 	.word	0x200012ac
	...

080023d0 <usb_start>:
 80023d0:	b530      	push	{r4, r5, lr}
 80023d2:	4d13      	ldr	r5, [pc, #76]	; (8002420 <usb_start+0x50>)
 80023d4:	4c13      	ldr	r4, [pc, #76]	; (8002424 <usb_start+0x54>)
 80023d6:	682b      	ldr	r3, [r5, #0]
 80023d8:	4813      	ldr	r0, [pc, #76]	; (8002428 <usb_start+0x58>)
 80023da:	b083      	sub	sp, #12
 80023dc:	9301      	str	r3, [sp, #4]
 80023de:	f003 fc17 	bl	8005c10 <sduObjectInit>
 80023e2:	4912      	ldr	r1, [pc, #72]	; (800242c <usb_start+0x5c>)
 80023e4:	4810      	ldr	r0, [pc, #64]	; (8002428 <usb_start+0x58>)
 80023e6:	f003 fc43 	bl	8005c70 <sduStart>
 80023ea:	6d22      	ldr	r2, [r4, #80]	; 0x50
 80023ec:	6b93      	ldr	r3, [r2, #56]	; 0x38
 80023ee:	f423 2300 	bic.w	r3, r3, #524288	; 0x80000
 80023f2:	6393      	str	r3, [r2, #56]	; 0x38
 80023f4:	f44f 707a 	mov.w	r0, #1000	; 0x3e8
 80023f8:	f000 fef2 	bl	80031e0 <chThdSleep>
 80023fc:	4620      	mov	r0, r4
 80023fe:	490c      	ldr	r1, [pc, #48]	; (8002430 <usb_start+0x60>)
 8002400:	f003 fe3e 	bl	8006080 <usbStart>
 8002404:	6d22      	ldr	r2, [r4, #80]	; 0x50
 8002406:	6b93      	ldr	r3, [r2, #56]	; 0x38
 8002408:	f443 2300 	orr.w	r3, r3, #524288	; 0x80000
 800240c:	6393      	str	r3, [r2, #56]	; 0x38
 800240e:	9a01      	ldr	r2, [sp, #4]
 8002410:	682b      	ldr	r3, [r5, #0]
 8002412:	429a      	cmp	r2, r3
 8002414:	d101      	bne.n	800241a <usb_start+0x4a>
 8002416:	b003      	add	sp, #12
 8002418:	bd30      	pop	{r4, r5, pc}
 800241a:	f7fe ff21 	bl	8001260 <__stack_chk_fail>
 800241e:	bf00      	nop
 8002420:	20000800 	.word	0x20000800
 8002424:	20002000 	.word	0x20002000
 8002428:	200012ac 	.word	0x200012ac
 800242c:	0800e690 	.word	0x0800e690
 8002430:	0800e6a0 	.word	0x0800e6a0
	...

08002440 <__malloc_lock>:
 8002440:	b500      	push	{lr}
 8002442:	4b08      	ldr	r3, [pc, #32]	; (8002464 <__malloc_lock+0x24>)
 8002444:	b083      	sub	sp, #12
 8002446:	681a      	ldr	r2, [r3, #0]
 8002448:	9201      	str	r2, [sp, #4]
 800244a:	9a01      	ldr	r2, [sp, #4]
 800244c:	681b      	ldr	r3, [r3, #0]
 800244e:	429a      	cmp	r2, r3
 8002450:	d105      	bne.n	800245e <__malloc_lock+0x1e>
 8002452:	4805      	ldr	r0, [pc, #20]	; (8002468 <__malloc_lock+0x28>)
 8002454:	b003      	add	sp, #12
 8002456:	f85d eb04 	ldr.w	lr, [sp], #4
 800245a:	f001 bac9 	b.w	80039f0 <chMtxLock>
 800245e:	f7fe feff 	bl	8001260 <__stack_chk_fail>
 8002462:	bf00      	nop
 8002464:	20000800 	.word	0x20000800
 8002468:	20000810 	.word	0x20000810
 800246c:	00000000 	.word	0x00000000

08002470 <__malloc_unlock>:
 8002470:	b500      	push	{lr}
 8002472:	4b08      	ldr	r3, [pc, #32]	; (8002494 <__malloc_unlock+0x24>)
 8002474:	b083      	sub	sp, #12
 8002476:	681a      	ldr	r2, [r3, #0]
 8002478:	9201      	str	r2, [sp, #4]
 800247a:	9a01      	ldr	r2, [sp, #4]
 800247c:	681b      	ldr	r3, [r3, #0]
 800247e:	429a      	cmp	r2, r3
 8002480:	d105      	bne.n	800248e <__malloc_unlock+0x1e>
 8002482:	4805      	ldr	r0, [pc, #20]	; (8002498 <__malloc_unlock+0x28>)
 8002484:	b003      	add	sp, #12
 8002486:	f85d eb04 	ldr.w	lr, [sp], #4
 800248a:	f001 bae9 	b.w	8003a60 <chMtxUnlock>
 800248e:	f7fe fee7 	bl	8001260 <__stack_chk_fail>
 8002492:	bf00      	nop
 8002494:	20000800 	.word	0x20000800
 8002498:	20000810 	.word	0x20000810
 800249c:	00000000 	.word	0x00000000

080024a0 <_sbrk_r>:
 80024a0:	b570      	push	{r4, r5, r6, lr}
 80024a2:	4c0d      	ldr	r4, [pc, #52]	; (80024d8 <_sbrk_r+0x38>)
 80024a4:	b082      	sub	sp, #8
 80024a6:	6823      	ldr	r3, [r4, #0]
 80024a8:	9301      	str	r3, [sp, #4]
 80024aa:	1e0d      	subs	r5, r1, #0
 80024ac:	4606      	mov	r6, r0
 80024ae:	dd0d      	ble.n	80024cc <_sbrk_r+0x2c>
 80024b0:	4628      	mov	r0, r5
 80024b2:	f001 fe8d 	bl	80041d0 <chCoreAlloc>
 80024b6:	b918      	cbnz	r0, 80024c0 <_sbrk_r+0x20>
 80024b8:	230c      	movs	r3, #12
 80024ba:	6033      	str	r3, [r6, #0]
 80024bc:	f04f 30ff 	mov.w	r0, #4294967295
 80024c0:	9a01      	ldr	r2, [sp, #4]
 80024c2:	6823      	ldr	r3, [r4, #0]
 80024c4:	429a      	cmp	r2, r3
 80024c6:	d105      	bne.n	80024d4 <_sbrk_r+0x34>
 80024c8:	b002      	add	sp, #8
 80024ca:	bd70      	pop	{r4, r5, r6, pc}
 80024cc:	4803      	ldr	r0, [pc, #12]	; (80024dc <_sbrk_r+0x3c>)
 80024ce:	f000 f8af 	bl	8002630 <chSysHalt>
 80024d2:	e7ed      	b.n	80024b0 <_sbrk_r+0x10>
 80024d4:	f7fe fec4 	bl	8001260 <__stack_chk_fail>
 80024d8:	20000800 	.word	0x20000800
 80024dc:	0800e7e0 	.word	0x0800e7e0

080024e0 <_fini>:
 80024e0:	b500      	push	{lr}
 80024e2:	4b06      	ldr	r3, [pc, #24]	; (80024fc <_fini+0x1c>)
 80024e4:	b083      	sub	sp, #12
 80024e6:	681a      	ldr	r2, [r3, #0]
 80024e8:	9201      	str	r2, [sp, #4]
 80024ea:	9a01      	ldr	r2, [sp, #4]
 80024ec:	681b      	ldr	r3, [r3, #0]
 80024ee:	429a      	cmp	r2, r3
 80024f0:	d102      	bne.n	80024f8 <_fini+0x18>
 80024f2:	b003      	add	sp, #12
 80024f4:	f85d fb04 	ldr.w	pc, [sp], #4
 80024f8:	f7fe feb2 	bl	8001260 <__stack_chk_fail>
 80024fc:	20000800 	.word	0x20000800

08002500 <__late_init>:
 8002500:	b500      	push	{lr}
 8002502:	4b06      	ldr	r3, [pc, #24]	; (800251c <__late_init+0x1c>)
 8002504:	b083      	sub	sp, #12
 8002506:	681a      	ldr	r2, [r3, #0]
 8002508:	9201      	str	r2, [sp, #4]
 800250a:	9a01      	ldr	r2, [sp, #4]
 800250c:	681b      	ldr	r3, [r3, #0]
 800250e:	429a      	cmp	r2, r3
 8002510:	d102      	bne.n	8002518 <__late_init+0x18>
 8002512:	b003      	add	sp, #12
 8002514:	f85d fb04 	ldr.w	pc, [sp], #4
 8002518:	f7fe fea2 	bl	8001260 <__stack_chk_fail>
 800251c:	20000800 	.word	0x20000800

08002520 <__default_exit>:
 8002520:	4b02      	ldr	r3, [pc, #8]	; (800252c <__default_exit+0xc>)
 8002522:	b082      	sub	sp, #8
 8002524:	681b      	ldr	r3, [r3, #0]
 8002526:	9301      	str	r3, [sp, #4]
 8002528:	e7fe      	b.n	8002528 <__default_exit+0x8>
 800252a:	bf00      	nop
 800252c:	20000800 	.word	0x20000800

08002530 <_unhandled_exception>:
 8002530:	b500      	push	{lr}
 8002532:	4b04      	ldr	r3, [pc, #16]	; (8002544 <_unhandled_exception+0x14>)
 8002534:	4804      	ldr	r0, [pc, #16]	; (8002548 <_unhandled_exception+0x18>)
 8002536:	681b      	ldr	r3, [r3, #0]
 8002538:	b083      	sub	sp, #12
 800253a:	9301      	str	r3, [sp, #4]
 800253c:	f000 f878 	bl	8002630 <chSysHalt>
 8002540:	e7fe      	b.n	8002540 <_unhandled_exception+0x10>
 8002542:	bf00      	nop
 8002544:	20000800 	.word	0x20000800
 8002548:	0800e7f0 	.word	0x0800e7f0
 800254c:	00000000 	.word	0x00000000

08002550 <_idle_thread>:
 8002550:	4b02      	ldr	r3, [pc, #8]	; (800255c <_idle_thread+0xc>)
 8002552:	b082      	sub	sp, #8
 8002554:	681b      	ldr	r3, [r3, #0]
 8002556:	9301      	str	r3, [sp, #4]
 8002558:	e7fe      	b.n	8002558 <_idle_thread+0x8>
 800255a:	bf00      	nop
 800255c:	20000800 	.word	0x20000800

08002560 <chSysInit>:
 8002560:	b5f0      	push	{r4, r5, r6, r7, lr}
 8002562:	4e29      	ldr	r6, [pc, #164]	; (8002608 <chSysInit+0xa8>)
 8002564:	4b29      	ldr	r3, [pc, #164]	; (800260c <chSysInit+0xac>)
 8002566:	6832      	ldr	r2, [r6, #0]
 8002568:	4829      	ldr	r0, [pc, #164]	; (8002610 <chSysInit+0xb0>)
 800256a:	b085      	sub	sp, #20
 800256c:	2400      	movs	r4, #0
 800256e:	9203      	str	r2, [sp, #12]
 8002570:	609c      	str	r4, [r3, #8]
 8002572:	68d9      	ldr	r1, [r3, #12]
 8002574:	4a27      	ldr	r2, [pc, #156]	; (8002614 <chSysInit+0xb4>)
 8002576:	f64f 05ff 	movw	r5, #63743	; 0xf8ff
 800257a:	4029      	ands	r1, r5
 800257c:	430a      	orrs	r2, r1
 800257e:	60da      	str	r2, [r3, #12]
 8002580:	68c2      	ldr	r2, [r0, #12]
 8002582:	4925      	ldr	r1, [pc, #148]	; (8002618 <chSysInit+0xb8>)
 8002584:	4d25      	ldr	r5, [pc, #148]	; (800261c <chSysInit+0xbc>)
 8002586:	f042 7280 	orr.w	r2, r2, #16777216	; 0x1000000
 800258a:	60c2      	str	r2, [r0, #12]
 800258c:	680a      	ldr	r2, [r1, #0]
 800258e:	f042 0201 	orr.w	r2, r2, #1
 8002592:	600a      	str	r2, [r1, #0]
 8002594:	2010      	movs	r0, #16
 8002596:	2220      	movs	r2, #32
 8002598:	77d8      	strb	r0, [r3, #31]
 800259a:	f883 2022 	strb.w	r2, [r3, #34]	; 0x22
 800259e:	f000 fadf 	bl	8002b60 <_scheduler_init>
 80025a2:	f000 fa45 	bl	8002a30 <_vt_init>
 80025a6:	f001 f82b 	bl	8003600 <_tm_init>
 80025aa:	f001 fde9 	bl	8004180 <_core_init>
 80025ae:	f001 fe57 	bl	8004260 <_heap_init>
 80025b2:	f001 f87d 	bl	80036b0 <_stats_init>
 80025b6:	f000 f9fb 	bl	80029b0 <_dbg_trace_init>
 80025ba:	2140      	movs	r1, #64	; 0x40
 80025bc:	f505 6088 	add.w	r0, r5, #1088	; 0x440
 80025c0:	f000 fd1e 	bl	8003000 <_thread_init>
 80025c4:	2701      	movs	r7, #1
 80025c6:	4b16      	ldr	r3, [pc, #88]	; (8002620 <chSysInit+0xc0>)
 80025c8:	61c3      	str	r3, [r0, #28]
 80025ca:	f880 7020 	strb.w	r7, [r0, #32]
 80025ce:	61a8      	str	r0, [r5, #24]
 80025d0:	f000 f8a6 	bl	8002720 <_dbg_check_enable>
 80025d4:	f384 8811 	msr	BASEPRI, r4
 80025d8:	b662      	cpsie	i
 80025da:	69ab      	ldr	r3, [r5, #24]
 80025dc:	4a11      	ldr	r2, [pc, #68]	; (8002624 <chSysInit+0xc4>)
 80025de:	619a      	str	r2, [r3, #24]
 80025e0:	f44f 71c4 	mov.w	r1, #392	; 0x188
 80025e4:	463a      	mov	r2, r7
 80025e6:	4b10      	ldr	r3, [pc, #64]	; (8002628 <chSysInit+0xc8>)
 80025e8:	9400      	str	r4, [sp, #0]
 80025ea:	f505 609d 	add.w	r0, r5, #1256	; 0x4e8
 80025ee:	f000 fd9f 	bl	8003130 <chThdCreateStatic>
 80025f2:	9a03      	ldr	r2, [sp, #12]
 80025f4:	6833      	ldr	r3, [r6, #0]
 80025f6:	490d      	ldr	r1, [pc, #52]	; (800262c <chSysInit+0xcc>)
 80025f8:	6181      	str	r1, [r0, #24]
 80025fa:	429a      	cmp	r2, r3
 80025fc:	d101      	bne.n	8002602 <chSysInit+0xa2>
 80025fe:	b005      	add	sp, #20
 8002600:	bdf0      	pop	{r4, r5, r6, r7, pc}
 8002602:	f7fe fe2d 	bl	8001260 <__stack_chk_fail>
 8002606:	bf00      	nop
 8002608:	20000800 	.word	0x20000800
 800260c:	e000ed00 	.word	0xe000ed00
 8002610:	e000edf0 	.word	0xe000edf0
 8002614:	05fa0300 	.word	0x05fa0300
 8002618:	e0001000 	.word	0xe0001000
 800261c:	20001540 	.word	0x20001540
 8002620:	20000400 	.word	0x20000400
 8002624:	0800e990 	.word	0x0800e990
 8002628:	08002551 	.word	0x08002551
 800262c:	0800e810 	.word	0x0800e810

08002630 <chSysHalt>:
 8002630:	b500      	push	{lr}
 8002632:	4b05      	ldr	r3, [pc, #20]	; (8002648 <chSysHalt+0x18>)
 8002634:	b083      	sub	sp, #12
 8002636:	681b      	ldr	r3, [r3, #0]
 8002638:	9301      	str	r3, [sp, #4]
 800263a:	4604      	mov	r4, r0
 800263c:	b672      	cpsid	i
 800263e:	f7ff fe1f 	bl	8002280 <panic_handler>
 8002642:	4b02      	ldr	r3, [pc, #8]	; (800264c <chSysHalt+0x1c>)
 8002644:	62dc      	str	r4, [r3, #44]	; 0x2c
 8002646:	e7fe      	b.n	8002646 <chSysHalt+0x16>
 8002648:	20000800 	.word	0x20000800
 800264c:	20001540 	.word	0x20001540

08002650 <chSysTimerHandlerI>:
 8002650:	e92d 47f0 	stmdb	sp!, {r4, r5, r6, r7, r8, r9, sl, lr}
 8002654:	f8df a090 	ldr.w	sl, [pc, #144]	; 80026e8 <chSysTimerHandlerI+0x98>
 8002658:	4d22      	ldr	r5, [pc, #136]	; (80026e4 <chSysTimerHandlerI+0x94>)
 800265a:	f8da 3000 	ldr.w	r3, [sl]
 800265e:	b082      	sub	sp, #8
 8002660:	9301      	str	r3, [sp, #4]
 8002662:	f000 f955 	bl	8002910 <chDbgCheckClassI>
 8002666:	69ab      	ldr	r3, [r5, #24]
 8002668:	f893 2023 	ldrb.w	r2, [r3, #35]	; 0x23
 800266c:	b112      	cbz	r2, 8002674 <chSysTimerHandlerI+0x24>
 800266e:	3a01      	subs	r2, #1
 8002670:	f883 2023 	strb.w	r2, [r3, #35]	; 0x23
 8002674:	6a5a      	ldr	r2, [r3, #36]	; 0x24
 8002676:	f8df 8074 	ldr.w	r8, [pc, #116]	; 80026ec <chSysTimerHandlerI+0x9c>
 800267a:	3201      	adds	r2, #1
 800267c:	625a      	str	r2, [r3, #36]	; 0x24
 800267e:	f000 f947 	bl	8002910 <chDbgCheckClassI>
 8002682:	6aab      	ldr	r3, [r5, #40]	; 0x28
 8002684:	69ea      	ldr	r2, [r5, #28]
 8002686:	3301      	adds	r3, #1
 8002688:	4542      	cmp	r2, r8
 800268a:	62ab      	str	r3, [r5, #40]	; 0x28
 800268c:	d020      	beq.n	80026d0 <chSysTimerHandlerI+0x80>
 800268e:	6893      	ldr	r3, [r2, #8]
 8002690:	3b01      	subs	r3, #1
 8002692:	6093      	str	r3, [r2, #8]
 8002694:	69ec      	ldr	r4, [r5, #28]
 8002696:	68a6      	ldr	r6, [r4, #8]
 8002698:	b9d6      	cbnz	r6, 80026d0 <chSysTimerHandlerI+0x80>
 800269a:	f04f 0920 	mov.w	r9, #32
 800269e:	6823      	ldr	r3, [r4, #0]
 80026a0:	68e7      	ldr	r7, [r4, #12]
 80026a2:	60e6      	str	r6, [r4, #12]
 80026a4:	f8c3 8004 	str.w	r8, [r3, #4]
 80026a8:	6823      	ldr	r3, [r4, #0]
 80026aa:	61eb      	str	r3, [r5, #28]
 80026ac:	f000 f8c0 	bl	8002830 <_dbg_check_unlock_from_isr>
 80026b0:	f001 f89e 	bl	80037f0 <_stats_stop_measure_crit_isr>
 80026b4:	f386 8811 	msr	BASEPRI, r6
 80026b8:	6920      	ldr	r0, [r4, #16]
 80026ba:	47b8      	blx	r7
 80026bc:	f389 8811 	msr	BASEPRI, r9
 80026c0:	f001 f87e 	bl	80037c0 <_stats_start_measure_crit_isr>
 80026c4:	f000 f894 	bl	80027f0 <_dbg_check_lock_from_isr>
 80026c8:	69ec      	ldr	r4, [r5, #28]
 80026ca:	68a3      	ldr	r3, [r4, #8]
 80026cc:	2b00      	cmp	r3, #0
 80026ce:	d0e6      	beq.n	800269e <chSysTimerHandlerI+0x4e>
 80026d0:	9a01      	ldr	r2, [sp, #4]
 80026d2:	f8da 3000 	ldr.w	r3, [sl]
 80026d6:	429a      	cmp	r2, r3
 80026d8:	d102      	bne.n	80026e0 <chSysTimerHandlerI+0x90>
 80026da:	b002      	add	sp, #8
 80026dc:	e8bd 87f0 	ldmia.w	sp!, {r4, r5, r6, r7, r8, r9, sl, pc}
 80026e0:	f7fe fdbe 	bl	8001260 <__stack_chk_fail>
 80026e4:	20001540 	.word	0x20001540
 80026e8:	20000800 	.word	0x20000800
 80026ec:	2000155c 	.word	0x2000155c

080026f0 <chSysPolledDelayX>:
 80026f0:	b510      	push	{r4, lr}
 80026f2:	4c09      	ldr	r4, [pc, #36]	; (8002718 <chSysPolledDelayX+0x28>)
 80026f4:	4a09      	ldr	r2, [pc, #36]	; (800271c <chSysPolledDelayX+0x2c>)
 80026f6:	6823      	ldr	r3, [r4, #0]
 80026f8:	b082      	sub	sp, #8
 80026fa:	9301      	str	r3, [sp, #4]
 80026fc:	6851      	ldr	r1, [r2, #4]
 80026fe:	6853      	ldr	r3, [r2, #4]
 8002700:	1a5b      	subs	r3, r3, r1
 8002702:	4298      	cmp	r0, r3
 8002704:	d8fb      	bhi.n	80026fe <chSysPolledDelayX+0xe>
 8002706:	9a01      	ldr	r2, [sp, #4]
 8002708:	6823      	ldr	r3, [r4, #0]
 800270a:	429a      	cmp	r2, r3
 800270c:	d101      	bne.n	8002712 <chSysPolledDelayX+0x22>
 800270e:	b002      	add	sp, #8
 8002710:	bd10      	pop	{r4, pc}
 8002712:	f7fe fda5 	bl	8001260 <__stack_chk_fail>
 8002716:	bf00      	nop
 8002718:	20000800 	.word	0x20000800
 800271c:	e0001000 	.word	0xe0001000

08002720 <_dbg_check_enable>:
 8002720:	b500      	push	{lr}
 8002722:	4a0e      	ldr	r2, [pc, #56]	; (800275c <_dbg_check_enable+0x3c>)
 8002724:	4b0e      	ldr	r3, [pc, #56]	; (8002760 <_dbg_check_enable+0x40>)
 8002726:	6b11      	ldr	r1, [r2, #48]	; 0x30
 8002728:	6818      	ldr	r0, [r3, #0]
 800272a:	b083      	sub	sp, #12
 800272c:	9001      	str	r0, [sp, #4]
 800272e:	b909      	cbnz	r1, 8002734 <_dbg_check_enable+0x14>
 8002730:	6b52      	ldr	r2, [r2, #52]	; 0x34
 8002732:	b14a      	cbz	r2, 8002748 <_dbg_check_enable+0x28>
 8002734:	9a01      	ldr	r2, [sp, #4]
 8002736:	681b      	ldr	r3, [r3, #0]
 8002738:	429a      	cmp	r2, r3
 800273a:	d10c      	bne.n	8002756 <_dbg_check_enable+0x36>
 800273c:	4809      	ldr	r0, [pc, #36]	; (8002764 <_dbg_check_enable+0x44>)
 800273e:	b003      	add	sp, #12
 8002740:	f85d eb04 	ldr.w	lr, [sp], #4
 8002744:	f7ff bf74 	b.w	8002630 <chSysHalt>
 8002748:	9a01      	ldr	r2, [sp, #4]
 800274a:	681b      	ldr	r3, [r3, #0]
 800274c:	429a      	cmp	r2, r3
 800274e:	d102      	bne.n	8002756 <_dbg_check_enable+0x36>
 8002750:	b003      	add	sp, #12
 8002752:	f85d fb04 	ldr.w	pc, [sp], #4
 8002756:	f7fe fd83 	bl	8001260 <__stack_chk_fail>
 800275a:	bf00      	nop
 800275c:	20001540 	.word	0x20001540
 8002760:	20000800 	.word	0x20000800
 8002764:	0800e820 	.word	0x0800e820
	...

08002770 <_dbg_check_lock>:
 8002770:	b530      	push	{r4, r5, lr}
 8002772:	4c0b      	ldr	r4, [pc, #44]	; (80027a0 <_dbg_check_lock+0x30>)
 8002774:	4d0b      	ldr	r5, [pc, #44]	; (80027a4 <_dbg_check_lock+0x34>)
 8002776:	6b23      	ldr	r3, [r4, #48]	; 0x30
 8002778:	682a      	ldr	r2, [r5, #0]
 800277a:	b083      	sub	sp, #12
 800277c:	9201      	str	r2, [sp, #4]
 800277e:	b90b      	cbnz	r3, 8002784 <_dbg_check_lock+0x14>
 8002780:	6b63      	ldr	r3, [r4, #52]	; 0x34
 8002782:	b113      	cbz	r3, 800278a <_dbg_check_lock+0x1a>
 8002784:	4808      	ldr	r0, [pc, #32]	; (80027a8 <_dbg_check_lock+0x38>)
 8002786:	f7ff ff53 	bl	8002630 <chSysHalt>
 800278a:	9a01      	ldr	r2, [sp, #4]
 800278c:	682b      	ldr	r3, [r5, #0]
 800278e:	2101      	movs	r1, #1
 8002790:	429a      	cmp	r2, r3
 8002792:	6361      	str	r1, [r4, #52]	; 0x34
 8002794:	d101      	bne.n	800279a <_dbg_check_lock+0x2a>
 8002796:	b003      	add	sp, #12
 8002798:	bd30      	pop	{r4, r5, pc}
 800279a:	f7fe fd61 	bl	8001260 <__stack_chk_fail>
 800279e:	bf00      	nop
 80027a0:	20001540 	.word	0x20001540
 80027a4:	20000800 	.word	0x20000800
 80027a8:	0800e850 	.word	0x0800e850
 80027ac:	00000000 	.word	0x00000000

080027b0 <_dbg_check_unlock>:
 80027b0:	b530      	push	{r4, r5, lr}
 80027b2:	4c0c      	ldr	r4, [pc, #48]	; (80027e4 <_dbg_check_unlock+0x34>)
 80027b4:	4d0c      	ldr	r5, [pc, #48]	; (80027e8 <_dbg_check_unlock+0x38>)
 80027b6:	6b23      	ldr	r3, [r4, #48]	; 0x30
 80027b8:	682a      	ldr	r2, [r5, #0]
 80027ba:	b083      	sub	sp, #12
 80027bc:	9201      	str	r2, [sp, #4]
 80027be:	b953      	cbnz	r3, 80027d6 <_dbg_check_unlock+0x26>
 80027c0:	6b63      	ldr	r3, [r4, #52]	; 0x34
 80027c2:	2b00      	cmp	r3, #0
 80027c4:	dd07      	ble.n	80027d6 <_dbg_check_unlock+0x26>
 80027c6:	9a01      	ldr	r2, [sp, #4]
 80027c8:	682b      	ldr	r3, [r5, #0]
 80027ca:	2100      	movs	r1, #0
 80027cc:	429a      	cmp	r2, r3
 80027ce:	6361      	str	r1, [r4, #52]	; 0x34
 80027d0:	d105      	bne.n	80027de <_dbg_check_unlock+0x2e>
 80027d2:	b003      	add	sp, #12
 80027d4:	bd30      	pop	{r4, r5, pc}
 80027d6:	4805      	ldr	r0, [pc, #20]	; (80027ec <_dbg_check_unlock+0x3c>)
 80027d8:	f7ff ff2a 	bl	8002630 <chSysHalt>
 80027dc:	e7f3      	b.n	80027c6 <_dbg_check_unlock+0x16>
 80027de:	f7fe fd3f 	bl	8001260 <__stack_chk_fail>
 80027e2:	bf00      	nop
 80027e4:	20001540 	.word	0x20001540
 80027e8:	20000800 	.word	0x20000800
 80027ec:	0800e870 	.word	0x0800e870

080027f0 <_dbg_check_lock_from_isr>:
 80027f0:	b530      	push	{r4, r5, lr}
 80027f2:	4c0b      	ldr	r4, [pc, #44]	; (8002820 <_dbg_check_lock_from_isr+0x30>)
 80027f4:	4d0b      	ldr	r5, [pc, #44]	; (8002824 <_dbg_check_lock_from_isr+0x34>)
 80027f6:	6b23      	ldr	r3, [r4, #48]	; 0x30
 80027f8:	682a      	ldr	r2, [r5, #0]
 80027fa:	b083      	sub	sp, #12
 80027fc:	2b00      	cmp	r3, #0
 80027fe:	9201      	str	r2, [sp, #4]
 8002800:	dd01      	ble.n	8002806 <_dbg_check_lock_from_isr+0x16>
 8002802:	6b63      	ldr	r3, [r4, #52]	; 0x34
 8002804:	b113      	cbz	r3, 800280c <_dbg_check_lock_from_isr+0x1c>
 8002806:	4808      	ldr	r0, [pc, #32]	; (8002828 <_dbg_check_lock_from_isr+0x38>)
 8002808:	f7ff ff12 	bl	8002630 <chSysHalt>
 800280c:	9a01      	ldr	r2, [sp, #4]
 800280e:	682b      	ldr	r3, [r5, #0]
 8002810:	2101      	movs	r1, #1
 8002812:	429a      	cmp	r2, r3
 8002814:	6361      	str	r1, [r4, #52]	; 0x34
 8002816:	d101      	bne.n	800281c <_dbg_check_lock_from_isr+0x2c>
 8002818:	b003      	add	sp, #12
 800281a:	bd30      	pop	{r4, r5, pc}
 800281c:	f7fe fd20 	bl	8001260 <__stack_chk_fail>
 8002820:	20001540 	.word	0x20001540
 8002824:	20000800 	.word	0x20000800
 8002828:	0800e860 	.word	0x0800e860
 800282c:	00000000 	.word	0x00000000

08002830 <_dbg_check_unlock_from_isr>:
 8002830:	b530      	push	{r4, r5, lr}
 8002832:	4c0c      	ldr	r4, [pc, #48]	; (8002864 <_dbg_check_unlock_from_isr+0x34>)
 8002834:	4d0c      	ldr	r5, [pc, #48]	; (8002868 <_dbg_check_unlock_from_isr+0x38>)
 8002836:	6b23      	ldr	r3, [r4, #48]	; 0x30
 8002838:	682a      	ldr	r2, [r5, #0]
 800283a:	b083      	sub	sp, #12
 800283c:	2b00      	cmp	r3, #0
 800283e:	9201      	str	r2, [sp, #4]
 8002840:	dd0a      	ble.n	8002858 <_dbg_check_unlock_from_isr+0x28>
 8002842:	6b63      	ldr	r3, [r4, #52]	; 0x34
 8002844:	2b00      	cmp	r3, #0
 8002846:	dd07      	ble.n	8002858 <_dbg_check_unlock_from_isr+0x28>
 8002848:	9a01      	ldr	r2, [sp, #4]
 800284a:	682b      	ldr	r3, [r5, #0]
 800284c:	2100      	movs	r1, #0
 800284e:	429a      	cmp	r2, r3
 8002850:	6361      	str	r1, [r4, #52]	; 0x34
 8002852:	d105      	bne.n	8002860 <_dbg_check_unlock_from_isr+0x30>
 8002854:	b003      	add	sp, #12
 8002856:	bd30      	pop	{r4, r5, pc}
 8002858:	4804      	ldr	r0, [pc, #16]	; (800286c <_dbg_check_unlock_from_isr+0x3c>)
 800285a:	f7ff fee9 	bl	8002630 <chSysHalt>
 800285e:	e7f3      	b.n	8002848 <_dbg_check_unlock_from_isr+0x18>
 8002860:	f7fe fcfe 	bl	8001260 <__stack_chk_fail>
 8002864:	20001540 	.word	0x20001540
 8002868:	20000800 	.word	0x20000800
 800286c:	0800e880 	.word	0x0800e880

08002870 <_dbg_check_enter_isr>:
 8002870:	b530      	push	{r4, r5, lr}
 8002872:	4d0f      	ldr	r5, [pc, #60]	; (80028b0 <_dbg_check_enter_isr+0x40>)
 8002874:	b083      	sub	sp, #12
 8002876:	682b      	ldr	r3, [r5, #0]
 8002878:	9301      	str	r3, [sp, #4]
 800287a:	2320      	movs	r3, #32
 800287c:	f383 8811 	msr	BASEPRI, r3
 8002880:	4c0c      	ldr	r4, [pc, #48]	; (80028b4 <_dbg_check_enter_isr+0x44>)
 8002882:	6b23      	ldr	r3, [r4, #48]	; 0x30
 8002884:	2b00      	cmp	r3, #0
 8002886:	db01      	blt.n	800288c <_dbg_check_enter_isr+0x1c>
 8002888:	6b62      	ldr	r2, [r4, #52]	; 0x34
 800288a:	b11a      	cbz	r2, 8002894 <_dbg_check_enter_isr+0x24>
 800288c:	480a      	ldr	r0, [pc, #40]	; (80028b8 <_dbg_check_enter_isr+0x48>)
 800288e:	f7ff fecf 	bl	8002630 <chSysHalt>
 8002892:	6b23      	ldr	r3, [r4, #48]	; 0x30
 8002894:	3301      	adds	r3, #1
 8002896:	6323      	str	r3, [r4, #48]	; 0x30
 8002898:	2300      	movs	r3, #0
 800289a:	f383 8811 	msr	BASEPRI, r3
 800289e:	9a01      	ldr	r2, [sp, #4]
 80028a0:	682b      	ldr	r3, [r5, #0]
 80028a2:	429a      	cmp	r2, r3
 80028a4:	d101      	bne.n	80028aa <_dbg_check_enter_isr+0x3a>
 80028a6:	b003      	add	sp, #12
 80028a8:	bd30      	pop	{r4, r5, pc}
 80028aa:	f7fe fcd9 	bl	8001260 <__stack_chk_fail>
 80028ae:	bf00      	nop
 80028b0:	20000800 	.word	0x20000800
 80028b4:	20001540 	.word	0x20001540
 80028b8:	0800e830 	.word	0x0800e830
 80028bc:	00000000 	.word	0x00000000

080028c0 <_dbg_check_leave_isr>:
 80028c0:	b530      	push	{r4, r5, lr}
 80028c2:	4d0f      	ldr	r5, [pc, #60]	; (8002900 <_dbg_check_leave_isr+0x40>)
 80028c4:	b083      	sub	sp, #12
 80028c6:	682b      	ldr	r3, [r5, #0]
 80028c8:	9301      	str	r3, [sp, #4]
 80028ca:	2320      	movs	r3, #32
 80028cc:	f383 8811 	msr	BASEPRI, r3
 80028d0:	4c0c      	ldr	r4, [pc, #48]	; (8002904 <_dbg_check_leave_isr+0x44>)
 80028d2:	6b23      	ldr	r3, [r4, #48]	; 0x30
 80028d4:	2b00      	cmp	r3, #0
 80028d6:	dd01      	ble.n	80028dc <_dbg_check_leave_isr+0x1c>
 80028d8:	6b62      	ldr	r2, [r4, #52]	; 0x34
 80028da:	b11a      	cbz	r2, 80028e4 <_dbg_check_leave_isr+0x24>
 80028dc:	480a      	ldr	r0, [pc, #40]	; (8002908 <_dbg_check_leave_isr+0x48>)
 80028de:	f7ff fea7 	bl	8002630 <chSysHalt>
 80028e2:	6b23      	ldr	r3, [r4, #48]	; 0x30
 80028e4:	3b01      	subs	r3, #1
 80028e6:	6323      	str	r3, [r4, #48]	; 0x30
 80028e8:	2300      	movs	r3, #0
 80028ea:	f383 8811 	msr	BASEPRI, r3
 80028ee:	9a01      	ldr	r2, [sp, #4]
 80028f0:	682b      	ldr	r3, [r5, #0]
 80028f2:	429a      	cmp	r2, r3
 80028f4:	d101      	bne.n	80028fa <_dbg_check_leave_isr+0x3a>
 80028f6:	b003      	add	sp, #12
 80028f8:	bd30      	pop	{r4, r5, pc}
 80028fa:	f7fe fcb1 	bl	8001260 <__stack_chk_fail>
 80028fe:	bf00      	nop
 8002900:	20000800 	.word	0x20000800
 8002904:	20001540 	.word	0x20001540
 8002908:	0800e840 	.word	0x0800e840
 800290c:	00000000 	.word	0x00000000

08002910 <chDbgCheckClassI>:
 8002910:	b500      	push	{lr}
 8002912:	4a0f      	ldr	r2, [pc, #60]	; (8002950 <chDbgCheckClassI+0x40>)
 8002914:	4b0f      	ldr	r3, [pc, #60]	; (8002954 <chDbgCheckClassI+0x44>)
 8002916:	6b11      	ldr	r1, [r2, #48]	; 0x30
 8002918:	6818      	ldr	r0, [r3, #0]
 800291a:	b083      	sub	sp, #12
 800291c:	2900      	cmp	r1, #0
 800291e:	9001      	str	r0, [sp, #4]
 8002920:	db09      	blt.n	8002936 <chDbgCheckClassI+0x26>
 8002922:	6b52      	ldr	r2, [r2, #52]	; 0x34
 8002924:	2a00      	cmp	r2, #0
 8002926:	dd06      	ble.n	8002936 <chDbgCheckClassI+0x26>
 8002928:	9a01      	ldr	r2, [sp, #4]
 800292a:	681b      	ldr	r3, [r3, #0]
 800292c:	429a      	cmp	r2, r3
 800292e:	d10c      	bne.n	800294a <chDbgCheckClassI+0x3a>
 8002930:	b003      	add	sp, #12
 8002932:	f85d fb04 	ldr.w	pc, [sp], #4
 8002936:	9a01      	ldr	r2, [sp, #4]
 8002938:	681b      	ldr	r3, [r3, #0]
 800293a:	429a      	cmp	r2, r3
 800293c:	d105      	bne.n	800294a <chDbgCheckClassI+0x3a>
 800293e:	4806      	ldr	r0, [pc, #24]	; (8002958 <chDbgCheckClassI+0x48>)
 8002940:	b003      	add	sp, #12
 8002942:	f85d eb04 	ldr.w	lr, [sp], #4
 8002946:	f7ff be73 	b.w	8002630 <chSysHalt>
 800294a:	f7fe fc89 	bl	8001260 <__stack_chk_fail>
 800294e:	bf00      	nop
 8002950:	20001540 	.word	0x20001540
 8002954:	20000800 	.word	0x20000800
 8002958:	0800e890 	.word	0x0800e890
 800295c:	00000000 	.word	0x00000000

08002960 <chDbgCheckClassS>:
 8002960:	b500      	push	{lr}
 8002962:	4a0e      	ldr	r2, [pc, #56]	; (800299c <chDbgCheckClassS+0x3c>)
 8002964:	4b0e      	ldr	r3, [pc, #56]	; (80029a0 <chDbgCheckClassS+0x40>)
 8002966:	6b11      	ldr	r1, [r2, #48]	; 0x30
 8002968:	6818      	ldr	r0, [r3, #0]
 800296a:	b083      	sub	sp, #12
 800296c:	9001      	str	r0, [sp, #4]
 800296e:	b949      	cbnz	r1, 8002984 <chDbgCheckClassS+0x24>
 8002970:	6b52      	ldr	r2, [r2, #52]	; 0x34
 8002972:	2a00      	cmp	r2, #0
 8002974:	dd06      	ble.n	8002984 <chDbgCheckClassS+0x24>
 8002976:	9a01      	ldr	r2, [sp, #4]
 8002978:	681b      	ldr	r3, [r3, #0]
 800297a:	429a      	cmp	r2, r3
 800297c:	d10c      	bne.n	8002998 <chDbgCheckClassS+0x38>
 800297e:	b003      	add	sp, #12
 8002980:	f85d fb04 	ldr.w	pc, [sp], #4
 8002984:	9a01      	ldr	r2, [sp, #4]
 8002986:	681b      	ldr	r3, [r3, #0]
 8002988:	429a      	cmp	r2, r3
 800298a:	d105      	bne.n	8002998 <chDbgCheckClassS+0x38>
 800298c:	4805      	ldr	r0, [pc, #20]	; (80029a4 <chDbgCheckClassS+0x44>)
 800298e:	b003      	add	sp, #12
 8002990:	f85d eb04 	ldr.w	lr, [sp], #4
 8002994:	f7ff be4c 	b.w	8002630 <chSysHalt>
 8002998:	f7fe fc62 	bl	8001260 <__stack_chk_fail>
 800299c:	20001540 	.word	0x20001540
 80029a0:	20000800 	.word	0x20000800
 80029a4:	0800e8a0 	.word	0x0800e8a0
	...

080029b0 <_dbg_trace_init>:
 80029b0:	b510      	push	{r4, lr}
 80029b2:	4a08      	ldr	r2, [pc, #32]	; (80029d4 <_dbg_trace_init+0x24>)
 80029b4:	4b08      	ldr	r3, [pc, #32]	; (80029d8 <_dbg_trace_init+0x28>)
 80029b6:	6811      	ldr	r1, [r2, #0]
 80029b8:	b082      	sub	sp, #8
 80029ba:	2440      	movs	r4, #64	; 0x40
 80029bc:	9101      	str	r1, [sp, #4]
 80029be:	9901      	ldr	r1, [sp, #4]
 80029c0:	6812      	ldr	r2, [r2, #0]
 80029c2:	1918      	adds	r0, r3, r4
 80029c4:	4291      	cmp	r1, r2
 80029c6:	e9c3 400e 	strd	r4, r0, [r3, #56]	; 0x38
 80029ca:	d101      	bne.n	80029d0 <_dbg_trace_init+0x20>
 80029cc:	b002      	add	sp, #8
 80029ce:	bd10      	pop	{r4, pc}
 80029d0:	f7fe fc46 	bl	8001260 <__stack_chk_fail>
 80029d4:	20000800 	.word	0x20000800
 80029d8:	20001540 	.word	0x20001540
 80029dc:	00000000 	.word	0x00000000

080029e0 <_dbg_trace>:
 80029e0:	b510      	push	{r4, lr}
 80029e2:	4911      	ldr	r1, [pc, #68]	; (8002a28 <_dbg_trace+0x48>)
 80029e4:	4b11      	ldr	r3, [pc, #68]	; (8002a2c <_dbg_trace+0x4c>)
 80029e6:	680a      	ldr	r2, [r1, #0]
 80029e8:	b082      	sub	sp, #8
 80029ea:	9201      	str	r2, [sp, #4]
 80029ec:	6bda      	ldr	r2, [r3, #60]	; 0x3c
 80029ee:	6a9c      	ldr	r4, [r3, #40]	; 0x28
 80029f0:	6014      	str	r4, [r2, #0]
 80029f2:	6bda      	ldr	r2, [r3, #60]	; 0x3c
 80029f4:	699c      	ldr	r4, [r3, #24]
 80029f6:	6054      	str	r4, [r2, #4]
 80029f8:	6bda      	ldr	r2, [r3, #60]	; 0x3c
 80029fa:	6a84      	ldr	r4, [r0, #40]	; 0x28
 80029fc:	6094      	str	r4, [r2, #8]
 80029fe:	6bda      	ldr	r2, [r3, #60]	; 0x3c
 8002a00:	f890 0020 	ldrb.w	r0, [r0, #32]
 8002a04:	7310      	strb	r0, [r2, #12]
 8002a06:	6bda      	ldr	r2, [r3, #60]	; 0x3c
 8002a08:	f503 6088 	add.w	r0, r3, #1088	; 0x440
 8002a0c:	3210      	adds	r2, #16
 8002a0e:	4282      	cmp	r2, r0
 8002a10:	bf28      	it	cs
 8002a12:	f103 0240 	addcs.w	r2, r3, #64	; 0x40
 8002a16:	63da      	str	r2, [r3, #60]	; 0x3c
 8002a18:	9a01      	ldr	r2, [sp, #4]
 8002a1a:	680b      	ldr	r3, [r1, #0]
 8002a1c:	429a      	cmp	r2, r3
 8002a1e:	d101      	bne.n	8002a24 <_dbg_trace+0x44>
 8002a20:	b002      	add	sp, #8
 8002a22:	bd10      	pop	{r4, pc}
 8002a24:	f7fe fc1c 	bl	8001260 <__stack_chk_fail>
 8002a28:	20000800 	.word	0x20000800
 8002a2c:	20001540 	.word	0x20001540

08002a30 <_vt_init>:
 8002a30:	b510      	push	{r4, lr}
 8002a32:	4a0b      	ldr	r2, [pc, #44]	; (8002a60 <_vt_init+0x30>)
 8002a34:	4b0b      	ldr	r3, [pc, #44]	; (8002a64 <_vt_init+0x34>)
 8002a36:	6811      	ldr	r1, [r2, #0]
 8002a38:	b082      	sub	sp, #8
 8002a3a:	f04f 34ff 	mov.w	r4, #4294967295
 8002a3e:	9101      	str	r1, [sp, #4]
 8002a40:	2100      	movs	r1, #0
 8002a42:	6299      	str	r1, [r3, #40]	; 0x28
 8002a44:	9801      	ldr	r0, [sp, #4]
 8002a46:	6811      	ldr	r1, [r2, #0]
 8002a48:	625c      	str	r4, [r3, #36]	; 0x24
 8002a4a:	f103 021c 	add.w	r2, r3, #28
 8002a4e:	4288      	cmp	r0, r1
 8002a50:	e9c3 2207 	strd	r2, r2, [r3, #28]
 8002a54:	d101      	bne.n	8002a5a <_vt_init+0x2a>
 8002a56:	b002      	add	sp, #8
 8002a58:	bd10      	pop	{r4, pc}
 8002a5a:	f7fe fc01 	bl	8001260 <__stack_chk_fail>
 8002a5e:	bf00      	nop
 8002a60:	20000800 	.word	0x20000800
 8002a64:	20001540 	.word	0x20001540
	...

08002a70 <chVTDoSetI>:
 8002a70:	e92d 41f0 	stmdb	sp!, {r4, r5, r6, r7, r8, lr}
 8002a74:	4e18      	ldr	r6, [pc, #96]	; (8002ad8 <chVTDoSetI+0x68>)
 8002a76:	b082      	sub	sp, #8
 8002a78:	4605      	mov	r5, r0
 8002a7a:	6830      	ldr	r0, [r6, #0]
 8002a7c:	9001      	str	r0, [sp, #4]
 8002a7e:	460c      	mov	r4, r1
 8002a80:	4617      	mov	r7, r2
 8002a82:	4698      	mov	r8, r3
 8002a84:	f7ff ff44 	bl	8002910 <chDbgCheckClassI>
 8002a88:	b305      	cbz	r5, 8002acc <chVTDoSetI+0x5c>
 8002a8a:	b1ff      	cbz	r7, 8002acc <chVTDoSetI+0x5c>
 8002a8c:	b1f4      	cbz	r4, 8002acc <chVTDoSetI+0x5c>
 8002a8e:	e9c5 7803 	strd	r7, r8, [r5, #12]
 8002a92:	4812      	ldr	r0, [pc, #72]	; (8002adc <chVTDoSetI+0x6c>)
 8002a94:	69c3      	ldr	r3, [r0, #28]
 8002a96:	689a      	ldr	r2, [r3, #8]
 8002a98:	4294      	cmp	r4, r2
 8002a9a:	d904      	bls.n	8002aa6 <chVTDoSetI+0x36>
 8002a9c:	681b      	ldr	r3, [r3, #0]
 8002a9e:	1aa4      	subs	r4, r4, r2
 8002aa0:	689a      	ldr	r2, [r3, #8]
 8002aa2:	42a2      	cmp	r2, r4
 8002aa4:	d3fa      	bcc.n	8002a9c <chVTDoSetI+0x2c>
 8002aa6:	602b      	str	r3, [r5, #0]
 8002aa8:	685a      	ldr	r2, [r3, #4]
 8002aaa:	606a      	str	r2, [r5, #4]
 8002aac:	6015      	str	r5, [r2, #0]
 8002aae:	605d      	str	r5, [r3, #4]
 8002ab0:	60ac      	str	r4, [r5, #8]
 8002ab2:	6899      	ldr	r1, [r3, #8]
 8002ab4:	9d01      	ldr	r5, [sp, #4]
 8002ab6:	6832      	ldr	r2, [r6, #0]
 8002ab8:	1b09      	subs	r1, r1, r4
 8002aba:	4295      	cmp	r5, r2
 8002abc:	f04f 34ff 	mov.w	r4, #4294967295
 8002ac0:	6099      	str	r1, [r3, #8]
 8002ac2:	6244      	str	r4, [r0, #36]	; 0x24
 8002ac4:	d106      	bne.n	8002ad4 <chVTDoSetI+0x64>
 8002ac6:	b002      	add	sp, #8
 8002ac8:	e8bd 81f0 	ldmia.w	sp!, {r4, r5, r6, r7, r8, pc}
 8002acc:	4804      	ldr	r0, [pc, #16]	; (8002ae0 <chVTDoSetI+0x70>)
 8002ace:	f7ff fdaf 	bl	8002630 <chSysHalt>
 8002ad2:	e7dc      	b.n	8002a8e <chVTDoSetI+0x1e>
 8002ad4:	f7fe fbc4 	bl	8001260 <__stack_chk_fail>
 8002ad8:	20000800 	.word	0x20000800
 8002adc:	20001540 	.word	0x20001540
 8002ae0:	0800e8b0 	.word	0x0800e8b0
	...

08002af0 <chVTDoResetI>:
 8002af0:	b530      	push	{r4, r5, lr}
 8002af2:	4d16      	ldr	r5, [pc, #88]	; (8002b4c <chVTDoResetI+0x5c>)
 8002af4:	b083      	sub	sp, #12
 8002af6:	4604      	mov	r4, r0
 8002af8:	682b      	ldr	r3, [r5, #0]
 8002afa:	9301      	str	r3, [sp, #4]
 8002afc:	f7ff ff08 	bl	8002910 <chDbgCheckClassI>
 8002b00:	b1ec      	cbz	r4, 8002b3e <chVTDoResetI+0x4e>
 8002b02:	68e3      	ldr	r3, [r4, #12]
 8002b04:	b1bb      	cbz	r3, 8002b36 <chVTDoResetI+0x46>
 8002b06:	6822      	ldr	r2, [r4, #0]
 8002b08:	68a0      	ldr	r0, [r4, #8]
 8002b0a:	6893      	ldr	r3, [r2, #8]
 8002b0c:	9901      	ldr	r1, [sp, #4]
 8002b0e:	4403      	add	r3, r0
 8002b10:	6093      	str	r3, [r2, #8]
 8002b12:	e9d4 2300 	ldrd	r2, r3, [r4]
 8002b16:	601a      	str	r2, [r3, #0]
 8002b18:	6820      	ldr	r0, [r4, #0]
 8002b1a:	682b      	ldr	r3, [r5, #0]
 8002b1c:	4a0c      	ldr	r2, [pc, #48]	; (8002b50 <chVTDoResetI+0x60>)
 8002b1e:	6865      	ldr	r5, [r4, #4]
 8002b20:	6045      	str	r5, [r0, #4]
 8002b22:	4299      	cmp	r1, r3
 8002b24:	f04f 0500 	mov.w	r5, #0
 8002b28:	f04f 30ff 	mov.w	r0, #4294967295
 8002b2c:	60e5      	str	r5, [r4, #12]
 8002b2e:	6250      	str	r0, [r2, #36]	; 0x24
 8002b30:	d109      	bne.n	8002b46 <chVTDoResetI+0x56>
 8002b32:	b003      	add	sp, #12
 8002b34:	bd30      	pop	{r4, r5, pc}
 8002b36:	4807      	ldr	r0, [pc, #28]	; (8002b54 <chVTDoResetI+0x64>)
 8002b38:	f7ff fd7a 	bl	8002630 <chSysHalt>
 8002b3c:	e7e3      	b.n	8002b06 <chVTDoResetI+0x16>
 8002b3e:	4805      	ldr	r0, [pc, #20]	; (8002b54 <chVTDoResetI+0x64>)
 8002b40:	f7ff fd76 	bl	8002630 <chSysHalt>
 8002b44:	e7dd      	b.n	8002b02 <chVTDoResetI+0x12>
 8002b46:	f7fe fb8b 	bl	8001260 <__stack_chk_fail>
 8002b4a:	bf00      	nop
 8002b4c:	20000800 	.word	0x20000800
 8002b50:	20001540 	.word	0x20001540
 8002b54:	0800e8c0 	.word	0x0800e8c0
	...

08002b60 <_scheduler_init>:
 8002b60:	b500      	push	{lr}
 8002b62:	4a0a      	ldr	r2, [pc, #40]	; (8002b8c <_scheduler_init+0x2c>)
 8002b64:	4b0a      	ldr	r3, [pc, #40]	; (8002b90 <_scheduler_init+0x30>)
 8002b66:	6811      	ldr	r1, [r2, #0]
 8002b68:	601b      	str	r3, [r3, #0]
 8002b6a:	b083      	sub	sp, #12
 8002b6c:	2000      	movs	r0, #0
 8002b6e:	9101      	str	r1, [sp, #4]
 8002b70:	9901      	ldr	r1, [sp, #4]
 8002b72:	6812      	ldr	r2, [r2, #0]
 8002b74:	605b      	str	r3, [r3, #4]
 8002b76:	4291      	cmp	r1, r2
 8002b78:	e9c3 3304 	strd	r3, r3, [r3, #16]
 8002b7c:	6098      	str	r0, [r3, #8]
 8002b7e:	d102      	bne.n	8002b86 <_scheduler_init+0x26>
 8002b80:	b003      	add	sp, #12
 8002b82:	f85d fb04 	ldr.w	pc, [sp], #4
 8002b86:	f7fe fb6b 	bl	8001260 <__stack_chk_fail>
 8002b8a:	bf00      	nop
 8002b8c:	20000800 	.word	0x20000800
 8002b90:	20001540 	.word	0x20001540
	...

08002ba0 <chSchReadyI>:
 8002ba0:	b530      	push	{r4, r5, lr}
 8002ba2:	4d16      	ldr	r5, [pc, #88]	; (8002bfc <chSchReadyI+0x5c>)
 8002ba4:	b083      	sub	sp, #12
 8002ba6:	4604      	mov	r4, r0
 8002ba8:	682b      	ldr	r3, [r5, #0]
 8002baa:	9301      	str	r3, [sp, #4]
 8002bac:	f7ff feb0 	bl	8002910 <chDbgCheckClassI>
 8002bb0:	b1ec      	cbz	r4, 8002bee <chSchReadyI+0x4e>
 8002bb2:	f894 3020 	ldrb.w	r3, [r4, #32]
 8002bb6:	b1b3      	cbz	r3, 8002be6 <chSchReadyI+0x46>
 8002bb8:	2b0f      	cmp	r3, #15
 8002bba:	d014      	beq.n	8002be6 <chSchReadyI+0x46>
 8002bbc:	2200      	movs	r2, #0
 8002bbe:	68a1      	ldr	r1, [r4, #8]
 8002bc0:	4b0f      	ldr	r3, [pc, #60]	; (8002c00 <chSchReadyI+0x60>)
 8002bc2:	f884 2020 	strb.w	r2, [r4, #32]
 8002bc6:	681b      	ldr	r3, [r3, #0]
 8002bc8:	689a      	ldr	r2, [r3, #8]
 8002bca:	428a      	cmp	r2, r1
 8002bcc:	d2fb      	bcs.n	8002bc6 <chSchReadyI+0x26>
 8002bce:	6023      	str	r3, [r4, #0]
 8002bd0:	685a      	ldr	r2, [r3, #4]
 8002bd2:	6062      	str	r2, [r4, #4]
 8002bd4:	6014      	str	r4, [r2, #0]
 8002bd6:	9901      	ldr	r1, [sp, #4]
 8002bd8:	682a      	ldr	r2, [r5, #0]
 8002bda:	605c      	str	r4, [r3, #4]
 8002bdc:	4291      	cmp	r1, r2
 8002bde:	4620      	mov	r0, r4
 8002be0:	d109      	bne.n	8002bf6 <chSchReadyI+0x56>
 8002be2:	b003      	add	sp, #12
 8002be4:	bd30      	pop	{r4, r5, pc}
 8002be6:	4807      	ldr	r0, [pc, #28]	; (8002c04 <chSchReadyI+0x64>)
 8002be8:	f7ff fd22 	bl	8002630 <chSysHalt>
 8002bec:	e7e6      	b.n	8002bbc <chSchReadyI+0x1c>
 8002bee:	4805      	ldr	r0, [pc, #20]	; (8002c04 <chSchReadyI+0x64>)
 8002bf0:	f7ff fd1e 	bl	8002630 <chSysHalt>
 8002bf4:	e7dd      	b.n	8002bb2 <chSchReadyI+0x12>
 8002bf6:	f7fe fb33 	bl	8001260 <__stack_chk_fail>
 8002bfa:	bf00      	nop
 8002bfc:	20000800 	.word	0x20000800
 8002c00:	20001540 	.word	0x20001540
 8002c04:	0800e8d0 	.word	0x0800e8d0
	...

08002c10 <wakeup>:
 8002c10:	b570      	push	{r4, r5, r6, lr}
 8002c12:	4d20      	ldr	r5, [pc, #128]	; (8002c94 <wakeup+0x84>)
 8002c14:	b082      	sub	sp, #8
 8002c16:	682b      	ldr	r3, [r5, #0]
 8002c18:	9301      	str	r3, [sp, #4]
 8002c1a:	4604      	mov	r4, r0
 8002c1c:	2320      	movs	r3, #32
 8002c1e:	f383 8811 	msr	BASEPRI, r3
 8002c22:	f000 fdcd 	bl	80037c0 <_stats_start_measure_crit_isr>
 8002c26:	f7ff fde3 	bl	80027f0 <_dbg_check_lock_from_isr>
 8002c2a:	f894 3020 	ldrb.w	r3, [r4, #32]
 8002c2e:	2b07      	cmp	r3, #7
 8002c30:	d811      	bhi.n	8002c56 <wakeup+0x46>
 8002c32:	e8df f003 	tbb	[pc, r3]
 8002c36:	1016      	.short	0x1016
 8002c38:	040a2310 	.word	0x040a2310
 8002c3c:	0a10      	.short	0x0a10
 8002c3e:	6aa6      	ldr	r6, [r4, #40]	; 0x28
 8002c40:	f7ff fe66 	bl	8002910 <chDbgCheckClassI>
 8002c44:	68b3      	ldr	r3, [r6, #8]
 8002c46:	3301      	adds	r3, #1
 8002c48:	60b3      	str	r3, [r6, #8]
 8002c4a:	e9d4 2300 	ldrd	r2, r3, [r4]
 8002c4e:	601a      	str	r2, [r3, #0]
 8002c50:	e9d4 3200 	ldrd	r3, r2, [r4]
 8002c54:	605a      	str	r2, [r3, #4]
 8002c56:	f04f 33ff 	mov.w	r3, #4294967295
 8002c5a:	62a3      	str	r3, [r4, #40]	; 0x28
 8002c5c:	4620      	mov	r0, r4
 8002c5e:	f7ff ff9f 	bl	8002ba0 <chSchReadyI>
 8002c62:	f7ff fde5 	bl	8002830 <_dbg_check_unlock_from_isr>
 8002c66:	f000 fdc3 	bl	80037f0 <_stats_stop_measure_crit_isr>
 8002c6a:	2300      	movs	r3, #0
 8002c6c:	f383 8811 	msr	BASEPRI, r3
 8002c70:	9a01      	ldr	r2, [sp, #4]
 8002c72:	682b      	ldr	r3, [r5, #0]
 8002c74:	429a      	cmp	r2, r3
 8002c76:	d10b      	bne.n	8002c90 <wakeup+0x80>
 8002c78:	b002      	add	sp, #8
 8002c7a:	bd70      	pop	{r4, r5, r6, pc}
 8002c7c:	6aa3      	ldr	r3, [r4, #40]	; 0x28
 8002c7e:	2200      	movs	r2, #0
 8002c80:	601a      	str	r2, [r3, #0]
 8002c82:	f04f 33ff 	mov.w	r3, #4294967295
 8002c86:	62a3      	str	r3, [r4, #40]	; 0x28
 8002c88:	4620      	mov	r0, r4
 8002c8a:	f7ff ff89 	bl	8002ba0 <chSchReadyI>
 8002c8e:	e7e8      	b.n	8002c62 <wakeup+0x52>
 8002c90:	f7fe fae6 	bl	8001260 <__stack_chk_fail>
 8002c94:	20000800 	.word	0x20000800
	...

08002ca0 <chSchGoSleepS>:
 8002ca0:	b5f0      	push	{r4, r5, r6, r7, lr}
 8002ca2:	4e19      	ldr	r6, [pc, #100]	; (8002d08 <chSchGoSleepS+0x68>)
 8002ca4:	4c19      	ldr	r4, [pc, #100]	; (8002d0c <chSchGoSleepS+0x6c>)
 8002ca6:	6833      	ldr	r3, [r6, #0]
 8002ca8:	b083      	sub	sp, #12
 8002caa:	4607      	mov	r7, r0
 8002cac:	9301      	str	r3, [sp, #4]
 8002cae:	f7ff fe57 	bl	8002960 <chDbgCheckClassS>
 8002cb2:	69a5      	ldr	r5, [r4, #24]
 8002cb4:	6823      	ldr	r3, [r4, #0]
 8002cb6:	f885 7020 	strb.w	r7, [r5, #32]
 8002cba:	2214      	movs	r2, #20
 8002cbc:	f885 2023 	strb.w	r2, [r5, #35]	; 0x23
 8002cc0:	681a      	ldr	r2, [r3, #0]
 8002cc2:	6022      	str	r2, [r4, #0]
 8002cc4:	2101      	movs	r1, #1
 8002cc6:	6054      	str	r4, [r2, #4]
 8002cc8:	4628      	mov	r0, r5
 8002cca:	f883 1020 	strb.w	r1, [r3, #32]
 8002cce:	61a3      	str	r3, [r4, #24]
 8002cd0:	f7ff fe86 	bl	80029e0 <_dbg_trace>
 8002cd4:	4629      	mov	r1, r5
 8002cd6:	69a0      	ldr	r0, [r4, #24]
 8002cd8:	f000 fd22 	bl	8003720 <_stats_ctxswc>
 8002cdc:	f3ef 8309 	mrs	r3, PSP
 8002ce0:	69ea      	ldr	r2, [r5, #28]
 8002ce2:	3b64      	subs	r3, #100	; 0x64
 8002ce4:	429a      	cmp	r2, r3
 8002ce6:	d902      	bls.n	8002cee <chSchGoSleepS+0x4e>
 8002ce8:	4809      	ldr	r0, [pc, #36]	; (8002d10 <chSchGoSleepS+0x70>)
 8002cea:	f7ff fca1 	bl	8002630 <chSysHalt>
 8002cee:	9a01      	ldr	r2, [sp, #4]
 8002cf0:	6833      	ldr	r3, [r6, #0]
 8002cf2:	429a      	cmp	r2, r3
 8002cf4:	d106      	bne.n	8002d04 <chSchGoSleepS+0x64>
 8002cf6:	69a0      	ldr	r0, [r4, #24]
 8002cf8:	4629      	mov	r1, r5
 8002cfa:	b003      	add	sp, #12
 8002cfc:	e8bd 40f0 	ldmia.w	sp!, {r4, r5, r6, r7, lr}
 8002d00:	f7fd bad6 	b.w	80002b0 <_port_switch>
 8002d04:	f7fe faac 	bl	8001260 <__stack_chk_fail>
 8002d08:	20000800 	.word	0x20000800
 8002d0c:	20001540 	.word	0x20001540
 8002d10:	0800e8e0 	.word	0x0800e8e0
	...

08002d20 <chSchGoSleepTimeoutS>:
 8002d20:	b5f0      	push	{r4, r5, r6, r7, lr}
 8002d22:	4c15      	ldr	r4, [pc, #84]	; (8002d78 <chSchGoSleepTimeoutS+0x58>)
 8002d24:	b087      	sub	sp, #28
 8002d26:	6823      	ldr	r3, [r4, #0]
 8002d28:	9305      	str	r3, [sp, #20]
 8002d2a:	460e      	mov	r6, r1
 8002d2c:	4607      	mov	r7, r0
 8002d2e:	f7ff fe17 	bl	8002960 <chDbgCheckClassS>
 8002d32:	1c73      	adds	r3, r6, #1
 8002d34:	d018      	beq.n	8002d68 <chSchGoSleepTimeoutS+0x48>
 8002d36:	4d11      	ldr	r5, [pc, #68]	; (8002d7c <chSchGoSleepTimeoutS+0x5c>)
 8002d38:	4a11      	ldr	r2, [pc, #68]	; (8002d80 <chSchGoSleepTimeoutS+0x60>)
 8002d3a:	69ab      	ldr	r3, [r5, #24]
 8002d3c:	4631      	mov	r1, r6
 8002d3e:	4668      	mov	r0, sp
 8002d40:	f7ff fe96 	bl	8002a70 <chVTDoSetI>
 8002d44:	4638      	mov	r0, r7
 8002d46:	f7ff ffab 	bl	8002ca0 <chSchGoSleepS>
 8002d4a:	f7ff fde1 	bl	8002910 <chDbgCheckClassI>
 8002d4e:	9b03      	ldr	r3, [sp, #12]
 8002d50:	b113      	cbz	r3, 8002d58 <chSchGoSleepTimeoutS+0x38>
 8002d52:	4668      	mov	r0, sp
 8002d54:	f7ff fecc 	bl	8002af0 <chVTDoResetI>
 8002d58:	9a05      	ldr	r2, [sp, #20]
 8002d5a:	6823      	ldr	r3, [r4, #0]
 8002d5c:	69a9      	ldr	r1, [r5, #24]
 8002d5e:	429a      	cmp	r2, r3
 8002d60:	6a88      	ldr	r0, [r1, #40]	; 0x28
 8002d62:	d106      	bne.n	8002d72 <chSchGoSleepTimeoutS+0x52>
 8002d64:	b007      	add	sp, #28
 8002d66:	bdf0      	pop	{r4, r5, r6, r7, pc}
 8002d68:	4638      	mov	r0, r7
 8002d6a:	f7ff ff99 	bl	8002ca0 <chSchGoSleepS>
 8002d6e:	4d03      	ldr	r5, [pc, #12]	; (8002d7c <chSchGoSleepTimeoutS+0x5c>)
 8002d70:	e7f2      	b.n	8002d58 <chSchGoSleepTimeoutS+0x38>
 8002d72:	f7fe fa75 	bl	8001260 <__stack_chk_fail>
 8002d76:	bf00      	nop
 8002d78:	20000800 	.word	0x20000800
 8002d7c:	20001540 	.word	0x20001540
 8002d80:	08002c11 	.word	0x08002c11
	...

08002d90 <chSchWakeupS>:
 8002d90:	b5f0      	push	{r4, r5, r6, r7, lr}
 8002d92:	4d1e      	ldr	r5, [pc, #120]	; (8002e0c <chSchWakeupS+0x7c>)
 8002d94:	4e1e      	ldr	r6, [pc, #120]	; (8002e10 <chSchWakeupS+0x80>)
 8002d96:	682b      	ldr	r3, [r5, #0]
 8002d98:	b083      	sub	sp, #12
 8002d9a:	4604      	mov	r4, r0
 8002d9c:	9301      	str	r3, [sp, #4]
 8002d9e:	460f      	mov	r7, r1
 8002da0:	f7ff fdde 	bl	8002960 <chDbgCheckClassS>
 8002da4:	69b0      	ldr	r0, [r6, #24]
 8002da6:	62a7      	str	r7, [r4, #40]	; 0x28
 8002da8:	6883      	ldr	r3, [r0, #8]
 8002daa:	68a2      	ldr	r2, [r4, #8]
 8002dac:	429a      	cmp	r2, r3
 8002dae:	d91d      	bls.n	8002dec <chSchWakeupS+0x5c>
 8002db0:	f7ff fef6 	bl	8002ba0 <chSchReadyI>
 8002db4:	2301      	movs	r3, #1
 8002db6:	4607      	mov	r7, r0
 8002db8:	f884 3020 	strb.w	r3, [r4, #32]
 8002dbc:	61b4      	str	r4, [r6, #24]
 8002dbe:	f7ff fe0f 	bl	80029e0 <_dbg_trace>
 8002dc2:	4639      	mov	r1, r7
 8002dc4:	4620      	mov	r0, r4
 8002dc6:	f000 fcab 	bl	8003720 <_stats_ctxswc>
 8002dca:	f3ef 8309 	mrs	r3, PSP
 8002dce:	69fa      	ldr	r2, [r7, #28]
 8002dd0:	3b64      	subs	r3, #100	; 0x64
 8002dd2:	429a      	cmp	r2, r3
 8002dd4:	d814      	bhi.n	8002e00 <chSchWakeupS+0x70>
 8002dd6:	9a01      	ldr	r2, [sp, #4]
 8002dd8:	682b      	ldr	r3, [r5, #0]
 8002dda:	429a      	cmp	r2, r3
 8002ddc:	d114      	bne.n	8002e08 <chSchWakeupS+0x78>
 8002dde:	4639      	mov	r1, r7
 8002de0:	4620      	mov	r0, r4
 8002de2:	b003      	add	sp, #12
 8002de4:	e8bd 40f0 	ldmia.w	sp!, {r4, r5, r6, r7, lr}
 8002de8:	f7fd ba62 	b.w	80002b0 <_port_switch>
 8002dec:	9a01      	ldr	r2, [sp, #4]
 8002dee:	682b      	ldr	r3, [r5, #0]
 8002df0:	429a      	cmp	r2, r3
 8002df2:	d109      	bne.n	8002e08 <chSchWakeupS+0x78>
 8002df4:	4620      	mov	r0, r4
 8002df6:	b003      	add	sp, #12
 8002df8:	e8bd 40f0 	ldmia.w	sp!, {r4, r5, r6, r7, lr}
 8002dfc:	f7ff bed0 	b.w	8002ba0 <chSchReadyI>
 8002e00:	4804      	ldr	r0, [pc, #16]	; (8002e14 <chSchWakeupS+0x84>)
 8002e02:	f7ff fc15 	bl	8002630 <chSysHalt>
 8002e06:	e7e6      	b.n	8002dd6 <chSchWakeupS+0x46>
 8002e08:	f7fe fa2a 	bl	8001260 <__stack_chk_fail>
 8002e0c:	20000800 	.word	0x20000800
 8002e10:	20001540 	.word	0x20001540
 8002e14:	0800e8e0 	.word	0x0800e8e0
	...

08002e20 <chSchIsPreemptionRequired>:
 8002e20:	b510      	push	{r4, lr}
 8002e22:	490e      	ldr	r1, [pc, #56]	; (8002e5c <chSchIsPreemptionRequired+0x3c>)
 8002e24:	4b0e      	ldr	r3, [pc, #56]	; (8002e60 <chSchIsPreemptionRequired+0x40>)
 8002e26:	698a      	ldr	r2, [r1, #24]
 8002e28:	6808      	ldr	r0, [r1, #0]
 8002e2a:	f892 1023 	ldrb.w	r1, [r2, #35]	; 0x23
 8002e2e:	681c      	ldr	r4, [r3, #0]
 8002e30:	6880      	ldr	r0, [r0, #8]
 8002e32:	6892      	ldr	r2, [r2, #8]
 8002e34:	b082      	sub	sp, #8
 8002e36:	9401      	str	r4, [sp, #4]
 8002e38:	b949      	cbnz	r1, 8002e4e <chSchIsPreemptionRequired+0x2e>
 8002e3a:	4290      	cmp	r0, r2
 8002e3c:	bf34      	ite	cc
 8002e3e:	2000      	movcc	r0, #0
 8002e40:	2001      	movcs	r0, #1
 8002e42:	9a01      	ldr	r2, [sp, #4]
 8002e44:	681b      	ldr	r3, [r3, #0]
 8002e46:	429a      	cmp	r2, r3
 8002e48:	d106      	bne.n	8002e58 <chSchIsPreemptionRequired+0x38>
 8002e4a:	b002      	add	sp, #8
 8002e4c:	bd10      	pop	{r4, pc}
 8002e4e:	4290      	cmp	r0, r2
 8002e50:	bf94      	ite	ls
 8002e52:	2000      	movls	r0, #0
 8002e54:	2001      	movhi	r0, #1
 8002e56:	e7f4      	b.n	8002e42 <chSchIsPreemptionRequired+0x22>
 8002e58:	f7fe fa02 	bl	8001260 <__stack_chk_fail>
 8002e5c:	20001540 	.word	0x20001540
 8002e60:	20000800 	.word	0x20000800
	...

08002e70 <chSchDoRescheduleBehind>:
 8002e70:	b570      	push	{r4, r5, r6, lr}
 8002e72:	4c18      	ldr	r4, [pc, #96]	; (8002ed4 <chSchDoRescheduleBehind+0x64>)
 8002e74:	4e18      	ldr	r6, [pc, #96]	; (8002ed8 <chSchDoRescheduleBehind+0x68>)
 8002e76:	6823      	ldr	r3, [r4, #0]
 8002e78:	69a5      	ldr	r5, [r4, #24]
 8002e7a:	681a      	ldr	r2, [r3, #0]
 8002e7c:	6022      	str	r2, [r4, #0]
 8002e7e:	6054      	str	r4, [r2, #4]
 8002e80:	2201      	movs	r2, #1
 8002e82:	f883 2020 	strb.w	r2, [r3, #32]
 8002e86:	b082      	sub	sp, #8
 8002e88:	2214      	movs	r2, #20
 8002e8a:	6831      	ldr	r1, [r6, #0]
 8002e8c:	f885 2023 	strb.w	r2, [r5, #35]	; 0x23
 8002e90:	4628      	mov	r0, r5
 8002e92:	61a3      	str	r3, [r4, #24]
 8002e94:	9101      	str	r1, [sp, #4]
 8002e96:	f7ff fe83 	bl	8002ba0 <chSchReadyI>
 8002e9a:	4628      	mov	r0, r5
 8002e9c:	f7ff fda0 	bl	80029e0 <_dbg_trace>
 8002ea0:	4629      	mov	r1, r5
 8002ea2:	69a0      	ldr	r0, [r4, #24]
 8002ea4:	f000 fc3c 	bl	8003720 <_stats_ctxswc>
 8002ea8:	f3ef 8309 	mrs	r3, PSP
 8002eac:	69ea      	ldr	r2, [r5, #28]
 8002eae:	3b64      	subs	r3, #100	; 0x64
 8002eb0:	429a      	cmp	r2, r3
 8002eb2:	d902      	bls.n	8002eba <chSchDoRescheduleBehind+0x4a>
 8002eb4:	4809      	ldr	r0, [pc, #36]	; (8002edc <chSchDoRescheduleBehind+0x6c>)
 8002eb6:	f7ff fbbb 	bl	8002630 <chSysHalt>
 8002eba:	9a01      	ldr	r2, [sp, #4]
 8002ebc:	6833      	ldr	r3, [r6, #0]
 8002ebe:	429a      	cmp	r2, r3
 8002ec0:	d106      	bne.n	8002ed0 <chSchDoRescheduleBehind+0x60>
 8002ec2:	69a0      	ldr	r0, [r4, #24]
 8002ec4:	4629      	mov	r1, r5
 8002ec6:	b002      	add	sp, #8
 8002ec8:	e8bd 4070 	ldmia.w	sp!, {r4, r5, r6, lr}
 8002ecc:	f7fd b9f0 	b.w	80002b0 <_port_switch>
 8002ed0:	f7fe f9c6 	bl	8001260 <__stack_chk_fail>
 8002ed4:	20001540 	.word	0x20001540
 8002ed8:	20000800 	.word	0x20000800
 8002edc:	0800e8e0 	.word	0x0800e8e0

08002ee0 <chSchDoRescheduleAhead>:
 8002ee0:	b570      	push	{r4, r5, r6, lr}
 8002ee2:	4d1c      	ldr	r5, [pc, #112]	; (8002f54 <chSchDoRescheduleAhead+0x74>)
 8002ee4:	4e1c      	ldr	r6, [pc, #112]	; (8002f58 <chSchDoRescheduleAhead+0x78>)
 8002ee6:	682a      	ldr	r2, [r5, #0]
 8002ee8:	69ac      	ldr	r4, [r5, #24]
 8002eea:	6813      	ldr	r3, [r2, #0]
 8002eec:	602b      	str	r3, [r5, #0]
 8002eee:	2101      	movs	r1, #1
 8002ef0:	b082      	sub	sp, #8
 8002ef2:	605d      	str	r5, [r3, #4]
 8002ef4:	2000      	movs	r0, #0
 8002ef6:	f882 1020 	strb.w	r1, [r2, #32]
 8002efa:	61aa      	str	r2, [r5, #24]
 8002efc:	6832      	ldr	r2, [r6, #0]
 8002efe:	68a1      	ldr	r1, [r4, #8]
 8002f00:	f884 0020 	strb.w	r0, [r4, #32]
 8002f04:	9201      	str	r2, [sp, #4]
 8002f06:	e000      	b.n	8002f0a <chSchDoRescheduleAhead+0x2a>
 8002f08:	681b      	ldr	r3, [r3, #0]
 8002f0a:	689a      	ldr	r2, [r3, #8]
 8002f0c:	428a      	cmp	r2, r1
 8002f0e:	d8fb      	bhi.n	8002f08 <chSchDoRescheduleAhead+0x28>
 8002f10:	6023      	str	r3, [r4, #0]
 8002f12:	685a      	ldr	r2, [r3, #4]
 8002f14:	6062      	str	r2, [r4, #4]
 8002f16:	4620      	mov	r0, r4
 8002f18:	6014      	str	r4, [r2, #0]
 8002f1a:	605c      	str	r4, [r3, #4]
 8002f1c:	f7ff fd60 	bl	80029e0 <_dbg_trace>
 8002f20:	4621      	mov	r1, r4
 8002f22:	69a8      	ldr	r0, [r5, #24]
 8002f24:	f000 fbfc 	bl	8003720 <_stats_ctxswc>
 8002f28:	f3ef 8309 	mrs	r3, PSP
 8002f2c:	69e2      	ldr	r2, [r4, #28]
 8002f2e:	3b64      	subs	r3, #100	; 0x64
 8002f30:	429a      	cmp	r2, r3
 8002f32:	d902      	bls.n	8002f3a <chSchDoRescheduleAhead+0x5a>
 8002f34:	4809      	ldr	r0, [pc, #36]	; (8002f5c <chSchDoRescheduleAhead+0x7c>)
 8002f36:	f7ff fb7b 	bl	8002630 <chSysHalt>
 8002f3a:	9a01      	ldr	r2, [sp, #4]
 8002f3c:	6833      	ldr	r3, [r6, #0]
 8002f3e:	429a      	cmp	r2, r3
 8002f40:	d106      	bne.n	8002f50 <chSchDoRescheduleAhead+0x70>
 8002f42:	69a8      	ldr	r0, [r5, #24]
 8002f44:	4621      	mov	r1, r4
 8002f46:	b002      	add	sp, #8
 8002f48:	e8bd 4070 	ldmia.w	sp!, {r4, r5, r6, lr}
 8002f4c:	f7fd b9b0 	b.w	80002b0 <_port_switch>
 8002f50:	f7fe f986 	bl	8001260 <__stack_chk_fail>
 8002f54:	20001540 	.word	0x20001540
 8002f58:	20000800 	.word	0x20000800
 8002f5c:	0800e8e0 	.word	0x0800e8e0

08002f60 <chSchRescheduleS>:
 8002f60:	b510      	push	{r4, lr}
 8002f62:	4c0f      	ldr	r4, [pc, #60]	; (8002fa0 <chSchRescheduleS+0x40>)
 8002f64:	b082      	sub	sp, #8
 8002f66:	6823      	ldr	r3, [r4, #0]
 8002f68:	9301      	str	r3, [sp, #4]
 8002f6a:	f7ff fcf9 	bl	8002960 <chDbgCheckClassS>
 8002f6e:	f7ff fccf 	bl	8002910 <chDbgCheckClassI>
 8002f72:	4b0c      	ldr	r3, [pc, #48]	; (8002fa4 <chSchRescheduleS+0x44>)
 8002f74:	681a      	ldr	r2, [r3, #0]
 8002f76:	699b      	ldr	r3, [r3, #24]
 8002f78:	6892      	ldr	r2, [r2, #8]
 8002f7a:	689b      	ldr	r3, [r3, #8]
 8002f7c:	429a      	cmp	r2, r3
 8002f7e:	9a01      	ldr	r2, [sp, #4]
 8002f80:	6823      	ldr	r3, [r4, #0]
 8002f82:	d803      	bhi.n	8002f8c <chSchRescheduleS+0x2c>
 8002f84:	429a      	cmp	r2, r3
 8002f86:	d108      	bne.n	8002f9a <chSchRescheduleS+0x3a>
 8002f88:	b002      	add	sp, #8
 8002f8a:	bd10      	pop	{r4, pc}
 8002f8c:	429a      	cmp	r2, r3
 8002f8e:	d104      	bne.n	8002f9a <chSchRescheduleS+0x3a>
 8002f90:	b002      	add	sp, #8
 8002f92:	e8bd 4010 	ldmia.w	sp!, {r4, lr}
 8002f96:	f7ff bfa3 	b.w	8002ee0 <chSchDoRescheduleAhead>
 8002f9a:	f7fe f961 	bl	8001260 <__stack_chk_fail>
 8002f9e:	bf00      	nop
 8002fa0:	20000800 	.word	0x20000800
 8002fa4:	20001540 	.word	0x20001540
	...

08002fb0 <chSchDoReschedule>:
 8002fb0:	b500      	push	{lr}
 8002fb2:	4a0e      	ldr	r2, [pc, #56]	; (8002fec <chSchDoReschedule+0x3c>)
 8002fb4:	4b0e      	ldr	r3, [pc, #56]	; (8002ff0 <chSchDoReschedule+0x40>)
 8002fb6:	6992      	ldr	r2, [r2, #24]
 8002fb8:	6819      	ldr	r1, [r3, #0]
 8002fba:	f892 2023 	ldrb.w	r2, [r2, #35]	; 0x23
 8002fbe:	b083      	sub	sp, #12
 8002fc0:	9101      	str	r1, [sp, #4]
 8002fc2:	b142      	cbz	r2, 8002fd6 <chSchDoReschedule+0x26>
 8002fc4:	9a01      	ldr	r2, [sp, #4]
 8002fc6:	681b      	ldr	r3, [r3, #0]
 8002fc8:	429a      	cmp	r2, r3
 8002fca:	d10d      	bne.n	8002fe8 <chSchDoReschedule+0x38>
 8002fcc:	b003      	add	sp, #12
 8002fce:	f85d eb04 	ldr.w	lr, [sp], #4
 8002fd2:	f7ff bf85 	b.w	8002ee0 <chSchDoRescheduleAhead>
 8002fd6:	9a01      	ldr	r2, [sp, #4]
 8002fd8:	681b      	ldr	r3, [r3, #0]
 8002fda:	429a      	cmp	r2, r3
 8002fdc:	d104      	bne.n	8002fe8 <chSchDoReschedule+0x38>
 8002fde:	b003      	add	sp, #12
 8002fe0:	f85d eb04 	ldr.w	lr, [sp], #4
 8002fe4:	f7ff bf44 	b.w	8002e70 <chSchDoRescheduleBehind>
 8002fe8:	f7fe f93a 	bl	8001260 <__stack_chk_fail>
 8002fec:	20001540 	.word	0x20001540
 8002ff0:	20000800 	.word	0x20000800
	...

08003000 <_thread_init>:
 8003000:	b5f0      	push	{r4, r5, r6, r7, lr}
 8003002:	4a1a      	ldr	r2, [pc, #104]	; (800306c <_thread_init+0x6c>)
 8003004:	4d1a      	ldr	r5, [pc, #104]	; (8003070 <_thread_init+0x70>)
 8003006:	6102      	str	r2, [r0, #16]
 8003008:	4604      	mov	r4, r0
 800300a:	6081      	str	r1, [r0, #8]
 800300c:	b083      	sub	sp, #12
 800300e:	2314      	movs	r3, #20
 8003010:	6950      	ldr	r0, [r2, #20]
 8003012:	682e      	ldr	r6, [r5, #0]
 8003014:	6461      	str	r1, [r4, #68]	; 0x44
 8003016:	f884 3023 	strb.w	r3, [r4, #35]	; 0x23
 800301a:	2702      	movs	r7, #2
 800301c:	2300      	movs	r3, #0
 800301e:	2101      	movs	r1, #1
 8003020:	8427      	strh	r7, [r4, #32]
 8003022:	f884 1022 	strb.w	r1, [r4, #34]	; 0x22
 8003026:	e9c4 330f 	strd	r3, r3, [r4, #60]	; 0x3c
 800302a:	f104 0168 	add.w	r1, r4, #104	; 0x68
 800302e:	61a3      	str	r3, [r4, #24]
 8003030:	9601      	str	r6, [sp, #4]
 8003032:	f104 072c 	add.w	r7, r4, #44	; 0x2c
 8003036:	6263      	str	r3, [r4, #36]	; 0x24
 8003038:	f104 0650 	add.w	r6, r4, #80	; 0x50
 800303c:	f104 0330 	add.w	r3, r4, #48	; 0x30
 8003040:	6160      	str	r0, [r4, #20]
 8003042:	6104      	str	r4, [r0, #16]
 8003044:	e9c4 330c 	strd	r3, r3, [r4, #48]	; 0x30
 8003048:	61e1      	str	r1, [r4, #28]
 800304a:	4630      	mov	r0, r6
 800304c:	62e7      	str	r7, [r4, #44]	; 0x2c
 800304e:	6154      	str	r4, [r2, #20]
 8003050:	f000 fa6e 	bl	8003530 <chTMObjectInit>
 8003054:	4630      	mov	r0, r6
 8003056:	f000 fa8b 	bl	8003570 <chTMStartMeasurementX>
 800305a:	9a01      	ldr	r2, [sp, #4]
 800305c:	682b      	ldr	r3, [r5, #0]
 800305e:	429a      	cmp	r2, r3
 8003060:	d102      	bne.n	8003068 <_thread_init+0x68>
 8003062:	4620      	mov	r0, r4
 8003064:	b003      	add	sp, #12
 8003066:	bdf0      	pop	{r4, r5, r6, r7, pc}
 8003068:	f7fe f8fa 	bl	8001260 <__stack_chk_fail>
 800306c:	20001540 	.word	0x20001540
 8003070:	20000800 	.word	0x20000800
	...

08003080 <_thread_memfill>:
 8003080:	b510      	push	{r4, lr}
 8003082:	4b09      	ldr	r3, [pc, #36]	; (80030a8 <_thread_memfill+0x28>)
 8003084:	b082      	sub	sp, #8
 8003086:	681c      	ldr	r4, [r3, #0]
 8003088:	9401      	str	r4, [sp, #4]
 800308a:	4288      	cmp	r0, r1
 800308c:	d203      	bcs.n	8003096 <_thread_memfill+0x16>
 800308e:	f800 2b01 	strb.w	r2, [r0], #1
 8003092:	4281      	cmp	r1, r0
 8003094:	d1fb      	bne.n	800308e <_thread_memfill+0xe>
 8003096:	9a01      	ldr	r2, [sp, #4]
 8003098:	681b      	ldr	r3, [r3, #0]
 800309a:	429a      	cmp	r2, r3
 800309c:	d101      	bne.n	80030a2 <_thread_memfill+0x22>
 800309e:	b002      	add	sp, #8
 80030a0:	bd10      	pop	{r4, pc}
 80030a2:	f7fe f8dd 	bl	8001260 <__stack_chk_fail>
 80030a6:	bf00      	nop
 80030a8:	20000800 	.word	0x20000800
 80030ac:	00000000 	.word	0x00000000

080030b0 <chThdCreateI>:
 80030b0:	e92d 43f0 	stmdb	sp!, {r4, r5, r6, r7, r8, r9, lr}
 80030b4:	4e18      	ldr	r6, [pc, #96]	; (8003118 <chThdCreateI+0x68>)
 80030b6:	b083      	sub	sp, #12
 80030b8:	6834      	ldr	r4, [r6, #0]
 80030ba:	9401      	str	r4, [sp, #4]
 80030bc:	4605      	mov	r5, r0
 80030be:	f8dd 9028 	ldr.w	r9, [sp, #40]	; 0x28
 80030c2:	460c      	mov	r4, r1
 80030c4:	4617      	mov	r7, r2
 80030c6:	4698      	mov	r8, r3
 80030c8:	f7ff fc22 	bl	8002910 <chDbgCheckClassI>
 80030cc:	b115      	cbz	r5, 80030d4 <chThdCreateI+0x24>
 80030ce:	f5b4 7fbc 	cmp.w	r4, #376	; 0x178
 80030d2:	d219      	bcs.n	8003108 <chThdCreateI+0x58>
 80030d4:	4811      	ldr	r0, [pc, #68]	; (800311c <chThdCreateI+0x6c>)
 80030d6:	f7ff faab 	bl	8002630 <chSysHalt>
 80030da:	f1a4 0164 	sub.w	r1, r4, #100	; 0x64
 80030de:	4429      	add	r1, r5
 80030e0:	60e9      	str	r1, [r5, #12]
 80030e2:	f8c1 8040 	str.w	r8, [r1, #64]	; 0x40
 80030e6:	68eb      	ldr	r3, [r5, #12]
 80030e8:	9a01      	ldr	r2, [sp, #4]
 80030ea:	f8c3 9044 	str.w	r9, [r3, #68]	; 0x44
 80030ee:	6833      	ldr	r3, [r6, #0]
 80030f0:	68e9      	ldr	r1, [r5, #12]
 80030f2:	480b      	ldr	r0, [pc, #44]	; (8003120 <chThdCreateI+0x70>)
 80030f4:	6608      	str	r0, [r1, #96]	; 0x60
 80030f6:	429a      	cmp	r2, r3
 80030f8:	d10c      	bne.n	8003114 <chThdCreateI+0x64>
 80030fa:	4639      	mov	r1, r7
 80030fc:	4628      	mov	r0, r5
 80030fe:	b003      	add	sp, #12
 8003100:	e8bd 43f0 	ldmia.w	sp!, {r4, r5, r6, r7, r8, r9, lr}
 8003104:	f7ff bf7c 	b.w	8003000 <_thread_init>
 8003108:	2f7f      	cmp	r7, #127	; 0x7f
 800310a:	d8e3      	bhi.n	80030d4 <chThdCreateI+0x24>
 800310c:	f1b8 0f00 	cmp.w	r8, #0
 8003110:	d1e3      	bne.n	80030da <chThdCreateI+0x2a>
 8003112:	e7df      	b.n	80030d4 <chThdCreateI+0x24>
 8003114:	f7fe f8a4 	bl	8001260 <__stack_chk_fail>
 8003118:	20000800 	.word	0x20000800
 800311c:	0800e930 	.word	0x0800e930
 8003120:	080002c9 	.word	0x080002c9
	...

08003130 <chThdCreateStatic>:
 8003130:	e92d 4ff0 	stmdb	sp!, {r4, r5, r6, r7, r8, r9, sl, fp, lr}
 8003134:	f8df 80a4 	ldr.w	r8, [pc, #164]	; 80031dc <chThdCreateStatic+0xac>
 8003138:	b087      	sub	sp, #28
 800313a:	f8d8 4000 	ldr.w	r4, [r8]
 800313e:	f8dd 9040 	ldr.w	r9, [sp, #64]	; 0x40
 8003142:	9405      	str	r4, [sp, #20]
 8003144:	4607      	mov	r7, r0
 8003146:	468a      	mov	sl, r1
 8003148:	4693      	mov	fp, r2
 800314a:	f100 0668 	add.w	r6, r0, #104	; 0x68
 800314e:	4604      	mov	r4, r0
 8003150:	25ff      	movs	r5, #255	; 0xff
 8003152:	f804 5b01 	strb.w	r5, [r4], #1
 8003156:	42a6      	cmp	r6, r4
 8003158:	d1fb      	bne.n	8003152 <chThdCreateStatic+0x22>
 800315a:	eb07 050a 	add.w	r5, r7, sl
 800315e:	42a5      	cmp	r5, r4
 8003160:	d904      	bls.n	800316c <chThdCreateStatic+0x3c>
 8003162:	2655      	movs	r6, #85	; 0x55
 8003164:	f804 6b01 	strb.w	r6, [r4], #1
 8003168:	42a5      	cmp	r5, r4
 800316a:	d1fb      	bne.n	8003164 <chThdCreateStatic+0x34>
 800316c:	9303      	str	r3, [sp, #12]
 800316e:	2220      	movs	r2, #32
 8003170:	f382 8811 	msr	BASEPRI, r2
 8003174:	f000 faf4 	bl	8003760 <_stats_start_measure_crit_thd>
 8003178:	f7ff fafa 	bl	8002770 <_dbg_check_lock>
 800317c:	9b03      	ldr	r3, [sp, #12]
 800317e:	f8cd 9000 	str.w	r9, [sp]
 8003182:	465a      	mov	r2, fp
 8003184:	4651      	mov	r1, sl
 8003186:	4638      	mov	r0, r7
 8003188:	f7ff ff92 	bl	80030b0 <chThdCreateI>
 800318c:	2100      	movs	r1, #0
 800318e:	4604      	mov	r4, r0
 8003190:	f7ff fdfe 	bl	8002d90 <chSchWakeupS>
 8003194:	f7ff fb0c 	bl	80027b0 <_dbg_check_unlock>
 8003198:	f000 fafa 	bl	8003790 <_stats_stop_measure_crit_thd>
 800319c:	4b0d      	ldr	r3, [pc, #52]	; (80031d4 <chThdCreateStatic+0xa4>)
 800319e:	681a      	ldr	r2, [r3, #0]
 80031a0:	429a      	cmp	r2, r3
 80031a2:	d004      	beq.n	80031ae <chThdCreateStatic+0x7e>
 80031a4:	6999      	ldr	r1, [r3, #24]
 80031a6:	6893      	ldr	r3, [r2, #8]
 80031a8:	688a      	ldr	r2, [r1, #8]
 80031aa:	429a      	cmp	r2, r3
 80031ac:	d30b      	bcc.n	80031c6 <chThdCreateStatic+0x96>
 80031ae:	2300      	movs	r3, #0
 80031b0:	f383 8811 	msr	BASEPRI, r3
 80031b4:	9a05      	ldr	r2, [sp, #20]
 80031b6:	f8d8 3000 	ldr.w	r3, [r8]
 80031ba:	429a      	cmp	r2, r3
 80031bc:	4620      	mov	r0, r4
 80031be:	d106      	bne.n	80031ce <chThdCreateStatic+0x9e>
 80031c0:	b007      	add	sp, #28
 80031c2:	e8bd 8ff0 	ldmia.w	sp!, {r4, r5, r6, r7, r8, r9, sl, fp, pc}
 80031c6:	4804      	ldr	r0, [pc, #16]	; (80031d8 <chThdCreateStatic+0xa8>)
 80031c8:	f7ff fa32 	bl	8002630 <chSysHalt>
 80031cc:	e7ef      	b.n	80031ae <chThdCreateStatic+0x7e>
 80031ce:	f7fe f847 	bl	8001260 <__stack_chk_fail>
 80031d2:	bf00      	nop
 80031d4:	20001540 	.word	0x20001540
 80031d8:	0800e8f0 	.word	0x0800e8f0
 80031dc:	20000800 	.word	0x20000800

080031e0 <chThdSleep>:
 80031e0:	b530      	push	{r4, r5, lr}
 80031e2:	4c18      	ldr	r4, [pc, #96]	; (8003244 <chThdSleep+0x64>)
 80031e4:	b083      	sub	sp, #12
 80031e6:	6823      	ldr	r3, [r4, #0]
 80031e8:	9301      	str	r3, [sp, #4]
 80031ea:	4605      	mov	r5, r0
 80031ec:	2320      	movs	r3, #32
 80031ee:	f383 8811 	msr	BASEPRI, r3
 80031f2:	f000 fab5 	bl	8003760 <_stats_start_measure_crit_thd>
 80031f6:	f7ff fabb 	bl	8002770 <_dbg_check_lock>
 80031fa:	b915      	cbnz	r5, 8003202 <chThdSleep+0x22>
 80031fc:	4812      	ldr	r0, [pc, #72]	; (8003248 <chThdSleep+0x68>)
 80031fe:	f7ff fa17 	bl	8002630 <chSysHalt>
 8003202:	4629      	mov	r1, r5
 8003204:	2008      	movs	r0, #8
 8003206:	f7ff fd8b 	bl	8002d20 <chSchGoSleepTimeoutS>
 800320a:	f7ff fad1 	bl	80027b0 <_dbg_check_unlock>
 800320e:	f000 fabf 	bl	8003790 <_stats_stop_measure_crit_thd>
 8003212:	4b0e      	ldr	r3, [pc, #56]	; (800324c <chThdSleep+0x6c>)
 8003214:	681a      	ldr	r2, [r3, #0]
 8003216:	429a      	cmp	r2, r3
 8003218:	d004      	beq.n	8003224 <chThdSleep+0x44>
 800321a:	6999      	ldr	r1, [r3, #24]
 800321c:	6893      	ldr	r3, [r2, #8]
 800321e:	688a      	ldr	r2, [r1, #8]
 8003220:	429a      	cmp	r2, r3
 8003222:	d308      	bcc.n	8003236 <chThdSleep+0x56>
 8003224:	2300      	movs	r3, #0
 8003226:	f383 8811 	msr	BASEPRI, r3
 800322a:	9a01      	ldr	r2, [sp, #4]
 800322c:	6823      	ldr	r3, [r4, #0]
 800322e:	429a      	cmp	r2, r3
 8003230:	d105      	bne.n	800323e <chThdSleep+0x5e>
 8003232:	b003      	add	sp, #12
 8003234:	bd30      	pop	{r4, r5, pc}
 8003236:	4806      	ldr	r0, [pc, #24]	; (8003250 <chThdSleep+0x70>)
 8003238:	f7ff f9fa 	bl	8002630 <chSysHalt>
 800323c:	e7f2      	b.n	8003224 <chThdSleep+0x44>
 800323e:	f7fe f80f 	bl	8001260 <__stack_chk_fail>
 8003242:	bf00      	nop
 8003244:	20000800 	.word	0x20000800
 8003248:	0800e900 	.word	0x0800e900
 800324c:	20001540 	.word	0x20001540
 8003250:	0800e8f0 	.word	0x0800e8f0
	...

08003260 <chThdExitS>:
 8003260:	b570      	push	{r4, r5, r6, lr}
 8003262:	4b16      	ldr	r3, [pc, #88]	; (80032bc <chThdExitS+0x5c>)
 8003264:	4e16      	ldr	r6, [pc, #88]	; (80032c0 <chThdExitS+0x60>)
 8003266:	699c      	ldr	r4, [r3, #24]
 8003268:	6832      	ldr	r2, [r6, #0]
 800326a:	6ae3      	ldr	r3, [r4, #44]	; 0x2c
 800326c:	62a0      	str	r0, [r4, #40]	; 0x28
 800326e:	b082      	sub	sp, #8
 8003270:	f104 052c 	add.w	r5, r4, #44	; 0x2c
 8003274:	42ab      	cmp	r3, r5
 8003276:	9201      	str	r2, [sp, #4]
 8003278:	d007      	beq.n	800328a <chThdExitS+0x2a>
 800327a:	681a      	ldr	r2, [r3, #0]
 800327c:	62e2      	str	r2, [r4, #44]	; 0x2c
 800327e:	4618      	mov	r0, r3
 8003280:	f7ff fc8e 	bl	8002ba0 <chSchReadyI>
 8003284:	6ae3      	ldr	r3, [r4, #44]	; 0x2c
 8003286:	42ab      	cmp	r3, r5
 8003288:	d1f7      	bne.n	800327a <chThdExitS+0x1a>
 800328a:	f894 3021 	ldrb.w	r3, [r4, #33]	; 0x21
 800328e:	079b      	lsls	r3, r3, #30
 8003290:	d105      	bne.n	800329e <chThdExitS+0x3e>
 8003292:	e9d4 2304 	ldrd	r2, r3, [r4, #16]
 8003296:	611a      	str	r2, [r3, #16]
 8003298:	e9d4 3204 	ldrd	r3, r2, [r4, #16]
 800329c:	615a      	str	r2, [r3, #20]
 800329e:	200f      	movs	r0, #15
 80032a0:	f7ff fcfe 	bl	8002ca0 <chSchGoSleepS>
 80032a4:	9a01      	ldr	r2, [sp, #4]
 80032a6:	6833      	ldr	r3, [r6, #0]
 80032a8:	429a      	cmp	r2, r3
 80032aa:	d105      	bne.n	80032b8 <chThdExitS+0x58>
 80032ac:	4805      	ldr	r0, [pc, #20]	; (80032c4 <chThdExitS+0x64>)
 80032ae:	b002      	add	sp, #8
 80032b0:	e8bd 4070 	ldmia.w	sp!, {r4, r5, r6, lr}
 80032b4:	f7ff b9bc 	b.w	8002630 <chSysHalt>
 80032b8:	f7fd ffd2 	bl	8001260 <__stack_chk_fail>
 80032bc:	20001540 	.word	0x20001540
 80032c0:	20000800 	.word	0x20000800
 80032c4:	0800e940 	.word	0x0800e940
	...

080032d0 <chThdExit>:
 80032d0:	b530      	push	{r4, r5, lr}
 80032d2:	4c0c      	ldr	r4, [pc, #48]	; (8003304 <chThdExit+0x34>)
 80032d4:	b083      	sub	sp, #12
 80032d6:	6823      	ldr	r3, [r4, #0]
 80032d8:	9301      	str	r3, [sp, #4]
 80032da:	4605      	mov	r5, r0
 80032dc:	2320      	movs	r3, #32
 80032de:	f383 8811 	msr	BASEPRI, r3
 80032e2:	f000 fa3d 	bl	8003760 <_stats_start_measure_crit_thd>
 80032e6:	f7ff fa43 	bl	8002770 <_dbg_check_lock>
 80032ea:	9a01      	ldr	r2, [sp, #4]
 80032ec:	6823      	ldr	r3, [r4, #0]
 80032ee:	429a      	cmp	r2, r3
 80032f0:	d105      	bne.n	80032fe <chThdExit+0x2e>
 80032f2:	4628      	mov	r0, r5
 80032f4:	b003      	add	sp, #12
 80032f6:	e8bd 4030 	ldmia.w	sp!, {r4, r5, lr}
 80032fa:	f7ff bfb1 	b.w	8003260 <chThdExitS>
 80032fe:	f7fd ffaf 	bl	8001260 <__stack_chk_fail>
 8003302:	bf00      	nop
 8003304:	20000800 	.word	0x20000800
	...

08003310 <chThdSuspendS>:
 8003310:	b5f0      	push	{r4, r5, r6, r7, lr}
 8003312:	4d0d      	ldr	r5, [pc, #52]	; (8003348 <chThdSuspendS+0x38>)
 8003314:	4e0d      	ldr	r6, [pc, #52]	; (800334c <chThdSuspendS+0x3c>)
 8003316:	6803      	ldr	r3, [r0, #0]
 8003318:	682a      	ldr	r2, [r5, #0]
 800331a:	69b7      	ldr	r7, [r6, #24]
 800331c:	b083      	sub	sp, #12
 800331e:	4604      	mov	r4, r0
 8003320:	9201      	str	r2, [sp, #4]
 8003322:	b113      	cbz	r3, 800332a <chThdSuspendS+0x1a>
 8003324:	480a      	ldr	r0, [pc, #40]	; (8003350 <chThdSuspendS+0x40>)
 8003326:	f7ff f983 	bl	8002630 <chSysHalt>
 800332a:	6027      	str	r7, [r4, #0]
 800332c:	2003      	movs	r0, #3
 800332e:	62bc      	str	r4, [r7, #40]	; 0x28
 8003330:	f7ff fcb6 	bl	8002ca0 <chSchGoSleepS>
 8003334:	9a01      	ldr	r2, [sp, #4]
 8003336:	682b      	ldr	r3, [r5, #0]
 8003338:	69b1      	ldr	r1, [r6, #24]
 800333a:	429a      	cmp	r2, r3
 800333c:	6a88      	ldr	r0, [r1, #40]	; 0x28
 800333e:	d101      	bne.n	8003344 <chThdSuspendS+0x34>
 8003340:	b003      	add	sp, #12
 8003342:	bdf0      	pop	{r4, r5, r6, r7, pc}
 8003344:	f7fd ff8c 	bl	8001260 <__stack_chk_fail>
 8003348:	20000800 	.word	0x20000800
 800334c:	20001540 	.word	0x20001540
 8003350:	0800e950 	.word	0x0800e950
	...

08003360 <chThdSuspendTimeoutS>:
 8003360:	b5f0      	push	{r4, r5, r6, r7, lr}
 8003362:	4d12      	ldr	r5, [pc, #72]	; (80033ac <chThdSuspendTimeoutS+0x4c>)
 8003364:	6803      	ldr	r3, [r0, #0]
 8003366:	4a12      	ldr	r2, [pc, #72]	; (80033b0 <chThdSuspendTimeoutS+0x50>)
 8003368:	b083      	sub	sp, #12
 800336a:	4604      	mov	r4, r0
 800336c:	6828      	ldr	r0, [r5, #0]
 800336e:	9001      	str	r0, [sp, #4]
 8003370:	460e      	mov	r6, r1
 8003372:	6997      	ldr	r7, [r2, #24]
 8003374:	b113      	cbz	r3, 800337c <chThdSuspendTimeoutS+0x1c>
 8003376:	480f      	ldr	r0, [pc, #60]	; (80033b4 <chThdSuspendTimeoutS+0x54>)
 8003378:	f7ff f95a 	bl	8002630 <chSysHalt>
 800337c:	b166      	cbz	r6, 8003398 <chThdSuspendTimeoutS+0x38>
 800337e:	6027      	str	r7, [r4, #0]
 8003380:	9a01      	ldr	r2, [sp, #4]
 8003382:	682b      	ldr	r3, [r5, #0]
 8003384:	62bc      	str	r4, [r7, #40]	; 0x28
 8003386:	429a      	cmp	r2, r3
 8003388:	d10e      	bne.n	80033a8 <chThdSuspendTimeoutS+0x48>
 800338a:	4631      	mov	r1, r6
 800338c:	2003      	movs	r0, #3
 800338e:	b003      	add	sp, #12
 8003390:	e8bd 40f0 	ldmia.w	sp!, {r4, r5, r6, r7, lr}
 8003394:	f7ff bcc4 	b.w	8002d20 <chSchGoSleepTimeoutS>
 8003398:	9a01      	ldr	r2, [sp, #4]
 800339a:	682b      	ldr	r3, [r5, #0]
 800339c:	429a      	cmp	r2, r3
 800339e:	f04f 30ff 	mov.w	r0, #4294967295
 80033a2:	d101      	bne.n	80033a8 <chThdSuspendTimeoutS+0x48>
 80033a4:	b003      	add	sp, #12
 80033a6:	bdf0      	pop	{r4, r5, r6, r7, pc}
 80033a8:	f7fd ff5a 	bl	8001260 <__stack_chk_fail>
 80033ac:	20000800 	.word	0x20000800
 80033b0:	20001540 	.word	0x20001540
 80033b4:	0800e960 	.word	0x0800e960
	...

080033c0 <chThdResumeI>:
 80033c0:	b5f0      	push	{r4, r5, r6, r7, lr}
 80033c2:	4d12      	ldr	r5, [pc, #72]	; (800340c <chThdResumeI+0x4c>)
 80033c4:	6804      	ldr	r4, [r0, #0]
 80033c6:	682b      	ldr	r3, [r5, #0]
 80033c8:	b083      	sub	sp, #12
 80033ca:	9301      	str	r3, [sp, #4]
 80033cc:	b1b4      	cbz	r4, 80033fc <chThdResumeI+0x3c>
 80033ce:	f894 3020 	ldrb.w	r3, [r4, #32]
 80033d2:	2b03      	cmp	r3, #3
 80033d4:	4606      	mov	r6, r0
 80033d6:	460f      	mov	r7, r1
 80033d8:	d10c      	bne.n	80033f4 <chThdResumeI+0x34>
 80033da:	2300      	movs	r3, #0
 80033dc:	6033      	str	r3, [r6, #0]
 80033de:	9a01      	ldr	r2, [sp, #4]
 80033e0:	682b      	ldr	r3, [r5, #0]
 80033e2:	62a7      	str	r7, [r4, #40]	; 0x28
 80033e4:	429a      	cmp	r2, r3
 80033e6:	d10f      	bne.n	8003408 <chThdResumeI+0x48>
 80033e8:	4620      	mov	r0, r4
 80033ea:	b003      	add	sp, #12
 80033ec:	e8bd 40f0 	ldmia.w	sp!, {r4, r5, r6, r7, lr}
 80033f0:	f7ff bbd6 	b.w	8002ba0 <chSchReadyI>
 80033f4:	4806      	ldr	r0, [pc, #24]	; (8003410 <chThdResumeI+0x50>)
 80033f6:	f7ff f91b 	bl	8002630 <chSysHalt>
 80033fa:	e7ee      	b.n	80033da <chThdResumeI+0x1a>
 80033fc:	9a01      	ldr	r2, [sp, #4]
 80033fe:	682b      	ldr	r3, [r5, #0]
 8003400:	429a      	cmp	r2, r3
 8003402:	d101      	bne.n	8003408 <chThdResumeI+0x48>
 8003404:	b003      	add	sp, #12
 8003406:	bdf0      	pop	{r4, r5, r6, r7, pc}
 8003408:	f7fd ff2a 	bl	8001260 <__stack_chk_fail>
 800340c:	20000800 	.word	0x20000800
 8003410:	0800e980 	.word	0x0800e980
	...

08003420 <chThdEnqueueTimeoutS>:
 8003420:	b530      	push	{r4, r5, lr}
 8003422:	4a10      	ldr	r2, [pc, #64]	; (8003464 <chThdEnqueueTimeoutS+0x44>)
 8003424:	b083      	sub	sp, #12
 8003426:	6813      	ldr	r3, [r2, #0]
 8003428:	9301      	str	r3, [sp, #4]
 800342a:	b181      	cbz	r1, 800344e <chThdEnqueueTimeoutS+0x2e>
 800342c:	4b0e      	ldr	r3, [pc, #56]	; (8003468 <chThdEnqueueTimeoutS+0x48>)
 800342e:	9d01      	ldr	r5, [sp, #4]
 8003430:	699b      	ldr	r3, [r3, #24]
 8003432:	6018      	str	r0, [r3, #0]
 8003434:	6844      	ldr	r4, [r0, #4]
 8003436:	605c      	str	r4, [r3, #4]
 8003438:	6023      	str	r3, [r4, #0]
 800343a:	6812      	ldr	r2, [r2, #0]
 800343c:	6043      	str	r3, [r0, #4]
 800343e:	4295      	cmp	r5, r2
 8003440:	d10d      	bne.n	800345e <chThdEnqueueTimeoutS+0x3e>
 8003442:	2004      	movs	r0, #4
 8003444:	b003      	add	sp, #12
 8003446:	e8bd 4030 	ldmia.w	sp!, {r4, r5, lr}
 800344a:	f7ff bc69 	b.w	8002d20 <chSchGoSleepTimeoutS>
 800344e:	9901      	ldr	r1, [sp, #4]
 8003450:	6813      	ldr	r3, [r2, #0]
 8003452:	4299      	cmp	r1, r3
 8003454:	f04f 30ff 	mov.w	r0, #4294967295
 8003458:	d101      	bne.n	800345e <chThdEnqueueTimeoutS+0x3e>
 800345a:	b003      	add	sp, #12
 800345c:	bd30      	pop	{r4, r5, pc}
 800345e:	f7fd feff 	bl	8001260 <__stack_chk_fail>
 8003462:	bf00      	nop
 8003464:	20000800 	.word	0x20000800
 8003468:	20001540 	.word	0x20001540
 800346c:	00000000 	.word	0x00000000

08003470 <chThdDequeueNextI>:
 8003470:	b570      	push	{r4, r5, r6, lr}
 8003472:	4d12      	ldr	r5, [pc, #72]	; (80034bc <chThdDequeueNextI+0x4c>)
 8003474:	6804      	ldr	r4, [r0, #0]
 8003476:	682b      	ldr	r3, [r5, #0]
 8003478:	b082      	sub	sp, #8
 800347a:	42a0      	cmp	r0, r4
 800347c:	9301      	str	r3, [sp, #4]
 800347e:	d015      	beq.n	80034ac <chThdDequeueNextI+0x3c>
 8003480:	6823      	ldr	r3, [r4, #0]
 8003482:	6003      	str	r3, [r0, #0]
 8003484:	6058      	str	r0, [r3, #4]
 8003486:	f894 3020 	ldrb.w	r3, [r4, #32]
 800348a:	2b04      	cmp	r3, #4
 800348c:	460e      	mov	r6, r1
 800348e:	d002      	beq.n	8003496 <chThdDequeueNextI+0x26>
 8003490:	480b      	ldr	r0, [pc, #44]	; (80034c0 <chThdDequeueNextI+0x50>)
 8003492:	f7ff f8cd 	bl	8002630 <chSysHalt>
 8003496:	9a01      	ldr	r2, [sp, #4]
 8003498:	682b      	ldr	r3, [r5, #0]
 800349a:	62a6      	str	r6, [r4, #40]	; 0x28
 800349c:	429a      	cmp	r2, r3
 800349e:	d10b      	bne.n	80034b8 <chThdDequeueNextI+0x48>
 80034a0:	4620      	mov	r0, r4
 80034a2:	b002      	add	sp, #8
 80034a4:	e8bd 4070 	ldmia.w	sp!, {r4, r5, r6, lr}
 80034a8:	f7ff bb7a 	b.w	8002ba0 <chSchReadyI>
 80034ac:	9a01      	ldr	r2, [sp, #4]
 80034ae:	682b      	ldr	r3, [r5, #0]
 80034b0:	429a      	cmp	r2, r3
 80034b2:	d101      	bne.n	80034b8 <chThdDequeueNextI+0x48>
 80034b4:	b002      	add	sp, #8
 80034b6:	bd70      	pop	{r4, r5, r6, pc}
 80034b8:	f7fd fed2 	bl	8001260 <__stack_chk_fail>
 80034bc:	20000800 	.word	0x20000800
 80034c0:	0800e910 	.word	0x0800e910
	...

080034d0 <chThdDequeueAllI>:
 80034d0:	e92d 41f0 	stmdb	sp!, {r4, r5, r6, r7, r8, lr}
 80034d4:	f8df 8050 	ldr.w	r8, [pc, #80]	; 8003528 <chThdDequeueAllI+0x58>
 80034d8:	6804      	ldr	r4, [r0, #0]
 80034da:	f8d8 3000 	ldr.w	r3, [r8]
 80034de:	b082      	sub	sp, #8
 80034e0:	42a0      	cmp	r0, r4
 80034e2:	9301      	str	r3, [sp, #4]
 80034e4:	d013      	beq.n	800350e <chThdDequeueAllI+0x3e>
 80034e6:	4f0f      	ldr	r7, [pc, #60]	; (8003524 <chThdDequeueAllI+0x54>)
 80034e8:	4605      	mov	r5, r0
 80034ea:	460e      	mov	r6, r1
 80034ec:	6823      	ldr	r3, [r4, #0]
 80034ee:	602b      	str	r3, [r5, #0]
 80034f0:	605d      	str	r5, [r3, #4]
 80034f2:	f894 3020 	ldrb.w	r3, [r4, #32]
 80034f6:	2b04      	cmp	r3, #4
 80034f8:	d002      	beq.n	8003500 <chThdDequeueAllI+0x30>
 80034fa:	4638      	mov	r0, r7
 80034fc:	f7ff f898 	bl	8002630 <chSysHalt>
 8003500:	62a6      	str	r6, [r4, #40]	; 0x28
 8003502:	4620      	mov	r0, r4
 8003504:	f7ff fb4c 	bl	8002ba0 <chSchReadyI>
 8003508:	682c      	ldr	r4, [r5, #0]
 800350a:	42a5      	cmp	r5, r4
 800350c:	d1ee      	bne.n	80034ec <chThdDequeueAllI+0x1c>
 800350e:	9a01      	ldr	r2, [sp, #4]
 8003510:	f8d8 3000 	ldr.w	r3, [r8]
 8003514:	429a      	cmp	r2, r3
 8003516:	d102      	bne.n	800351e <chThdDequeueAllI+0x4e>
 8003518:	b002      	add	sp, #8
 800351a:	e8bd 81f0 	ldmia.w	sp!, {r4, r5, r6, r7, r8, pc}
 800351e:	f7fd fe9f 	bl	8001260 <__stack_chk_fail>
 8003522:	bf00      	nop
 8003524:	0800e910 	.word	0x0800e910
 8003528:	20000800 	.word	0x20000800
 800352c:	00000000 	.word	0x00000000

08003530 <chTMObjectInit>:
 8003530:	b530      	push	{r4, r5, lr}
 8003532:	4b0b      	ldr	r3, [pc, #44]	; (8003560 <chTMObjectInit+0x30>)
 8003534:	b083      	sub	sp, #12
 8003536:	681a      	ldr	r2, [r3, #0]
 8003538:	9201      	str	r2, [sp, #4]
 800353a:	f04f 32ff 	mov.w	r2, #4294967295
 800353e:	6002      	str	r2, [r0, #0]
 8003540:	9901      	ldr	r1, [sp, #4]
 8003542:	681a      	ldr	r2, [r3, #0]
 8003544:	2400      	movs	r4, #0
 8003546:	2300      	movs	r3, #0
 8003548:	2500      	movs	r5, #0
 800354a:	4291      	cmp	r1, r2
 800354c:	e9c0 4504 	strd	r4, r5, [r0, #16]
 8003550:	e9c0 3301 	strd	r3, r3, [r0, #4]
 8003554:	60c3      	str	r3, [r0, #12]
 8003556:	d101      	bne.n	800355c <chTMObjectInit+0x2c>
 8003558:	b003      	add	sp, #12
 800355a:	bd30      	pop	{r4, r5, pc}
 800355c:	f7fd fe80 	bl	8001260 <__stack_chk_fail>
 8003560:	20000800 	.word	0x20000800
	...

08003570 <chTMStartMeasurementX>:
 8003570:	b500      	push	{lr}
 8003572:	4b08      	ldr	r3, [pc, #32]	; (8003594 <chTMStartMeasurementX+0x24>)
 8003574:	4a08      	ldr	r2, [pc, #32]	; (8003598 <chTMStartMeasurementX+0x28>)
 8003576:	6819      	ldr	r1, [r3, #0]
 8003578:	b083      	sub	sp, #12
 800357a:	9101      	str	r1, [sp, #4]
 800357c:	6851      	ldr	r1, [r2, #4]
 800357e:	9a01      	ldr	r2, [sp, #4]
 8003580:	681b      	ldr	r3, [r3, #0]
 8003582:	6081      	str	r1, [r0, #8]
 8003584:	429a      	cmp	r2, r3
 8003586:	d102      	bne.n	800358e <chTMStartMeasurementX+0x1e>
 8003588:	b003      	add	sp, #12
 800358a:	f85d fb04 	ldr.w	pc, [sp], #4
 800358e:	f7fd fe67 	bl	8001260 <__stack_chk_fail>
 8003592:	bf00      	nop
 8003594:	20000800 	.word	0x20000800
 8003598:	e0001000 	.word	0xe0001000
 800359c:	00000000 	.word	0x00000000

080035a0 <chTMStopMeasurementX>:
 80035a0:	b5f0      	push	{r4, r5, r6, r7, lr}
 80035a2:	4914      	ldr	r1, [pc, #80]	; (80035f4 <chTMStopMeasurementX+0x54>)
 80035a4:	4b14      	ldr	r3, [pc, #80]	; (80035f8 <chTMStopMeasurementX+0x58>)
 80035a6:	680a      	ldr	r2, [r1, #0]
 80035a8:	6884      	ldr	r4, [r0, #8]
 80035aa:	b083      	sub	sp, #12
 80035ac:	9201      	str	r2, [sp, #4]
 80035ae:	4a13      	ldr	r2, [pc, #76]	; (80035fc <chTMStopMeasurementX+0x5c>)
 80035b0:	685b      	ldr	r3, [r3, #4]
 80035b2:	f8d2 64a8 	ldr.w	r6, [r2, #1192]	; 0x4a8
 80035b6:	68c2      	ldr	r2, [r0, #12]
 80035b8:	1b1b      	subs	r3, r3, r4
 80035ba:	e9d0 4504 	ldrd	r4, r5, [r0, #16]
 80035be:	3201      	adds	r2, #1
 80035c0:	1b9b      	subs	r3, r3, r6
 80035c2:	60c2      	str	r2, [r0, #12]
 80035c4:	6842      	ldr	r2, [r0, #4]
 80035c6:	6083      	str	r3, [r0, #8]
 80035c8:	18e6      	adds	r6, r4, r3
 80035ca:	f145 0700 	adc.w	r7, r5, #0
 80035ce:	4293      	cmp	r3, r2
 80035d0:	e9c0 6704 	strd	r6, r7, [r0, #16]
 80035d4:	d809      	bhi.n	80035ea <chTMStopMeasurementX+0x4a>
 80035d6:	6802      	ldr	r2, [r0, #0]
 80035d8:	4293      	cmp	r3, r2
 80035da:	bf38      	it	cc
 80035dc:	6003      	strcc	r3, [r0, #0]
 80035de:	9a01      	ldr	r2, [sp, #4]
 80035e0:	680b      	ldr	r3, [r1, #0]
 80035e2:	429a      	cmp	r2, r3
 80035e4:	d103      	bne.n	80035ee <chTMStopMeasurementX+0x4e>
 80035e6:	b003      	add	sp, #12
 80035e8:	bdf0      	pop	{r4, r5, r6, r7, pc}
 80035ea:	6043      	str	r3, [r0, #4]
 80035ec:	e7f7      	b.n	80035de <chTMStopMeasurementX+0x3e>
 80035ee:	f7fd fe37 	bl	8001260 <__stack_chk_fail>
 80035f2:	bf00      	nop
 80035f4:	20000800 	.word	0x20000800
 80035f8:	e0001000 	.word	0xe0001000
 80035fc:	20001540 	.word	0x20001540

08003600 <_tm_init>:
 8003600:	b530      	push	{r4, r5, lr}
 8003602:	4d11      	ldr	r5, [pc, #68]	; (8003648 <_tm_init+0x48>)
 8003604:	4c11      	ldr	r4, [pc, #68]	; (800364c <_tm_init+0x4c>)
 8003606:	682b      	ldr	r3, [r5, #0]
 8003608:	b089      	sub	sp, #36	; 0x24
 800360a:	f04f 31ff 	mov.w	r1, #4294967295
 800360e:	9307      	str	r3, [sp, #28]
 8003610:	2300      	movs	r3, #0
 8003612:	2200      	movs	r2, #0
 8003614:	4668      	mov	r0, sp
 8003616:	f8c4 34a8 	str.w	r3, [r4, #1192]	; 0x4a8
 800361a:	e9cd 3301 	strd	r3, r3, [sp, #4]
 800361e:	9303      	str	r3, [sp, #12]
 8003620:	2300      	movs	r3, #0
 8003622:	e9cd 2304 	strd	r2, r3, [sp, #16]
 8003626:	9100      	str	r1, [sp, #0]
 8003628:	f7ff ffa2 	bl	8003570 <chTMStartMeasurementX>
 800362c:	4668      	mov	r0, sp
 800362e:	f7ff ffb7 	bl	80035a0 <chTMStopMeasurementX>
 8003632:	9a07      	ldr	r2, [sp, #28]
 8003634:	682b      	ldr	r3, [r5, #0]
 8003636:	9902      	ldr	r1, [sp, #8]
 8003638:	f8c4 14a8 	str.w	r1, [r4, #1192]	; 0x4a8
 800363c:	429a      	cmp	r2, r3
 800363e:	d101      	bne.n	8003644 <_tm_init+0x44>
 8003640:	b009      	add	sp, #36	; 0x24
 8003642:	bd30      	pop	{r4, r5, pc}
 8003644:	f7fd fe0c 	bl	8001260 <__stack_chk_fail>
 8003648:	20000800 	.word	0x20000800
 800364c:	20001540 	.word	0x20001540

08003650 <chTMChainMeasurementToX>:
 8003650:	e92d 4870 	stmdb	sp!, {r4, r5, r6, fp, lr}
 8003654:	4e13      	ldr	r6, [pc, #76]	; (80036a4 <chTMChainMeasurementToX+0x54>)
 8003656:	4b14      	ldr	r3, [pc, #80]	; (80036a8 <chTMChainMeasurementToX+0x58>)
 8003658:	6832      	ldr	r2, [r6, #0]
 800365a:	b083      	sub	sp, #12
 800365c:	9201      	str	r2, [sp, #4]
 800365e:	685b      	ldr	r3, [r3, #4]
 8003660:	608b      	str	r3, [r1, #8]
 8003662:	e9d0 4102 	ldrd	r4, r1, [r0, #8]
 8003666:	1b1b      	subs	r3, r3, r4
 8003668:	e9d0 4504 	ldrd	r4, r5, [r0, #16]
 800366c:	6842      	ldr	r2, [r0, #4]
 800366e:	eb14 0b03 	adds.w	fp, r4, r3
 8003672:	f145 0c00 	adc.w	ip, r5, #0
 8003676:	3101      	adds	r1, #1
 8003678:	4293      	cmp	r3, r2
 800367a:	e9c0 3102 	strd	r3, r1, [r0, #8]
 800367e:	e9c0 bc04 	strd	fp, ip, [r0, #16]
 8003682:	d80a      	bhi.n	800369a <chTMChainMeasurementToX+0x4a>
 8003684:	6802      	ldr	r2, [r0, #0]
 8003686:	4293      	cmp	r3, r2
 8003688:	bf38      	it	cc
 800368a:	6003      	strcc	r3, [r0, #0]
 800368c:	9a01      	ldr	r2, [sp, #4]
 800368e:	6833      	ldr	r3, [r6, #0]
 8003690:	429a      	cmp	r2, r3
 8003692:	d104      	bne.n	800369e <chTMChainMeasurementToX+0x4e>
 8003694:	b003      	add	sp, #12
 8003696:	e8bd 8870 	ldmia.w	sp!, {r4, r5, r6, fp, pc}
 800369a:	6043      	str	r3, [r0, #4]
 800369c:	e7f6      	b.n	800368c <chTMChainMeasurementToX+0x3c>
 800369e:	f7fd fddf 	bl	8001260 <__stack_chk_fail>
 80036a2:	bf00      	nop
 80036a4:	20000800 	.word	0x20000800
 80036a8:	e0001000 	.word	0xe0001000
 80036ac:	00000000 	.word	0x00000000

080036b0 <_stats_init>:
 80036b0:	b530      	push	{r4, r5, lr}
 80036b2:	4d0d      	ldr	r5, [pc, #52]	; (80036e8 <_stats_init+0x38>)
 80036b4:	4c0d      	ldr	r4, [pc, #52]	; (80036ec <_stats_init+0x3c>)
 80036b6:	682b      	ldr	r3, [r5, #0]
 80036b8:	b083      	sub	sp, #12
 80036ba:	f504 6097 	add.w	r0, r4, #1208	; 0x4b8
 80036be:	9301      	str	r3, [sp, #4]
 80036c0:	2300      	movs	r3, #0
 80036c2:	f8c4 34b0 	str.w	r3, [r4, #1200]	; 0x4b0
 80036c6:	f8c4 34b4 	str.w	r3, [r4, #1204]	; 0x4b4
 80036ca:	f7ff ff31 	bl	8003530 <chTMObjectInit>
 80036ce:	9a01      	ldr	r2, [sp, #4]
 80036d0:	682b      	ldr	r3, [r5, #0]
 80036d2:	429a      	cmp	r2, r3
 80036d4:	d106      	bne.n	80036e4 <_stats_init+0x34>
 80036d6:	f504 609a 	add.w	r0, r4, #1232	; 0x4d0
 80036da:	b003      	add	sp, #12
 80036dc:	e8bd 4030 	ldmia.w	sp!, {r4, r5, lr}
 80036e0:	f7ff bf26 	b.w	8003530 <chTMObjectInit>
 80036e4:	f7fd fdbc 	bl	8001260 <__stack_chk_fail>
 80036e8:	20000800 	.word	0x20000800
 80036ec:	20001540 	.word	0x20001540

080036f0 <_stats_increase_irq>:
 80036f0:	b500      	push	{lr}
 80036f2:	4909      	ldr	r1, [pc, #36]	; (8003718 <_stats_increase_irq+0x28>)
 80036f4:	4a09      	ldr	r2, [pc, #36]	; (800371c <_stats_increase_irq+0x2c>)
 80036f6:	680b      	ldr	r3, [r1, #0]
 80036f8:	b083      	sub	sp, #12
 80036fa:	9301      	str	r3, [sp, #4]
 80036fc:	9801      	ldr	r0, [sp, #4]
 80036fe:	f8d2 34b0 	ldr.w	r3, [r2, #1200]	; 0x4b0
 8003702:	6809      	ldr	r1, [r1, #0]
 8003704:	3301      	adds	r3, #1
 8003706:	4288      	cmp	r0, r1
 8003708:	f8c2 34b0 	str.w	r3, [r2, #1200]	; 0x4b0
 800370c:	d102      	bne.n	8003714 <_stats_increase_irq+0x24>
 800370e:	b003      	add	sp, #12
 8003710:	f85d fb04 	ldr.w	pc, [sp], #4
 8003714:	f7fd fda4 	bl	8001260 <__stack_chk_fail>
 8003718:	20000800 	.word	0x20000800
 800371c:	20001540 	.word	0x20001540

08003720 <_stats_ctxswc>:
 8003720:	b570      	push	{r4, r5, r6, lr}
 8003722:	4c0d      	ldr	r4, [pc, #52]	; (8003758 <_stats_ctxswc+0x38>)
 8003724:	4a0d      	ldr	r2, [pc, #52]	; (800375c <_stats_ctxswc+0x3c>)
 8003726:	6823      	ldr	r3, [r4, #0]
 8003728:	b082      	sub	sp, #8
 800372a:	9301      	str	r3, [sp, #4]
 800372c:	9d01      	ldr	r5, [sp, #4]
 800372e:	f8d2 34b4 	ldr.w	r3, [r2, #1204]	; 0x4b4
 8003732:	6824      	ldr	r4, [r4, #0]
 8003734:	3301      	adds	r3, #1
 8003736:	42a5      	cmp	r5, r4
 8003738:	f8c2 34b4 	str.w	r3, [r2, #1204]	; 0x4b4
 800373c:	d109      	bne.n	8003752 <_stats_ctxswc+0x32>
 800373e:	460e      	mov	r6, r1
 8003740:	f100 0150 	add.w	r1, r0, #80	; 0x50
 8003744:	f106 0050 	add.w	r0, r6, #80	; 0x50
 8003748:	b002      	add	sp, #8
 800374a:	e8bd 4070 	ldmia.w	sp!, {r4, r5, r6, lr}
 800374e:	f7ff bf7f 	b.w	8003650 <chTMChainMeasurementToX>
 8003752:	f7fd fd85 	bl	8001260 <__stack_chk_fail>
 8003756:	bf00      	nop
 8003758:	20000800 	.word	0x20000800
 800375c:	20001540 	.word	0x20001540

08003760 <_stats_start_measure_crit_thd>:
 8003760:	b500      	push	{lr}
 8003762:	4b08      	ldr	r3, [pc, #32]	; (8003784 <_stats_start_measure_crit_thd+0x24>)
 8003764:	b083      	sub	sp, #12
 8003766:	681a      	ldr	r2, [r3, #0]
 8003768:	9201      	str	r2, [sp, #4]
 800376a:	9a01      	ldr	r2, [sp, #4]
 800376c:	681b      	ldr	r3, [r3, #0]
 800376e:	429a      	cmp	r2, r3
 8003770:	d105      	bne.n	800377e <_stats_start_measure_crit_thd+0x1e>
 8003772:	4805      	ldr	r0, [pc, #20]	; (8003788 <_stats_start_measure_crit_thd+0x28>)
 8003774:	b003      	add	sp, #12
 8003776:	f85d eb04 	ldr.w	lr, [sp], #4
 800377a:	f7ff bef9 	b.w	8003570 <chTMStartMeasurementX>
 800377e:	f7fd fd6f 	bl	8001260 <__stack_chk_fail>
 8003782:	bf00      	nop
 8003784:	20000800 	.word	0x20000800
 8003788:	200019f8 	.word	0x200019f8
 800378c:	00000000 	.word	0x00000000

08003790 <_stats_stop_measure_crit_thd>:
 8003790:	b500      	push	{lr}
 8003792:	4b08      	ldr	r3, [pc, #32]	; (80037b4 <_stats_stop_measure_crit_thd+0x24>)
 8003794:	b083      	sub	sp, #12
 8003796:	681a      	ldr	r2, [r3, #0]
 8003798:	9201      	str	r2, [sp, #4]
 800379a:	9a01      	ldr	r2, [sp, #4]
 800379c:	681b      	ldr	r3, [r3, #0]
 800379e:	429a      	cmp	r2, r3
 80037a0:	d105      	bne.n	80037ae <_stats_stop_measure_crit_thd+0x1e>
 80037a2:	4805      	ldr	r0, [pc, #20]	; (80037b8 <_stats_stop_measure_crit_thd+0x28>)
 80037a4:	b003      	add	sp, #12
 80037a6:	f85d eb04 	ldr.w	lr, [sp], #4
 80037aa:	f7ff bef9 	b.w	80035a0 <chTMStopMeasurementX>
 80037ae:	f7fd fd57 	bl	8001260 <__stack_chk_fail>
 80037b2:	bf00      	nop
 80037b4:	20000800 	.word	0x20000800
 80037b8:	200019f8 	.word	0x200019f8
 80037bc:	00000000 	.word	0x00000000

080037c0 <_stats_start_measure_crit_isr>:
 80037c0:	b500      	push	{lr}
 80037c2:	4b08      	ldr	r3, [pc, #32]	; (80037e4 <_stats_start_measure_crit_isr+0x24>)
 80037c4:	b083      	sub	sp, #12
 80037c6:	681a      	ldr	r2, [r3, #0]
 80037c8:	9201      	str	r2, [sp, #4]
 80037ca:	9a01      	ldr	r2, [sp, #4]
 80037cc:	681b      	ldr	r3, [r3, #0]
 80037ce:	429a      	cmp	r2, r3
 80037d0:	d105      	bne.n	80037de <_stats_start_measure_crit_isr+0x1e>
 80037d2:	4805      	ldr	r0, [pc, #20]	; (80037e8 <_stats_start_measure_crit_isr+0x28>)
 80037d4:	b003      	add	sp, #12
 80037d6:	f85d eb04 	ldr.w	lr, [sp], #4
 80037da:	f7ff bec9 	b.w	8003570 <chTMStartMeasurementX>
 80037de:	f7fd fd3f 	bl	8001260 <__stack_chk_fail>
 80037e2:	bf00      	nop
 80037e4:	20000800 	.word	0x20000800
 80037e8:	20001a10 	.word	0x20001a10
 80037ec:	00000000 	.word	0x00000000

080037f0 <_stats_stop_measure_crit_isr>:
 80037f0:	b500      	push	{lr}
 80037f2:	4b08      	ldr	r3, [pc, #32]	; (8003814 <_stats_stop_measure_crit_isr+0x24>)
 80037f4:	b083      	sub	sp, #12
 80037f6:	681a      	ldr	r2, [r3, #0]
 80037f8:	9201      	str	r2, [sp, #4]
 80037fa:	9a01      	ldr	r2, [sp, #4]
 80037fc:	681b      	ldr	r3, [r3, #0]
 80037fe:	429a      	cmp	r2, r3
 8003800:	d105      	bne.n	800380e <_stats_stop_measure_crit_isr+0x1e>
 8003802:	4805      	ldr	r0, [pc, #20]	; (8003818 <_stats_stop_measure_crit_isr+0x28>)
 8003804:	b003      	add	sp, #12
 8003806:	f85d eb04 	ldr.w	lr, [sp], #4
 800380a:	f7ff bec9 	b.w	80035a0 <chTMStopMeasurementX>
 800380e:	f7fd fd27 	bl	8001260 <__stack_chk_fail>
 8003812:	bf00      	nop
 8003814:	20000800 	.word	0x20000800
 8003818:	20001a10 	.word	0x20001a10
 800381c:	00000000 	.word	0x00000000

08003820 <chMtxObjectInit>:
 8003820:	b530      	push	{r4, r5, lr}
 8003822:	4d0b      	ldr	r5, [pc, #44]	; (8003850 <chMtxObjectInit+0x30>)
 8003824:	b083      	sub	sp, #12
 8003826:	682b      	ldr	r3, [r5, #0]
 8003828:	9301      	str	r3, [sp, #4]
 800382a:	4604      	mov	r4, r0
 800382c:	b150      	cbz	r0, 8003844 <chMtxObjectInit+0x24>
 800382e:	6024      	str	r4, [r4, #0]
 8003830:	9901      	ldr	r1, [sp, #4]
 8003832:	682a      	ldr	r2, [r5, #0]
 8003834:	6064      	str	r4, [r4, #4]
 8003836:	2300      	movs	r3, #0
 8003838:	4291      	cmp	r1, r2
 800383a:	60a3      	str	r3, [r4, #8]
 800383c:	6123      	str	r3, [r4, #16]
 800383e:	d105      	bne.n	800384c <chMtxObjectInit+0x2c>
 8003840:	b003      	add	sp, #12
 8003842:	bd30      	pop	{r4, r5, pc}
 8003844:	4803      	ldr	r0, [pc, #12]	; (8003854 <chMtxObjectInit+0x34>)
 8003846:	f7fe fef3 	bl	8002630 <chSysHalt>
 800384a:	e7f0      	b.n	800382e <chMtxObjectInit+0xe>
 800384c:	f7fd fd08 	bl	8001260 <__stack_chk_fail>
 8003850:	20000800 	.word	0x20000800
 8003854:	0800e9c0 	.word	0x0800e9c0
	...

08003860 <chMtxLockS>:
 8003860:	b5f0      	push	{r4, r5, r6, r7, lr}
 8003862:	4e5d      	ldr	r6, [pc, #372]	; (80039d8 <chMtxLockS+0x178>)
 8003864:	4b5d      	ldr	r3, [pc, #372]	; (80039dc <chMtxLockS+0x17c>)
 8003866:	6832      	ldr	r2, [r6, #0]
 8003868:	699d      	ldr	r5, [r3, #24]
 800386a:	b083      	sub	sp, #12
 800386c:	4604      	mov	r4, r0
 800386e:	9201      	str	r2, [sp, #4]
 8003870:	f7ff f876 	bl	8002960 <chDbgCheckClassS>
 8003874:	2c00      	cmp	r4, #0
 8003876:	f000 8084 	beq.w	8003982 <chMtxLockS+0x122>
 800387a:	68a0      	ldr	r0, [r4, #8]
 800387c:	6923      	ldr	r3, [r4, #16]
 800387e:	2800      	cmp	r0, #0
 8003880:	d043      	beq.n	800390a <chMtxLockS+0xaa>
 8003882:	2b00      	cmp	r3, #0
 8003884:	f340 8097 	ble.w	80039b6 <chMtxLockS+0x156>
 8003888:	4285      	cmp	r5, r0
 800388a:	d076      	beq.n	800397a <chMtxLockS+0x11a>
 800388c:	68aa      	ldr	r2, [r5, #8]
 800388e:	6883      	ldr	r3, [r0, #8]
 8003890:	429a      	cmp	r2, r3
 8003892:	d908      	bls.n	80038a6 <chMtxLockS+0x46>
 8003894:	f890 3020 	ldrb.w	r3, [r0, #32]
 8003898:	6082      	str	r2, [r0, #8]
 800389a:	2b06      	cmp	r3, #6
 800389c:	d040      	beq.n	8003920 <chMtxLockS+0xc0>
 800389e:	2b07      	cmp	r3, #7
 80038a0:	d073      	beq.n	800398a <chMtxLockS+0x12a>
 80038a2:	2b00      	cmp	r3, #0
 80038a4:	d05d      	beq.n	8003962 <chMtxLockS+0x102>
 80038a6:	4627      	mov	r7, r4
 80038a8:	4623      	mov	r3, r4
 80038aa:	e003      	b.n	80038b4 <chMtxLockS+0x54>
 80038ac:	6899      	ldr	r1, [r3, #8]
 80038ae:	68aa      	ldr	r2, [r5, #8]
 80038b0:	4291      	cmp	r1, r2
 80038b2:	d333      	bcc.n	800391c <chMtxLockS+0xbc>
 80038b4:	681b      	ldr	r3, [r3, #0]
 80038b6:	429c      	cmp	r4, r3
 80038b8:	d1f8      	bne.n	80038ac <chMtxLockS+0x4c>
 80038ba:	602f      	str	r7, [r5, #0]
 80038bc:	687b      	ldr	r3, [r7, #4]
 80038be:	606b      	str	r3, [r5, #4]
 80038c0:	2006      	movs	r0, #6
 80038c2:	601d      	str	r5, [r3, #0]
 80038c4:	607d      	str	r5, [r7, #4]
 80038c6:	62ac      	str	r4, [r5, #40]	; 0x28
 80038c8:	f7ff f9ea 	bl	8002ca0 <chSchGoSleepS>
 80038cc:	68a3      	ldr	r3, [r4, #8]
 80038ce:	42ab      	cmp	r3, r5
 80038d0:	d002      	beq.n	80038d8 <chMtxLockS+0x78>
 80038d2:	4843      	ldr	r0, [pc, #268]	; (80039e0 <chMtxLockS+0x180>)
 80038d4:	f7fe feac 	bl	8002630 <chSysHalt>
 80038d8:	6c2b      	ldr	r3, [r5, #64]	; 0x40
 80038da:	42a3      	cmp	r3, r4
 80038dc:	d002      	beq.n	80038e4 <chMtxLockS+0x84>
 80038de:	4840      	ldr	r0, [pc, #256]	; (80039e0 <chMtxLockS+0x180>)
 80038e0:	f7fe fea6 	bl	8002630 <chSysHalt>
 80038e4:	6923      	ldr	r3, [r4, #16]
 80038e6:	2b01      	cmp	r3, #1
 80038e8:	d105      	bne.n	80038f6 <chMtxLockS+0x96>
 80038ea:	9a01      	ldr	r2, [sp, #4]
 80038ec:	6833      	ldr	r3, [r6, #0]
 80038ee:	429a      	cmp	r2, r3
 80038f0:	d16f      	bne.n	80039d2 <chMtxLockS+0x172>
 80038f2:	b003      	add	sp, #12
 80038f4:	bdf0      	pop	{r4, r5, r6, r7, pc}
 80038f6:	9a01      	ldr	r2, [sp, #4]
 80038f8:	6833      	ldr	r3, [r6, #0]
 80038fa:	429a      	cmp	r2, r3
 80038fc:	d169      	bne.n	80039d2 <chMtxLockS+0x172>
 80038fe:	4838      	ldr	r0, [pc, #224]	; (80039e0 <chMtxLockS+0x180>)
 8003900:	b003      	add	sp, #12
 8003902:	e8bd 40f0 	ldmia.w	sp!, {r4, r5, r6, r7, lr}
 8003906:	f7fe be93 	b.w	8002630 <chSysHalt>
 800390a:	2b00      	cmp	r3, #0
 800390c:	d158      	bne.n	80039c0 <chMtxLockS+0x160>
 800390e:	3301      	adds	r3, #1
 8003910:	60a5      	str	r5, [r4, #8]
 8003912:	6123      	str	r3, [r4, #16]
 8003914:	6c2b      	ldr	r3, [r5, #64]	; 0x40
 8003916:	60e3      	str	r3, [r4, #12]
 8003918:	642c      	str	r4, [r5, #64]	; 0x40
 800391a:	e7e6      	b.n	80038ea <chMtxLockS+0x8a>
 800391c:	461f      	mov	r7, r3
 800391e:	e7cc      	b.n	80038ba <chMtxLockS+0x5a>
 8003920:	e9d0 2300 	ldrd	r2, r3, [r0]
 8003924:	601a      	str	r2, [r3, #0]
 8003926:	e9d0 3200 	ldrd	r3, r2, [r0]
 800392a:	605a      	str	r2, [r3, #4]
 800392c:	6a87      	ldr	r7, [r0, #40]	; 0x28
 800392e:	463b      	mov	r3, r7
 8003930:	e003      	b.n	800393a <chMtxLockS+0xda>
 8003932:	6899      	ldr	r1, [r3, #8]
 8003934:	6882      	ldr	r2, [r0, #8]
 8003936:	4291      	cmp	r1, r2
 8003938:	d347      	bcc.n	80039ca <chMtxLockS+0x16a>
 800393a:	681b      	ldr	r3, [r3, #0]
 800393c:	429f      	cmp	r7, r3
 800393e:	d1f8      	bne.n	8003932 <chMtxLockS+0xd2>
 8003940:	6007      	str	r7, [r0, #0]
 8003942:	687b      	ldr	r3, [r7, #4]
 8003944:	6043      	str	r3, [r0, #4]
 8003946:	6018      	str	r0, [r3, #0]
 8003948:	6078      	str	r0, [r7, #4]
 800394a:	6a83      	ldr	r3, [r0, #40]	; 0x28
 800394c:	68aa      	ldr	r2, [r5, #8]
 800394e:	6898      	ldr	r0, [r3, #8]
 8003950:	6883      	ldr	r3, [r0, #8]
 8003952:	4293      	cmp	r3, r2
 8003954:	d2a7      	bcs.n	80038a6 <chMtxLockS+0x46>
 8003956:	f890 3020 	ldrb.w	r3, [r0, #32]
 800395a:	6082      	str	r2, [r0, #8]
 800395c:	2b06      	cmp	r3, #6
 800395e:	d19e      	bne.n	800389e <chMtxLockS+0x3e>
 8003960:	e7de      	b.n	8003920 <chMtxLockS+0xc0>
 8003962:	e9d0 2300 	ldrd	r2, r3, [r0]
 8003966:	2101      	movs	r1, #1
 8003968:	f880 1020 	strb.w	r1, [r0, #32]
 800396c:	601a      	str	r2, [r3, #0]
 800396e:	e9d0 3200 	ldrd	r3, r2, [r0]
 8003972:	605a      	str	r2, [r3, #4]
 8003974:	f7ff f914 	bl	8002ba0 <chSchReadyI>
 8003978:	e795      	b.n	80038a6 <chMtxLockS+0x46>
 800397a:	6923      	ldr	r3, [r4, #16]
 800397c:	3301      	adds	r3, #1
 800397e:	6123      	str	r3, [r4, #16]
 8003980:	e7b3      	b.n	80038ea <chMtxLockS+0x8a>
 8003982:	4817      	ldr	r0, [pc, #92]	; (80039e0 <chMtxLockS+0x180>)
 8003984:	f7fe fe54 	bl	8002630 <chSysHalt>
 8003988:	e777      	b.n	800387a <chMtxLockS+0x1a>
 800398a:	e9d0 2300 	ldrd	r2, r3, [r0]
 800398e:	601a      	str	r2, [r3, #0]
 8003990:	e9d0 3200 	ldrd	r3, r2, [r0]
 8003994:	605a      	str	r2, [r3, #4]
 8003996:	6a87      	ldr	r7, [r0, #40]	; 0x28
 8003998:	463b      	mov	r3, r7
 800399a:	e003      	b.n	80039a4 <chMtxLockS+0x144>
 800399c:	6899      	ldr	r1, [r3, #8]
 800399e:	6882      	ldr	r2, [r0, #8]
 80039a0:	4291      	cmp	r1, r2
 80039a2:	d314      	bcc.n	80039ce <chMtxLockS+0x16e>
 80039a4:	681b      	ldr	r3, [r3, #0]
 80039a6:	429f      	cmp	r7, r3
 80039a8:	d1f8      	bne.n	800399c <chMtxLockS+0x13c>
 80039aa:	6007      	str	r7, [r0, #0]
 80039ac:	687b      	ldr	r3, [r7, #4]
 80039ae:	6043      	str	r3, [r0, #4]
 80039b0:	6018      	str	r0, [r3, #0]
 80039b2:	6078      	str	r0, [r7, #4]
 80039b4:	e777      	b.n	80038a6 <chMtxLockS+0x46>
 80039b6:	480a      	ldr	r0, [pc, #40]	; (80039e0 <chMtxLockS+0x180>)
 80039b8:	f7fe fe3a 	bl	8002630 <chSysHalt>
 80039bc:	68a0      	ldr	r0, [r4, #8]
 80039be:	e763      	b.n	8003888 <chMtxLockS+0x28>
 80039c0:	4807      	ldr	r0, [pc, #28]	; (80039e0 <chMtxLockS+0x180>)
 80039c2:	f7fe fe35 	bl	8002630 <chSysHalt>
 80039c6:	6923      	ldr	r3, [r4, #16]
 80039c8:	e7a1      	b.n	800390e <chMtxLockS+0xae>
 80039ca:	461f      	mov	r7, r3
 80039cc:	e7b8      	b.n	8003940 <chMtxLockS+0xe0>
 80039ce:	461f      	mov	r7, r3
 80039d0:	e7eb      	b.n	80039aa <chMtxLockS+0x14a>
 80039d2:	f7fd fc45 	bl	8001260 <__stack_chk_fail>
 80039d6:	bf00      	nop
 80039d8:	20000800 	.word	0x20000800
 80039dc:	20001540 	.word	0x20001540
 80039e0:	0800e9d0 	.word	0x0800e9d0
	...

080039f0 <chMtxLock>:
 80039f0:	b530      	push	{r4, r5, lr}
 80039f2:	4c15      	ldr	r4, [pc, #84]	; (8003a48 <chMtxLock+0x58>)
 80039f4:	b083      	sub	sp, #12
 80039f6:	6823      	ldr	r3, [r4, #0]
 80039f8:	9301      	str	r3, [sp, #4]
 80039fa:	4605      	mov	r5, r0
 80039fc:	2320      	movs	r3, #32
 80039fe:	f383 8811 	msr	BASEPRI, r3
 8003a02:	f7ff fead 	bl	8003760 <_stats_start_measure_crit_thd>
 8003a06:	f7fe feb3 	bl	8002770 <_dbg_check_lock>
 8003a0a:	4628      	mov	r0, r5
 8003a0c:	f7ff ff28 	bl	8003860 <chMtxLockS>
 8003a10:	f7fe fece 	bl	80027b0 <_dbg_check_unlock>
 8003a14:	f7ff febc 	bl	8003790 <_stats_stop_measure_crit_thd>
 8003a18:	4b0c      	ldr	r3, [pc, #48]	; (8003a4c <chMtxLock+0x5c>)
 8003a1a:	681a      	ldr	r2, [r3, #0]
 8003a1c:	429a      	cmp	r2, r3
 8003a1e:	d004      	beq.n	8003a2a <chMtxLock+0x3a>
 8003a20:	6999      	ldr	r1, [r3, #24]
 8003a22:	6893      	ldr	r3, [r2, #8]
 8003a24:	688a      	ldr	r2, [r1, #8]
 8003a26:	429a      	cmp	r2, r3
 8003a28:	d308      	bcc.n	8003a3c <chMtxLock+0x4c>
 8003a2a:	2300      	movs	r3, #0
 8003a2c:	f383 8811 	msr	BASEPRI, r3
 8003a30:	9a01      	ldr	r2, [sp, #4]
 8003a32:	6823      	ldr	r3, [r4, #0]
 8003a34:	429a      	cmp	r2, r3
 8003a36:	d105      	bne.n	8003a44 <chMtxLock+0x54>
 8003a38:	b003      	add	sp, #12
 8003a3a:	bd30      	pop	{r4, r5, pc}
 8003a3c:	4804      	ldr	r0, [pc, #16]	; (8003a50 <chMtxLock+0x60>)
 8003a3e:	f7fe fdf7 	bl	8002630 <chSysHalt>
 8003a42:	e7f2      	b.n	8003a2a <chMtxLock+0x3a>
 8003a44:	f7fd fc0c 	bl	8001260 <__stack_chk_fail>
 8003a48:	20000800 	.word	0x20000800
 8003a4c:	20001540 	.word	0x20001540
 8003a50:	0800e9b0 	.word	0x0800e9b0
	...

08003a60 <chMtxUnlock>:
 8003a60:	e92d 43f0 	stmdb	sp!, {r4, r5, r6, r7, r8, r9, lr}
 8003a64:	f8df 8100 	ldr.w	r8, [pc, #256]	; 8003b68 <chMtxUnlock+0x108>
 8003a68:	4f3c      	ldr	r7, [pc, #240]	; (8003b5c <chMtxUnlock+0xfc>)
 8003a6a:	f8d8 3000 	ldr.w	r3, [r8]
 8003a6e:	69be      	ldr	r6, [r7, #24]
 8003a70:	b083      	sub	sp, #12
 8003a72:	4605      	mov	r5, r0
 8003a74:	9301      	str	r3, [sp, #4]
 8003a76:	2800      	cmp	r0, #0
 8003a78:	d064      	beq.n	8003b44 <chMtxUnlock+0xe4>
 8003a7a:	2320      	movs	r3, #32
 8003a7c:	f383 8811 	msr	BASEPRI, r3
 8003a80:	f7ff fe6e 	bl	8003760 <_stats_start_measure_crit_thd>
 8003a84:	f7fe fe74 	bl	8002770 <_dbg_check_lock>
 8003a88:	6c33      	ldr	r3, [r6, #64]	; 0x40
 8003a8a:	2b00      	cmp	r3, #0
 8003a8c:	d05e      	beq.n	8003b4c <chMtxUnlock+0xec>
 8003a8e:	689b      	ldr	r3, [r3, #8]
 8003a90:	42b3      	cmp	r3, r6
 8003a92:	d002      	beq.n	8003a9a <chMtxUnlock+0x3a>
 8003a94:	4832      	ldr	r0, [pc, #200]	; (8003b60 <chMtxUnlock+0x100>)
 8003a96:	f7fe fdcb 	bl	8002630 <chSysHalt>
 8003a9a:	692b      	ldr	r3, [r5, #16]
 8003a9c:	2b00      	cmp	r3, #0
 8003a9e:	dd49      	ble.n	8003b34 <chMtxUnlock+0xd4>
 8003aa0:	3b01      	subs	r3, #1
 8003aa2:	612b      	str	r3, [r5, #16]
 8003aa4:	bb5b      	cbnz	r3, 8003afe <chMtxUnlock+0x9e>
 8003aa6:	6c33      	ldr	r3, [r6, #64]	; 0x40
 8003aa8:	42ab      	cmp	r3, r5
 8003aaa:	d002      	beq.n	8003ab2 <chMtxUnlock+0x52>
 8003aac:	482c      	ldr	r0, [pc, #176]	; (8003b60 <chMtxUnlock+0x100>)
 8003aae:	f7fe fdbf 	bl	8002630 <chSysHalt>
 8003ab2:	68eb      	ldr	r3, [r5, #12]
 8003ab4:	6433      	str	r3, [r6, #64]	; 0x40
 8003ab6:	f7fe ff53 	bl	8002960 <chDbgCheckClassS>
 8003aba:	682b      	ldr	r3, [r5, #0]
 8003abc:	429d      	cmp	r5, r3
 8003abe:	d03e      	beq.n	8003b3e <chMtxUnlock+0xde>
 8003ac0:	e9d6 4910 	ldrd	r4, r9, [r6, #64]	; 0x40
 8003ac4:	b15c      	cbz	r4, 8003ade <chMtxUnlock+0x7e>
 8003ac6:	f7fe ff4b 	bl	8002960 <chDbgCheckClassS>
 8003aca:	6823      	ldr	r3, [r4, #0]
 8003acc:	429c      	cmp	r4, r3
 8003ace:	d003      	beq.n	8003ad8 <chMtxUnlock+0x78>
 8003ad0:	689b      	ldr	r3, [r3, #8]
 8003ad2:	4599      	cmp	r9, r3
 8003ad4:	bf38      	it	cc
 8003ad6:	4699      	movcc	r9, r3
 8003ad8:	68e4      	ldr	r4, [r4, #12]
 8003ada:	2c00      	cmp	r4, #0
 8003adc:	d1f3      	bne.n	8003ac6 <chMtxUnlock+0x66>
 8003ade:	f8c6 9008 	str.w	r9, [r6, #8]
 8003ae2:	682b      	ldr	r3, [r5, #0]
 8003ae4:	2201      	movs	r2, #1
 8003ae6:	612a      	str	r2, [r5, #16]
 8003ae8:	681a      	ldr	r2, [r3, #0]
 8003aea:	602a      	str	r2, [r5, #0]
 8003aec:	6055      	str	r5, [r2, #4]
 8003aee:	60ab      	str	r3, [r5, #8]
 8003af0:	6c1a      	ldr	r2, [r3, #64]	; 0x40
 8003af2:	60ea      	str	r2, [r5, #12]
 8003af4:	4618      	mov	r0, r3
 8003af6:	641d      	str	r5, [r3, #64]	; 0x40
 8003af8:	2100      	movs	r1, #0
 8003afa:	f7ff f949 	bl	8002d90 <chSchWakeupS>
 8003afe:	f7fe fe57 	bl	80027b0 <_dbg_check_unlock>
 8003b02:	f7ff fe45 	bl	8003790 <_stats_stop_measure_crit_thd>
 8003b06:	683b      	ldr	r3, [r7, #0]
 8003b08:	42bb      	cmp	r3, r7
 8003b0a:	d004      	beq.n	8003b16 <chMtxUnlock+0xb6>
 8003b0c:	69ba      	ldr	r2, [r7, #24]
 8003b0e:	689b      	ldr	r3, [r3, #8]
 8003b10:	6892      	ldr	r2, [r2, #8]
 8003b12:	429a      	cmp	r2, r3
 8003b14:	d30a      	bcc.n	8003b2c <chMtxUnlock+0xcc>
 8003b16:	2300      	movs	r3, #0
 8003b18:	f383 8811 	msr	BASEPRI, r3
 8003b1c:	9a01      	ldr	r2, [sp, #4]
 8003b1e:	f8d8 3000 	ldr.w	r3, [r8]
 8003b22:	429a      	cmp	r2, r3
 8003b24:	d117      	bne.n	8003b56 <chMtxUnlock+0xf6>
 8003b26:	b003      	add	sp, #12
 8003b28:	e8bd 83f0 	ldmia.w	sp!, {r4, r5, r6, r7, r8, r9, pc}
 8003b2c:	480d      	ldr	r0, [pc, #52]	; (8003b64 <chMtxUnlock+0x104>)
 8003b2e:	f7fe fd7f 	bl	8002630 <chSysHalt>
 8003b32:	e7f0      	b.n	8003b16 <chMtxUnlock+0xb6>
 8003b34:	480a      	ldr	r0, [pc, #40]	; (8003b60 <chMtxUnlock+0x100>)
 8003b36:	f7fe fd7b 	bl	8002630 <chSysHalt>
 8003b3a:	692b      	ldr	r3, [r5, #16]
 8003b3c:	e7b0      	b.n	8003aa0 <chMtxUnlock+0x40>
 8003b3e:	2300      	movs	r3, #0
 8003b40:	60ab      	str	r3, [r5, #8]
 8003b42:	e7dc      	b.n	8003afe <chMtxUnlock+0x9e>
 8003b44:	4806      	ldr	r0, [pc, #24]	; (8003b60 <chMtxUnlock+0x100>)
 8003b46:	f7fe fd73 	bl	8002630 <chSysHalt>
 8003b4a:	e796      	b.n	8003a7a <chMtxUnlock+0x1a>
 8003b4c:	4804      	ldr	r0, [pc, #16]	; (8003b60 <chMtxUnlock+0x100>)
 8003b4e:	f7fe fd6f 	bl	8002630 <chSysHalt>
 8003b52:	6c33      	ldr	r3, [r6, #64]	; 0x40
 8003b54:	e79b      	b.n	8003a8e <chMtxUnlock+0x2e>
 8003b56:	f7fd fb83 	bl	8001260 <__stack_chk_fail>
 8003b5a:	bf00      	nop
 8003b5c:	20001540 	.word	0x20001540
 8003b60:	0800e9e0 	.word	0x0800e9e0
 8003b64:	0800e9b0 	.word	0x0800e9b0
 8003b68:	20000800 	.word	0x20000800
 8003b6c:	00000000 	.word	0x00000000

08003b70 <chEvtSignalI>:
 8003b70:	b570      	push	{r4, r5, r6, lr}
 8003b72:	4e18      	ldr	r6, [pc, #96]	; (8003bd4 <chEvtSignalI+0x64>)
 8003b74:	b082      	sub	sp, #8
 8003b76:	4604      	mov	r4, r0
 8003b78:	6833      	ldr	r3, [r6, #0]
 8003b7a:	9301      	str	r3, [sp, #4]
 8003b7c:	460d      	mov	r5, r1
 8003b7e:	f7fe fec7 	bl	8002910 <chDbgCheckClassI>
 8003b82:	b30c      	cbz	r4, 8003bc8 <chEvtSignalI+0x58>
 8003b84:	6be1      	ldr	r1, [r4, #60]	; 0x3c
 8003b86:	f894 3020 	ldrb.w	r3, [r4, #32]
 8003b8a:	4329      	orrs	r1, r5
 8003b8c:	2b0a      	cmp	r3, #10
 8003b8e:	63e1      	str	r1, [r4, #60]	; 0x3c
 8003b90:	d016      	beq.n	8003bc0 <chEvtSignalI+0x50>
 8003b92:	2b0b      	cmp	r3, #11
 8003b94:	d005      	beq.n	8003ba2 <chEvtSignalI+0x32>
 8003b96:	9a01      	ldr	r2, [sp, #4]
 8003b98:	6833      	ldr	r3, [r6, #0]
 8003b9a:	429a      	cmp	r2, r3
 8003b9c:	d118      	bne.n	8003bd0 <chEvtSignalI+0x60>
 8003b9e:	b002      	add	sp, #8
 8003ba0:	bd70      	pop	{r4, r5, r6, pc}
 8003ba2:	6aa3      	ldr	r3, [r4, #40]	; 0x28
 8003ba4:	438b      	bics	r3, r1
 8003ba6:	d1f6      	bne.n	8003b96 <chEvtSignalI+0x26>
 8003ba8:	9a01      	ldr	r2, [sp, #4]
 8003baa:	6833      	ldr	r3, [r6, #0]
 8003bac:	2100      	movs	r1, #0
 8003bae:	429a      	cmp	r2, r3
 8003bb0:	62a1      	str	r1, [r4, #40]	; 0x28
 8003bb2:	d10d      	bne.n	8003bd0 <chEvtSignalI+0x60>
 8003bb4:	4620      	mov	r0, r4
 8003bb6:	b002      	add	sp, #8
 8003bb8:	e8bd 4070 	ldmia.w	sp!, {r4, r5, r6, lr}
 8003bbc:	f7fe bff0 	b.w	8002ba0 <chSchReadyI>
 8003bc0:	6aa3      	ldr	r3, [r4, #40]	; 0x28
 8003bc2:	4219      	tst	r1, r3
 8003bc4:	d1f0      	bne.n	8003ba8 <chEvtSignalI+0x38>
 8003bc6:	e7e6      	b.n	8003b96 <chEvtSignalI+0x26>
 8003bc8:	4803      	ldr	r0, [pc, #12]	; (8003bd8 <chEvtSignalI+0x68>)
 8003bca:	f7fe fd31 	bl	8002630 <chSysHalt>
 8003bce:	e7d9      	b.n	8003b84 <chEvtSignalI+0x14>
 8003bd0:	f7fd fb46 	bl	8001260 <__stack_chk_fail>
 8003bd4:	20000800 	.word	0x20000800
 8003bd8:	0800ea10 	.word	0x0800ea10
 8003bdc:	00000000 	.word	0x00000000

08003be0 <chEvtBroadcastFlagsI>:
 8003be0:	b5f0      	push	{r4, r5, r6, r7, lr}
 8003be2:	4f13      	ldr	r7, [pc, #76]	; (8003c30 <chEvtBroadcastFlagsI+0x50>)
 8003be4:	b083      	sub	sp, #12
 8003be6:	4606      	mov	r6, r0
 8003be8:	683b      	ldr	r3, [r7, #0]
 8003bea:	9301      	str	r3, [sp, #4]
 8003bec:	460d      	mov	r5, r1
 8003bee:	f7fe fe8f 	bl	8002910 <chDbgCheckClassI>
 8003bf2:	b1b6      	cbz	r6, 8003c22 <chEvtBroadcastFlagsI+0x42>
 8003bf4:	6834      	ldr	r4, [r6, #0]
 8003bf6:	42a6      	cmp	r6, r4
 8003bf8:	d00d      	beq.n	8003c16 <chEvtBroadcastFlagsI+0x36>
 8003bfa:	68e3      	ldr	r3, [r4, #12]
 8003bfc:	432b      	orrs	r3, r5
 8003bfe:	60e3      	str	r3, [r4, #12]
 8003c00:	b115      	cbz	r5, 8003c08 <chEvtBroadcastFlagsI+0x28>
 8003c02:	6922      	ldr	r2, [r4, #16]
 8003c04:	4213      	tst	r3, r2
 8003c06:	d003      	beq.n	8003c10 <chEvtBroadcastFlagsI+0x30>
 8003c08:	e9d4 0101 	ldrd	r0, r1, [r4, #4]
 8003c0c:	f7ff ffb0 	bl	8003b70 <chEvtSignalI>
 8003c10:	6824      	ldr	r4, [r4, #0]
 8003c12:	42a6      	cmp	r6, r4
 8003c14:	d1f1      	bne.n	8003bfa <chEvtBroadcastFlagsI+0x1a>
 8003c16:	9a01      	ldr	r2, [sp, #4]
 8003c18:	683b      	ldr	r3, [r7, #0]
 8003c1a:	429a      	cmp	r2, r3
 8003c1c:	d105      	bne.n	8003c2a <chEvtBroadcastFlagsI+0x4a>
 8003c1e:	b003      	add	sp, #12
 8003c20:	bdf0      	pop	{r4, r5, r6, r7, pc}
 8003c22:	4804      	ldr	r0, [pc, #16]	; (8003c34 <chEvtBroadcastFlagsI+0x54>)
 8003c24:	f7fe fd04 	bl	8002630 <chSysHalt>
 8003c28:	e7e4      	b.n	8003bf4 <chEvtBroadcastFlagsI+0x14>
 8003c2a:	f7fd fb19 	bl	8001260 <__stack_chk_fail>
 8003c2e:	bf00      	nop
 8003c30:	20000800 	.word	0x20000800
 8003c34:	0800e9f0 	.word	0x0800e9f0
	...

08003c40 <chIQObjectInit>:
 8003c40:	b570      	push	{r4, r5, r6, lr}
 8003c42:	4c0c      	ldr	r4, [pc, #48]	; (8003c74 <chIQObjectInit+0x34>)
 8003c44:	60c1      	str	r1, [r0, #12]
 8003c46:	b082      	sub	sp, #8
 8003c48:	6826      	ldr	r6, [r4, #0]
 8003c4a:	9601      	str	r6, [sp, #4]
 8003c4c:	440a      	add	r2, r1
 8003c4e:	6000      	str	r0, [r0, #0]
 8003c50:	9e01      	ldr	r6, [sp, #4]
 8003c52:	6102      	str	r2, [r0, #16]
 8003c54:	6822      	ldr	r2, [r4, #0]
 8003c56:	9d06      	ldr	r5, [sp, #24]
 8003c58:	6040      	str	r0, [r0, #4]
 8003c5a:	e9c0 1105 	strd	r1, r1, [r0, #20]
 8003c5e:	4296      	cmp	r6, r2
 8003c60:	f04f 0100 	mov.w	r1, #0
 8003c64:	61c3      	str	r3, [r0, #28]
 8003c66:	6081      	str	r1, [r0, #8]
 8003c68:	6205      	str	r5, [r0, #32]
 8003c6a:	d101      	bne.n	8003c70 <chIQObjectInit+0x30>
 8003c6c:	b002      	add	sp, #8
 8003c6e:	bd70      	pop	{r4, r5, r6, pc}
 8003c70:	f7fd faf6 	bl	8001260 <__stack_chk_fail>
 8003c74:	20000800 	.word	0x20000800
	...

08003c80 <chIQResetI>:
 8003c80:	b530      	push	{r4, r5, lr}
 8003c82:	4d0d      	ldr	r5, [pc, #52]	; (8003cb8 <chIQResetI+0x38>)
 8003c84:	b083      	sub	sp, #12
 8003c86:	682b      	ldr	r3, [r5, #0]
 8003c88:	9301      	str	r3, [sp, #4]
 8003c8a:	4604      	mov	r4, r0
 8003c8c:	f7fe fe40 	bl	8002910 <chDbgCheckClassI>
 8003c90:	9901      	ldr	r1, [sp, #4]
 8003c92:	682a      	ldr	r2, [r5, #0]
 8003c94:	68e3      	ldr	r3, [r4, #12]
 8003c96:	61a3      	str	r3, [r4, #24]
 8003c98:	2000      	movs	r0, #0
 8003c9a:	4291      	cmp	r1, r2
 8003c9c:	60a0      	str	r0, [r4, #8]
 8003c9e:	6163      	str	r3, [r4, #20]
 8003ca0:	d107      	bne.n	8003cb2 <chIQResetI+0x32>
 8003ca2:	4620      	mov	r0, r4
 8003ca4:	f06f 0101 	mvn.w	r1, #1
 8003ca8:	b003      	add	sp, #12
 8003caa:	e8bd 4030 	ldmia.w	sp!, {r4, r5, lr}
 8003cae:	f7ff bc0f 	b.w	80034d0 <chThdDequeueAllI>
 8003cb2:	f7fd fad5 	bl	8001260 <__stack_chk_fail>
 8003cb6:	bf00      	nop
 8003cb8:	20000800 	.word	0x20000800
 8003cbc:	00000000 	.word	0x00000000

08003cc0 <chIQPutI>:
 8003cc0:	b570      	push	{r4, r5, r6, lr}
 8003cc2:	4d16      	ldr	r5, [pc, #88]	; (8003d1c <chIQPutI+0x5c>)
 8003cc4:	b082      	sub	sp, #8
 8003cc6:	4604      	mov	r4, r0
 8003cc8:	682b      	ldr	r3, [r5, #0]
 8003cca:	9301      	str	r3, [sp, #4]
 8003ccc:	460e      	mov	r6, r1
 8003cce:	f7fe fe1f 	bl	8002910 <chDbgCheckClassI>
 8003cd2:	f7fe fe1d 	bl	8002910 <chDbgCheckClassI>
 8003cd6:	e9d4 2305 	ldrd	r2, r3, [r4, #20]
 8003cda:	429a      	cmp	r2, r3
 8003cdc:	68a3      	ldr	r3, [r4, #8]
 8003cde:	d016      	beq.n	8003d0e <chIQPutI+0x4e>
 8003ce0:	3301      	adds	r3, #1
 8003ce2:	1c51      	adds	r1, r2, #1
 8003ce4:	60a3      	str	r3, [r4, #8]
 8003ce6:	6161      	str	r1, [r4, #20]
 8003ce8:	7016      	strb	r6, [r2, #0]
 8003cea:	e9d4 3204 	ldrd	r3, r2, [r4, #16]
 8003cee:	429a      	cmp	r2, r3
 8003cf0:	d20a      	bcs.n	8003d08 <chIQPutI+0x48>
 8003cf2:	4620      	mov	r0, r4
 8003cf4:	2100      	movs	r1, #0
 8003cf6:	f7ff fbbb 	bl	8003470 <chThdDequeueNextI>
 8003cfa:	2000      	movs	r0, #0
 8003cfc:	9a01      	ldr	r2, [sp, #4]
 8003cfe:	682b      	ldr	r3, [r5, #0]
 8003d00:	429a      	cmp	r2, r3
 8003d02:	d109      	bne.n	8003d18 <chIQPutI+0x58>
 8003d04:	b002      	add	sp, #8
 8003d06:	bd70      	pop	{r4, r5, r6, pc}
 8003d08:	68e3      	ldr	r3, [r4, #12]
 8003d0a:	6163      	str	r3, [r4, #20]
 8003d0c:	e7f1      	b.n	8003cf2 <chIQPutI+0x32>
 8003d0e:	2b00      	cmp	r3, #0
 8003d10:	d0e6      	beq.n	8003ce0 <chIQPutI+0x20>
 8003d12:	f06f 0003 	mvn.w	r0, #3
 8003d16:	e7f1      	b.n	8003cfc <chIQPutI+0x3c>
 8003d18:	f7fd faa2 	bl	8001260 <__stack_chk_fail>
 8003d1c:	20000800 	.word	0x20000800

08003d20 <chIQGetTimeout>:
 8003d20:	b5f0      	push	{r4, r5, r6, r7, lr}
 8003d22:	4f23      	ldr	r7, [pc, #140]	; (8003db0 <chIQGetTimeout+0x90>)
 8003d24:	b083      	sub	sp, #12
 8003d26:	683b      	ldr	r3, [r7, #0]
 8003d28:	9301      	str	r3, [sp, #4]
 8003d2a:	4604      	mov	r4, r0
 8003d2c:	460e      	mov	r6, r1
 8003d2e:	2320      	movs	r3, #32
 8003d30:	f383 8811 	msr	BASEPRI, r3
 8003d34:	f7ff fd14 	bl	8003760 <_stats_start_measure_crit_thd>
 8003d38:	f7fe fd1a 	bl	8002770 <_dbg_check_lock>
 8003d3c:	69e3      	ldr	r3, [r4, #28]
 8003d3e:	b143      	cbz	r3, 8003d52 <chIQGetTimeout+0x32>
 8003d40:	4620      	mov	r0, r4
 8003d42:	4798      	blx	r3
 8003d44:	e005      	b.n	8003d52 <chIQGetTimeout+0x32>
 8003d46:	4631      	mov	r1, r6
 8003d48:	4620      	mov	r0, r4
 8003d4a:	f7ff fb69 	bl	8003420 <chThdEnqueueTimeoutS>
 8003d4e:	1e05      	subs	r5, r0, #0
 8003d50:	db10      	blt.n	8003d74 <chIQGetTimeout+0x54>
 8003d52:	f7fe fddd 	bl	8002910 <chDbgCheckClassI>
 8003d56:	68a3      	ldr	r3, [r4, #8]
 8003d58:	2b00      	cmp	r3, #0
 8003d5a:	d0f4      	beq.n	8003d46 <chIQGetTimeout+0x26>
 8003d5c:	69a1      	ldr	r1, [r4, #24]
 8003d5e:	6920      	ldr	r0, [r4, #16]
 8003d60:	1c4a      	adds	r2, r1, #1
 8003d62:	3b01      	subs	r3, #1
 8003d64:	4282      	cmp	r2, r0
 8003d66:	60a3      	str	r3, [r4, #8]
 8003d68:	61a2      	str	r2, [r4, #24]
 8003d6a:	bf28      	it	cs
 8003d6c:	68e3      	ldrcs	r3, [r4, #12]
 8003d6e:	780d      	ldrb	r5, [r1, #0]
 8003d70:	bf28      	it	cs
 8003d72:	61a3      	strcs	r3, [r4, #24]
 8003d74:	f7fe fd1c 	bl	80027b0 <_dbg_check_unlock>
 8003d78:	f7ff fd0a 	bl	8003790 <_stats_stop_measure_crit_thd>
 8003d7c:	4b0d      	ldr	r3, [pc, #52]	; (8003db4 <chIQGetTimeout+0x94>)
 8003d7e:	681a      	ldr	r2, [r3, #0]
 8003d80:	429a      	cmp	r2, r3
 8003d82:	d004      	beq.n	8003d8e <chIQGetTimeout+0x6e>
 8003d84:	6999      	ldr	r1, [r3, #24]
 8003d86:	6893      	ldr	r3, [r2, #8]
 8003d88:	688a      	ldr	r2, [r1, #8]
 8003d8a:	429a      	cmp	r2, r3
 8003d8c:	d309      	bcc.n	8003da2 <chIQGetTimeout+0x82>
 8003d8e:	2300      	movs	r3, #0
 8003d90:	f383 8811 	msr	BASEPRI, r3
 8003d94:	9a01      	ldr	r2, [sp, #4]
 8003d96:	683b      	ldr	r3, [r7, #0]
 8003d98:	429a      	cmp	r2, r3
 8003d9a:	4628      	mov	r0, r5
 8003d9c:	d105      	bne.n	8003daa <chIQGetTimeout+0x8a>
 8003d9e:	b003      	add	sp, #12
 8003da0:	bdf0      	pop	{r4, r5, r6, r7, pc}
 8003da2:	4805      	ldr	r0, [pc, #20]	; (8003db8 <chIQGetTimeout+0x98>)
 8003da4:	f7fe fc44 	bl	8002630 <chSysHalt>
 8003da8:	e7f1      	b.n	8003d8e <chIQGetTimeout+0x6e>
 8003daa:	f7fd fa59 	bl	8001260 <__stack_chk_fail>
 8003dae:	bf00      	nop
 8003db0:	20000800 	.word	0x20000800
 8003db4:	20001540 	.word	0x20001540
 8003db8:	0800ea20 	.word	0x0800ea20
 8003dbc:	00000000 	.word	0x00000000

08003dc0 <chIQReadTimeout>:
 8003dc0:	e92d 4ff0 	stmdb	sp!, {r4, r5, r6, r7, r8, r9, sl, fp, lr}
 8003dc4:	f8df 90f4 	ldr.w	r9, [pc, #244]	; 8003ebc <chIQReadTimeout+0xfc>
 8003dc8:	4604      	mov	r4, r0
 8003dca:	b085      	sub	sp, #20
 8003dcc:	f8d9 0000 	ldr.w	r0, [r9]
 8003dd0:	9003      	str	r0, [sp, #12]
 8003dd2:	468a      	mov	sl, r1
 8003dd4:	461d      	mov	r5, r3
 8003dd6:	f8d4 801c 	ldr.w	r8, [r4, #28]
 8003dda:	4693      	mov	fp, r2
 8003ddc:	2a00      	cmp	r2, #0
 8003dde:	d060      	beq.n	8003ea2 <chIQReadTimeout+0xe2>
 8003de0:	2320      	movs	r3, #32
 8003de2:	f383 8811 	msr	BASEPRI, r3
 8003de6:	9301      	str	r3, [sp, #4]
 8003de8:	f7ff fcba 	bl	8003760 <_stats_start_measure_crit_thd>
 8003dec:	f7fe fcc0 	bl	8002770 <_dbg_check_lock>
 8003df0:	4e2f      	ldr	r6, [pc, #188]	; (8003eb0 <chIQReadTimeout+0xf0>)
 8003df2:	2700      	movs	r7, #0
 8003df4:	f1b8 0f00 	cmp.w	r8, #0
 8003df8:	d007      	beq.n	8003e0a <chIQReadTimeout+0x4a>
 8003dfa:	4620      	mov	r0, r4
 8003dfc:	47c0      	blx	r8
 8003dfe:	e004      	b.n	8003e0a <chIQReadTimeout+0x4a>
 8003e00:	4629      	mov	r1, r5
 8003e02:	4620      	mov	r0, r4
 8003e04:	f7ff fb0c 	bl	8003420 <chThdEnqueueTimeoutS>
 8003e08:	bb60      	cbnz	r0, 8003e64 <chIQReadTimeout+0xa4>
 8003e0a:	f7fe fd81 	bl	8002910 <chDbgCheckClassI>
 8003e0e:	68a3      	ldr	r3, [r4, #8]
 8003e10:	2b00      	cmp	r3, #0
 8003e12:	d0f5      	beq.n	8003e00 <chIQReadTimeout+0x40>
 8003e14:	69a2      	ldr	r2, [r4, #24]
 8003e16:	3b01      	subs	r3, #1
 8003e18:	1c51      	adds	r1, r2, #1
 8003e1a:	61a1      	str	r1, [r4, #24]
 8003e1c:	60a3      	str	r3, [r4, #8]
 8003e1e:	7813      	ldrb	r3, [r2, #0]
 8003e20:	f80a 3b01 	strb.w	r3, [sl], #1
 8003e24:	6923      	ldr	r3, [r4, #16]
 8003e26:	69a2      	ldr	r2, [r4, #24]
 8003e28:	429a      	cmp	r2, r3
 8003e2a:	bf24      	itt	cs
 8003e2c:	68e3      	ldrcs	r3, [r4, #12]
 8003e2e:	61a3      	strcs	r3, [r4, #24]
 8003e30:	f7fe fcbe 	bl	80027b0 <_dbg_check_unlock>
 8003e34:	f7ff fcac 	bl	8003790 <_stats_stop_measure_crit_thd>
 8003e38:	6833      	ldr	r3, [r6, #0]
 8003e3a:	42b3      	cmp	r3, r6
 8003e3c:	d004      	beq.n	8003e48 <chIQReadTimeout+0x88>
 8003e3e:	69b2      	ldr	r2, [r6, #24]
 8003e40:	689b      	ldr	r3, [r3, #8]
 8003e42:	6892      	ldr	r2, [r2, #8]
 8003e44:	429a      	cmp	r2, r3
 8003e46:	d328      	bcc.n	8003e9a <chIQReadTimeout+0xda>
 8003e48:	2300      	movs	r3, #0
 8003e4a:	f383 8811 	msr	BASEPRI, r3
 8003e4e:	3701      	adds	r7, #1
 8003e50:	45bb      	cmp	fp, r7
 8003e52:	d019      	beq.n	8003e88 <chIQReadTimeout+0xc8>
 8003e54:	9b01      	ldr	r3, [sp, #4]
 8003e56:	f383 8811 	msr	BASEPRI, r3
 8003e5a:	f7ff fc81 	bl	8003760 <_stats_start_measure_crit_thd>
 8003e5e:	f7fe fc87 	bl	8002770 <_dbg_check_lock>
 8003e62:	e7c7      	b.n	8003df4 <chIQReadTimeout+0x34>
 8003e64:	f7fe fca4 	bl	80027b0 <_dbg_check_unlock>
 8003e68:	f7ff fc92 	bl	8003790 <_stats_stop_measure_crit_thd>
 8003e6c:	6833      	ldr	r3, [r6, #0]
 8003e6e:	42b3      	cmp	r3, r6
 8003e70:	d007      	beq.n	8003e82 <chIQReadTimeout+0xc2>
 8003e72:	69b2      	ldr	r2, [r6, #24]
 8003e74:	689b      	ldr	r3, [r3, #8]
 8003e76:	6892      	ldr	r2, [r2, #8]
 8003e78:	429a      	cmp	r2, r3
 8003e7a:	d202      	bcs.n	8003e82 <chIQReadTimeout+0xc2>
 8003e7c:	480d      	ldr	r0, [pc, #52]	; (8003eb4 <chIQReadTimeout+0xf4>)
 8003e7e:	f7fe fbd7 	bl	8002630 <chSysHalt>
 8003e82:	2300      	movs	r3, #0
 8003e84:	f383 8811 	msr	BASEPRI, r3
 8003e88:	9a03      	ldr	r2, [sp, #12]
 8003e8a:	f8d9 3000 	ldr.w	r3, [r9]
 8003e8e:	429a      	cmp	r2, r3
 8003e90:	4638      	mov	r0, r7
 8003e92:	d10a      	bne.n	8003eaa <chIQReadTimeout+0xea>
 8003e94:	b005      	add	sp, #20
 8003e96:	e8bd 8ff0 	ldmia.w	sp!, {r4, r5, r6, r7, r8, r9, sl, fp, pc}
 8003e9a:	4806      	ldr	r0, [pc, #24]	; (8003eb4 <chIQReadTimeout+0xf4>)
 8003e9c:	f7fe fbc8 	bl	8002630 <chSysHalt>
 8003ea0:	e7d2      	b.n	8003e48 <chIQReadTimeout+0x88>
 8003ea2:	4805      	ldr	r0, [pc, #20]	; (8003eb8 <chIQReadTimeout+0xf8>)
 8003ea4:	f7fe fbc4 	bl	8002630 <chSysHalt>
 8003ea8:	e79a      	b.n	8003de0 <chIQReadTimeout+0x20>
 8003eaa:	f7fd f9d9 	bl	8001260 <__stack_chk_fail>
 8003eae:	bf00      	nop
 8003eb0:	20001540 	.word	0x20001540
 8003eb4:	0800ea20 	.word	0x0800ea20
 8003eb8:	0800ea30 	.word	0x0800ea30
 8003ebc:	20000800 	.word	0x20000800

08003ec0 <chOQObjectInit>:
 8003ec0:	b570      	push	{r4, r5, r6, lr}
 8003ec2:	4d0b      	ldr	r5, [pc, #44]	; (8003ef0 <chOQObjectInit+0x30>)
 8003ec4:	6082      	str	r2, [r0, #8]
 8003ec6:	682e      	ldr	r6, [r5, #0]
 8003ec8:	60c1      	str	r1, [r0, #12]
 8003eca:	b082      	sub	sp, #8
 8003ecc:	e9c0 0000 	strd	r0, r0, [r0]
 8003ed0:	9601      	str	r6, [sp, #4]
 8003ed2:	440a      	add	r2, r1
 8003ed4:	9e01      	ldr	r6, [sp, #4]
 8003ed6:	6102      	str	r2, [r0, #16]
 8003ed8:	682a      	ldr	r2, [r5, #0]
 8003eda:	9c06      	ldr	r4, [sp, #24]
 8003edc:	4296      	cmp	r6, r2
 8003ede:	e9c0 1105 	strd	r1, r1, [r0, #20]
 8003ee2:	e9c0 3407 	strd	r3, r4, [r0, #28]
 8003ee6:	d101      	bne.n	8003eec <chOQObjectInit+0x2c>
 8003ee8:	b002      	add	sp, #8
 8003eea:	bd70      	pop	{r4, r5, r6, pc}
 8003eec:	f7fd f9b8 	bl	8001260 <__stack_chk_fail>
 8003ef0:	20000800 	.word	0x20000800
	...

08003f00 <chOQResetI>:
 8003f00:	b530      	push	{r4, r5, lr}
 8003f02:	4d0d      	ldr	r5, [pc, #52]	; (8003f38 <chOQResetI+0x38>)
 8003f04:	b083      	sub	sp, #12
 8003f06:	4604      	mov	r4, r0
 8003f08:	682b      	ldr	r3, [r5, #0]
 8003f0a:	9301      	str	r3, [sp, #4]
 8003f0c:	f7fe fd00 	bl	8002910 <chDbgCheckClassI>
 8003f10:	e9d4 2303 	ldrd	r2, r3, [r4, #12]
 8003f14:	9801      	ldr	r0, [sp, #4]
 8003f16:	6829      	ldr	r1, [r5, #0]
 8003f18:	61a2      	str	r2, [r4, #24]
 8003f1a:	1a9b      	subs	r3, r3, r2
 8003f1c:	4288      	cmp	r0, r1
 8003f1e:	6162      	str	r2, [r4, #20]
 8003f20:	60a3      	str	r3, [r4, #8]
 8003f22:	d107      	bne.n	8003f34 <chOQResetI+0x34>
 8003f24:	4620      	mov	r0, r4
 8003f26:	f06f 0101 	mvn.w	r1, #1
 8003f2a:	b003      	add	sp, #12
 8003f2c:	e8bd 4030 	ldmia.w	sp!, {r4, r5, lr}
 8003f30:	f7ff bace 	b.w	80034d0 <chThdDequeueAllI>
 8003f34:	f7fd f994 	bl	8001260 <__stack_chk_fail>
 8003f38:	20000800 	.word	0x20000800
 8003f3c:	00000000 	.word	0x00000000

08003f40 <chOQPutTimeout>:
 8003f40:	e92d 41f0 	stmdb	sp!, {r4, r5, r6, r7, r8, lr}
 8003f44:	4f2e      	ldr	r7, [pc, #184]	; (8004000 <chOQPutTimeout+0xc0>)
 8003f46:	b082      	sub	sp, #8
 8003f48:	683b      	ldr	r3, [r7, #0]
 8003f4a:	9301      	str	r3, [sp, #4]
 8003f4c:	4604      	mov	r4, r0
 8003f4e:	4688      	mov	r8, r1
 8003f50:	4616      	mov	r6, r2
 8003f52:	2320      	movs	r3, #32
 8003f54:	f383 8811 	msr	BASEPRI, r3
 8003f58:	f7ff fc02 	bl	8003760 <_stats_start_measure_crit_thd>
 8003f5c:	f7fe fc08 	bl	8002770 <_dbg_check_lock>
 8003f60:	e005      	b.n	8003f6e <chOQPutTimeout+0x2e>
 8003f62:	4631      	mov	r1, r6
 8003f64:	4620      	mov	r0, r4
 8003f66:	f7ff fa5b 	bl	8003420 <chThdEnqueueTimeoutS>
 8003f6a:	1e05      	subs	r5, r0, #0
 8003f6c:	db2d      	blt.n	8003fca <chOQPutTimeout+0x8a>
 8003f6e:	f7fe fccf 	bl	8002910 <chDbgCheckClassI>
 8003f72:	68a3      	ldr	r3, [r4, #8]
 8003f74:	2b00      	cmp	r3, #0
 8003f76:	d0f4      	beq.n	8003f62 <chOQPutTimeout+0x22>
 8003f78:	6962      	ldr	r2, [r4, #20]
 8003f7a:	3b01      	subs	r3, #1
 8003f7c:	1c51      	adds	r1, r2, #1
 8003f7e:	6161      	str	r1, [r4, #20]
 8003f80:	60a3      	str	r3, [r4, #8]
 8003f82:	f882 8000 	strb.w	r8, [r2]
 8003f86:	e9d4 3204 	ldrd	r3, r2, [r4, #16]
 8003f8a:	429a      	cmp	r2, r3
 8003f8c:	bf24      	itt	cs
 8003f8e:	68e3      	ldrcs	r3, [r4, #12]
 8003f90:	6163      	strcs	r3, [r4, #20]
 8003f92:	69e3      	ldr	r3, [r4, #28]
 8003f94:	b10b      	cbz	r3, 8003f9a <chOQPutTimeout+0x5a>
 8003f96:	4620      	mov	r0, r4
 8003f98:	4798      	blx	r3
 8003f9a:	f7fe fc09 	bl	80027b0 <_dbg_check_unlock>
 8003f9e:	f7ff fbf7 	bl	8003790 <_stats_stop_measure_crit_thd>
 8003fa2:	4b18      	ldr	r3, [pc, #96]	; (8004004 <chOQPutTimeout+0xc4>)
 8003fa4:	681a      	ldr	r2, [r3, #0]
 8003fa6:	429a      	cmp	r2, r3
 8003fa8:	d004      	beq.n	8003fb4 <chOQPutTimeout+0x74>
 8003faa:	6999      	ldr	r1, [r3, #24]
 8003fac:	6893      	ldr	r3, [r2, #8]
 8003fae:	688a      	ldr	r2, [r1, #8]
 8003fb0:	429a      	cmp	r2, r3
 8003fb2:	d31e      	bcc.n	8003ff2 <chOQPutTimeout+0xb2>
 8003fb4:	2500      	movs	r5, #0
 8003fb6:	f385 8811 	msr	BASEPRI, r5
 8003fba:	9a01      	ldr	r2, [sp, #4]
 8003fbc:	683b      	ldr	r3, [r7, #0]
 8003fbe:	429a      	cmp	r2, r3
 8003fc0:	4628      	mov	r0, r5
 8003fc2:	d11a      	bne.n	8003ffa <chOQPutTimeout+0xba>
 8003fc4:	b002      	add	sp, #8
 8003fc6:	e8bd 81f0 	ldmia.w	sp!, {r4, r5, r6, r7, r8, pc}
 8003fca:	f7fe fbf1 	bl	80027b0 <_dbg_check_unlock>
 8003fce:	f7ff fbdf 	bl	8003790 <_stats_stop_measure_crit_thd>
 8003fd2:	4b0c      	ldr	r3, [pc, #48]	; (8004004 <chOQPutTimeout+0xc4>)
 8003fd4:	681a      	ldr	r2, [r3, #0]
 8003fd6:	429a      	cmp	r2, r3
 8003fd8:	d007      	beq.n	8003fea <chOQPutTimeout+0xaa>
 8003fda:	6999      	ldr	r1, [r3, #24]
 8003fdc:	6893      	ldr	r3, [r2, #8]
 8003fde:	688a      	ldr	r2, [r1, #8]
 8003fe0:	429a      	cmp	r2, r3
 8003fe2:	d202      	bcs.n	8003fea <chOQPutTimeout+0xaa>
 8003fe4:	4808      	ldr	r0, [pc, #32]	; (8004008 <chOQPutTimeout+0xc8>)
 8003fe6:	f7fe fb23 	bl	8002630 <chSysHalt>
 8003fea:	2300      	movs	r3, #0
 8003fec:	f383 8811 	msr	BASEPRI, r3
 8003ff0:	e7e3      	b.n	8003fba <chOQPutTimeout+0x7a>
 8003ff2:	4805      	ldr	r0, [pc, #20]	; (8004008 <chOQPutTimeout+0xc8>)
 8003ff4:	f7fe fb1c 	bl	8002630 <chSysHalt>
 8003ff8:	e7dc      	b.n	8003fb4 <chOQPutTimeout+0x74>
 8003ffa:	f7fd f931 	bl	8001260 <__stack_chk_fail>
 8003ffe:	bf00      	nop
 8004000:	20000800 	.word	0x20000800
 8004004:	20001540 	.word	0x20001540
 8004008:	0800ea20 	.word	0x0800ea20
 800400c:	00000000 	.word	0x00000000

08004010 <chOQGetI>:
 8004010:	b570      	push	{r4, r5, r6, lr}
 8004012:	4e15      	ldr	r6, [pc, #84]	; (8004068 <chOQGetI+0x58>)
 8004014:	b082      	sub	sp, #8
 8004016:	4604      	mov	r4, r0
 8004018:	6833      	ldr	r3, [r6, #0]
 800401a:	9301      	str	r3, [sp, #4]
 800401c:	f7fe fc78 	bl	8002910 <chDbgCheckClassI>
 8004020:	f7fe fc76 	bl	8002910 <chDbgCheckClassI>
 8004024:	e9d4 3205 	ldrd	r3, r2, [r4, #20]
 8004028:	4293      	cmp	r3, r2
 800402a:	68a3      	ldr	r3, [r4, #8]
 800402c:	d015      	beq.n	800405a <chOQGetI+0x4a>
 800402e:	6920      	ldr	r0, [r4, #16]
 8004030:	1c51      	adds	r1, r2, #1
 8004032:	3301      	adds	r3, #1
 8004034:	60a3      	str	r3, [r4, #8]
 8004036:	61a1      	str	r1, [r4, #24]
 8004038:	4281      	cmp	r1, r0
 800403a:	7815      	ldrb	r5, [r2, #0]
 800403c:	d20a      	bcs.n	8004054 <chOQGetI+0x44>
 800403e:	4620      	mov	r0, r4
 8004040:	2100      	movs	r1, #0
 8004042:	f7ff fa15 	bl	8003470 <chThdDequeueNextI>
 8004046:	4628      	mov	r0, r5
 8004048:	9a01      	ldr	r2, [sp, #4]
 800404a:	6833      	ldr	r3, [r6, #0]
 800404c:	429a      	cmp	r2, r3
 800404e:	d109      	bne.n	8004064 <chOQGetI+0x54>
 8004050:	b002      	add	sp, #8
 8004052:	bd70      	pop	{r4, r5, r6, pc}
 8004054:	68e3      	ldr	r3, [r4, #12]
 8004056:	61a3      	str	r3, [r4, #24]
 8004058:	e7f1      	b.n	800403e <chOQGetI+0x2e>
 800405a:	2b00      	cmp	r3, #0
 800405c:	d0e7      	beq.n	800402e <chOQGetI+0x1e>
 800405e:	f06f 0002 	mvn.w	r0, #2
 8004062:	e7f1      	b.n	8004048 <chOQGetI+0x38>
 8004064:	f7fd f8fc 	bl	8001260 <__stack_chk_fail>
 8004068:	20000800 	.word	0x20000800
 800406c:	00000000 	.word	0x00000000

08004070 <chOQWriteTimeout>:
 8004070:	e92d 4ff0 	stmdb	sp!, {r4, r5, r6, r7, r8, r9, sl, fp, lr}
 8004074:	4604      	mov	r4, r0
 8004076:	483b      	ldr	r0, [pc, #236]	; (8004164 <chOQWriteTimeout+0xf4>)
 8004078:	f8d4 901c 	ldr.w	r9, [r4, #28]
 800407c:	6800      	ldr	r0, [r0, #0]
 800407e:	b085      	sub	sp, #20
 8004080:	460d      	mov	r5, r1
 8004082:	9003      	str	r0, [sp, #12]
 8004084:	9301      	str	r3, [sp, #4]
 8004086:	4616      	mov	r6, r2
 8004088:	2a00      	cmp	r2, #0
 800408a:	d061      	beq.n	8004150 <chOQWriteTimeout+0xe0>
 800408c:	f04f 0a20 	mov.w	sl, #32
 8004090:	f38a 8811 	msr	BASEPRI, sl
 8004094:	f7ff fb64 	bl	8003760 <_stats_start_measure_crit_thd>
 8004098:	f7fe fb6a 	bl	8002770 <_dbg_check_lock>
 800409c:	f04f 0800 	mov.w	r8, #0
 80040a0:	4f31      	ldr	r7, [pc, #196]	; (8004168 <chOQWriteTimeout+0xf8>)
 80040a2:	46c3      	mov	fp, r8
 80040a4:	f7fe fc34 	bl	8002910 <chDbgCheckClassI>
 80040a8:	68a3      	ldr	r3, [r4, #8]
 80040aa:	2b00      	cmp	r3, #0
 80040ac:	d032      	beq.n	8004114 <chOQWriteTimeout+0xa4>
 80040ae:	6962      	ldr	r2, [r4, #20]
 80040b0:	3b01      	subs	r3, #1
 80040b2:	1c51      	adds	r1, r2, #1
 80040b4:	6161      	str	r1, [r4, #20]
 80040b6:	60a3      	str	r3, [r4, #8]
 80040b8:	782b      	ldrb	r3, [r5, #0]
 80040ba:	7013      	strb	r3, [r2, #0]
 80040bc:	e9d4 3204 	ldrd	r3, r2, [r4, #16]
 80040c0:	429a      	cmp	r2, r3
 80040c2:	bf24      	itt	cs
 80040c4:	68e3      	ldrcs	r3, [r4, #12]
 80040c6:	6163      	strcs	r3, [r4, #20]
 80040c8:	3501      	adds	r5, #1
 80040ca:	f1b9 0f00 	cmp.w	r9, #0
 80040ce:	d001      	beq.n	80040d4 <chOQWriteTimeout+0x64>
 80040d0:	4620      	mov	r0, r4
 80040d2:	47c8      	blx	r9
 80040d4:	f7fe fb6c 	bl	80027b0 <_dbg_check_unlock>
 80040d8:	f7ff fb5a 	bl	8003790 <_stats_stop_measure_crit_thd>
 80040dc:	683b      	ldr	r3, [r7, #0]
 80040de:	42bb      	cmp	r3, r7
 80040e0:	d007      	beq.n	80040f2 <chOQWriteTimeout+0x82>
 80040e2:	69ba      	ldr	r2, [r7, #24]
 80040e4:	689b      	ldr	r3, [r3, #8]
 80040e6:	6892      	ldr	r2, [r2, #8]
 80040e8:	429a      	cmp	r2, r3
 80040ea:	d202      	bcs.n	80040f2 <chOQWriteTimeout+0x82>
 80040ec:	481f      	ldr	r0, [pc, #124]	; (800416c <chOQWriteTimeout+0xfc>)
 80040ee:	f7fe fa9f 	bl	8002630 <chSysHalt>
 80040f2:	f38b 8811 	msr	BASEPRI, fp
 80040f6:	3e01      	subs	r6, #1
 80040f8:	f108 0801 	add.w	r8, r8, #1
 80040fc:	d01f      	beq.n	800413e <chOQWriteTimeout+0xce>
 80040fe:	f38a 8811 	msr	BASEPRI, sl
 8004102:	f7ff fb2d 	bl	8003760 <_stats_start_measure_crit_thd>
 8004106:	f7fe fb33 	bl	8002770 <_dbg_check_lock>
 800410a:	f7fe fc01 	bl	8002910 <chDbgCheckClassI>
 800410e:	68a3      	ldr	r3, [r4, #8]
 8004110:	2b00      	cmp	r3, #0
 8004112:	d1cc      	bne.n	80040ae <chOQWriteTimeout+0x3e>
 8004114:	9901      	ldr	r1, [sp, #4]
 8004116:	4620      	mov	r0, r4
 8004118:	f7ff f982 	bl	8003420 <chThdEnqueueTimeoutS>
 800411c:	2800      	cmp	r0, #0
 800411e:	d0c1      	beq.n	80040a4 <chOQWriteTimeout+0x34>
 8004120:	f7fe fb46 	bl	80027b0 <_dbg_check_unlock>
 8004124:	f7ff fb34 	bl	8003790 <_stats_stop_measure_crit_thd>
 8004128:	683b      	ldr	r3, [r7, #0]
 800412a:	42bb      	cmp	r3, r7
 800412c:	d004      	beq.n	8004138 <chOQWriteTimeout+0xc8>
 800412e:	69ba      	ldr	r2, [r7, #24]
 8004130:	689b      	ldr	r3, [r3, #8]
 8004132:	6892      	ldr	r2, [r2, #8]
 8004134:	429a      	cmp	r2, r3
 8004136:	d30f      	bcc.n	8004158 <chOQWriteTimeout+0xe8>
 8004138:	2300      	movs	r3, #0
 800413a:	f383 8811 	msr	BASEPRI, r3
 800413e:	4b09      	ldr	r3, [pc, #36]	; (8004164 <chOQWriteTimeout+0xf4>)
 8004140:	9a03      	ldr	r2, [sp, #12]
 8004142:	681b      	ldr	r3, [r3, #0]
 8004144:	429a      	cmp	r2, r3
 8004146:	4640      	mov	r0, r8
 8004148:	d10a      	bne.n	8004160 <chOQWriteTimeout+0xf0>
 800414a:	b005      	add	sp, #20
 800414c:	e8bd 8ff0 	ldmia.w	sp!, {r4, r5, r6, r7, r8, r9, sl, fp, pc}
 8004150:	4807      	ldr	r0, [pc, #28]	; (8004170 <chOQWriteTimeout+0x100>)
 8004152:	f7fe fa6d 	bl	8002630 <chSysHalt>
 8004156:	e799      	b.n	800408c <chOQWriteTimeout+0x1c>
 8004158:	4804      	ldr	r0, [pc, #16]	; (800416c <chOQWriteTimeout+0xfc>)
 800415a:	f7fe fa69 	bl	8002630 <chSysHalt>
 800415e:	e7eb      	b.n	8004138 <chOQWriteTimeout+0xc8>
 8004160:	f7fd f87e 	bl	8001260 <__stack_chk_fail>
 8004164:	20000800 	.word	0x20000800
 8004168:	20001540 	.word	0x20001540
 800416c:	0800ea20 	.word	0x0800ea20
 8004170:	0800ea40 	.word	0x0800ea40
	...

08004180 <_core_init>:
 8004180:	b530      	push	{r4, r5, lr}
 8004182:	490b      	ldr	r1, [pc, #44]	; (80041b0 <_core_init+0x30>)
 8004184:	4a0b      	ldr	r2, [pc, #44]	; (80041b4 <_core_init+0x34>)
 8004186:	680b      	ldr	r3, [r1, #0]
 8004188:	4d0b      	ldr	r5, [pc, #44]	; (80041b8 <_core_init+0x38>)
 800418a:	4c0c      	ldr	r4, [pc, #48]	; (80041bc <_core_init+0x3c>)
 800418c:	b083      	sub	sp, #12
 800418e:	f022 0207 	bic.w	r2, r2, #7
 8004192:	9301      	str	r3, [sp, #4]
 8004194:	9801      	ldr	r0, [sp, #4]
 8004196:	4b0a      	ldr	r3, [pc, #40]	; (80041c0 <_core_init+0x40>)
 8004198:	6809      	ldr	r1, [r1, #0]
 800419a:	602a      	str	r2, [r5, #0]
 800419c:	f023 0307 	bic.w	r3, r3, #7
 80041a0:	4288      	cmp	r0, r1
 80041a2:	6023      	str	r3, [r4, #0]
 80041a4:	d101      	bne.n	80041aa <_core_init+0x2a>
 80041a6:	b003      	add	sp, #12
 80041a8:	bd30      	pop	{r4, r5, pc}
 80041aa:	f7fd f859 	bl	8001260 <__stack_chk_fail>
 80041ae:	bf00      	nop
 80041b0:	20000800 	.word	0x20000800
 80041b4:	20002417 	.word	0x20002417
 80041b8:	20001bb4 	.word	0x20001bb4
 80041bc:	20001bb0 	.word	0x20001bb0
 80041c0:	20020000 	.word	0x20020000
	...

080041d0 <chCoreAlloc>:
 80041d0:	b570      	push	{r4, r5, r6, lr}
 80041d2:	4e1c      	ldr	r6, [pc, #112]	; (8004244 <chCoreAlloc+0x74>)
 80041d4:	b082      	sub	sp, #8
 80041d6:	6833      	ldr	r3, [r6, #0]
 80041d8:	9301      	str	r3, [sp, #4]
 80041da:	4604      	mov	r4, r0
 80041dc:	2320      	movs	r3, #32
 80041de:	f383 8811 	msr	BASEPRI, r3
 80041e2:	f7ff fabd 	bl	8003760 <_stats_start_measure_crit_thd>
 80041e6:	f7fe fac3 	bl	8002770 <_dbg_check_lock>
 80041ea:	f7fe fb91 	bl	8002910 <chDbgCheckClassI>
 80041ee:	4a16      	ldr	r2, [pc, #88]	; (8004248 <chCoreAlloc+0x78>)
 80041f0:	4b16      	ldr	r3, [pc, #88]	; (800424c <chCoreAlloc+0x7c>)
 80041f2:	6815      	ldr	r5, [r2, #0]
 80041f4:	681b      	ldr	r3, [r3, #0]
 80041f6:	1de0      	adds	r0, r4, #7
 80041f8:	f020 0007 	bic.w	r0, r0, #7
 80041fc:	1b5b      	subs	r3, r3, r5
 80041fe:	4298      	cmp	r0, r3
 8004200:	bf9a      	itte	ls
 8004202:	1940      	addls	r0, r0, r5
 8004204:	6010      	strls	r0, [r2, #0]
 8004206:	2500      	movhi	r5, #0
 8004208:	f7fe fad2 	bl	80027b0 <_dbg_check_unlock>
 800420c:	f7ff fac0 	bl	8003790 <_stats_stop_measure_crit_thd>
 8004210:	4b0f      	ldr	r3, [pc, #60]	; (8004250 <chCoreAlloc+0x80>)
 8004212:	681a      	ldr	r2, [r3, #0]
 8004214:	429a      	cmp	r2, r3
 8004216:	d004      	beq.n	8004222 <chCoreAlloc+0x52>
 8004218:	6999      	ldr	r1, [r3, #24]
 800421a:	6893      	ldr	r3, [r2, #8]
 800421c:	688a      	ldr	r2, [r1, #8]
 800421e:	429a      	cmp	r2, r3
 8004220:	d309      	bcc.n	8004236 <chCoreAlloc+0x66>
 8004222:	2300      	movs	r3, #0
 8004224:	f383 8811 	msr	BASEPRI, r3
 8004228:	9a01      	ldr	r2, [sp, #4]
 800422a:	6833      	ldr	r3, [r6, #0]
 800422c:	429a      	cmp	r2, r3
 800422e:	4628      	mov	r0, r5
 8004230:	d105      	bne.n	800423e <chCoreAlloc+0x6e>
 8004232:	b002      	add	sp, #8
 8004234:	bd70      	pop	{r4, r5, r6, pc}
 8004236:	4807      	ldr	r0, [pc, #28]	; (8004254 <chCoreAlloc+0x84>)
 8004238:	f7fe f9fa 	bl	8002630 <chSysHalt>
 800423c:	e7f1      	b.n	8004222 <chCoreAlloc+0x52>
 800423e:	f7fd f80f 	bl	8001260 <__stack_chk_fail>
 8004242:	bf00      	nop
 8004244:	20000800 	.word	0x20000800
 8004248:	20001bb4 	.word	0x20001bb4
 800424c:	20001bb0 	.word	0x20001bb0
 8004250:	20001540 	.word	0x20001540
 8004254:	0800ea60 	.word	0x0800ea60
	...

08004260 <_heap_init>:
 8004260:	b500      	push	{lr}
 8004262:	4b0b      	ldr	r3, [pc, #44]	; (8004290 <_heap_init+0x30>)
 8004264:	480b      	ldr	r0, [pc, #44]	; (8004294 <_heap_init+0x34>)
 8004266:	681a      	ldr	r2, [r3, #0]
 8004268:	b083      	sub	sp, #12
 800426a:	9201      	str	r2, [sp, #4]
 800426c:	9901      	ldr	r1, [sp, #4]
 800426e:	681a      	ldr	r2, [r3, #0]
 8004270:	4b09      	ldr	r3, [pc, #36]	; (8004298 <_heap_init+0x38>)
 8004272:	6003      	str	r3, [r0, #0]
 8004274:	4291      	cmp	r1, r2
 8004276:	f04f 0300 	mov.w	r3, #0
 800427a:	e9c0 3302 	strd	r3, r3, [r0, #8]
 800427e:	d105      	bne.n	800428c <_heap_init+0x2c>
 8004280:	3010      	adds	r0, #16
 8004282:	b003      	add	sp, #12
 8004284:	f85d eb04 	ldr.w	lr, [sp], #4
 8004288:	f7ff baca 	b.w	8003820 <chMtxObjectInit>
 800428c:	f7fc ffe8 	bl	8001260 <__stack_chk_fail>
 8004290:	20000800 	.word	0x20000800
 8004294:	20001bb8 	.word	0x20001bb8
 8004298:	080041d1 	.word	0x080041d1
 800429c:	00000000 	.word	0x00000000

080042a0 <SVC_Handler>:
 80042a0:	b580      	push	{r7, lr}
 80042a2:	4a0d      	ldr	r2, [pc, #52]	; (80042d8 <SVC_Handler+0x38>)
 80042a4:	490d      	ldr	r1, [pc, #52]	; (80042dc <SVC_Handler+0x3c>)
 80042a6:	b082      	sub	sp, #8
 80042a8:	af00      	add	r7, sp, #0
 80042aa:	6813      	ldr	r3, [r2, #0]
 80042ac:	607b      	str	r3, [r7, #4]
 80042ae:	684b      	ldr	r3, [r1, #4]
 80042b0:	f023 0301 	bic.w	r3, r3, #1
 80042b4:	604b      	str	r3, [r1, #4]
 80042b6:	f3ef 8309 	mrs	r3, PSP
 80042ba:	3368      	adds	r3, #104	; 0x68
 80042bc:	f383 8809 	msr	PSP, r3
 80042c0:	2300      	movs	r3, #0
 80042c2:	f383 8811 	msr	BASEPRI, r3
 80042c6:	6879      	ldr	r1, [r7, #4]
 80042c8:	6813      	ldr	r3, [r2, #0]
 80042ca:	4299      	cmp	r1, r3
 80042cc:	d102      	bne.n	80042d4 <SVC_Handler+0x34>
 80042ce:	3708      	adds	r7, #8
 80042d0:	46bd      	mov	sp, r7
 80042d2:	bd80      	pop	{r7, pc}
 80042d4:	f7fc ffc4 	bl	8001260 <__stack_chk_fail>
 80042d8:	20000800 	.word	0x20000800
 80042dc:	e000ef30 	.word	0xe000ef30

080042e0 <_port_irq_epilogue>:
 80042e0:	b5b0      	push	{r4, r5, r7, lr}
 80042e2:	4c19      	ldr	r4, [pc, #100]	; (8004348 <_port_irq_epilogue+0x68>)
 80042e4:	b082      	sub	sp, #8
 80042e6:	af00      	add	r7, sp, #0
 80042e8:	6823      	ldr	r3, [r4, #0]
 80042ea:	607b      	str	r3, [r7, #4]
 80042ec:	2320      	movs	r3, #32
 80042ee:	f383 8811 	msr	BASEPRI, r3
 80042f2:	4b16      	ldr	r3, [pc, #88]	; (800434c <_port_irq_epilogue+0x6c>)
 80042f4:	685b      	ldr	r3, [r3, #4]
 80042f6:	f413 6300 	ands.w	r3, r3, #2048	; 0x800
 80042fa:	d108      	bne.n	800430e <_port_irq_epilogue+0x2e>
 80042fc:	f383 8811 	msr	BASEPRI, r3
 8004300:	687a      	ldr	r2, [r7, #4]
 8004302:	6823      	ldr	r3, [r4, #0]
 8004304:	429a      	cmp	r2, r3
 8004306:	d11d      	bne.n	8004344 <_port_irq_epilogue+0x64>
 8004308:	3708      	adds	r7, #8
 800430a:	46bd      	mov	sp, r7
 800430c:	bdb0      	pop	{r4, r5, r7, pc}
 800430e:	eef1 3a10 	vmrs	r3, fpscr
 8004312:	f3ef 8509 	mrs	r5, PSP
 8004316:	f04f 7280 	mov.w	r2, #16777216	; 0x1000000
 800431a:	4b0d      	ldr	r3, [pc, #52]	; (8004350 <_port_irq_epilogue+0x70>)
 800431c:	f845 2c4c 	str.w	r2, [r5, #-76]
 8004320:	68db      	ldr	r3, [r3, #12]
 8004322:	f845 3c08 	str.w	r3, [r5, #-8]
 8004326:	f1a5 0368 	sub.w	r3, r5, #104	; 0x68
 800432a:	f383 8809 	msr	PSP, r3
 800432e:	f7fe fd77 	bl	8002e20 <chSchIsPreemptionRequired>
 8004332:	b118      	cbz	r0, 800433c <_port_irq_epilogue+0x5c>
 8004334:	4b07      	ldr	r3, [pc, #28]	; (8004354 <_port_irq_epilogue+0x74>)
 8004336:	f845 3c50 	str.w	r3, [r5, #-80]
 800433a:	e7e1      	b.n	8004300 <_port_irq_epilogue+0x20>
 800433c:	4b06      	ldr	r3, [pc, #24]	; (8004358 <_port_irq_epilogue+0x78>)
 800433e:	f845 3c50 	str.w	r3, [r5, #-80]
 8004342:	e7dd      	b.n	8004300 <_port_irq_epilogue+0x20>
 8004344:	f7fc ff8c 	bl	8001260 <__stack_chk_fail>
 8004348:	20000800 	.word	0x20000800
 800434c:	e000ed00 	.word	0xe000ed00
 8004350:	e000ef30 	.word	0xe000ef30
 8004354:	080002e1 	.word	0x080002e1
 8004358:	080002f4 	.word	0x080002f4
 800435c:	00000000 	.word	0x00000000

08004360 <halInit>:
 8004360:	b510      	push	{r4, lr}
 8004362:	4c18      	ldr	r4, [pc, #96]	; (80043c4 <halInit+0x64>)
 8004364:	b082      	sub	sp, #8
 8004366:	6823      	ldr	r3, [r4, #0]
 8004368:	9301      	str	r3, [sp, #4]
 800436a:	f002 fe49 	bl	8007000 <hal_lld_init>
 800436e:	4816      	ldr	r0, [pc, #88]	; (80043c8 <halInit+0x68>)
 8004370:	f004 f966 	bl	8008640 <_pal_lld_init>
 8004374:	f000 f8d4 	bl	8004520 <adcInit>
 8004378:	f000 f90a 	bl	8004590 <canInit>
 800437c:	f000 f950 	bl	8004620 <dacInit>
 8004380:	f000 f97e 	bl	8004680 <extInit>
 8004384:	f000 f9ac 	bl	80046e0 <gptInit>
 8004388:	f000 f9da 	bl	8004740 <i2cInit>
 800438c:	f000 fb60 	bl	8004a50 <i2sInit>
 8004390:	f000 fb8e 	bl	8004ab0 <pwmInit>
 8004394:	f001 f9dc 	bl	8005750 <sdInit>
 8004398:	f001 f8e2 	bl	8005560 <sdcInit>
 800439c:	f001 fdf0 	bl	8005f80 <spiInit>
 80043a0:	f001 fe36 	bl	8006010 <usbInit>
 80043a4:	f001 fc24 	bl	8005bf0 <sduInit>
 80043a8:	f006 fbba 	bl	800ab20 <boardInit>
 80043ac:	9a01      	ldr	r2, [sp, #4]
 80043ae:	6823      	ldr	r3, [r4, #0]
 80043b0:	429a      	cmp	r2, r3
 80043b2:	d104      	bne.n	80043be <halInit+0x5e>
 80043b4:	b002      	add	sp, #8
 80043b6:	e8bd 4010 	ldmia.w	sp!, {r4, lr}
 80043ba:	f001 be11 	b.w	8005fe0 <stInit>
 80043be:	f7fc ff4f 	bl	8001260 <__stack_chk_fail>
 80043c2:	bf00      	nop
 80043c4:	20000800 	.word	0x20000800
 80043c8:	0800f0b0 	.word	0x0800f0b0
 80043cc:	00000000 	.word	0x00000000

080043d0 <_mmcsd_get_slice>:
 80043d0:	b5f0      	push	{r4, r5, r6, r7, lr}
 80043d2:	4d1a      	ldr	r5, [pc, #104]	; (800443c <_mmcsd_get_slice+0x6c>)
 80043d4:	b083      	sub	sp, #12
 80043d6:	682b      	ldr	r3, [r5, #0]
 80043d8:	9301      	str	r3, [sp, #4]
 80043da:	4291      	cmp	r1, r2
 80043dc:	460e      	mov	r6, r1
 80043de:	4614      	mov	r4, r2
 80043e0:	4607      	mov	r7, r0
 80043e2:	d319      	bcc.n	8004418 <_mmcsd_get_slice+0x48>
 80043e4:	1a8b      	subs	r3, r1, r2
 80043e6:	2b1f      	cmp	r3, #31
 80043e8:	d816      	bhi.n	8004418 <_mmcsd_get_slice+0x48>
 80043ea:	f006 031f 	and.w	r3, r6, #31
 80043ee:	1c58      	adds	r0, r3, #1
 80043f0:	0962      	lsrs	r2, r4, #5
 80043f2:	2301      	movs	r3, #1
 80043f4:	0976      	lsrs	r6, r6, #5
 80043f6:	4083      	lsls	r3, r0
 80043f8:	42b2      	cmp	r2, r6
 80043fa:	f103 33ff 	add.w	r3, r3, #4294967295
 80043fe:	f004 041f 	and.w	r4, r4, #31
 8004402:	f857 0022 	ldr.w	r0, [r7, r2, lsl #2]
 8004406:	d30b      	bcc.n	8004420 <_mmcsd_get_slice+0x50>
 8004408:	4018      	ands	r0, r3
 800440a:	40e0      	lsrs	r0, r4
 800440c:	9a01      	ldr	r2, [sp, #4]
 800440e:	682b      	ldr	r3, [r5, #0]
 8004410:	429a      	cmp	r2, r3
 8004412:	d110      	bne.n	8004436 <_mmcsd_get_slice+0x66>
 8004414:	b003      	add	sp, #12
 8004416:	bdf0      	pop	{r4, r5, r6, r7, pc}
 8004418:	4809      	ldr	r0, [pc, #36]	; (8004440 <_mmcsd_get_slice+0x70>)
 800441a:	f7fe f909 	bl	8002630 <chSysHalt>
 800441e:	e7e4      	b.n	80043ea <_mmcsd_get_slice+0x1a>
 8004420:	f857 1026 	ldr.w	r1, [r7, r6, lsl #2]
 8004424:	f1c4 0220 	rsb	r2, r4, #32
 8004428:	400b      	ands	r3, r1
 800442a:	fa20 f404 	lsr.w	r4, r0, r4
 800442e:	fa03 f002 	lsl.w	r0, r3, r2
 8004432:	4320      	orrs	r0, r4
 8004434:	e7ea      	b.n	800440c <_mmcsd_get_slice+0x3c>
 8004436:	f7fc ff13 	bl	8001260 <__stack_chk_fail>
 800443a:	bf00      	nop
 800443c:	20000800 	.word	0x20000800
 8004440:	0800ea70 	.word	0x0800ea70
	...

08004450 <_mmcsd_get_capacity>:
 8004450:	b5f0      	push	{r4, r5, r6, r7, lr}
 8004452:	4e1d      	ldr	r6, [pc, #116]	; (80044c8 <_mmcsd_get_capacity+0x78>)
 8004454:	b083      	sub	sp, #12
 8004456:	6833      	ldr	r3, [r6, #0]
 8004458:	9301      	str	r3, [sp, #4]
 800445a:	4605      	mov	r5, r0
 800445c:	b370      	cbz	r0, 80044bc <_mmcsd_get_capacity+0x6c>
 800445e:	227e      	movs	r2, #126	; 0x7e
 8004460:	217f      	movs	r1, #127	; 0x7f
 8004462:	4628      	mov	r0, r5
 8004464:	f7ff ffb4 	bl	80043d0 <_mmcsd_get_slice>
 8004468:	b180      	cbz	r0, 800448c <_mmcsd_get_capacity+0x3c>
 800446a:	2801      	cmp	r0, #1
 800446c:	d006      	beq.n	800447c <_mmcsd_get_capacity+0x2c>
 800446e:	2000      	movs	r0, #0
 8004470:	9a01      	ldr	r2, [sp, #4]
 8004472:	6833      	ldr	r3, [r6, #0]
 8004474:	429a      	cmp	r2, r3
 8004476:	d125      	bne.n	80044c4 <_mmcsd_get_capacity+0x74>
 8004478:	b003      	add	sp, #12
 800447a:	bdf0      	pop	{r4, r5, r6, r7, pc}
 800447c:	4628      	mov	r0, r5
 800447e:	2230      	movs	r2, #48	; 0x30
 8004480:	2145      	movs	r1, #69	; 0x45
 8004482:	f7ff ffa5 	bl	80043d0 <_mmcsd_get_slice>
 8004486:	3001      	adds	r0, #1
 8004488:	0280      	lsls	r0, r0, #10
 800448a:	e7f1      	b.n	8004470 <_mmcsd_get_capacity+0x20>
 800448c:	223e      	movs	r2, #62	; 0x3e
 800448e:	2149      	movs	r1, #73	; 0x49
 8004490:	4628      	mov	r0, r5
 8004492:	f7ff ff9d 	bl	80043d0 <_mmcsd_get_slice>
 8004496:	222f      	movs	r2, #47	; 0x2f
 8004498:	4604      	mov	r4, r0
 800449a:	2131      	movs	r1, #49	; 0x31
 800449c:	4628      	mov	r0, r5
 800449e:	f7ff ff97 	bl	80043d0 <_mmcsd_get_slice>
 80044a2:	2250      	movs	r2, #80	; 0x50
 80044a4:	4607      	mov	r7, r0
 80044a6:	2153      	movs	r1, #83	; 0x53
 80044a8:	4628      	mov	r0, r5
 80044aa:	f7ff ff91 	bl	80043d0 <_mmcsd_get_slice>
 80044ae:	3401      	adds	r4, #1
 80044b0:	3702      	adds	r7, #2
 80044b2:	3809      	subs	r0, #9
 80044b4:	40bc      	lsls	r4, r7
 80044b6:	fa04 f000 	lsl.w	r0, r4, r0
 80044ba:	e7d9      	b.n	8004470 <_mmcsd_get_capacity+0x20>
 80044bc:	4803      	ldr	r0, [pc, #12]	; (80044cc <_mmcsd_get_capacity+0x7c>)
 80044be:	f7fe f8b7 	bl	8002630 <chSysHalt>
 80044c2:	e7cc      	b.n	800445e <_mmcsd_get_capacity+0xe>
 80044c4:	f7fc fecc 	bl	8001260 <__stack_chk_fail>
 80044c8:	20000800 	.word	0x20000800
 80044cc:	0800ea90 	.word	0x0800ea90

080044d0 <_mmcsd_get_capacity_ext>:
 80044d0:	b5f0      	push	{r4, r5, r6, r7, lr}
 80044d2:	4d10      	ldr	r5, [pc, #64]	; (8004514 <_mmcsd_get_capacity_ext+0x44>)
 80044d4:	b083      	sub	sp, #12
 80044d6:	682b      	ldr	r3, [r5, #0]
 80044d8:	9301      	str	r3, [sp, #4]
 80044da:	4604      	mov	r4, r0
 80044dc:	b198      	cbz	r0, 8004506 <_mmcsd_get_capacity_ext+0x36>
 80044de:	f894 30d6 	ldrb.w	r3, [r4, #214]	; 0xd6
 80044e2:	f894 70d7 	ldrb.w	r7, [r4, #215]	; 0xd7
 80044e6:	9901      	ldr	r1, [sp, #4]
 80044e8:	f894 60d4 	ldrb.w	r6, [r4, #212]	; 0xd4
 80044ec:	682a      	ldr	r2, [r5, #0]
 80044ee:	f894 00d5 	ldrb.w	r0, [r4, #213]	; 0xd5
 80044f2:	041b      	lsls	r3, r3, #16
 80044f4:	eb03 6307 	add.w	r3, r3, r7, lsl #24
 80044f8:	4433      	add	r3, r6
 80044fa:	4291      	cmp	r1, r2
 80044fc:	eb03 2000 	add.w	r0, r3, r0, lsl #8
 8004500:	d105      	bne.n	800450e <_mmcsd_get_capacity_ext+0x3e>
 8004502:	b003      	add	sp, #12
 8004504:	bdf0      	pop	{r4, r5, r6, r7, pc}
 8004506:	4804      	ldr	r0, [pc, #16]	; (8004518 <_mmcsd_get_capacity_ext+0x48>)
 8004508:	f7fe f892 	bl	8002630 <chSysHalt>
 800450c:	e7e7      	b.n	80044de <_mmcsd_get_capacity_ext+0xe>
 800450e:	f7fc fea7 	bl	8001260 <__stack_chk_fail>
 8004512:	bf00      	nop
 8004514:	20000800 	.word	0x20000800
 8004518:	0800eab0 	.word	0x0800eab0
 800451c:	00000000 	.word	0x00000000

08004520 <adcInit>:
 8004520:	b500      	push	{lr}
 8004522:	4b07      	ldr	r3, [pc, #28]	; (8004540 <adcInit+0x20>)
 8004524:	b083      	sub	sp, #12
 8004526:	681a      	ldr	r2, [r3, #0]
 8004528:	9201      	str	r2, [sp, #4]
 800452a:	9a01      	ldr	r2, [sp, #4]
 800452c:	681b      	ldr	r3, [r3, #0]
 800452e:	429a      	cmp	r2, r3
 8004530:	d104      	bne.n	800453c <adcInit+0x1c>
 8004532:	b003      	add	sp, #12
 8004534:	f85d eb04 	ldr.w	lr, [sp], #4
 8004538:	f002 be22 	b.w	8007180 <adc_lld_init>
 800453c:	f7fc fe90 	bl	8001260 <__stack_chk_fail>
 8004540:	20000800 	.word	0x20000800
	...

08004550 <adcObjectInit>:
 8004550:	b500      	push	{lr}
 8004552:	4b0c      	ldr	r3, [pc, #48]	; (8004584 <adcObjectInit+0x34>)
 8004554:	b083      	sub	sp, #12
 8004556:	681a      	ldr	r2, [r3, #0]
 8004558:	9201      	str	r2, [sp, #4]
 800455a:	2201      	movs	r2, #1
 800455c:	7002      	strb	r2, [r0, #0]
 800455e:	9901      	ldr	r1, [sp, #4]
 8004560:	681a      	ldr	r2, [r3, #0]
 8004562:	2300      	movs	r3, #0
 8004564:	4291      	cmp	r1, r2
 8004566:	e9c0 3301 	strd	r3, r3, [r0, #4]
 800456a:	e9c0 3303 	strd	r3, r3, [r0, #12]
 800456e:	6143      	str	r3, [r0, #20]
 8004570:	d105      	bne.n	800457e <adcObjectInit+0x2e>
 8004572:	3018      	adds	r0, #24
 8004574:	b003      	add	sp, #12
 8004576:	f85d eb04 	ldr.w	lr, [sp], #4
 800457a:	f7ff b951 	b.w	8003820 <chMtxObjectInit>
 800457e:	f7fc fe6f 	bl	8001260 <__stack_chk_fail>
 8004582:	bf00      	nop
 8004584:	20000800 	.word	0x20000800
	...

08004590 <canInit>:
 8004590:	b500      	push	{lr}
 8004592:	4b07      	ldr	r3, [pc, #28]	; (80045b0 <canInit+0x20>)
 8004594:	b083      	sub	sp, #12
 8004596:	681a      	ldr	r2, [r3, #0]
 8004598:	9201      	str	r2, [sp, #4]
 800459a:	9a01      	ldr	r2, [sp, #4]
 800459c:	681b      	ldr	r3, [r3, #0]
 800459e:	429a      	cmp	r2, r3
 80045a0:	d104      	bne.n	80045ac <canInit+0x1c>
 80045a2:	b003      	add	sp, #12
 80045a4:	f85d eb04 	ldr.w	lr, [sp], #4
 80045a8:	f003 bb92 	b.w	8007cd0 <can_lld_init>
 80045ac:	f7fc fe58 	bl	8001260 <__stack_chk_fail>
 80045b0:	20000800 	.word	0x20000800
	...

080045c0 <canObjectInit>:
 80045c0:	b530      	push	{r4, r5, lr}
 80045c2:	4b13      	ldr	r3, [pc, #76]	; (8004610 <canObjectInit+0x50>)
 80045c4:	b083      	sub	sp, #12
 80045c6:	681a      	ldr	r2, [r3, #0]
 80045c8:	9201      	str	r2, [sp, #4]
 80045ca:	2201      	movs	r2, #1
 80045cc:	7002      	strb	r2, [r0, #0]
 80045ce:	9c01      	ldr	r4, [sp, #4]
 80045d0:	6819      	ldr	r1, [r3, #0]
 80045d2:	2200      	movs	r2, #0
 80045d4:	f100 0318 	add.w	r3, r0, #24
 80045d8:	f100 051c 	add.w	r5, r0, #28
 80045dc:	6042      	str	r2, [r0, #4]
 80045de:	6183      	str	r3, [r0, #24]
 80045e0:	f100 0220 	add.w	r2, r0, #32
 80045e4:	f100 0324 	add.w	r3, r0, #36	; 0x24
 80045e8:	61c5      	str	r5, [r0, #28]
 80045ea:	6202      	str	r2, [r0, #32]
 80045ec:	f100 0528 	add.w	r5, r0, #40	; 0x28
 80045f0:	f100 0208 	add.w	r2, r0, #8
 80045f4:	6243      	str	r3, [r0, #36]	; 0x24
 80045f6:	428c      	cmp	r4, r1
 80045f8:	f100 0310 	add.w	r3, r0, #16
 80045fc:	6285      	str	r5, [r0, #40]	; 0x28
 80045fe:	e9c0 2202 	strd	r2, r2, [r0, #8]
 8004602:	e9c0 3304 	strd	r3, r3, [r0, #16]
 8004606:	d101      	bne.n	800460c <canObjectInit+0x4c>
 8004608:	b003      	add	sp, #12
 800460a:	bd30      	pop	{r4, r5, pc}
 800460c:	f7fc fe28 	bl	8001260 <__stack_chk_fail>
 8004610:	20000800 	.word	0x20000800
	...

08004620 <dacInit>:
 8004620:	b500      	push	{lr}
 8004622:	4b07      	ldr	r3, [pc, #28]	; (8004640 <dacInit+0x20>)
 8004624:	b083      	sub	sp, #12
 8004626:	681a      	ldr	r2, [r3, #0]
 8004628:	9201      	str	r2, [sp, #4]
 800462a:	9a01      	ldr	r2, [sp, #4]
 800462c:	681b      	ldr	r3, [r3, #0]
 800462e:	429a      	cmp	r2, r3
 8004630:	d104      	bne.n	800463c <dacInit+0x1c>
 8004632:	b003      	add	sp, #12
 8004634:	f85d eb04 	ldr.w	lr, [sp], #4
 8004638:	f003 bfe2 	b.w	8008600 <dac_lld_init>
 800463c:	f7fc fe10 	bl	8001260 <__stack_chk_fail>
 8004640:	20000800 	.word	0x20000800
	...

08004650 <dacObjectInit>:
 8004650:	b500      	push	{lr}
 8004652:	4b0a      	ldr	r3, [pc, #40]	; (800467c <dacObjectInit+0x2c>)
 8004654:	b083      	sub	sp, #12
 8004656:	681a      	ldr	r2, [r3, #0]
 8004658:	9201      	str	r2, [sp, #4]
 800465a:	2201      	movs	r2, #1
 800465c:	7002      	strb	r2, [r0, #0]
 800465e:	9901      	ldr	r1, [sp, #4]
 8004660:	681a      	ldr	r2, [r3, #0]
 8004662:	2300      	movs	r3, #0
 8004664:	4291      	cmp	r1, r2
 8004666:	e9c0 3304 	strd	r3, r3, [r0, #16]
 800466a:	d105      	bne.n	8004678 <dacObjectInit+0x28>
 800466c:	3018      	adds	r0, #24
 800466e:	b003      	add	sp, #12
 8004670:	f85d eb04 	ldr.w	lr, [sp], #4
 8004674:	f7ff b8d4 	b.w	8003820 <chMtxObjectInit>
 8004678:	f7fc fdf2 	bl	8001260 <__stack_chk_fail>
 800467c:	20000800 	.word	0x20000800

08004680 <extInit>:
 8004680:	b500      	push	{lr}
 8004682:	4b07      	ldr	r3, [pc, #28]	; (80046a0 <extInit+0x20>)
 8004684:	b083      	sub	sp, #12
 8004686:	681a      	ldr	r2, [r3, #0]
 8004688:	9201      	str	r2, [sp, #4]
 800468a:	9a01      	ldr	r2, [sp, #4]
 800468c:	681b      	ldr	r3, [r3, #0]
 800468e:	429a      	cmp	r2, r3
 8004690:	d104      	bne.n	800469c <extInit+0x1c>
 8004692:	b003      	add	sp, #12
 8004694:	f85d eb04 	ldr.w	lr, [sp], #4
 8004698:	f003 bb3a 	b.w	8007d10 <ext_lld_init>
 800469c:	f7fc fde0 	bl	8001260 <__stack_chk_fail>
 80046a0:	20000800 	.word	0x20000800
	...

080046b0 <extObjectInit>:
 80046b0:	b500      	push	{lr}
 80046b2:	4b08      	ldr	r3, [pc, #32]	; (80046d4 <extObjectInit+0x24>)
 80046b4:	b083      	sub	sp, #12
 80046b6:	681a      	ldr	r2, [r3, #0]
 80046b8:	9201      	str	r2, [sp, #4]
 80046ba:	2201      	movs	r2, #1
 80046bc:	7002      	strb	r2, [r0, #0]
 80046be:	9a01      	ldr	r2, [sp, #4]
 80046c0:	681b      	ldr	r3, [r3, #0]
 80046c2:	2100      	movs	r1, #0
 80046c4:	429a      	cmp	r2, r3
 80046c6:	6041      	str	r1, [r0, #4]
 80046c8:	d102      	bne.n	80046d0 <extObjectInit+0x20>
 80046ca:	b003      	add	sp, #12
 80046cc:	f85d fb04 	ldr.w	pc, [sp], #4
 80046d0:	f7fc fdc6 	bl	8001260 <__stack_chk_fail>
 80046d4:	20000800 	.word	0x20000800
	...

080046e0 <gptInit>:
 80046e0:	b500      	push	{lr}
 80046e2:	4b07      	ldr	r3, [pc, #28]	; (8004700 <gptInit+0x20>)
 80046e4:	b083      	sub	sp, #12
 80046e6:	681a      	ldr	r2, [r3, #0]
 80046e8:	9201      	str	r2, [sp, #4]
 80046ea:	9a01      	ldr	r2, [sp, #4]
 80046ec:	681b      	ldr	r3, [r3, #0]
 80046ee:	429a      	cmp	r2, r3
 80046f0:	d104      	bne.n	80046fc <gptInit+0x1c>
 80046f2:	b003      	add	sp, #12
 80046f4:	f85d eb04 	ldr.w	lr, [sp], #4
 80046f8:	f005 bd9a 	b.w	800a230 <gpt_lld_init>
 80046fc:	f7fc fdb0 	bl	8001260 <__stack_chk_fail>
 8004700:	20000800 	.word	0x20000800
	...

08004710 <gptObjectInit>:
 8004710:	b500      	push	{lr}
 8004712:	4b08      	ldr	r3, [pc, #32]	; (8004734 <gptObjectInit+0x24>)
 8004714:	b083      	sub	sp, #12
 8004716:	681a      	ldr	r2, [r3, #0]
 8004718:	9201      	str	r2, [sp, #4]
 800471a:	2201      	movs	r2, #1
 800471c:	7002      	strb	r2, [r0, #0]
 800471e:	9a01      	ldr	r2, [sp, #4]
 8004720:	681b      	ldr	r3, [r3, #0]
 8004722:	2100      	movs	r1, #0
 8004724:	429a      	cmp	r2, r3
 8004726:	6041      	str	r1, [r0, #4]
 8004728:	d102      	bne.n	8004730 <gptObjectInit+0x20>
 800472a:	b003      	add	sp, #12
 800472c:	f85d fb04 	ldr.w	pc, [sp], #4
 8004730:	f7fc fd96 	bl	8001260 <__stack_chk_fail>
 8004734:	20000800 	.word	0x20000800
	...

08004740 <i2cInit>:
 8004740:	b500      	push	{lr}
 8004742:	4b07      	ldr	r3, [pc, #28]	; (8004760 <i2cInit+0x20>)
 8004744:	b083      	sub	sp, #12
 8004746:	681a      	ldr	r2, [r3, #0]
 8004748:	9201      	str	r2, [sp, #4]
 800474a:	9a01      	ldr	r2, [sp, #4]
 800474c:	681b      	ldr	r3, [r3, #0]
 800474e:	429a      	cmp	r2, r3
 8004750:	d104      	bne.n	800475c <i2cInit+0x1c>
 8004752:	b003      	add	sp, #12
 8004754:	f85d eb04 	ldr.w	lr, [sp], #4
 8004758:	f004 ba6a 	b.w	8008c30 <i2c_lld_init>
 800475c:	f7fc fd80 	bl	8001260 <__stack_chk_fail>
 8004760:	20000800 	.word	0x20000800
	...

08004770 <i2cObjectInit>:
 8004770:	b500      	push	{lr}
 8004772:	4b0a      	ldr	r3, [pc, #40]	; (800479c <i2cObjectInit+0x2c>)
 8004774:	b083      	sub	sp, #12
 8004776:	681a      	ldr	r2, [r3, #0]
 8004778:	9201      	str	r2, [sp, #4]
 800477a:	2201      	movs	r2, #1
 800477c:	7002      	strb	r2, [r0, #0]
 800477e:	9a01      	ldr	r2, [sp, #4]
 8004780:	681b      	ldr	r3, [r3, #0]
 8004782:	2100      	movs	r1, #0
 8004784:	429a      	cmp	r2, r3
 8004786:	6041      	str	r1, [r0, #4]
 8004788:	d105      	bne.n	8004796 <i2cObjectInit+0x26>
 800478a:	300c      	adds	r0, #12
 800478c:	b003      	add	sp, #12
 800478e:	f85d eb04 	ldr.w	lr, [sp], #4
 8004792:	f7ff b845 	b.w	8003820 <chMtxObjectInit>
 8004796:	f7fc fd63 	bl	8001260 <__stack_chk_fail>
 800479a:	bf00      	nop
 800479c:	20000800 	.word	0x20000800

080047a0 <i2cStart>:
 80047a0:	b570      	push	{r4, r5, r6, lr}
 80047a2:	4d1f      	ldr	r5, [pc, #124]	; (8004820 <i2cStart+0x80>)
 80047a4:	b082      	sub	sp, #8
 80047a6:	682b      	ldr	r3, [r5, #0]
 80047a8:	9301      	str	r3, [sp, #4]
 80047aa:	460e      	mov	r6, r1
 80047ac:	4604      	mov	r4, r0
 80047ae:	b380      	cbz	r0, 8004812 <i2cStart+0x72>
 80047b0:	b379      	cbz	r1, 8004812 <i2cStart+0x72>
 80047b2:	7823      	ldrb	r3, [r4, #0]
 80047b4:	1e5a      	subs	r2, r3, #1
 80047b6:	2a01      	cmp	r2, #1
 80047b8:	d904      	bls.n	80047c4 <i2cStart+0x24>
 80047ba:	2b05      	cmp	r3, #5
 80047bc:	d002      	beq.n	80047c4 <i2cStart+0x24>
 80047be:	4819      	ldr	r0, [pc, #100]	; (8004824 <i2cStart+0x84>)
 80047c0:	f7fd ff36 	bl	8002630 <chSysHalt>
 80047c4:	2320      	movs	r3, #32
 80047c6:	f383 8811 	msr	BASEPRI, r3
 80047ca:	f7fe ffc9 	bl	8003760 <_stats_start_measure_crit_thd>
 80047ce:	f7fd ffcf 	bl	8002770 <_dbg_check_lock>
 80047d2:	4620      	mov	r0, r4
 80047d4:	6066      	str	r6, [r4, #4]
 80047d6:	f004 fa53 	bl	8008c80 <i2c_lld_start>
 80047da:	2302      	movs	r3, #2
 80047dc:	7023      	strb	r3, [r4, #0]
 80047de:	f7fd ffe7 	bl	80027b0 <_dbg_check_unlock>
 80047e2:	f7fe ffd5 	bl	8003790 <_stats_stop_measure_crit_thd>
 80047e6:	4b10      	ldr	r3, [pc, #64]	; (8004828 <i2cStart+0x88>)
 80047e8:	681a      	ldr	r2, [r3, #0]
 80047ea:	429a      	cmp	r2, r3
 80047ec:	d004      	beq.n	80047f8 <i2cStart+0x58>
 80047ee:	6999      	ldr	r1, [r3, #24]
 80047f0:	6893      	ldr	r3, [r2, #8]
 80047f2:	688a      	ldr	r2, [r1, #8]
 80047f4:	429a      	cmp	r2, r3
 80047f6:	d308      	bcc.n	800480a <i2cStart+0x6a>
 80047f8:	2300      	movs	r3, #0
 80047fa:	f383 8811 	msr	BASEPRI, r3
 80047fe:	9a01      	ldr	r2, [sp, #4]
 8004800:	682b      	ldr	r3, [r5, #0]
 8004802:	429a      	cmp	r2, r3
 8004804:	d109      	bne.n	800481a <i2cStart+0x7a>
 8004806:	b002      	add	sp, #8
 8004808:	bd70      	pop	{r4, r5, r6, pc}
 800480a:	4808      	ldr	r0, [pc, #32]	; (800482c <i2cStart+0x8c>)
 800480c:	f7fd ff10 	bl	8002630 <chSysHalt>
 8004810:	e7f2      	b.n	80047f8 <i2cStart+0x58>
 8004812:	4804      	ldr	r0, [pc, #16]	; (8004824 <i2cStart+0x84>)
 8004814:	f7fd ff0c 	bl	8002630 <chSysHalt>
 8004818:	e7cb      	b.n	80047b2 <i2cStart+0x12>
 800481a:	f7fc fd21 	bl	8001260 <__stack_chk_fail>
 800481e:	bf00      	nop
 8004820:	20000800 	.word	0x20000800
 8004824:	0800eae0 	.word	0x0800eae0
 8004828:	20001540 	.word	0x20001540
 800482c:	0800ead0 	.word	0x0800ead0

08004830 <i2cStop>:
 8004830:	b530      	push	{r4, r5, lr}
 8004832:	4d1d      	ldr	r5, [pc, #116]	; (80048a8 <i2cStop+0x78>)
 8004834:	b083      	sub	sp, #12
 8004836:	682b      	ldr	r3, [r5, #0]
 8004838:	9301      	str	r3, [sp, #4]
 800483a:	4604      	mov	r4, r0
 800483c:	b370      	cbz	r0, 800489c <i2cStop+0x6c>
 800483e:	7823      	ldrb	r3, [r4, #0]
 8004840:	1e5a      	subs	r2, r3, #1
 8004842:	2a01      	cmp	r2, #1
 8004844:	d904      	bls.n	8004850 <i2cStop+0x20>
 8004846:	2b05      	cmp	r3, #5
 8004848:	d002      	beq.n	8004850 <i2cStop+0x20>
 800484a:	4818      	ldr	r0, [pc, #96]	; (80048ac <i2cStop+0x7c>)
 800484c:	f7fd fef0 	bl	8002630 <chSysHalt>
 8004850:	2320      	movs	r3, #32
 8004852:	f383 8811 	msr	BASEPRI, r3
 8004856:	f7fe ff83 	bl	8003760 <_stats_start_measure_crit_thd>
 800485a:	f7fd ff89 	bl	8002770 <_dbg_check_lock>
 800485e:	4620      	mov	r0, r4
 8004860:	f004 fb4e 	bl	8008f00 <i2c_lld_stop>
 8004864:	2301      	movs	r3, #1
 8004866:	7023      	strb	r3, [r4, #0]
 8004868:	f7fd ffa2 	bl	80027b0 <_dbg_check_unlock>
 800486c:	f7fe ff90 	bl	8003790 <_stats_stop_measure_crit_thd>
 8004870:	4b0f      	ldr	r3, [pc, #60]	; (80048b0 <i2cStop+0x80>)
 8004872:	681a      	ldr	r2, [r3, #0]
 8004874:	429a      	cmp	r2, r3
 8004876:	d004      	beq.n	8004882 <i2cStop+0x52>
 8004878:	6999      	ldr	r1, [r3, #24]
 800487a:	6893      	ldr	r3, [r2, #8]
 800487c:	688a      	ldr	r2, [r1, #8]
 800487e:	429a      	cmp	r2, r3
 8004880:	d308      	bcc.n	8004894 <i2cStop+0x64>
 8004882:	2300      	movs	r3, #0
 8004884:	f383 8811 	msr	BASEPRI, r3
 8004888:	9a01      	ldr	r2, [sp, #4]
 800488a:	682b      	ldr	r3, [r5, #0]
 800488c:	429a      	cmp	r2, r3
 800488e:	d109      	bne.n	80048a4 <i2cStop+0x74>
 8004890:	b003      	add	sp, #12
 8004892:	bd30      	pop	{r4, r5, pc}
 8004894:	4807      	ldr	r0, [pc, #28]	; (80048b4 <i2cStop+0x84>)
 8004896:	f7fd fecb 	bl	8002630 <chSysHalt>
 800489a:	e7f2      	b.n	8004882 <i2cStop+0x52>
 800489c:	4803      	ldr	r0, [pc, #12]	; (80048ac <i2cStop+0x7c>)
 800489e:	f7fd fec7 	bl	8002630 <chSysHalt>
 80048a2:	e7cc      	b.n	800483e <i2cStop+0xe>
 80048a4:	f7fc fcdc 	bl	8001260 <__stack_chk_fail>
 80048a8:	20000800 	.word	0x20000800
 80048ac:	0800eaf0 	.word	0x0800eaf0
 80048b0:	20001540 	.word	0x20001540
 80048b4:	0800ead0 	.word	0x0800ead0
	...

080048c0 <i2cGetErrors>:
 80048c0:	b530      	push	{r4, r5, lr}
 80048c2:	4d09      	ldr	r5, [pc, #36]	; (80048e8 <i2cGetErrors+0x28>)
 80048c4:	b083      	sub	sp, #12
 80048c6:	682b      	ldr	r3, [r5, #0]
 80048c8:	9301      	str	r3, [sp, #4]
 80048ca:	4604      	mov	r4, r0
 80048cc:	b130      	cbz	r0, 80048dc <i2cGetErrors+0x1c>
 80048ce:	9a01      	ldr	r2, [sp, #4]
 80048d0:	682b      	ldr	r3, [r5, #0]
 80048d2:	68a0      	ldr	r0, [r4, #8]
 80048d4:	429a      	cmp	r2, r3
 80048d6:	d105      	bne.n	80048e4 <i2cGetErrors+0x24>
 80048d8:	b003      	add	sp, #12
 80048da:	bd30      	pop	{r4, r5, pc}
 80048dc:	4803      	ldr	r0, [pc, #12]	; (80048ec <i2cGetErrors+0x2c>)
 80048de:	f7fd fea7 	bl	8002630 <chSysHalt>
 80048e2:	e7f4      	b.n	80048ce <i2cGetErrors+0xe>
 80048e4:	f7fc fcbc 	bl	8001260 <__stack_chk_fail>
 80048e8:	20000800 	.word	0x20000800
 80048ec:	0800eb00 	.word	0x0800eb00

080048f0 <i2cMasterTransmitTimeout>:
 80048f0:	e92d 4ff0 	stmdb	sp!, {r4, r5, r6, r7, r8, r9, sl, fp, lr}
 80048f4:	4e30      	ldr	r6, [pc, #192]	; (80049b8 <i2cMasterTransmitTimeout+0xc8>)
 80048f6:	b087      	sub	sp, #28
 80048f8:	6834      	ldr	r4, [r6, #0]
 80048fa:	9405      	str	r4, [sp, #20]
 80048fc:	f8dd b040 	ldr.w	fp, [sp, #64]	; 0x40
 8004900:	460d      	mov	r5, r1
 8004902:	4690      	mov	r8, r2
 8004904:	461f      	mov	r7, r3
 8004906:	e9dd 9a11 	ldrd	r9, sl, [sp, #68]	; 0x44
 800490a:	4604      	mov	r4, r0
 800490c:	b108      	cbz	r0, 8004912 <i2cMasterTransmitTimeout+0x22>
 800490e:	2900      	cmp	r1, #0
 8004910:	d13d      	bne.n	800498e <i2cMasterTransmitTimeout+0x9e>
 8004912:	482a      	ldr	r0, [pc, #168]	; (80049bc <i2cMasterTransmitTimeout+0xcc>)
 8004914:	f7fd fe8c 	bl	8002630 <chSysHalt>
 8004918:	7823      	ldrb	r3, [r4, #0]
 800491a:	2b02      	cmp	r3, #2
 800491c:	d002      	beq.n	8004924 <i2cMasterTransmitTimeout+0x34>
 800491e:	4827      	ldr	r0, [pc, #156]	; (80049bc <i2cMasterTransmitTimeout+0xcc>)
 8004920:	f7fd fe86 	bl	8002630 <chSysHalt>
 8004924:	2320      	movs	r3, #32
 8004926:	f383 8811 	msr	BASEPRI, r3
 800492a:	f7fe ff19 	bl	8003760 <_stats_start_measure_crit_thd>
 800492e:	f7fd ff1f 	bl	8002770 <_dbg_check_lock>
 8004932:	f04f 0c00 	mov.w	ip, #0
 8004936:	2003      	movs	r0, #3
 8004938:	f8c4 c008 	str.w	ip, [r4, #8]
 800493c:	4642      	mov	r2, r8
 800493e:	4629      	mov	r1, r5
 8004940:	7020      	strb	r0, [r4, #0]
 8004942:	463b      	mov	r3, r7
 8004944:	4620      	mov	r0, r4
 8004946:	e9cd 9a01 	strd	r9, sl, [sp, #4]
 800494a:	f8cd b000 	str.w	fp, [sp]
 800494e:	f004 fb2f 	bl	8008fb0 <i2c_lld_master_transmit_timeout>
 8004952:	1c43      	adds	r3, r0, #1
 8004954:	bf0c      	ite	eq
 8004956:	2305      	moveq	r3, #5
 8004958:	2302      	movne	r3, #2
 800495a:	7023      	strb	r3, [r4, #0]
 800495c:	4605      	mov	r5, r0
 800495e:	f7fd ff27 	bl	80027b0 <_dbg_check_unlock>
 8004962:	f7fe ff15 	bl	8003790 <_stats_stop_measure_crit_thd>
 8004966:	4b16      	ldr	r3, [pc, #88]	; (80049c0 <i2cMasterTransmitTimeout+0xd0>)
 8004968:	681a      	ldr	r2, [r3, #0]
 800496a:	429a      	cmp	r2, r3
 800496c:	d004      	beq.n	8004978 <i2cMasterTransmitTimeout+0x88>
 800496e:	6999      	ldr	r1, [r3, #24]
 8004970:	6893      	ldr	r3, [r2, #8]
 8004972:	688a      	ldr	r2, [r1, #8]
 8004974:	429a      	cmp	r2, r3
 8004976:	d318      	bcc.n	80049aa <i2cMasterTransmitTimeout+0xba>
 8004978:	2300      	movs	r3, #0
 800497a:	f383 8811 	msr	BASEPRI, r3
 800497e:	9a05      	ldr	r2, [sp, #20]
 8004980:	6833      	ldr	r3, [r6, #0]
 8004982:	429a      	cmp	r2, r3
 8004984:	4628      	mov	r0, r5
 8004986:	d114      	bne.n	80049b2 <i2cMasterTransmitTimeout+0xc2>
 8004988:	b007      	add	sp, #28
 800498a:	e8bd 8ff0 	ldmia.w	sp!, {r4, r5, r6, r7, r8, r9, sl, fp, pc}
 800498e:	2b00      	cmp	r3, #0
 8004990:	d0bf      	beq.n	8004912 <i2cMasterTransmitTimeout+0x22>
 8004992:	2a00      	cmp	r2, #0
 8004994:	d0bd      	beq.n	8004912 <i2cMasterTransmitTimeout+0x22>
 8004996:	f1b9 0f00 	cmp.w	r9, #0
 800499a:	d002      	beq.n	80049a2 <i2cMasterTransmitTimeout+0xb2>
 800499c:	f1bb 0f00 	cmp.w	fp, #0
 80049a0:	d0b7      	beq.n	8004912 <i2cMasterTransmitTimeout+0x22>
 80049a2:	f1ba 0f00 	cmp.w	sl, #0
 80049a6:	d1b7      	bne.n	8004918 <i2cMasterTransmitTimeout+0x28>
 80049a8:	e7b3      	b.n	8004912 <i2cMasterTransmitTimeout+0x22>
 80049aa:	4806      	ldr	r0, [pc, #24]	; (80049c4 <i2cMasterTransmitTimeout+0xd4>)
 80049ac:	f7fd fe40 	bl	8002630 <chSysHalt>
 80049b0:	e7e2      	b.n	8004978 <i2cMasterTransmitTimeout+0x88>
 80049b2:	f7fc fc55 	bl	8001260 <__stack_chk_fail>
 80049b6:	bf00      	nop
 80049b8:	20000800 	.word	0x20000800
 80049bc:	0800eb10 	.word	0x0800eb10
 80049c0:	20001540 	.word	0x20001540
 80049c4:	0800ead0 	.word	0x0800ead0
	...

080049d0 <i2cAcquireBus>:
 80049d0:	b530      	push	{r4, r5, lr}
 80049d2:	4c0b      	ldr	r4, [pc, #44]	; (8004a00 <i2cAcquireBus+0x30>)
 80049d4:	b083      	sub	sp, #12
 80049d6:	6823      	ldr	r3, [r4, #0]
 80049d8:	9301      	str	r3, [sp, #4]
 80049da:	4605      	mov	r5, r0
 80049dc:	b150      	cbz	r0, 80049f4 <i2cAcquireBus+0x24>
 80049de:	9a01      	ldr	r2, [sp, #4]
 80049e0:	6823      	ldr	r3, [r4, #0]
 80049e2:	429a      	cmp	r2, r3
 80049e4:	d10a      	bne.n	80049fc <i2cAcquireBus+0x2c>
 80049e6:	f105 000c 	add.w	r0, r5, #12
 80049ea:	b003      	add	sp, #12
 80049ec:	e8bd 4030 	ldmia.w	sp!, {r4, r5, lr}
 80049f0:	f7fe bffe 	b.w	80039f0 <chMtxLock>
 80049f4:	4803      	ldr	r0, [pc, #12]	; (8004a04 <i2cAcquireBus+0x34>)
 80049f6:	f7fd fe1b 	bl	8002630 <chSysHalt>
 80049fa:	e7f0      	b.n	80049de <i2cAcquireBus+0xe>
 80049fc:	f7fc fc30 	bl	8001260 <__stack_chk_fail>
 8004a00:	20000800 	.word	0x20000800
 8004a04:	0800eb30 	.word	0x0800eb30
	...

08004a10 <i2cReleaseBus>:
 8004a10:	b530      	push	{r4, r5, lr}
 8004a12:	4c0b      	ldr	r4, [pc, #44]	; (8004a40 <i2cReleaseBus+0x30>)
 8004a14:	b083      	sub	sp, #12
 8004a16:	6823      	ldr	r3, [r4, #0]
 8004a18:	9301      	str	r3, [sp, #4]
 8004a1a:	4605      	mov	r5, r0
 8004a1c:	b150      	cbz	r0, 8004a34 <i2cReleaseBus+0x24>
 8004a1e:	9a01      	ldr	r2, [sp, #4]
 8004a20:	6823      	ldr	r3, [r4, #0]
 8004a22:	429a      	cmp	r2, r3
 8004a24:	d10a      	bne.n	8004a3c <i2cReleaseBus+0x2c>
 8004a26:	f105 000c 	add.w	r0, r5, #12
 8004a2a:	b003      	add	sp, #12
 8004a2c:	e8bd 4030 	ldmia.w	sp!, {r4, r5, lr}
 8004a30:	f7ff b816 	b.w	8003a60 <chMtxUnlock>
 8004a34:	4803      	ldr	r0, [pc, #12]	; (8004a44 <i2cReleaseBus+0x34>)
 8004a36:	f7fd fdfb 	bl	8002630 <chSysHalt>
 8004a3a:	e7f0      	b.n	8004a1e <i2cReleaseBus+0xe>
 8004a3c:	f7fc fc10 	bl	8001260 <__stack_chk_fail>
 8004a40:	20000800 	.word	0x20000800
 8004a44:	0800eb40 	.word	0x0800eb40
	...

08004a50 <i2sInit>:
 8004a50:	b500      	push	{lr}
 8004a52:	4b07      	ldr	r3, [pc, #28]	; (8004a70 <i2sInit+0x20>)
 8004a54:	b083      	sub	sp, #12
 8004a56:	681a      	ldr	r2, [r3, #0]
 8004a58:	9201      	str	r2, [sp, #4]
 8004a5a:	9a01      	ldr	r2, [sp, #4]
 8004a5c:	681b      	ldr	r3, [r3, #0]
 8004a5e:	429a      	cmp	r2, r3
 8004a60:	d104      	bne.n	8004a6c <i2sInit+0x1c>
 8004a62:	b003      	add	sp, #12
 8004a64:	f85d eb04 	ldr.w	lr, [sp], #4
 8004a68:	f005 bb22 	b.w	800a0b0 <i2s_lld_init>
 8004a6c:	f7fc fbf8 	bl	8001260 <__stack_chk_fail>
 8004a70:	20000800 	.word	0x20000800
	...

08004a80 <i2sObjectInit>:
 8004a80:	b500      	push	{lr}
 8004a82:	4b08      	ldr	r3, [pc, #32]	; (8004aa4 <i2sObjectInit+0x24>)
 8004a84:	b083      	sub	sp, #12
 8004a86:	681a      	ldr	r2, [r3, #0]
 8004a88:	9201      	str	r2, [sp, #4]
 8004a8a:	2201      	movs	r2, #1
 8004a8c:	7002      	strb	r2, [r0, #0]
 8004a8e:	9a01      	ldr	r2, [sp, #4]
 8004a90:	681b      	ldr	r3, [r3, #0]
 8004a92:	2100      	movs	r1, #0
 8004a94:	429a      	cmp	r2, r3
 8004a96:	6041      	str	r1, [r0, #4]
 8004a98:	d102      	bne.n	8004aa0 <i2sObjectInit+0x20>
 8004a9a:	b003      	add	sp, #12
 8004a9c:	f85d fb04 	ldr.w	pc, [sp], #4
 8004aa0:	f7fc fbde 	bl	8001260 <__stack_chk_fail>
 8004aa4:	20000800 	.word	0x20000800
	...

08004ab0 <pwmInit>:
 8004ab0:	b500      	push	{lr}
 8004ab2:	4b07      	ldr	r3, [pc, #28]	; (8004ad0 <pwmInit+0x20>)
 8004ab4:	b083      	sub	sp, #12
 8004ab6:	681a      	ldr	r2, [r3, #0]
 8004ab8:	9201      	str	r2, [sp, #4]
 8004aba:	9a01      	ldr	r2, [sp, #4]
 8004abc:	681b      	ldr	r3, [r3, #0]
 8004abe:	429a      	cmp	r2, r3
 8004ac0:	d104      	bne.n	8004acc <pwmInit+0x1c>
 8004ac2:	b003      	add	sp, #12
 8004ac4:	f85d eb04 	ldr.w	lr, [sp], #4
 8004ac8:	f005 bc9a 	b.w	800a400 <pwm_lld_init>
 8004acc:	f7fc fbc8 	bl	8001260 <__stack_chk_fail>
 8004ad0:	20000800 	.word	0x20000800
	...

08004ae0 <pwmObjectInit>:
 8004ae0:	b500      	push	{lr}
 8004ae2:	4b09      	ldr	r3, [pc, #36]	; (8004b08 <pwmObjectInit+0x28>)
 8004ae4:	b083      	sub	sp, #12
 8004ae6:	681a      	ldr	r2, [r3, #0]
 8004ae8:	9201      	str	r2, [sp, #4]
 8004aea:	2201      	movs	r2, #1
 8004aec:	7002      	strb	r2, [r0, #0]
 8004aee:	9901      	ldr	r1, [sp, #4]
 8004af0:	681a      	ldr	r2, [r3, #0]
 8004af2:	2300      	movs	r3, #0
 8004af4:	4291      	cmp	r1, r2
 8004af6:	6043      	str	r3, [r0, #4]
 8004af8:	60c3      	str	r3, [r0, #12]
 8004afa:	7403      	strb	r3, [r0, #16]
 8004afc:	d102      	bne.n	8004b04 <pwmObjectInit+0x24>
 8004afe:	b003      	add	sp, #12
 8004b00:	f85d fb04 	ldr.w	pc, [sp], #4
 8004b04:	f7fc fbac 	bl	8001260 <__stack_chk_fail>
 8004b08:	20000800 	.word	0x20000800
 8004b0c:	00000000 	.word	0x00000000

08004b10 <pwmStart>:
 8004b10:	b570      	push	{r4, r5, r6, lr}
 8004b12:	4e21      	ldr	r6, [pc, #132]	; (8004b98 <pwmStart+0x88>)
 8004b14:	b082      	sub	sp, #8
 8004b16:	6833      	ldr	r3, [r6, #0]
 8004b18:	9301      	str	r3, [sp, #4]
 8004b1a:	460d      	mov	r5, r1
 8004b1c:	4604      	mov	r4, r0
 8004b1e:	2800      	cmp	r0, #0
 8004b20:	d033      	beq.n	8004b8a <pwmStart+0x7a>
 8004b22:	2900      	cmp	r1, #0
 8004b24:	d031      	beq.n	8004b8a <pwmStart+0x7a>
 8004b26:	2320      	movs	r3, #32
 8004b28:	f383 8811 	msr	BASEPRI, r3
 8004b2c:	f7fe fe18 	bl	8003760 <_stats_start_measure_crit_thd>
 8004b30:	f7fd fe1e 	bl	8002770 <_dbg_check_lock>
 8004b34:	7823      	ldrb	r3, [r4, #0]
 8004b36:	3b01      	subs	r3, #1
 8004b38:	2b01      	cmp	r3, #1
 8004b3a:	d902      	bls.n	8004b42 <pwmStart+0x32>
 8004b3c:	4817      	ldr	r0, [pc, #92]	; (8004b9c <pwmStart+0x8c>)
 8004b3e:	f7fd fd77 	bl	8002630 <chSysHalt>
 8004b42:	6065      	str	r5, [r4, #4]
 8004b44:	686b      	ldr	r3, [r5, #4]
 8004b46:	60a3      	str	r3, [r4, #8]
 8004b48:	4620      	mov	r0, r4
 8004b4a:	f005 fc99 	bl	800a480 <pwm_lld_start>
 8004b4e:	2200      	movs	r2, #0
 8004b50:	2302      	movs	r3, #2
 8004b52:	60e2      	str	r2, [r4, #12]
 8004b54:	7023      	strb	r3, [r4, #0]
 8004b56:	f7fd fe2b 	bl	80027b0 <_dbg_check_unlock>
 8004b5a:	f7fe fe19 	bl	8003790 <_stats_stop_measure_crit_thd>
 8004b5e:	4b10      	ldr	r3, [pc, #64]	; (8004ba0 <pwmStart+0x90>)
 8004b60:	681a      	ldr	r2, [r3, #0]
 8004b62:	429a      	cmp	r2, r3
 8004b64:	d004      	beq.n	8004b70 <pwmStart+0x60>
 8004b66:	6999      	ldr	r1, [r3, #24]
 8004b68:	6893      	ldr	r3, [r2, #8]
 8004b6a:	688a      	ldr	r2, [r1, #8]
 8004b6c:	429a      	cmp	r2, r3
 8004b6e:	d308      	bcc.n	8004b82 <pwmStart+0x72>
 8004b70:	2300      	movs	r3, #0
 8004b72:	f383 8811 	msr	BASEPRI, r3
 8004b76:	9a01      	ldr	r2, [sp, #4]
 8004b78:	6833      	ldr	r3, [r6, #0]
 8004b7a:	429a      	cmp	r2, r3
 8004b7c:	d109      	bne.n	8004b92 <pwmStart+0x82>
 8004b7e:	b002      	add	sp, #8
 8004b80:	bd70      	pop	{r4, r5, r6, pc}
 8004b82:	4808      	ldr	r0, [pc, #32]	; (8004ba4 <pwmStart+0x94>)
 8004b84:	f7fd fd54 	bl	8002630 <chSysHalt>
 8004b88:	e7f2      	b.n	8004b70 <pwmStart+0x60>
 8004b8a:	4804      	ldr	r0, [pc, #16]	; (8004b9c <pwmStart+0x8c>)
 8004b8c:	f7fd fd50 	bl	8002630 <chSysHalt>
 8004b90:	e7c9      	b.n	8004b26 <pwmStart+0x16>
 8004b92:	f7fc fb65 	bl	8001260 <__stack_chk_fail>
 8004b96:	bf00      	nop
 8004b98:	20000800 	.word	0x20000800
 8004b9c:	0800eb60 	.word	0x0800eb60
 8004ba0:	20001540 	.word	0x20001540
 8004ba4:	0800eb50 	.word	0x0800eb50
	...

08004bb0 <pwmChangePeriod>:
 8004bb0:	b570      	push	{r4, r5, r6, lr}
 8004bb2:	4e1c      	ldr	r6, [pc, #112]	; (8004c24 <pwmChangePeriod+0x74>)
 8004bb4:	b082      	sub	sp, #8
 8004bb6:	6833      	ldr	r3, [r6, #0]
 8004bb8:	9301      	str	r3, [sp, #4]
 8004bba:	460c      	mov	r4, r1
 8004bbc:	4605      	mov	r5, r0
 8004bbe:	b350      	cbz	r0, 8004c16 <pwmChangePeriod+0x66>
 8004bc0:	2320      	movs	r3, #32
 8004bc2:	f383 8811 	msr	BASEPRI, r3
 8004bc6:	f7fe fdcb 	bl	8003760 <_stats_start_measure_crit_thd>
 8004bca:	f7fd fdd1 	bl	8002770 <_dbg_check_lock>
 8004bce:	782b      	ldrb	r3, [r5, #0]
 8004bd0:	2b02      	cmp	r3, #2
 8004bd2:	d002      	beq.n	8004bda <pwmChangePeriod+0x2a>
 8004bd4:	4814      	ldr	r0, [pc, #80]	; (8004c28 <pwmChangePeriod+0x78>)
 8004bd6:	f7fd fd2b 	bl	8002630 <chSysHalt>
 8004bda:	69ab      	ldr	r3, [r5, #24]
 8004bdc:	60ac      	str	r4, [r5, #8]
 8004bde:	3c01      	subs	r4, #1
 8004be0:	62dc      	str	r4, [r3, #44]	; 0x2c
 8004be2:	f7fd fde5 	bl	80027b0 <_dbg_check_unlock>
 8004be6:	f7fe fdd3 	bl	8003790 <_stats_stop_measure_crit_thd>
 8004bea:	4b10      	ldr	r3, [pc, #64]	; (8004c2c <pwmChangePeriod+0x7c>)
 8004bec:	681a      	ldr	r2, [r3, #0]
 8004bee:	429a      	cmp	r2, r3
 8004bf0:	d004      	beq.n	8004bfc <pwmChangePeriod+0x4c>
 8004bf2:	6999      	ldr	r1, [r3, #24]
 8004bf4:	6893      	ldr	r3, [r2, #8]
 8004bf6:	688a      	ldr	r2, [r1, #8]
 8004bf8:	429a      	cmp	r2, r3
 8004bfa:	d308      	bcc.n	8004c0e <pwmChangePeriod+0x5e>
 8004bfc:	2300      	movs	r3, #0
 8004bfe:	f383 8811 	msr	BASEPRI, r3
 8004c02:	9a01      	ldr	r2, [sp, #4]
 8004c04:	6833      	ldr	r3, [r6, #0]
 8004c06:	429a      	cmp	r2, r3
 8004c08:	d109      	bne.n	8004c1e <pwmChangePeriod+0x6e>
 8004c0a:	b002      	add	sp, #8
 8004c0c:	bd70      	pop	{r4, r5, r6, pc}
 8004c0e:	4808      	ldr	r0, [pc, #32]	; (8004c30 <pwmChangePeriod+0x80>)
 8004c10:	f7fd fd0e 	bl	8002630 <chSysHalt>
 8004c14:	e7f2      	b.n	8004bfc <pwmChangePeriod+0x4c>
 8004c16:	4804      	ldr	r0, [pc, #16]	; (8004c28 <pwmChangePeriod+0x78>)
 8004c18:	f7fd fd0a 	bl	8002630 <chSysHalt>
 8004c1c:	e7d0      	b.n	8004bc0 <pwmChangePeriod+0x10>
 8004c1e:	f7fc fb1f 	bl	8001260 <__stack_chk_fail>
 8004c22:	bf00      	nop
 8004c24:	20000800 	.word	0x20000800
 8004c28:	0800eb70 	.word	0x0800eb70
 8004c2c:	20001540 	.word	0x20001540
 8004c30:	0800eb50 	.word	0x0800eb50
	...

08004c40 <pwmEnableChannel>:
 8004c40:	b5f0      	push	{r4, r5, r6, r7, lr}
 8004c42:	4e21      	ldr	r6, [pc, #132]	; (8004cc8 <pwmEnableChannel+0x88>)
 8004c44:	b083      	sub	sp, #12
 8004c46:	6833      	ldr	r3, [r6, #0]
 8004c48:	9301      	str	r3, [sp, #4]
 8004c4a:	460d      	mov	r5, r1
 8004c4c:	4617      	mov	r7, r2
 8004c4e:	4604      	mov	r4, r0
 8004c50:	b378      	cbz	r0, 8004cb2 <pwmEnableChannel+0x72>
 8004c52:	7c03      	ldrb	r3, [r0, #16]
 8004c54:	428b      	cmp	r3, r1
 8004c56:	d92c      	bls.n	8004cb2 <pwmEnableChannel+0x72>
 8004c58:	2320      	movs	r3, #32
 8004c5a:	f383 8811 	msr	BASEPRI, r3
 8004c5e:	f7fe fd7f 	bl	8003760 <_stats_start_measure_crit_thd>
 8004c62:	f7fd fd85 	bl	8002770 <_dbg_check_lock>
 8004c66:	7823      	ldrb	r3, [r4, #0]
 8004c68:	2b02      	cmp	r3, #2
 8004c6a:	d002      	beq.n	8004c72 <pwmEnableChannel+0x32>
 8004c6c:	4817      	ldr	r0, [pc, #92]	; (8004ccc <pwmEnableChannel+0x8c>)
 8004c6e:	f7fd fcdf 	bl	8002630 <chSysHalt>
 8004c72:	68e3      	ldr	r3, [r4, #12]
 8004c74:	2201      	movs	r2, #1
 8004c76:	40aa      	lsls	r2, r5
 8004c78:	4313      	orrs	r3, r2
 8004c7a:	60e3      	str	r3, [r4, #12]
 8004c7c:	463a      	mov	r2, r7
 8004c7e:	4629      	mov	r1, r5
 8004c80:	4620      	mov	r0, r4
 8004c82:	f005 fce5 	bl	800a650 <pwm_lld_enable_channel>
 8004c86:	f7fd fd93 	bl	80027b0 <_dbg_check_unlock>
 8004c8a:	f7fe fd81 	bl	8003790 <_stats_stop_measure_crit_thd>
 8004c8e:	4b10      	ldr	r3, [pc, #64]	; (8004cd0 <pwmEnableChannel+0x90>)
 8004c90:	681a      	ldr	r2, [r3, #0]
 8004c92:	429a      	cmp	r2, r3
 8004c94:	d004      	beq.n	8004ca0 <pwmEnableChannel+0x60>
 8004c96:	6999      	ldr	r1, [r3, #24]
 8004c98:	6893      	ldr	r3, [r2, #8]
 8004c9a:	688a      	ldr	r2, [r1, #8]
 8004c9c:	429a      	cmp	r2, r3
 8004c9e:	d30c      	bcc.n	8004cba <pwmEnableChannel+0x7a>
 8004ca0:	2300      	movs	r3, #0
 8004ca2:	f383 8811 	msr	BASEPRI, r3
 8004ca6:	9a01      	ldr	r2, [sp, #4]
 8004ca8:	6833      	ldr	r3, [r6, #0]
 8004caa:	429a      	cmp	r2, r3
 8004cac:	d109      	bne.n	8004cc2 <pwmEnableChannel+0x82>
 8004cae:	b003      	add	sp, #12
 8004cb0:	bdf0      	pop	{r4, r5, r6, r7, pc}
 8004cb2:	4806      	ldr	r0, [pc, #24]	; (8004ccc <pwmEnableChannel+0x8c>)
 8004cb4:	f7fd fcbc 	bl	8002630 <chSysHalt>
 8004cb8:	e7ce      	b.n	8004c58 <pwmEnableChannel+0x18>
 8004cba:	4806      	ldr	r0, [pc, #24]	; (8004cd4 <pwmEnableChannel+0x94>)
 8004cbc:	f7fd fcb8 	bl	8002630 <chSysHalt>
 8004cc0:	e7ee      	b.n	8004ca0 <pwmEnableChannel+0x60>
 8004cc2:	f7fc facd 	bl	8001260 <__stack_chk_fail>
 8004cc6:	bf00      	nop
 8004cc8:	20000800 	.word	0x20000800
 8004ccc:	0800eb80 	.word	0x0800eb80
 8004cd0:	20001540 	.word	0x20001540
 8004cd4:	0800eb50 	.word	0x0800eb50
	...

08004ce0 <pwmDisableChannel>:
 8004ce0:	b570      	push	{r4, r5, r6, lr}
 8004ce2:	4e20      	ldr	r6, [pc, #128]	; (8004d64 <pwmDisableChannel+0x84>)
 8004ce4:	b082      	sub	sp, #8
 8004ce6:	6833      	ldr	r3, [r6, #0]
 8004ce8:	9301      	str	r3, [sp, #4]
 8004cea:	460d      	mov	r5, r1
 8004cec:	4604      	mov	r4, r0
 8004cee:	b378      	cbz	r0, 8004d50 <pwmDisableChannel+0x70>
 8004cf0:	7c03      	ldrb	r3, [r0, #16]
 8004cf2:	428b      	cmp	r3, r1
 8004cf4:	d92c      	bls.n	8004d50 <pwmDisableChannel+0x70>
 8004cf6:	2320      	movs	r3, #32
 8004cf8:	f383 8811 	msr	BASEPRI, r3
 8004cfc:	f7fe fd30 	bl	8003760 <_stats_start_measure_crit_thd>
 8004d00:	f7fd fd36 	bl	8002770 <_dbg_check_lock>
 8004d04:	7823      	ldrb	r3, [r4, #0]
 8004d06:	2b02      	cmp	r3, #2
 8004d08:	d002      	beq.n	8004d10 <pwmDisableChannel+0x30>
 8004d0a:	4817      	ldr	r0, [pc, #92]	; (8004d68 <pwmDisableChannel+0x88>)
 8004d0c:	f7fd fc90 	bl	8002630 <chSysHalt>
 8004d10:	68e3      	ldr	r3, [r4, #12]
 8004d12:	2201      	movs	r2, #1
 8004d14:	40aa      	lsls	r2, r5
 8004d16:	ea23 0302 	bic.w	r3, r3, r2
 8004d1a:	60e3      	str	r3, [r4, #12]
 8004d1c:	4629      	mov	r1, r5
 8004d1e:	4620      	mov	r0, r4
 8004d20:	f005 fcae 	bl	800a680 <pwm_lld_disable_channel>
 8004d24:	f7fd fd44 	bl	80027b0 <_dbg_check_unlock>
 8004d28:	f7fe fd32 	bl	8003790 <_stats_stop_measure_crit_thd>
 8004d2c:	4b0f      	ldr	r3, [pc, #60]	; (8004d6c <pwmDisableChannel+0x8c>)
 8004d2e:	681a      	ldr	r2, [r3, #0]
 8004d30:	429a      	cmp	r2, r3
 8004d32:	d004      	beq.n	8004d3e <pwmDisableChannel+0x5e>
 8004d34:	6999      	ldr	r1, [r3, #24]
 8004d36:	6893      	ldr	r3, [r2, #8]
 8004d38:	688a      	ldr	r2, [r1, #8]
 8004d3a:	429a      	cmp	r2, r3
 8004d3c:	d30c      	bcc.n	8004d58 <pwmDisableChannel+0x78>
 8004d3e:	2300      	movs	r3, #0
 8004d40:	f383 8811 	msr	BASEPRI, r3
 8004d44:	9a01      	ldr	r2, [sp, #4]
 8004d46:	6833      	ldr	r3, [r6, #0]
 8004d48:	429a      	cmp	r2, r3
 8004d4a:	d109      	bne.n	8004d60 <pwmDisableChannel+0x80>
 8004d4c:	b002      	add	sp, #8
 8004d4e:	bd70      	pop	{r4, r5, r6, pc}
 8004d50:	4805      	ldr	r0, [pc, #20]	; (8004d68 <pwmDisableChannel+0x88>)
 8004d52:	f7fd fc6d 	bl	8002630 <chSysHalt>
 8004d56:	e7ce      	b.n	8004cf6 <pwmDisableChannel+0x16>
 8004d58:	4805      	ldr	r0, [pc, #20]	; (8004d70 <pwmDisableChannel+0x90>)
 8004d5a:	f7fd fc69 	bl	8002630 <chSysHalt>
 8004d5e:	e7ee      	b.n	8004d3e <pwmDisableChannel+0x5e>
 8004d60:	f7fc fa7e 	bl	8001260 <__stack_chk_fail>
 8004d64:	20000800 	.word	0x20000800
 8004d68:	0800eba0 	.word	0x0800eba0
 8004d6c:	20001540 	.word	0x20001540
 8004d70:	0800eb50 	.word	0x0800eb50
	...

08004d80 <pwmEnablePeriodicNotification>:
 8004d80:	b530      	push	{r4, r5, lr}
 8004d82:	4d1e      	ldr	r5, [pc, #120]	; (8004dfc <pwmEnablePeriodicNotification+0x7c>)
 8004d84:	b083      	sub	sp, #12
 8004d86:	682b      	ldr	r3, [r5, #0]
 8004d88:	9301      	str	r3, [sp, #4]
 8004d8a:	4604      	mov	r4, r0
 8004d8c:	b380      	cbz	r0, 8004df0 <pwmEnablePeriodicNotification+0x70>
 8004d8e:	2320      	movs	r3, #32
 8004d90:	f383 8811 	msr	BASEPRI, r3
 8004d94:	f7fe fce4 	bl	8003760 <_stats_start_measure_crit_thd>
 8004d98:	f7fd fcea 	bl	8002770 <_dbg_check_lock>
 8004d9c:	7823      	ldrb	r3, [r4, #0]
 8004d9e:	2b02      	cmp	r3, #2
 8004da0:	d002      	beq.n	8004da8 <pwmEnablePeriodicNotification+0x28>
 8004da2:	4817      	ldr	r0, [pc, #92]	; (8004e00 <pwmEnablePeriodicNotification+0x80>)
 8004da4:	f7fd fc44 	bl	8002630 <chSysHalt>
 8004da8:	6863      	ldr	r3, [r4, #4]
 8004daa:	689b      	ldr	r3, [r3, #8]
 8004dac:	b1e3      	cbz	r3, 8004de8 <pwmEnablePeriodicNotification+0x68>
 8004dae:	4620      	mov	r0, r4
 8004db0:	f005 fc86 	bl	800a6c0 <pwm_lld_enable_periodic_notification>
 8004db4:	f7fd fcfc 	bl	80027b0 <_dbg_check_unlock>
 8004db8:	f7fe fcea 	bl	8003790 <_stats_stop_measure_crit_thd>
 8004dbc:	4b11      	ldr	r3, [pc, #68]	; (8004e04 <pwmEnablePeriodicNotification+0x84>)
 8004dbe:	681a      	ldr	r2, [r3, #0]
 8004dc0:	429a      	cmp	r2, r3
 8004dc2:	d004      	beq.n	8004dce <pwmEnablePeriodicNotification+0x4e>
 8004dc4:	6999      	ldr	r1, [r3, #24]
 8004dc6:	6893      	ldr	r3, [r2, #8]
 8004dc8:	688a      	ldr	r2, [r1, #8]
 8004dca:	429a      	cmp	r2, r3
 8004dcc:	d308      	bcc.n	8004de0 <pwmEnablePeriodicNotification+0x60>
 8004dce:	2300      	movs	r3, #0
 8004dd0:	f383 8811 	msr	BASEPRI, r3
 8004dd4:	9a01      	ldr	r2, [sp, #4]
 8004dd6:	682b      	ldr	r3, [r5, #0]
 8004dd8:	429a      	cmp	r2, r3
 8004dda:	d10d      	bne.n	8004df8 <pwmEnablePeriodicNotification+0x78>
 8004ddc:	b003      	add	sp, #12
 8004dde:	bd30      	pop	{r4, r5, pc}
 8004de0:	4809      	ldr	r0, [pc, #36]	; (8004e08 <pwmEnablePeriodicNotification+0x88>)
 8004de2:	f7fd fc25 	bl	8002630 <chSysHalt>
 8004de6:	e7f2      	b.n	8004dce <pwmEnablePeriodicNotification+0x4e>
 8004de8:	4805      	ldr	r0, [pc, #20]	; (8004e00 <pwmEnablePeriodicNotification+0x80>)
 8004dea:	f7fd fc21 	bl	8002630 <chSysHalt>
 8004dee:	e7de      	b.n	8004dae <pwmEnablePeriodicNotification+0x2e>
 8004df0:	4803      	ldr	r0, [pc, #12]	; (8004e00 <pwmEnablePeriodicNotification+0x80>)
 8004df2:	f7fd fc1d 	bl	8002630 <chSysHalt>
 8004df6:	e7ca      	b.n	8004d8e <pwmEnablePeriodicNotification+0xe>
 8004df8:	f7fc fa32 	bl	8001260 <__stack_chk_fail>
 8004dfc:	20000800 	.word	0x20000800
 8004e00:	0800ebc0 	.word	0x0800ebc0
 8004e04:	20001540 	.word	0x20001540
 8004e08:	0800eb50 	.word	0x0800eb50
 8004e0c:	00000000 	.word	0x00000000

08004e10 <pwmEnableChannelNotification>:
 8004e10:	b570      	push	{r4, r5, r6, lr}
 8004e12:	4e29      	ldr	r6, [pc, #164]	; (8004eb8 <pwmEnableChannelNotification+0xa8>)
 8004e14:	b082      	sub	sp, #8
 8004e16:	6833      	ldr	r3, [r6, #0]
 8004e18:	9301      	str	r3, [sp, #4]
 8004e1a:	460d      	mov	r5, r1
 8004e1c:	4604      	mov	r4, r0
 8004e1e:	2800      	cmp	r0, #0
 8004e20:	d032      	beq.n	8004e88 <pwmEnableChannelNotification+0x78>
 8004e22:	7c03      	ldrb	r3, [r0, #16]
 8004e24:	428b      	cmp	r3, r1
 8004e26:	d92f      	bls.n	8004e88 <pwmEnableChannelNotification+0x78>
 8004e28:	2320      	movs	r3, #32
 8004e2a:	f383 8811 	msr	BASEPRI, r3
 8004e2e:	f7fe fc97 	bl	8003760 <_stats_start_measure_crit_thd>
 8004e32:	f7fd fc9d 	bl	8002770 <_dbg_check_lock>
 8004e36:	7823      	ldrb	r3, [r4, #0]
 8004e38:	2b02      	cmp	r3, #2
 8004e3a:	d002      	beq.n	8004e42 <pwmEnableChannelNotification+0x32>
 8004e3c:	481f      	ldr	r0, [pc, #124]	; (8004ebc <pwmEnableChannelNotification+0xac>)
 8004e3e:	f7fd fbf7 	bl	8002630 <chSysHalt>
 8004e42:	68e3      	ldr	r3, [r4, #12]
 8004e44:	40eb      	lsrs	r3, r5
 8004e46:	07db      	lsls	r3, r3, #31
 8004e48:	d526      	bpl.n	8004e98 <pwmEnableChannelNotification+0x88>
 8004e4a:	6863      	ldr	r3, [r4, #4]
 8004e4c:	eb03 03c5 	add.w	r3, r3, r5, lsl #3
 8004e50:	691b      	ldr	r3, [r3, #16]
 8004e52:	b353      	cbz	r3, 8004eaa <pwmEnableChannelNotification+0x9a>
 8004e54:	4629      	mov	r1, r5
 8004e56:	4620      	mov	r0, r4
 8004e58:	f005 fc52 	bl	800a700 <pwm_lld_enable_channel_notification>
 8004e5c:	f7fd fca8 	bl	80027b0 <_dbg_check_unlock>
 8004e60:	f7fe fc96 	bl	8003790 <_stats_stop_measure_crit_thd>
 8004e64:	4b16      	ldr	r3, [pc, #88]	; (8004ec0 <pwmEnableChannelNotification+0xb0>)
 8004e66:	681a      	ldr	r2, [r3, #0]
 8004e68:	429a      	cmp	r2, r3
 8004e6a:	d004      	beq.n	8004e76 <pwmEnableChannelNotification+0x66>
 8004e6c:	6999      	ldr	r1, [r3, #24]
 8004e6e:	6893      	ldr	r3, [r2, #8]
 8004e70:	688a      	ldr	r2, [r1, #8]
 8004e72:	429a      	cmp	r2, r3
 8004e74:	d30c      	bcc.n	8004e90 <pwmEnableChannelNotification+0x80>
 8004e76:	2300      	movs	r3, #0
 8004e78:	f383 8811 	msr	BASEPRI, r3
 8004e7c:	9a01      	ldr	r2, [sp, #4]
 8004e7e:	6833      	ldr	r3, [r6, #0]
 8004e80:	429a      	cmp	r2, r3
 8004e82:	d116      	bne.n	8004eb2 <pwmEnableChannelNotification+0xa2>
 8004e84:	b002      	add	sp, #8
 8004e86:	bd70      	pop	{r4, r5, r6, pc}
 8004e88:	480c      	ldr	r0, [pc, #48]	; (8004ebc <pwmEnableChannelNotification+0xac>)
 8004e8a:	f7fd fbd1 	bl	8002630 <chSysHalt>
 8004e8e:	e7cb      	b.n	8004e28 <pwmEnableChannelNotification+0x18>
 8004e90:	480c      	ldr	r0, [pc, #48]	; (8004ec4 <pwmEnableChannelNotification+0xb4>)
 8004e92:	f7fd fbcd 	bl	8002630 <chSysHalt>
 8004e96:	e7ee      	b.n	8004e76 <pwmEnableChannelNotification+0x66>
 8004e98:	4808      	ldr	r0, [pc, #32]	; (8004ebc <pwmEnableChannelNotification+0xac>)
 8004e9a:	f7fd fbc9 	bl	8002630 <chSysHalt>
 8004e9e:	6863      	ldr	r3, [r4, #4]
 8004ea0:	eb03 03c5 	add.w	r3, r3, r5, lsl #3
 8004ea4:	691b      	ldr	r3, [r3, #16]
 8004ea6:	2b00      	cmp	r3, #0
 8004ea8:	d1d4      	bne.n	8004e54 <pwmEnableChannelNotification+0x44>
 8004eaa:	4804      	ldr	r0, [pc, #16]	; (8004ebc <pwmEnableChannelNotification+0xac>)
 8004eac:	f7fd fbc0 	bl	8002630 <chSysHalt>
 8004eb0:	e7d0      	b.n	8004e54 <pwmEnableChannelNotification+0x44>
 8004eb2:	f7fc f9d5 	bl	8001260 <__stack_chk_fail>
 8004eb6:	bf00      	nop
 8004eb8:	20000800 	.word	0x20000800
 8004ebc:	0800ebe0 	.word	0x0800ebe0
 8004ec0:	20001540 	.word	0x20001540
 8004ec4:	0800eb50 	.word	0x0800eb50
	...

08004ed0 <sdcGetInfo>:
 8004ed0:	b570      	push	{r4, r5, r6, lr}
 8004ed2:	4d10      	ldr	r5, [pc, #64]	; (8004f14 <sdcGetInfo+0x44>)
 8004ed4:	b082      	sub	sp, #8
 8004ed6:	682b      	ldr	r3, [r5, #0]
 8004ed8:	9301      	str	r3, [sp, #4]
 8004eda:	460e      	mov	r6, r1
 8004edc:	4604      	mov	r4, r0
 8004ede:	b150      	cbz	r0, 8004ef6 <sdcGetInfo+0x26>
 8004ee0:	b149      	cbz	r1, 8004ef6 <sdcGetInfo+0x26>
 8004ee2:	7923      	ldrb	r3, [r4, #4]
 8004ee4:	2b05      	cmp	r3, #5
 8004ee6:	d00c      	beq.n	8004f02 <sdcGetInfo+0x32>
 8004ee8:	2001      	movs	r0, #1
 8004eea:	9a01      	ldr	r2, [sp, #4]
 8004eec:	682b      	ldr	r3, [r5, #0]
 8004eee:	429a      	cmp	r2, r3
 8004ef0:	d10e      	bne.n	8004f10 <sdcGetInfo+0x40>
 8004ef2:	b002      	add	sp, #8
 8004ef4:	bd70      	pop	{r4, r5, r6, pc}
 8004ef6:	4808      	ldr	r0, [pc, #32]	; (8004f18 <sdcGetInfo+0x48>)
 8004ef8:	f7fd fb9a 	bl	8002630 <chSysHalt>
 8004efc:	7923      	ldrb	r3, [r4, #4]
 8004efe:	2b05      	cmp	r3, #5
 8004f00:	d1f2      	bne.n	8004ee8 <sdcGetInfo+0x18>
 8004f02:	6aa3      	ldr	r3, [r4, #40]	; 0x28
 8004f04:	6073      	str	r3, [r6, #4]
 8004f06:	f44f 7300 	mov.w	r3, #512	; 0x200
 8004f0a:	6033      	str	r3, [r6, #0]
 8004f0c:	2000      	movs	r0, #0
 8004f0e:	e7ec      	b.n	8004eea <sdcGetInfo+0x1a>
 8004f10:	f7fc f9a6 	bl	8001260 <__stack_chk_fail>
 8004f14:	20000800 	.word	0x20000800
 8004f18:	0800ec70 	.word	0x0800ec70
 8004f1c:	00000000 	.word	0x00000000

08004f20 <sdcConnect>:
 8004f20:	e92d 47f0 	stmdb	sp!, {r4, r5, r6, r7, r8, r9, sl, lr}
 8004f24:	f8df 839c 	ldr.w	r8, [pc, #924]	; 80052c4 <sdcConnect+0x3a4>
 8004f28:	b086      	sub	sp, #24
 8004f2a:	af02      	add	r7, sp, #8
 8004f2c:	f8d8 3000 	ldr.w	r3, [r8]
 8004f30:	60fb      	str	r3, [r7, #12]
 8004f32:	4604      	mov	r4, r0
 8004f34:	2800      	cmp	r0, #0
 8004f36:	f000 8119 	beq.w	800516c <sdcConnect+0x24c>
 8004f3a:	7923      	ldrb	r3, [r4, #4]
 8004f3c:	2b02      	cmp	r3, #2
 8004f3e:	d001      	beq.n	8004f44 <sdcConnect+0x24>
 8004f40:	2b05      	cmp	r3, #5
 8004f42:	d12b      	bne.n	8004f9c <sdcConnect+0x7c>
 8004f44:	2303      	movs	r3, #3
 8004f46:	7123      	strb	r3, [r4, #4]
 8004f48:	4620      	mov	r0, r4
 8004f4a:	f002 ff79 	bl	8007e40 <sdc_lld_start_clk>
 8004f4e:	2200      	movs	r2, #0
 8004f50:	4611      	mov	r1, r2
 8004f52:	4620      	mov	r0, r4
 8004f54:	f002 ffec 	bl	8007f30 <sdc_lld_send_cmd_none>
 8004f58:	f107 0308 	add.w	r3, r7, #8
 8004f5c:	f44f 72d5 	mov.w	r2, #426	; 0x1aa
 8004f60:	2108      	movs	r1, #8
 8004f62:	4620      	mov	r0, r4
 8004f64:	f003 f82c 	bl	8007fc0 <sdc_lld_send_cmd_short_crc>
 8004f68:	b9e0      	cbnz	r0, 8004fa4 <sdcConnect+0x84>
 8004f6a:	68bb      	ldr	r3, [r7, #8]
 8004f6c:	2201      	movs	r2, #1
 8004f6e:	f3c3 2303 	ubfx	r3, r3, #8, #4
 8004f72:	4293      	cmp	r3, r2
 8004f74:	6322      	str	r2, [r4, #48]	; 0x30
 8004f76:	f000 80fd 	beq.w	8005174 <sdcConnect+0x254>
 8004f7a:	4620      	mov	r0, r4
 8004f7c:	f002 ff98 	bl	8007eb0 <sdc_lld_stop_clk>
 8004f80:	2302      	movs	r3, #2
 8004f82:	7123      	strb	r3, [r4, #4]
 8004f84:	2501      	movs	r5, #1
 8004f86:	68fa      	ldr	r2, [r7, #12]
 8004f88:	f8d8 3000 	ldr.w	r3, [r8]
 8004f8c:	429a      	cmp	r2, r3
 8004f8e:	4628      	mov	r0, r5
 8004f90:	f040 8146 	bne.w	8005220 <sdcConnect+0x300>
 8004f94:	3710      	adds	r7, #16
 8004f96:	46bd      	mov	sp, r7
 8004f98:	e8bd 87f0 	ldmia.w	sp!, {r4, r5, r6, r7, r8, r9, sl, pc}
 8004f9c:	48c0      	ldr	r0, [pc, #768]	; (80052a0 <sdcConnect+0x380>)
 8004f9e:	f7fd fb47 	bl	8002630 <chSysHalt>
 8004fa2:	e7cf      	b.n	8004f44 <sdcConnect+0x24>
 8004fa4:	f107 0308 	add.w	r3, r7, #8
 8004fa8:	2200      	movs	r2, #0
 8004faa:	2137      	movs	r1, #55	; 0x37
 8004fac:	4620      	mov	r0, r4
 8004fae:	f003 f807 	bl	8007fc0 <sdc_lld_send_cmd_short_crc>
 8004fb2:	2800      	cmp	r0, #0
 8004fb4:	f040 80be 	bne.w	8005134 <sdcConnect+0x214>
 8004fb8:	68bb      	ldr	r3, [r7, #8]
 8004fba:	4aba      	ldr	r2, [pc, #744]	; (80052a4 <sdcConnect+0x384>)
 8004fbc:	401a      	ands	r2, r3
 8004fbe:	2a00      	cmp	r2, #0
 8004fc0:	f040 80b8 	bne.w	8005134 <sdcConnect+0x214>
 8004fc4:	6322      	str	r2, [r4, #48]	; 0x30
 8004fc6:	4611      	mov	r1, r2
 8004fc8:	4620      	mov	r0, r4
 8004fca:	f002 ffb1 	bl	8007f30 <sdc_lld_send_cmd_none>
 8004fce:	6b26      	ldr	r6, [r4, #48]	; 0x30
 8004fd0:	f006 030f 	and.w	r3, r6, #15
 8004fd4:	2b02      	cmp	r3, #2
 8004fd6:	f000 80af 	beq.w	8005138 <sdcConnect+0x218>
 8004fda:	4eb3      	ldr	r6, [pc, #716]	; (80052a8 <sdcConnect+0x388>)
 8004fdc:	4ab3      	ldr	r2, [pc, #716]	; (80052ac <sdcConnect+0x38c>)
 8004fde:	f8df 92c4 	ldr.w	r9, [pc, #708]	; 80052a4 <sdcConnect+0x384>
 8004fe2:	2b01      	cmp	r3, #1
 8004fe4:	bf18      	it	ne
 8004fe6:	4616      	movne	r6, r2
 8004fe8:	2564      	movs	r5, #100	; 0x64
 8004fea:	e004      	b.n	8004ff6 <sdcConnect+0xd6>
 8004fec:	3d01      	subs	r5, #1
 8004fee:	d0c4      	beq.n	8004f7a <sdcConnect+0x5a>
 8004ff0:	200a      	movs	r0, #10
 8004ff2:	f7fe f8f5 	bl	80031e0 <chThdSleep>
 8004ff6:	f107 0308 	add.w	r3, r7, #8
 8004ffa:	2200      	movs	r2, #0
 8004ffc:	2137      	movs	r1, #55	; 0x37
 8004ffe:	4620      	mov	r0, r4
 8005000:	f002 ffde 	bl	8007fc0 <sdc_lld_send_cmd_short_crc>
 8005004:	2800      	cmp	r0, #0
 8005006:	d1b8      	bne.n	8004f7a <sdcConnect+0x5a>
 8005008:	68bb      	ldr	r3, [r7, #8]
 800500a:	ea13 0f09 	tst.w	r3, r9
 800500e:	d1b4      	bne.n	8004f7a <sdcConnect+0x5a>
 8005010:	f107 0308 	add.w	r3, r7, #8
 8005014:	4632      	mov	r2, r6
 8005016:	2129      	movs	r1, #41	; 0x29
 8005018:	4620      	mov	r0, r4
 800501a:	f002 ffa9 	bl	8007f70 <sdc_lld_send_cmd_short>
 800501e:	2800      	cmp	r0, #0
 8005020:	d1ab      	bne.n	8004f7a <sdcConnect+0x5a>
 8005022:	68bb      	ldr	r3, [r7, #8]
 8005024:	2b00      	cmp	r3, #0
 8005026:	dae1      	bge.n	8004fec <sdcConnect+0xcc>
 8005028:	005b      	lsls	r3, r3, #1
 800502a:	d503      	bpl.n	8005034 <sdcConnect+0x114>
 800502c:	6b23      	ldr	r3, [r4, #48]	; 0x30
 800502e:	f043 0310 	orr.w	r3, r3, #16
 8005032:	6323      	str	r3, [r4, #48]	; 0x30
 8005034:	f104 0308 	add.w	r3, r4, #8
 8005038:	2200      	movs	r2, #0
 800503a:	2102      	movs	r1, #2
 800503c:	4620      	mov	r0, r4
 800503e:	f003 f8b7 	bl	80081b0 <sdc_lld_send_cmd_long_crc>
 8005042:	2800      	cmp	r0, #0
 8005044:	d199      	bne.n	8004f7a <sdcConnect+0x5a>
 8005046:	4602      	mov	r2, r0
 8005048:	f104 0338 	add.w	r3, r4, #56	; 0x38
 800504c:	2103      	movs	r1, #3
 800504e:	4620      	mov	r0, r4
 8005050:	f002 ffb6 	bl	8007fc0 <sdc_lld_send_cmd_short_crc>
 8005054:	2800      	cmp	r0, #0
 8005056:	d190      	bne.n	8004f7a <sdcConnect+0x5a>
 8005058:	f104 0518 	add.w	r5, r4, #24
 800505c:	462b      	mov	r3, r5
 800505e:	6ba2      	ldr	r2, [r4, #56]	; 0x38
 8005060:	2109      	movs	r1, #9
 8005062:	4620      	mov	r0, r4
 8005064:	f003 f8a4 	bl	80081b0 <sdc_lld_send_cmd_long_crc>
 8005068:	2800      	cmp	r0, #0
 800506a:	d186      	bne.n	8004f7a <sdcConnect+0x5a>
 800506c:	1d3b      	adds	r3, r7, #4
 800506e:	6ba2      	ldr	r2, [r4, #56]	; 0x38
 8005070:	2107      	movs	r1, #7
 8005072:	4620      	mov	r0, r4
 8005074:	f002 ffa4 	bl	8007fc0 <sdc_lld_send_cmd_short_crc>
 8005078:	4682      	mov	sl, r0
 800507a:	2800      	cmp	r0, #0
 800507c:	f47f af7d 	bne.w	8004f7a <sdcConnect+0x5a>
 8005080:	6b23      	ldr	r3, [r4, #48]	; 0x30
 8005082:	f003 030f 	and.w	r3, r3, #15
 8005086:	2b02      	cmp	r3, #2
 8005088:	f000 8097 	beq.w	80051ba <sdcConnect+0x29a>
 800508c:	466e      	mov	r6, sp
 800508e:	227e      	movs	r2, #126	; 0x7e
 8005090:	b090      	sub	sp, #64	; 0x40
 8005092:	217f      	movs	r1, #127	; 0x7f
 8005094:	4628      	mov	r0, r5
 8005096:	f7ff f99b 	bl	80043d0 <_mmcsd_get_slice>
 800509a:	f10d 0908 	add.w	r9, sp, #8
 800509e:	2800      	cmp	r0, #0
 80050a0:	d179      	bne.n	8005196 <sdcConnect+0x276>
 80050a2:	4601      	mov	r1, r0
 80050a4:	46b5      	mov	sp, r6
 80050a6:	4620      	mov	r0, r4
 80050a8:	f002 feea 	bl	8007e80 <sdc_lld_set_data_clk>
 80050ac:	6b23      	ldr	r3, [r4, #48]	; 0x30
 80050ae:	f003 030f 	and.w	r3, r3, #15
 80050b2:	2b02      	cmp	r3, #2
 80050b4:	f000 8096 	beq.w	80051e4 <sdcConnect+0x2c4>
 80050b8:	4628      	mov	r0, r5
 80050ba:	f7ff f9c9 	bl	8004450 <_mmcsd_get_capacity>
 80050be:	62a0      	str	r0, [r4, #40]	; 0x28
 80050c0:	1d3b      	adds	r3, r7, #4
 80050c2:	f44f 7200 	mov.w	r2, #512	; 0x200
 80050c6:	2110      	movs	r1, #16
 80050c8:	4620      	mov	r0, r4
 80050ca:	f002 ff79 	bl	8007fc0 <sdc_lld_send_cmd_short_crc>
 80050ce:	4605      	mov	r5, r0
 80050d0:	2800      	cmp	r0, #0
 80050d2:	f47f af52 	bne.w	8004f7a <sdcConnect+0x5a>
 80050d6:	687b      	ldr	r3, [r7, #4]
 80050d8:	4e72      	ldr	r6, [pc, #456]	; (80052a4 <sdcConnect+0x384>)
 80050da:	4233      	tst	r3, r6
 80050dc:	f47f af4d 	bne.w	8004f7a <sdcConnect+0x5a>
 80050e0:	6b23      	ldr	r3, [r4, #48]	; 0x30
 80050e2:	f003 030f 	and.w	r3, r3, #15
 80050e6:	2b01      	cmp	r3, #1
 80050e8:	f240 80b2 	bls.w	8005250 <sdcConnect+0x330>
 80050ec:	2b02      	cmp	r3, #2
 80050ee:	f47f af44 	bne.w	8004f7a <sdcConnect+0x5a>
 80050f2:	6ae3      	ldr	r3, [r4, #44]	; 0x2c
 80050f4:	791a      	ldrb	r2, [r3, #4]
 80050f6:	2a01      	cmp	r2, #1
 80050f8:	f000 80a8 	beq.w	800524c <sdcConnect+0x32c>
 80050fc:	d317      	bcc.n	800512e <sdcConnect+0x20e>
 80050fe:	2a02      	cmp	r2, #2
 8005100:	f040 80e2 	bne.w	80052c8 <sdcConnect+0x3a8>
 8005104:	4e6a      	ldr	r6, [pc, #424]	; (80052b0 <sdcConnect+0x390>)
 8005106:	7919      	ldrb	r1, [r3, #4]
 8005108:	4620      	mov	r0, r4
 800510a:	f002 fee9 	bl	8007ee0 <sdc_lld_set_bus_mode>
 800510e:	f107 0308 	add.w	r3, r7, #8
 8005112:	4632      	mov	r2, r6
 8005114:	2106      	movs	r1, #6
 8005116:	4620      	mov	r0, r4
 8005118:	f002 ff52 	bl	8007fc0 <sdc_lld_send_cmd_short_crc>
 800511c:	2800      	cmp	r0, #0
 800511e:	f47f af2c 	bne.w	8004f7a <sdcConnect+0x5a>
 8005122:	68ba      	ldr	r2, [r7, #8]
 8005124:	4b5f      	ldr	r3, [pc, #380]	; (80052a4 <sdcConnect+0x384>)
 8005126:	4013      	ands	r3, r2
 8005128:	2b00      	cmp	r3, #0
 800512a:	f47f af26 	bne.w	8004f7a <sdcConnect+0x5a>
 800512e:	2305      	movs	r3, #5
 8005130:	7123      	strb	r3, [r4, #4]
 8005132:	e728      	b.n	8004f86 <sdcConnect+0x66>
 8005134:	2302      	movs	r3, #2
 8005136:	6323      	str	r3, [r4, #48]	; 0x30
 8005138:	4e5e      	ldr	r6, [pc, #376]	; (80052b4 <sdcConnect+0x394>)
 800513a:	2564      	movs	r5, #100	; 0x64
 800513c:	e005      	b.n	800514a <sdcConnect+0x22a>
 800513e:	3d01      	subs	r5, #1
 8005140:	f43f af1b 	beq.w	8004f7a <sdcConnect+0x5a>
 8005144:	200a      	movs	r0, #10
 8005146:	f7fe f84b 	bl	80031e0 <chThdSleep>
 800514a:	f107 0308 	add.w	r3, r7, #8
 800514e:	4632      	mov	r2, r6
 8005150:	2101      	movs	r1, #1
 8005152:	4620      	mov	r0, r4
 8005154:	f002 ff0c 	bl	8007f70 <sdc_lld_send_cmd_short>
 8005158:	2800      	cmp	r0, #0
 800515a:	f47f af0e 	bne.w	8004f7a <sdcConnect+0x5a>
 800515e:	68bb      	ldr	r3, [r7, #8]
 8005160:	2b00      	cmp	r3, #0
 8005162:	daec      	bge.n	800513e <sdcConnect+0x21e>
 8005164:	005b      	lsls	r3, r3, #1
 8005166:	f57f af65 	bpl.w	8005034 <sdcConnect+0x114>
 800516a:	e75f      	b.n	800502c <sdcConnect+0x10c>
 800516c:	484c      	ldr	r0, [pc, #304]	; (80052a0 <sdcConnect+0x380>)
 800516e:	f7fd fa5f 	bl	8002630 <chSysHalt>
 8005172:	e6e2      	b.n	8004f3a <sdcConnect+0x1a>
 8005174:	4602      	mov	r2, r0
 8005176:	f107 0308 	add.w	r3, r7, #8
 800517a:	2137      	movs	r1, #55	; 0x37
 800517c:	4620      	mov	r0, r4
 800517e:	f002 ff1f 	bl	8007fc0 <sdc_lld_send_cmd_short_crc>
 8005182:	2800      	cmp	r0, #0
 8005184:	f47f aef9 	bne.w	8004f7a <sdcConnect+0x5a>
 8005188:	68ba      	ldr	r2, [r7, #8]
 800518a:	4b46      	ldr	r3, [pc, #280]	; (80052a4 <sdcConnect+0x384>)
 800518c:	4013      	ands	r3, r2
 800518e:	2b00      	cmp	r3, #0
 8005190:	f47f aef3 	bne.w	8004f7a <sdcConnect+0x5a>
 8005194:	e71b      	b.n	8004fce <sdcConnect+0xae>
 8005196:	f8cd a000 	str.w	sl, [sp]
 800519a:	2306      	movs	r3, #6
 800519c:	2240      	movs	r2, #64	; 0x40
 800519e:	4649      	mov	r1, r9
 80051a0:	4620      	mov	r0, r4
 80051a2:	f003 f835 	bl	8008210 <sdc_lld_read_special>
 80051a6:	2800      	cmp	r0, #0
 80051a8:	d14e      	bne.n	8005248 <sdcConnect+0x328>
 80051aa:	f899 300d 	ldrb.w	r3, [r9, #13]
 80051ae:	f013 0302 	ands.w	r3, r3, #2
 80051b2:	d137      	bne.n	8005224 <sdcConnect+0x304>
 80051b4:	4619      	mov	r1, r3
 80051b6:	46b5      	mov	sp, r6
 80051b8:	e775      	b.n	80050a6 <sdcConnect+0x186>
 80051ba:	6ae3      	ldr	r3, [r4, #44]	; 0x2c
 80051bc:	681b      	ldr	r3, [r3, #0]
 80051be:	b17b      	cbz	r3, 80051e0 <sdcConnect+0x2c0>
 80051c0:	f107 0308 	add.w	r3, r7, #8
 80051c4:	4a3c      	ldr	r2, [pc, #240]	; (80052b8 <sdcConnect+0x398>)
 80051c6:	2106      	movs	r1, #6
 80051c8:	4620      	mov	r0, r4
 80051ca:	f002 fef9 	bl	8007fc0 <sdc_lld_send_cmd_short_crc>
 80051ce:	b938      	cbnz	r0, 80051e0 <sdcConnect+0x2c0>
 80051d0:	68bb      	ldr	r3, [r7, #8]
 80051d2:	4934      	ldr	r1, [pc, #208]	; (80052a4 <sdcConnect+0x384>)
 80051d4:	4019      	ands	r1, r3
 80051d6:	fab1 f181 	clz	r1, r1
 80051da:	0949      	lsrs	r1, r1, #5
 80051dc:	e763      	b.n	80050a6 <sdcConnect+0x186>
 80051de:	46b5      	mov	sp, r6
 80051e0:	2100      	movs	r1, #0
 80051e2:	e760      	b.n	80050a6 <sdcConnect+0x186>
 80051e4:	227e      	movs	r2, #126	; 0x7e
 80051e6:	217f      	movs	r1, #127	; 0x7f
 80051e8:	4628      	mov	r0, r5
 80051ea:	f7ff f8f1 	bl	80043d0 <_mmcsd_get_slice>
 80051ee:	2801      	cmp	r0, #1
 80051f0:	f67f af62 	bls.w	80050b8 <sdcConnect+0x198>
 80051f4:	6ae3      	ldr	r3, [r4, #44]	; 0x2c
 80051f6:	681d      	ldr	r5, [r3, #0]
 80051f8:	2d00      	cmp	r5, #0
 80051fa:	f43f aebe 	beq.w	8004f7a <sdcConnect+0x5a>
 80051fe:	2300      	movs	r3, #0
 8005200:	9300      	str	r3, [sp, #0]
 8005202:	f44f 7200 	mov.w	r2, #512	; 0x200
 8005206:	2308      	movs	r3, #8
 8005208:	4629      	mov	r1, r5
 800520a:	4620      	mov	r0, r4
 800520c:	f003 f800 	bl	8008210 <sdc_lld_read_special>
 8005210:	2800      	cmp	r0, #0
 8005212:	f47f aeb2 	bne.w	8004f7a <sdcConnect+0x5a>
 8005216:	4628      	mov	r0, r5
 8005218:	f7ff f95a 	bl	80044d0 <_mmcsd_get_capacity_ext>
 800521c:	62a0      	str	r0, [r4, #40]	; 0x28
 800521e:	e74f      	b.n	80050c0 <sdcConnect+0x1a0>
 8005220:	f7fc f81e 	bl	8001260 <__stack_chk_fail>
 8005224:	4b25      	ldr	r3, [pc, #148]	; (80052bc <sdcConnect+0x39c>)
 8005226:	9300      	str	r3, [sp, #0]
 8005228:	2240      	movs	r2, #64	; 0x40
 800522a:	2306      	movs	r3, #6
 800522c:	4649      	mov	r1, r9
 800522e:	4620      	mov	r0, r4
 8005230:	f002 ffee 	bl	8008210 <sdc_lld_read_special>
 8005234:	b940      	cbnz	r0, 8005248 <sdcConnect+0x328>
 8005236:	f899 3010 	ldrb.w	r3, [r9, #16]
 800523a:	f003 030f 	and.w	r3, r3, #15
 800523e:	2b0f      	cmp	r3, #15
 8005240:	d0cd      	beq.n	80051de <sdcConnect+0x2be>
 8005242:	46b5      	mov	sp, r6
 8005244:	2101      	movs	r1, #1
 8005246:	e72e      	b.n	80050a6 <sdcConnect+0x186>
 8005248:	46b5      	mov	sp, r6
 800524a:	e696      	b.n	8004f7a <sdcConnect+0x5a>
 800524c:	4e1c      	ldr	r6, [pc, #112]	; (80052c0 <sdcConnect+0x3a0>)
 800524e:	e75a      	b.n	8005106 <sdcConnect+0x1e6>
 8005250:	6ae3      	ldr	r3, [r4, #44]	; 0x2c
 8005252:	7919      	ldrb	r1, [r3, #4]
 8005254:	2900      	cmp	r1, #0
 8005256:	f43f af6a 	beq.w	800512e <sdcConnect+0x20e>
 800525a:	2901      	cmp	r1, #1
 800525c:	f47f ae8d 	bne.w	8004f7a <sdcConnect+0x5a>
 8005260:	4620      	mov	r0, r4
 8005262:	f002 fe3d 	bl	8007ee0 <sdc_lld_set_bus_mode>
 8005266:	f107 0308 	add.w	r3, r7, #8
 800526a:	6ba2      	ldr	r2, [r4, #56]	; 0x38
 800526c:	2137      	movs	r1, #55	; 0x37
 800526e:	4620      	mov	r0, r4
 8005270:	f002 fea6 	bl	8007fc0 <sdc_lld_send_cmd_short_crc>
 8005274:	2800      	cmp	r0, #0
 8005276:	f47f ae80 	bne.w	8004f7a <sdcConnect+0x5a>
 800527a:	68bb      	ldr	r3, [r7, #8]
 800527c:	4233      	tst	r3, r6
 800527e:	f47f ae7c 	bne.w	8004f7a <sdcConnect+0x5a>
 8005282:	f107 0308 	add.w	r3, r7, #8
 8005286:	2202      	movs	r2, #2
 8005288:	2106      	movs	r1, #6
 800528a:	4620      	mov	r0, r4
 800528c:	f002 fe98 	bl	8007fc0 <sdc_lld_send_cmd_short_crc>
 8005290:	2800      	cmp	r0, #0
 8005292:	f47f ae72 	bne.w	8004f7a <sdcConnect+0x5a>
 8005296:	68bb      	ldr	r3, [r7, #8]
 8005298:	4233      	tst	r3, r6
 800529a:	f43f af48 	beq.w	800512e <sdcConnect+0x20e>
 800529e:	e66c      	b.n	8004f7a <sdcConnect+0x5a>
 80052a0:	0800ec20 	.word	0x0800ec20
 80052a4:	fdffe008 	.word	0xfdffe008
 80052a8:	c0100000 	.word	0xc0100000
 80052ac:	80100000 	.word	0x80100000
 80052b0:	03b70200 	.word	0x03b70200
 80052b4:	c0ff8000 	.word	0xc0ff8000
 80052b8:	03b90100 	.word	0x03b90100
 80052bc:	80fffff1 	.word	0x80fffff1
 80052c0:	03b70100 	.word	0x03b70100
 80052c4:	20000800 	.word	0x20000800
 80052c8:	4802      	ldr	r0, [pc, #8]	; (80052d4 <sdcConnect+0x3b4>)
 80052ca:	4e03      	ldr	r6, [pc, #12]	; (80052d8 <sdcConnect+0x3b8>)
 80052cc:	f7fd f9b0 	bl	8002630 <chSysHalt>
 80052d0:	6ae3      	ldr	r3, [r4, #44]	; 0x2c
 80052d2:	e718      	b.n	8005106 <sdcConnect+0x1e6>
 80052d4:	0800ec00 	.word	0x0800ec00
 80052d8:	03b70000 	.word	0x03b70000
 80052dc:	00000000 	.word	0x00000000

080052e0 <sdcRead>:
 80052e0:	e92d 41f0 	stmdb	sp!, {r4, r5, r6, r7, r8, lr}
 80052e4:	4d19      	ldr	r5, [pc, #100]	; (800534c <sdcRead+0x6c>)
 80052e6:	b082      	sub	sp, #8
 80052e8:	682c      	ldr	r4, [r5, #0]
 80052ea:	9401      	str	r4, [sp, #4]
 80052ec:	460f      	mov	r7, r1
 80052ee:	4690      	mov	r8, r2
 80052f0:	461e      	mov	r6, r3
 80052f2:	4604      	mov	r4, r0
 80052f4:	b1c0      	cbz	r0, 8005328 <sdcRead+0x48>
 80052f6:	b1ba      	cbz	r2, 8005328 <sdcRead+0x48>
 80052f8:	b1b3      	cbz	r3, 8005328 <sdcRead+0x48>
 80052fa:	7923      	ldrb	r3, [r4, #4]
 80052fc:	2b05      	cmp	r3, #5
 80052fe:	d002      	beq.n	8005306 <sdcRead+0x26>
 8005300:	4813      	ldr	r0, [pc, #76]	; (8005350 <sdcRead+0x70>)
 8005302:	f7fd f995 	bl	8002630 <chSysHalt>
 8005306:	1e78      	subs	r0, r7, #1
 8005308:	6aa3      	ldr	r3, [r4, #40]	; 0x28
 800530a:	4430      	add	r0, r6
 800530c:	4298      	cmp	r0, r3
 800530e:	d90f      	bls.n	8005330 <sdcRead+0x50>
 8005310:	6b63      	ldr	r3, [r4, #52]	; 0x34
 8005312:	f043 0380 	orr.w	r3, r3, #128	; 0x80
 8005316:	6363      	str	r3, [r4, #52]	; 0x34
 8005318:	2001      	movs	r0, #1
 800531a:	9a01      	ldr	r2, [sp, #4]
 800531c:	682b      	ldr	r3, [r5, #0]
 800531e:	429a      	cmp	r2, r3
 8005320:	d111      	bne.n	8005346 <sdcRead+0x66>
 8005322:	b002      	add	sp, #8
 8005324:	e8bd 81f0 	ldmia.w	sp!, {r4, r5, r6, r7, r8, pc}
 8005328:	4809      	ldr	r0, [pc, #36]	; (8005350 <sdcRead+0x70>)
 800532a:	f7fd f981 	bl	8002630 <chSysHalt>
 800532e:	e7e4      	b.n	80052fa <sdcRead+0x1a>
 8005330:	2006      	movs	r0, #6
 8005332:	4633      	mov	r3, r6
 8005334:	7120      	strb	r0, [r4, #4]
 8005336:	4642      	mov	r2, r8
 8005338:	4639      	mov	r1, r7
 800533a:	4620      	mov	r0, r4
 800533c:	f003 f8c8 	bl	80084d0 <sdc_lld_read>
 8005340:	2305      	movs	r3, #5
 8005342:	7123      	strb	r3, [r4, #4]
 8005344:	e7e9      	b.n	800531a <sdcRead+0x3a>
 8005346:	f7fb ff8b 	bl	8001260 <__stack_chk_fail>
 800534a:	bf00      	nop
 800534c:	20000800 	.word	0x20000800
 8005350:	0800ec40 	.word	0x0800ec40
	...

08005360 <sdcWrite>:
 8005360:	e92d 41f0 	stmdb	sp!, {r4, r5, r6, r7, r8, lr}
 8005364:	4d19      	ldr	r5, [pc, #100]	; (80053cc <sdcWrite+0x6c>)
 8005366:	b082      	sub	sp, #8
 8005368:	682c      	ldr	r4, [r5, #0]
 800536a:	9401      	str	r4, [sp, #4]
 800536c:	460f      	mov	r7, r1
 800536e:	4690      	mov	r8, r2
 8005370:	461e      	mov	r6, r3
 8005372:	4604      	mov	r4, r0
 8005374:	b1c0      	cbz	r0, 80053a8 <sdcWrite+0x48>
 8005376:	b1ba      	cbz	r2, 80053a8 <sdcWrite+0x48>
 8005378:	b1b3      	cbz	r3, 80053a8 <sdcWrite+0x48>
 800537a:	7923      	ldrb	r3, [r4, #4]
 800537c:	2b05      	cmp	r3, #5
 800537e:	d002      	beq.n	8005386 <sdcWrite+0x26>
 8005380:	4813      	ldr	r0, [pc, #76]	; (80053d0 <sdcWrite+0x70>)
 8005382:	f7fd f955 	bl	8002630 <chSysHalt>
 8005386:	1e78      	subs	r0, r7, #1
 8005388:	6aa3      	ldr	r3, [r4, #40]	; 0x28
 800538a:	4430      	add	r0, r6
 800538c:	4298      	cmp	r0, r3
 800538e:	d90f      	bls.n	80053b0 <sdcWrite+0x50>
 8005390:	6b63      	ldr	r3, [r4, #52]	; 0x34
 8005392:	f043 0380 	orr.w	r3, r3, #128	; 0x80
 8005396:	6363      	str	r3, [r4, #52]	; 0x34
 8005398:	2001      	movs	r0, #1
 800539a:	9a01      	ldr	r2, [sp, #4]
 800539c:	682b      	ldr	r3, [r5, #0]
 800539e:	429a      	cmp	r2, r3
 80053a0:	d111      	bne.n	80053c6 <sdcWrite+0x66>
 80053a2:	b002      	add	sp, #8
 80053a4:	e8bd 81f0 	ldmia.w	sp!, {r4, r5, r6, r7, r8, pc}
 80053a8:	4809      	ldr	r0, [pc, #36]	; (80053d0 <sdcWrite+0x70>)
 80053aa:	f7fd f941 	bl	8002630 <chSysHalt>
 80053ae:	e7e4      	b.n	800537a <sdcWrite+0x1a>
 80053b0:	2007      	movs	r0, #7
 80053b2:	4633      	mov	r3, r6
 80053b4:	7120      	strb	r0, [r4, #4]
 80053b6:	4642      	mov	r2, r8
 80053b8:	4639      	mov	r1, r7
 80053ba:	4620      	mov	r0, r4
 80053bc:	f003 f8c8 	bl	8008550 <sdc_lld_write>
 80053c0:	2305      	movs	r3, #5
 80053c2:	7123      	strb	r3, [r4, #4]
 80053c4:	e7e9      	b.n	800539a <sdcWrite+0x3a>
 80053c6:	f7fb ff4b 	bl	8001260 <__stack_chk_fail>
 80053ca:	bf00      	nop
 80053cc:	20000800 	.word	0x20000800
 80053d0:	0800ec50 	.word	0x0800ec50
	...

080053e0 <sdcSync>:
 80053e0:	b570      	push	{r4, r5, r6, lr}
 80053e2:	4d0e      	ldr	r5, [pc, #56]	; (800541c <sdcSync+0x3c>)
 80053e4:	b082      	sub	sp, #8
 80053e6:	682b      	ldr	r3, [r5, #0]
 80053e8:	9301      	str	r3, [sp, #4]
 80053ea:	4604      	mov	r4, r0
 80053ec:	b180      	cbz	r0, 8005410 <sdcSync+0x30>
 80053ee:	7926      	ldrb	r6, [r4, #4]
 80053f0:	2e05      	cmp	r6, #5
 80053f2:	d006      	beq.n	8005402 <sdcSync+0x22>
 80053f4:	2001      	movs	r0, #1
 80053f6:	9a01      	ldr	r2, [sp, #4]
 80053f8:	682b      	ldr	r3, [r5, #0]
 80053fa:	429a      	cmp	r2, r3
 80053fc:	d10c      	bne.n	8005418 <sdcSync+0x38>
 80053fe:	b002      	add	sp, #8
 8005400:	bd70      	pop	{r4, r5, r6, pc}
 8005402:	2308      	movs	r3, #8
 8005404:	7123      	strb	r3, [r4, #4]
 8005406:	4620      	mov	r0, r4
 8005408:	f003 f8e2 	bl	80085d0 <sdc_lld_sync>
 800540c:	7126      	strb	r6, [r4, #4]
 800540e:	e7f2      	b.n	80053f6 <sdcSync+0x16>
 8005410:	4803      	ldr	r0, [pc, #12]	; (8005420 <sdcSync+0x40>)
 8005412:	f7fd f90d 	bl	8002630 <chSysHalt>
 8005416:	e7ea      	b.n	80053ee <sdcSync+0xe>
 8005418:	f7fb ff22 	bl	8001260 <__stack_chk_fail>
 800541c:	20000800 	.word	0x20000800
 8005420:	0800ec60 	.word	0x0800ec60
	...

08005430 <_sdc_wait_for_transfer_state>:
 8005430:	b570      	push	{r4, r5, r6, lr}
 8005432:	4d12      	ldr	r5, [pc, #72]	; (800547c <_sdc_wait_for_transfer_state+0x4c>)
 8005434:	4e12      	ldr	r6, [pc, #72]	; (8005480 <_sdc_wait_for_transfer_state+0x50>)
 8005436:	682b      	ldr	r3, [r5, #0]
 8005438:	b082      	sub	sp, #8
 800543a:	4604      	mov	r4, r0
 800543c:	9301      	str	r3, [sp, #4]
 800543e:	466b      	mov	r3, sp
 8005440:	6ba2      	ldr	r2, [r4, #56]	; 0x38
 8005442:	210d      	movs	r1, #13
 8005444:	4620      	mov	r0, r4
 8005446:	f002 fdbb 	bl	8007fc0 <sdc_lld_send_cmd_short_crc>
 800544a:	b978      	cbnz	r0, 800546c <_sdc_wait_for_transfer_state+0x3c>
 800544c:	9b00      	ldr	r3, [sp, #0]
 800544e:	4233      	tst	r3, r6
 8005450:	d10b      	bne.n	800546a <_sdc_wait_for_transfer_state+0x3a>
 8005452:	f3c3 2343 	ubfx	r3, r3, #9, #4
 8005456:	2b04      	cmp	r3, #4
 8005458:	d008      	beq.n	800546c <_sdc_wait_for_transfer_state+0x3c>
 800545a:	f04f 0001 	mov.w	r0, #1
 800545e:	d305      	bcc.n	800546c <_sdc_wait_for_transfer_state+0x3c>
 8005460:	2b07      	cmp	r3, #7
 8005462:	d803      	bhi.n	800546c <_sdc_wait_for_transfer_state+0x3c>
 8005464:	f7fd febc 	bl	80031e0 <chThdSleep>
 8005468:	e7e9      	b.n	800543e <_sdc_wait_for_transfer_state+0xe>
 800546a:	2001      	movs	r0, #1
 800546c:	9a01      	ldr	r2, [sp, #4]
 800546e:	682b      	ldr	r3, [r5, #0]
 8005470:	429a      	cmp	r2, r3
 8005472:	d101      	bne.n	8005478 <_sdc_wait_for_transfer_state+0x48>
 8005474:	b002      	add	sp, #8
 8005476:	bd70      	pop	{r4, r5, r6, pc}
 8005478:	f7fb fef2 	bl	8001260 <__stack_chk_fail>
 800547c:	20000800 	.word	0x20000800
 8005480:	fdffe008 	.word	0xfdffe008
	...

08005490 <sdcDisconnect>:
 8005490:	b570      	push	{r4, r5, r6, lr}
 8005492:	4e2d      	ldr	r6, [pc, #180]	; (8005548 <sdcDisconnect+0xb8>)
 8005494:	b082      	sub	sp, #8
 8005496:	6833      	ldr	r3, [r6, #0]
 8005498:	9301      	str	r3, [sp, #4]
 800549a:	4604      	mov	r4, r0
 800549c:	2800      	cmp	r0, #0
 800549e:	d04c      	beq.n	800553a <sdcDisconnect+0xaa>
 80054a0:	2320      	movs	r3, #32
 80054a2:	f383 8811 	msr	BASEPRI, r3
 80054a6:	f7fe f95b 	bl	8003760 <_stats_start_measure_crit_thd>
 80054aa:	f7fd f961 	bl	8002770 <_dbg_check_lock>
 80054ae:	7923      	ldrb	r3, [r4, #4]
 80054b0:	2b02      	cmp	r3, #2
 80054b2:	d029      	beq.n	8005508 <sdcDisconnect+0x78>
 80054b4:	2b05      	cmp	r3, #5
 80054b6:	d121      	bne.n	80054fc <sdcDisconnect+0x6c>
 80054b8:	2304      	movs	r3, #4
 80054ba:	7123      	strb	r3, [r4, #4]
 80054bc:	f7fd f978 	bl	80027b0 <_dbg_check_unlock>
 80054c0:	f7fe f966 	bl	8003790 <_stats_stop_measure_crit_thd>
 80054c4:	4b21      	ldr	r3, [pc, #132]	; (800554c <sdcDisconnect+0xbc>)
 80054c6:	681a      	ldr	r2, [r3, #0]
 80054c8:	429a      	cmp	r2, r3
 80054ca:	d004      	beq.n	80054d6 <sdcDisconnect+0x46>
 80054cc:	6999      	ldr	r1, [r3, #24]
 80054ce:	6893      	ldr	r3, [r2, #8]
 80054d0:	688a      	ldr	r2, [r1, #8]
 80054d2:	429a      	cmp	r2, r3
 80054d4:	d329      	bcc.n	800552a <sdcDisconnect+0x9a>
 80054d6:	2300      	movs	r3, #0
 80054d8:	f383 8811 	msr	BASEPRI, r3
 80054dc:	4620      	mov	r0, r4
 80054de:	f7ff ffa7 	bl	8005430 <_sdc_wait_for_transfer_state>
 80054e2:	4605      	mov	r5, r0
 80054e4:	4620      	mov	r0, r4
 80054e6:	f002 fce3 	bl	8007eb0 <sdc_lld_stop_clk>
 80054ea:	2302      	movs	r3, #2
 80054ec:	7123      	strb	r3, [r4, #4]
 80054ee:	9a01      	ldr	r2, [sp, #4]
 80054f0:	6833      	ldr	r3, [r6, #0]
 80054f2:	429a      	cmp	r2, r3
 80054f4:	4628      	mov	r0, r5
 80054f6:	d124      	bne.n	8005542 <sdcDisconnect+0xb2>
 80054f8:	b002      	add	sp, #8
 80054fa:	bd70      	pop	{r4, r5, r6, pc}
 80054fc:	4814      	ldr	r0, [pc, #80]	; (8005550 <sdcDisconnect+0xc0>)
 80054fe:	f7fd f897 	bl	8002630 <chSysHalt>
 8005502:	7923      	ldrb	r3, [r4, #4]
 8005504:	2b02      	cmp	r3, #2
 8005506:	d1d7      	bne.n	80054b8 <sdcDisconnect+0x28>
 8005508:	f7fd f952 	bl	80027b0 <_dbg_check_unlock>
 800550c:	f7fe f940 	bl	8003790 <_stats_stop_measure_crit_thd>
 8005510:	4b0e      	ldr	r3, [pc, #56]	; (800554c <sdcDisconnect+0xbc>)
 8005512:	681a      	ldr	r2, [r3, #0]
 8005514:	429a      	cmp	r2, r3
 8005516:	d004      	beq.n	8005522 <sdcDisconnect+0x92>
 8005518:	6999      	ldr	r1, [r3, #24]
 800551a:	6893      	ldr	r3, [r2, #8]
 800551c:	688a      	ldr	r2, [r1, #8]
 800551e:	429a      	cmp	r2, r3
 8005520:	d307      	bcc.n	8005532 <sdcDisconnect+0xa2>
 8005522:	2500      	movs	r5, #0
 8005524:	f385 8811 	msr	BASEPRI, r5
 8005528:	e7e1      	b.n	80054ee <sdcDisconnect+0x5e>
 800552a:	480a      	ldr	r0, [pc, #40]	; (8005554 <sdcDisconnect+0xc4>)
 800552c:	f7fd f880 	bl	8002630 <chSysHalt>
 8005530:	e7d1      	b.n	80054d6 <sdcDisconnect+0x46>
 8005532:	4808      	ldr	r0, [pc, #32]	; (8005554 <sdcDisconnect+0xc4>)
 8005534:	f7fd f87c 	bl	8002630 <chSysHalt>
 8005538:	e7f3      	b.n	8005522 <sdcDisconnect+0x92>
 800553a:	4805      	ldr	r0, [pc, #20]	; (8005550 <sdcDisconnect+0xc0>)
 800553c:	f7fd f878 	bl	8002630 <chSysHalt>
 8005540:	e7ae      	b.n	80054a0 <sdcDisconnect+0x10>
 8005542:	f7fb fe8d 	bl	8001260 <__stack_chk_fail>
 8005546:	bf00      	nop
 8005548:	20000800 	.word	0x20000800
 800554c:	20001540 	.word	0x20001540
 8005550:	0800ec30 	.word	0x0800ec30
 8005554:	0800ec80 	.word	0x0800ec80
	...

08005560 <sdcInit>:
 8005560:	b500      	push	{lr}
 8005562:	4b07      	ldr	r3, [pc, #28]	; (8005580 <sdcInit+0x20>)
 8005564:	b083      	sub	sp, #12
 8005566:	681a      	ldr	r2, [r3, #0]
 8005568:	9201      	str	r2, [sp, #4]
 800556a:	9a01      	ldr	r2, [sp, #4]
 800556c:	681b      	ldr	r3, [r3, #0]
 800556e:	429a      	cmp	r2, r3
 8005570:	d104      	bne.n	800557c <sdcInit+0x1c>
 8005572:	b003      	add	sp, #12
 8005574:	f85d eb04 	ldr.w	lr, [sp], #4
 8005578:	f002 bc42 	b.w	8007e00 <sdc_lld_init>
 800557c:	f7fb fe70 	bl	8001260 <__stack_chk_fail>
 8005580:	20000800 	.word	0x20000800
	...

08005590 <sdcObjectInit>:
 8005590:	b510      	push	{r4, lr}
 8005592:	4b0a      	ldr	r3, [pc, #40]	; (80055bc <sdcObjectInit+0x2c>)
 8005594:	4a0a      	ldr	r2, [pc, #40]	; (80055c0 <sdcObjectInit+0x30>)
 8005596:	6819      	ldr	r1, [r3, #0]
 8005598:	6002      	str	r2, [r0, #0]
 800559a:	b082      	sub	sp, #8
 800559c:	2401      	movs	r4, #1
 800559e:	9101      	str	r1, [sp, #4]
 80055a0:	9901      	ldr	r1, [sp, #4]
 80055a2:	681a      	ldr	r2, [r3, #0]
 80055a4:	7104      	strb	r4, [r0, #4]
 80055a6:	2300      	movs	r3, #0
 80055a8:	4291      	cmp	r1, r2
 80055aa:	6343      	str	r3, [r0, #52]	; 0x34
 80055ac:	e9c0 330a 	strd	r3, r3, [r0, #40]	; 0x28
 80055b0:	d101      	bne.n	80055b6 <sdcObjectInit+0x26>
 80055b2:	b002      	add	sp, #8
 80055b4:	bd10      	pop	{r4, pc}
 80055b6:	f7fb fe53 	bl	8001260 <__stack_chk_fail>
 80055ba:	bf00      	nop
 80055bc:	20000800 	.word	0x20000800
 80055c0:	0800ec90 	.word	0x0800ec90
	...

080055d0 <readt>:
 80055d0:	b530      	push	{r4, r5, lr}
 80055d2:	4c08      	ldr	r4, [pc, #32]	; (80055f4 <readt+0x24>)
 80055d4:	b083      	sub	sp, #12
 80055d6:	6825      	ldr	r5, [r4, #0]
 80055d8:	9501      	str	r5, [sp, #4]
 80055da:	9d01      	ldr	r5, [sp, #4]
 80055dc:	6824      	ldr	r4, [r4, #0]
 80055de:	42a5      	cmp	r5, r4
 80055e0:	d105      	bne.n	80055ee <readt+0x1e>
 80055e2:	300c      	adds	r0, #12
 80055e4:	b003      	add	sp, #12
 80055e6:	e8bd 4030 	ldmia.w	sp!, {r4, r5, lr}
 80055ea:	f7fe bbe9 	b.w	8003dc0 <chIQReadTimeout>
 80055ee:	f7fb fe37 	bl	8001260 <__stack_chk_fail>
 80055f2:	bf00      	nop
 80055f4:	20000800 	.word	0x20000800
	...

08005600 <read>:
 8005600:	b510      	push	{r4, lr}
 8005602:	4b09      	ldr	r3, [pc, #36]	; (8005628 <read+0x28>)
 8005604:	b082      	sub	sp, #8
 8005606:	681c      	ldr	r4, [r3, #0]
 8005608:	9401      	str	r4, [sp, #4]
 800560a:	9c01      	ldr	r4, [sp, #4]
 800560c:	681b      	ldr	r3, [r3, #0]
 800560e:	429c      	cmp	r4, r3
 8005610:	d107      	bne.n	8005622 <read+0x22>
 8005612:	300c      	adds	r0, #12
 8005614:	f04f 33ff 	mov.w	r3, #4294967295
 8005618:	b002      	add	sp, #8
 800561a:	e8bd 4010 	ldmia.w	sp!, {r4, lr}
 800561e:	f7fe bbcf 	b.w	8003dc0 <chIQReadTimeout>
 8005622:	f7fb fe1d 	bl	8001260 <__stack_chk_fail>
 8005626:	bf00      	nop
 8005628:	20000800 	.word	0x20000800
 800562c:	00000000 	.word	0x00000000

08005630 <writet>:
 8005630:	b530      	push	{r4, r5, lr}
 8005632:	4c08      	ldr	r4, [pc, #32]	; (8005654 <writet+0x24>)
 8005634:	b083      	sub	sp, #12
 8005636:	6825      	ldr	r5, [r4, #0]
 8005638:	9501      	str	r5, [sp, #4]
 800563a:	9d01      	ldr	r5, [sp, #4]
 800563c:	6824      	ldr	r4, [r4, #0]
 800563e:	42a5      	cmp	r5, r4
 8005640:	d105      	bne.n	800564e <writet+0x1e>
 8005642:	3030      	adds	r0, #48	; 0x30
 8005644:	b003      	add	sp, #12
 8005646:	e8bd 4030 	ldmia.w	sp!, {r4, r5, lr}
 800564a:	f7fe bd11 	b.w	8004070 <chOQWriteTimeout>
 800564e:	f7fb fe07 	bl	8001260 <__stack_chk_fail>
 8005652:	bf00      	nop
 8005654:	20000800 	.word	0x20000800
	...

08005660 <write>:
 8005660:	b510      	push	{r4, lr}
 8005662:	4b09      	ldr	r3, [pc, #36]	; (8005688 <write+0x28>)
 8005664:	b082      	sub	sp, #8
 8005666:	681c      	ldr	r4, [r3, #0]
 8005668:	9401      	str	r4, [sp, #4]
 800566a:	9c01      	ldr	r4, [sp, #4]
 800566c:	681b      	ldr	r3, [r3, #0]
 800566e:	429c      	cmp	r4, r3
 8005670:	d107      	bne.n	8005682 <write+0x22>
 8005672:	3030      	adds	r0, #48	; 0x30
 8005674:	f04f 33ff 	mov.w	r3, #4294967295
 8005678:	b002      	add	sp, #8
 800567a:	e8bd 4010 	ldmia.w	sp!, {r4, lr}
 800567e:	f7fe bcf7 	b.w	8004070 <chOQWriteTimeout>
 8005682:	f7fb fded 	bl	8001260 <__stack_chk_fail>
 8005686:	bf00      	nop
 8005688:	20000800 	.word	0x20000800
 800568c:	00000000 	.word	0x00000000

08005690 <gett>:
 8005690:	b500      	push	{lr}
 8005692:	4b08      	ldr	r3, [pc, #32]	; (80056b4 <gett+0x24>)
 8005694:	b083      	sub	sp, #12
 8005696:	681a      	ldr	r2, [r3, #0]
 8005698:	9201      	str	r2, [sp, #4]
 800569a:	9a01      	ldr	r2, [sp, #4]
 800569c:	681b      	ldr	r3, [r3, #0]
 800569e:	429a      	cmp	r2, r3
 80056a0:	d105      	bne.n	80056ae <gett+0x1e>
 80056a2:	300c      	adds	r0, #12
 80056a4:	b003      	add	sp, #12
 80056a6:	f85d eb04 	ldr.w	lr, [sp], #4
 80056aa:	f7fe bb39 	b.w	8003d20 <chIQGetTimeout>
 80056ae:	f7fb fdd7 	bl	8001260 <__stack_chk_fail>
 80056b2:	bf00      	nop
 80056b4:	20000800 	.word	0x20000800
	...

080056c0 <get>:
 80056c0:	b500      	push	{lr}
 80056c2:	4b09      	ldr	r3, [pc, #36]	; (80056e8 <get+0x28>)
 80056c4:	b083      	sub	sp, #12
 80056c6:	681a      	ldr	r2, [r3, #0]
 80056c8:	9201      	str	r2, [sp, #4]
 80056ca:	9a01      	ldr	r2, [sp, #4]
 80056cc:	681b      	ldr	r3, [r3, #0]
 80056ce:	429a      	cmp	r2, r3
 80056d0:	d107      	bne.n	80056e2 <get+0x22>
 80056d2:	300c      	adds	r0, #12
 80056d4:	f04f 31ff 	mov.w	r1, #4294967295
 80056d8:	b003      	add	sp, #12
 80056da:	f85d eb04 	ldr.w	lr, [sp], #4
 80056de:	f7fe bb1f 	b.w	8003d20 <chIQGetTimeout>
 80056e2:	f7fb fdbd 	bl	8001260 <__stack_chk_fail>
 80056e6:	bf00      	nop
 80056e8:	20000800 	.word	0x20000800
 80056ec:	00000000 	.word	0x00000000

080056f0 <putt>:
 80056f0:	b510      	push	{r4, lr}
 80056f2:	4b08      	ldr	r3, [pc, #32]	; (8005714 <putt+0x24>)
 80056f4:	b082      	sub	sp, #8
 80056f6:	681c      	ldr	r4, [r3, #0]
 80056f8:	9401      	str	r4, [sp, #4]
 80056fa:	9c01      	ldr	r4, [sp, #4]
 80056fc:	681b      	ldr	r3, [r3, #0]
 80056fe:	429c      	cmp	r4, r3
 8005700:	d105      	bne.n	800570e <putt+0x1e>
 8005702:	3030      	adds	r0, #48	; 0x30
 8005704:	b002      	add	sp, #8
 8005706:	e8bd 4010 	ldmia.w	sp!, {r4, lr}
 800570a:	f7fe bc19 	b.w	8003f40 <chOQPutTimeout>
 800570e:	f7fb fda7 	bl	8001260 <__stack_chk_fail>
 8005712:	bf00      	nop
 8005714:	20000800 	.word	0x20000800
	...

08005720 <put>:
 8005720:	b500      	push	{lr}
 8005722:	4b09      	ldr	r3, [pc, #36]	; (8005748 <put+0x28>)
 8005724:	b083      	sub	sp, #12
 8005726:	681a      	ldr	r2, [r3, #0]
 8005728:	9201      	str	r2, [sp, #4]
 800572a:	9a01      	ldr	r2, [sp, #4]
 800572c:	681b      	ldr	r3, [r3, #0]
 800572e:	429a      	cmp	r2, r3
 8005730:	d107      	bne.n	8005742 <put+0x22>
 8005732:	3030      	adds	r0, #48	; 0x30
 8005734:	f04f 32ff 	mov.w	r2, #4294967295
 8005738:	b003      	add	sp, #12
 800573a:	f85d eb04 	ldr.w	lr, [sp], #4
 800573e:	f7fe bbff 	b.w	8003f40 <chOQPutTimeout>
 8005742:	f7fb fd8d 	bl	8001260 <__stack_chk_fail>
 8005746:	bf00      	nop
 8005748:	20000800 	.word	0x20000800
 800574c:	00000000 	.word	0x00000000

08005750 <sdInit>:
 8005750:	b500      	push	{lr}
 8005752:	4b07      	ldr	r3, [pc, #28]	; (8005770 <sdInit+0x20>)
 8005754:	b083      	sub	sp, #12
 8005756:	681a      	ldr	r2, [r3, #0]
 8005758:	9201      	str	r2, [sp, #4]
 800575a:	9a01      	ldr	r2, [sp, #4]
 800575c:	681b      	ldr	r3, [r3, #0]
 800575e:	429a      	cmp	r2, r3
 8005760:	d104      	bne.n	800576c <sdInit+0x1c>
 8005762:	b003      	add	sp, #12
 8005764:	f85d eb04 	ldr.w	lr, [sp], #4
 8005768:	f005 b91a 	b.w	800a9a0 <sd_lld_init>
 800576c:	f7fb fd78 	bl	8001260 <__stack_chk_fail>
 8005770:	20000800 	.word	0x20000800
	...

08005780 <sdObjectInit>:
 8005780:	b5f0      	push	{r4, r5, r6, r7, lr}
 8005782:	4d14      	ldr	r5, [pc, #80]	; (80057d4 <sdObjectInit+0x54>)
 8005784:	4b14      	ldr	r3, [pc, #80]	; (80057d8 <sdObjectInit+0x58>)
 8005786:	682f      	ldr	r7, [r5, #0]
 8005788:	4604      	mov	r4, r0
 800578a:	b085      	sub	sp, #20
 800578c:	f840 3b04 	str.w	r3, [r0], #4
 8005790:	f04f 0c01 	mov.w	ip, #1
 8005794:	9400      	str	r4, [sp, #0]
 8005796:	460b      	mov	r3, r1
 8005798:	4616      	mov	r6, r2
 800579a:	6060      	str	r0, [r4, #4]
 800579c:	f884 c008 	strb.w	ip, [r4, #8]
 80057a0:	f104 0154 	add.w	r1, r4, #84	; 0x54
 80057a4:	f104 000c 	add.w	r0, r4, #12
 80057a8:	2210      	movs	r2, #16
 80057aa:	9703      	str	r7, [sp, #12]
 80057ac:	f7fe fa48 	bl	8003c40 <chIQObjectInit>
 80057b0:	4633      	mov	r3, r6
 80057b2:	2210      	movs	r2, #16
 80057b4:	9400      	str	r4, [sp, #0]
 80057b6:	f104 0164 	add.w	r1, r4, #100	; 0x64
 80057ba:	f104 0030 	add.w	r0, r4, #48	; 0x30
 80057be:	f7fe fb7f 	bl	8003ec0 <chOQObjectInit>
 80057c2:	9a03      	ldr	r2, [sp, #12]
 80057c4:	682b      	ldr	r3, [r5, #0]
 80057c6:	429a      	cmp	r2, r3
 80057c8:	d101      	bne.n	80057ce <sdObjectInit+0x4e>
 80057ca:	b005      	add	sp, #20
 80057cc:	bdf0      	pop	{r4, r5, r6, r7, pc}
 80057ce:	f7fb fd47 	bl	8001260 <__stack_chk_fail>
 80057d2:	bf00      	nop
 80057d4:	20000800 	.word	0x20000800
 80057d8:	0800ece0 	.word	0x0800ece0
 80057dc:	00000000 	.word	0x00000000

080057e0 <sdStart>:
 80057e0:	b570      	push	{r4, r5, r6, lr}
 80057e2:	4d1d      	ldr	r5, [pc, #116]	; (8005858 <sdStart+0x78>)
 80057e4:	b082      	sub	sp, #8
 80057e6:	682b      	ldr	r3, [r5, #0]
 80057e8:	9301      	str	r3, [sp, #4]
 80057ea:	460e      	mov	r6, r1
 80057ec:	4604      	mov	r4, r0
 80057ee:	b368      	cbz	r0, 800584c <sdStart+0x6c>
 80057f0:	2320      	movs	r3, #32
 80057f2:	f383 8811 	msr	BASEPRI, r3
 80057f6:	f7fd ffb3 	bl	8003760 <_stats_start_measure_crit_thd>
 80057fa:	f7fc ffb9 	bl	8002770 <_dbg_check_lock>
 80057fe:	7a23      	ldrb	r3, [r4, #8]
 8005800:	3b01      	subs	r3, #1
 8005802:	2b01      	cmp	r3, #1
 8005804:	d902      	bls.n	800580c <sdStart+0x2c>
 8005806:	4815      	ldr	r0, [pc, #84]	; (800585c <sdStart+0x7c>)
 8005808:	f7fc ff12 	bl	8002630 <chSysHalt>
 800580c:	4631      	mov	r1, r6
 800580e:	4620      	mov	r0, r4
 8005810:	f005 f8e6 	bl	800a9e0 <sd_lld_start>
 8005814:	2302      	movs	r3, #2
 8005816:	7223      	strb	r3, [r4, #8]
 8005818:	f7fc ffca 	bl	80027b0 <_dbg_check_unlock>
 800581c:	f7fd ffb8 	bl	8003790 <_stats_stop_measure_crit_thd>
 8005820:	4b0f      	ldr	r3, [pc, #60]	; (8005860 <sdStart+0x80>)
 8005822:	681a      	ldr	r2, [r3, #0]
 8005824:	429a      	cmp	r2, r3
 8005826:	d004      	beq.n	8005832 <sdStart+0x52>
 8005828:	6999      	ldr	r1, [r3, #24]
 800582a:	6893      	ldr	r3, [r2, #8]
 800582c:	688a      	ldr	r2, [r1, #8]
 800582e:	429a      	cmp	r2, r3
 8005830:	d308      	bcc.n	8005844 <sdStart+0x64>
 8005832:	2300      	movs	r3, #0
 8005834:	f383 8811 	msr	BASEPRI, r3
 8005838:	9a01      	ldr	r2, [sp, #4]
 800583a:	682b      	ldr	r3, [r5, #0]
 800583c:	429a      	cmp	r2, r3
 800583e:	d109      	bne.n	8005854 <sdStart+0x74>
 8005840:	b002      	add	sp, #8
 8005842:	bd70      	pop	{r4, r5, r6, pc}
 8005844:	4807      	ldr	r0, [pc, #28]	; (8005864 <sdStart+0x84>)
 8005846:	f7fc fef3 	bl	8002630 <chSysHalt>
 800584a:	e7f2      	b.n	8005832 <sdStart+0x52>
 800584c:	4803      	ldr	r0, [pc, #12]	; (800585c <sdStart+0x7c>)
 800584e:	f7fc feef 	bl	8002630 <chSysHalt>
 8005852:	e7cd      	b.n	80057f0 <sdStart+0x10>
 8005854:	f7fb fd04 	bl	8001260 <__stack_chk_fail>
 8005858:	20000800 	.word	0x20000800
 800585c:	0800ecc0 	.word	0x0800ecc0
 8005860:	20001540 	.word	0x20001540
 8005864:	0800ecb0 	.word	0x0800ecb0
	...

08005870 <sdIncomingDataI>:
 8005870:	b570      	push	{r4, r5, r6, lr}
 8005872:	4d17      	ldr	r5, [pc, #92]	; (80058d0 <sdIncomingDataI+0x60>)
 8005874:	b082      	sub	sp, #8
 8005876:	4604      	mov	r4, r0
 8005878:	682b      	ldr	r3, [r5, #0]
 800587a:	9301      	str	r3, [sp, #4]
 800587c:	460e      	mov	r6, r1
 800587e:	f7fd f847 	bl	8002910 <chDbgCheckClassI>
 8005882:	b1f4      	cbz	r4, 80058c2 <sdIncomingDataI+0x52>
 8005884:	f7fd f844 	bl	8002910 <chDbgCheckClassI>
 8005888:	6963      	ldr	r3, [r4, #20]
 800588a:	b163      	cbz	r3, 80058a6 <sdIncomingDataI+0x36>
 800588c:	4631      	mov	r1, r6
 800588e:	f104 000c 	add.w	r0, r4, #12
 8005892:	f7fe fa15 	bl	8003cc0 <chIQPutI>
 8005896:	2800      	cmp	r0, #0
 8005898:	9a01      	ldr	r2, [sp, #4]
 800589a:	682b      	ldr	r3, [r5, #0]
 800589c:	db08      	blt.n	80058b0 <sdIncomingDataI+0x40>
 800589e:	429a      	cmp	r2, r3
 80058a0:	d113      	bne.n	80058ca <sdIncomingDataI+0x5a>
 80058a2:	b002      	add	sp, #8
 80058a4:	bd70      	pop	{r4, r5, r6, pc}
 80058a6:	2104      	movs	r1, #4
 80058a8:	1860      	adds	r0, r4, r1
 80058aa:	f7fe f999 	bl	8003be0 <chEvtBroadcastFlagsI>
 80058ae:	e7ed      	b.n	800588c <sdIncomingDataI+0x1c>
 80058b0:	429a      	cmp	r2, r3
 80058b2:	d10a      	bne.n	80058ca <sdIncomingDataI+0x5a>
 80058b4:	1d20      	adds	r0, r4, #4
 80058b6:	2180      	movs	r1, #128	; 0x80
 80058b8:	b002      	add	sp, #8
 80058ba:	e8bd 4070 	ldmia.w	sp!, {r4, r5, r6, lr}
 80058be:	f7fe b98f 	b.w	8003be0 <chEvtBroadcastFlagsI>
 80058c2:	4804      	ldr	r0, [pc, #16]	; (80058d4 <sdIncomingDataI+0x64>)
 80058c4:	f7fc feb4 	bl	8002630 <chSysHalt>
 80058c8:	e7dc      	b.n	8005884 <sdIncomingDataI+0x14>
 80058ca:	f7fb fcc9 	bl	8001260 <__stack_chk_fail>
 80058ce:	bf00      	nop
 80058d0:	20000800 	.word	0x20000800
 80058d4:	0800ecd0 	.word	0x0800ecd0
	...

080058e0 <inotify>:
 80058e0:	b5f0      	push	{r4, r5, r6, r7, lr}
 80058e2:	6a05      	ldr	r5, [r0, #32]
 80058e4:	4c2d      	ldr	r4, [pc, #180]	; (800599c <inotify+0xbc>)
 80058e6:	f8d5 2254 	ldr.w	r2, [r5, #596]	; 0x254
 80058ea:	6821      	ldr	r1, [r4, #0]
 80058ec:	6813      	ldr	r3, [r2, #0]
 80058ee:	b083      	sub	sp, #12
 80058f0:	9101      	str	r1, [sp, #4]
 80058f2:	7819      	ldrb	r1, [r3, #0]
 80058f4:	2904      	cmp	r1, #4
 80058f6:	d005      	beq.n	8005904 <inotify+0x24>
 80058f8:	9a01      	ldr	r2, [sp, #4]
 80058fa:	6823      	ldr	r3, [r4, #0]
 80058fc:	429a      	cmp	r2, r3
 80058fe:	d14a      	bne.n	8005996 <inotify+0xb6>
 8005900:	b003      	add	sp, #12
 8005902:	bdf0      	pop	{r4, r5, r6, r7, pc}
 8005904:	7a29      	ldrb	r1, [r5, #8]
 8005906:	2902      	cmp	r1, #2
 8005908:	d1f6      	bne.n	80058f8 <inotify+0x18>
 800590a:	7951      	ldrb	r1, [r2, #5]
 800590c:	8958      	ldrh	r0, [r3, #10]
 800590e:	2201      	movs	r2, #1
 8005910:	408a      	lsls	r2, r1
 8005912:	4202      	tst	r2, r0
 8005914:	d1f0      	bne.n	80058f8 <inotify+0x18>
 8005916:	eb03 0381 	add.w	r3, r3, r1, lsl #2
 800591a:	68db      	ldr	r3, [r3, #12]
 800591c:	8a5f      	ldrh	r7, [r3, #18]
 800591e:	f7fc fff7 	bl	8002910 <chDbgCheckClassI>
 8005922:	e9d5 2306 	ldrd	r2, r3, [r5, #24]
 8005926:	696e      	ldr	r6, [r5, #20]
 8005928:	1a9b      	subs	r3, r3, r2
 800592a:	1b9e      	subs	r6, r3, r6
 800592c:	42b7      	cmp	r7, r6
 800592e:	d8e3      	bhi.n	80058f8 <inotify+0x18>
 8005930:	f7fc ff3e 	bl	80027b0 <_dbg_check_unlock>
 8005934:	f7fd ff2c 	bl	8003790 <_stats_stop_measure_crit_thd>
 8005938:	4b19      	ldr	r3, [pc, #100]	; (80059a0 <inotify+0xc0>)
 800593a:	681a      	ldr	r2, [r3, #0]
 800593c:	429a      	cmp	r2, r3
 800593e:	d007      	beq.n	8005950 <inotify+0x70>
 8005940:	6999      	ldr	r1, [r3, #24]
 8005942:	6893      	ldr	r3, [r2, #8]
 8005944:	688a      	ldr	r2, [r1, #8]
 8005946:	429a      	cmp	r2, r3
 8005948:	d202      	bcs.n	8005950 <inotify+0x70>
 800594a:	4816      	ldr	r0, [pc, #88]	; (80059a4 <inotify+0xc4>)
 800594c:	f7fc fe70 	bl	8002630 <chSysHalt>
 8005950:	2300      	movs	r3, #0
 8005952:	f383 8811 	msr	BASEPRI, r3
 8005956:	f8d5 2254 	ldr.w	r2, [r5, #596]	; 0x254
 800595a:	fbb6 f3f7 	udiv	r3, r6, r7
 800595e:	7951      	ldrb	r1, [r2, #5]
 8005960:	6810      	ldr	r0, [r2, #0]
 8005962:	fb07 f303 	mul.w	r3, r7, r3
 8005966:	f105 020c 	add.w	r2, r5, #12
 800596a:	f000 fc21 	bl	80061b0 <usbPrepareQueuedReceive>
 800596e:	2320      	movs	r3, #32
 8005970:	f383 8811 	msr	BASEPRI, r3
 8005974:	f7fd fef4 	bl	8003760 <_stats_start_measure_crit_thd>
 8005978:	f7fc fefa 	bl	8002770 <_dbg_check_lock>
 800597c:	9901      	ldr	r1, [sp, #4]
 800597e:	6822      	ldr	r2, [r4, #0]
 8005980:	f8d5 3254 	ldr.w	r3, [r5, #596]	; 0x254
 8005984:	4291      	cmp	r1, r2
 8005986:	d106      	bne.n	8005996 <inotify+0xb6>
 8005988:	7959      	ldrb	r1, [r3, #5]
 800598a:	6818      	ldr	r0, [r3, #0]
 800598c:	b003      	add	sp, #12
 800598e:	e8bd 40f0 	ldmia.w	sp!, {r4, r5, r6, r7, lr}
 8005992:	f000 bc4d 	b.w	8006230 <usbStartReceiveI>
 8005996:	f7fb fc63 	bl	8001260 <__stack_chk_fail>
 800599a:	bf00      	nop
 800599c:	20000800 	.word	0x20000800
 80059a0:	20001540 	.word	0x20001540
 80059a4:	0800ed00 	.word	0x0800ed00
	...

080059b0 <readt>:
 80059b0:	b530      	push	{r4, r5, lr}
 80059b2:	4c08      	ldr	r4, [pc, #32]	; (80059d4 <readt+0x24>)
 80059b4:	b083      	sub	sp, #12
 80059b6:	6825      	ldr	r5, [r4, #0]
 80059b8:	9501      	str	r5, [sp, #4]
 80059ba:	9d01      	ldr	r5, [sp, #4]
 80059bc:	6824      	ldr	r4, [r4, #0]
 80059be:	42a5      	cmp	r5, r4
 80059c0:	d105      	bne.n	80059ce <readt+0x1e>
 80059c2:	300c      	adds	r0, #12
 80059c4:	b003      	add	sp, #12
 80059c6:	e8bd 4030 	ldmia.w	sp!, {r4, r5, lr}
 80059ca:	f7fe b9f9 	b.w	8003dc0 <chIQReadTimeout>
 80059ce:	f7fb fc47 	bl	8001260 <__stack_chk_fail>
 80059d2:	bf00      	nop
 80059d4:	20000800 	.word	0x20000800
	...

080059e0 <read>:
 80059e0:	b510      	push	{r4, lr}
 80059e2:	4b09      	ldr	r3, [pc, #36]	; (8005a08 <read+0x28>)
 80059e4:	b082      	sub	sp, #8
 80059e6:	681c      	ldr	r4, [r3, #0]
 80059e8:	9401      	str	r4, [sp, #4]
 80059ea:	9c01      	ldr	r4, [sp, #4]
 80059ec:	681b      	ldr	r3, [r3, #0]
 80059ee:	429c      	cmp	r4, r3
 80059f0:	d107      	bne.n	8005a02 <read+0x22>
 80059f2:	300c      	adds	r0, #12
 80059f4:	f04f 33ff 	mov.w	r3, #4294967295
 80059f8:	b002      	add	sp, #8
 80059fa:	e8bd 4010 	ldmia.w	sp!, {r4, lr}
 80059fe:	f7fe b9df 	b.w	8003dc0 <chIQReadTimeout>
 8005a02:	f7fb fc2d 	bl	8001260 <__stack_chk_fail>
 8005a06:	bf00      	nop
 8005a08:	20000800 	.word	0x20000800
 8005a0c:	00000000 	.word	0x00000000

08005a10 <writet>:
 8005a10:	b530      	push	{r4, r5, lr}
 8005a12:	4c08      	ldr	r4, [pc, #32]	; (8005a34 <writet+0x24>)
 8005a14:	b083      	sub	sp, #12
 8005a16:	6825      	ldr	r5, [r4, #0]
 8005a18:	9501      	str	r5, [sp, #4]
 8005a1a:	9d01      	ldr	r5, [sp, #4]
 8005a1c:	6824      	ldr	r4, [r4, #0]
 8005a1e:	42a5      	cmp	r5, r4
 8005a20:	d105      	bne.n	8005a2e <writet+0x1e>
 8005a22:	3030      	adds	r0, #48	; 0x30
 8005a24:	b003      	add	sp, #12
 8005a26:	e8bd 4030 	ldmia.w	sp!, {r4, r5, lr}
 8005a2a:	f7fe bb21 	b.w	8004070 <chOQWriteTimeout>
 8005a2e:	f7fb fc17 	bl	8001260 <__stack_chk_fail>
 8005a32:	bf00      	nop
 8005a34:	20000800 	.word	0x20000800
	...

08005a40 <write>:
 8005a40:	b510      	push	{r4, lr}
 8005a42:	4b09      	ldr	r3, [pc, #36]	; (8005a68 <write+0x28>)
 8005a44:	b082      	sub	sp, #8
 8005a46:	681c      	ldr	r4, [r3, #0]
 8005a48:	9401      	str	r4, [sp, #4]
 8005a4a:	9c01      	ldr	r4, [sp, #4]
 8005a4c:	681b      	ldr	r3, [r3, #0]
 8005a4e:	429c      	cmp	r4, r3
 8005a50:	d107      	bne.n	8005a62 <write+0x22>
 8005a52:	3030      	adds	r0, #48	; 0x30
 8005a54:	f04f 33ff 	mov.w	r3, #4294967295
 8005a58:	b002      	add	sp, #8
 8005a5a:	e8bd 4010 	ldmia.w	sp!, {r4, lr}
 8005a5e:	f7fe bb07 	b.w	8004070 <chOQWriteTimeout>
 8005a62:	f7fb fbfd 	bl	8001260 <__stack_chk_fail>
 8005a66:	bf00      	nop
 8005a68:	20000800 	.word	0x20000800
 8005a6c:	00000000 	.word	0x00000000

08005a70 <gett>:
 8005a70:	b500      	push	{lr}
 8005a72:	4b08      	ldr	r3, [pc, #32]	; (8005a94 <gett+0x24>)
 8005a74:	b083      	sub	sp, #12
 8005a76:	681a      	ldr	r2, [r3, #0]
 8005a78:	9201      	str	r2, [sp, #4]
 8005a7a:	9a01      	ldr	r2, [sp, #4]
 8005a7c:	681b      	ldr	r3, [r3, #0]
 8005a7e:	429a      	cmp	r2, r3
 8005a80:	d105      	bne.n	8005a8e <gett+0x1e>
 8005a82:	300c      	adds	r0, #12
 8005a84:	b003      	add	sp, #12
 8005a86:	f85d eb04 	ldr.w	lr, [sp], #4
 8005a8a:	f7fe b949 	b.w	8003d20 <chIQGetTimeout>
 8005a8e:	f7fb fbe7 	bl	8001260 <__stack_chk_fail>
 8005a92:	bf00      	nop
 8005a94:	20000800 	.word	0x20000800
	...

08005aa0 <get>:
 8005aa0:	b500      	push	{lr}
 8005aa2:	4b09      	ldr	r3, [pc, #36]	; (8005ac8 <get+0x28>)
 8005aa4:	b083      	sub	sp, #12
 8005aa6:	681a      	ldr	r2, [r3, #0]
 8005aa8:	9201      	str	r2, [sp, #4]
 8005aaa:	9a01      	ldr	r2, [sp, #4]
 8005aac:	681b      	ldr	r3, [r3, #0]
 8005aae:	429a      	cmp	r2, r3
 8005ab0:	d107      	bne.n	8005ac2 <get+0x22>
 8005ab2:	300c      	adds	r0, #12
 8005ab4:	f04f 31ff 	mov.w	r1, #4294967295
 8005ab8:	b003      	add	sp, #12
 8005aba:	f85d eb04 	ldr.w	lr, [sp], #4
 8005abe:	f7fe b92f 	b.w	8003d20 <chIQGetTimeout>
 8005ac2:	f7fb fbcd 	bl	8001260 <__stack_chk_fail>
 8005ac6:	bf00      	nop
 8005ac8:	20000800 	.word	0x20000800
 8005acc:	00000000 	.word	0x00000000

08005ad0 <putt>:
 8005ad0:	b510      	push	{r4, lr}
 8005ad2:	4b08      	ldr	r3, [pc, #32]	; (8005af4 <putt+0x24>)
 8005ad4:	b082      	sub	sp, #8
 8005ad6:	681c      	ldr	r4, [r3, #0]
 8005ad8:	9401      	str	r4, [sp, #4]
 8005ada:	9c01      	ldr	r4, [sp, #4]
 8005adc:	681b      	ldr	r3, [r3, #0]
 8005ade:	429c      	cmp	r4, r3
 8005ae0:	d105      	bne.n	8005aee <putt+0x1e>
 8005ae2:	3030      	adds	r0, #48	; 0x30
 8005ae4:	b002      	add	sp, #8
 8005ae6:	e8bd 4010 	ldmia.w	sp!, {r4, lr}
 8005aea:	f7fe ba29 	b.w	8003f40 <chOQPutTimeout>
 8005aee:	f7fb fbb7 	bl	8001260 <__stack_chk_fail>
 8005af2:	bf00      	nop
 8005af4:	20000800 	.word	0x20000800
	...

08005b00 <put>:
 8005b00:	b500      	push	{lr}
 8005b02:	4b09      	ldr	r3, [pc, #36]	; (8005b28 <put+0x28>)
 8005b04:	b083      	sub	sp, #12
 8005b06:	681a      	ldr	r2, [r3, #0]
 8005b08:	9201      	str	r2, [sp, #4]
 8005b0a:	9a01      	ldr	r2, [sp, #4]
 8005b0c:	681b      	ldr	r3, [r3, #0]
 8005b0e:	429a      	cmp	r2, r3
 8005b10:	d107      	bne.n	8005b22 <put+0x22>
 8005b12:	3030      	adds	r0, #48	; 0x30
 8005b14:	f04f 32ff 	mov.w	r2, #4294967295
 8005b18:	b003      	add	sp, #12
 8005b1a:	f85d eb04 	ldr.w	lr, [sp], #4
 8005b1e:	f7fe ba0f 	b.w	8003f40 <chOQPutTimeout>
 8005b22:	f7fb fb9d 	bl	8001260 <__stack_chk_fail>
 8005b26:	bf00      	nop
 8005b28:	20000800 	.word	0x20000800
 8005b2c:	00000000 	.word	0x00000000

08005b30 <onotify>:
 8005b30:	b570      	push	{r4, r5, r6, lr}
 8005b32:	6a05      	ldr	r5, [r0, #32]
 8005b34:	4c29      	ldr	r4, [pc, #164]	; (8005bdc <onotify+0xac>)
 8005b36:	f8d5 2254 	ldr.w	r2, [r5, #596]	; 0x254
 8005b3a:	6821      	ldr	r1, [r4, #0]
 8005b3c:	6813      	ldr	r3, [r2, #0]
 8005b3e:	b082      	sub	sp, #8
 8005b40:	9101      	str	r1, [sp, #4]
 8005b42:	7819      	ldrb	r1, [r3, #0]
 8005b44:	2904      	cmp	r1, #4
 8005b46:	d005      	beq.n	8005b54 <onotify+0x24>
 8005b48:	9a01      	ldr	r2, [sp, #4]
 8005b4a:	6823      	ldr	r3, [r4, #0]
 8005b4c:	429a      	cmp	r2, r3
 8005b4e:	d142      	bne.n	8005bd6 <onotify+0xa6>
 8005b50:	b002      	add	sp, #8
 8005b52:	bd70      	pop	{r4, r5, r6, pc}
 8005b54:	7a29      	ldrb	r1, [r5, #8]
 8005b56:	2902      	cmp	r1, #2
 8005b58:	d1f6      	bne.n	8005b48 <onotify+0x18>
 8005b5a:	7911      	ldrb	r1, [r2, #4]
 8005b5c:	891a      	ldrh	r2, [r3, #8]
 8005b5e:	2301      	movs	r3, #1
 8005b60:	408b      	lsls	r3, r1
 8005b62:	4213      	tst	r3, r2
 8005b64:	d1f0      	bne.n	8005b48 <onotify+0x18>
 8005b66:	f7fc fed3 	bl	8002910 <chDbgCheckClassI>
 8005b6a:	e9d5 230f 	ldrd	r2, r3, [r5, #60]	; 0x3c
 8005b6e:	6bae      	ldr	r6, [r5, #56]	; 0x38
 8005b70:	1a9b      	subs	r3, r3, r2
 8005b72:	1b9e      	subs	r6, r3, r6
 8005b74:	d0e8      	beq.n	8005b48 <onotify+0x18>
 8005b76:	f7fc fe1b 	bl	80027b0 <_dbg_check_unlock>
 8005b7a:	f7fd fe09 	bl	8003790 <_stats_stop_measure_crit_thd>
 8005b7e:	4b18      	ldr	r3, [pc, #96]	; (8005be0 <onotify+0xb0>)
 8005b80:	681a      	ldr	r2, [r3, #0]
 8005b82:	429a      	cmp	r2, r3
 8005b84:	d007      	beq.n	8005b96 <onotify+0x66>
 8005b86:	6999      	ldr	r1, [r3, #24]
 8005b88:	6893      	ldr	r3, [r2, #8]
 8005b8a:	688a      	ldr	r2, [r1, #8]
 8005b8c:	429a      	cmp	r2, r3
 8005b8e:	d202      	bcs.n	8005b96 <onotify+0x66>
 8005b90:	4814      	ldr	r0, [pc, #80]	; (8005be4 <onotify+0xb4>)
 8005b92:	f7fc fd4d 	bl	8002630 <chSysHalt>
 8005b96:	2300      	movs	r3, #0
 8005b98:	f383 8811 	msr	BASEPRI, r3
 8005b9c:	f8d5 2254 	ldr.w	r2, [r5, #596]	; 0x254
 8005ba0:	4633      	mov	r3, r6
 8005ba2:	7911      	ldrb	r1, [r2, #4]
 8005ba4:	6810      	ldr	r0, [r2, #0]
 8005ba6:	f105 0230 	add.w	r2, r5, #48	; 0x30
 8005baa:	f000 fb21 	bl	80061f0 <usbPrepareQueuedTransmit>
 8005bae:	2320      	movs	r3, #32
 8005bb0:	f383 8811 	msr	BASEPRI, r3
 8005bb4:	f7fd fdd4 	bl	8003760 <_stats_start_measure_crit_thd>
 8005bb8:	f7fc fdda 	bl	8002770 <_dbg_check_lock>
 8005bbc:	9901      	ldr	r1, [sp, #4]
 8005bbe:	6822      	ldr	r2, [r4, #0]
 8005bc0:	f8d5 3254 	ldr.w	r3, [r5, #596]	; 0x254
 8005bc4:	4291      	cmp	r1, r2
 8005bc6:	d106      	bne.n	8005bd6 <onotify+0xa6>
 8005bc8:	7919      	ldrb	r1, [r3, #4]
 8005bca:	6818      	ldr	r0, [r3, #0]
 8005bcc:	b002      	add	sp, #8
 8005bce:	e8bd 4070 	ldmia.w	sp!, {r4, r5, r6, lr}
 8005bd2:	f000 bb5d 	b.w	8006290 <usbStartTransmitI>
 8005bd6:	f7fb fb43 	bl	8001260 <__stack_chk_fail>
 8005bda:	bf00      	nop
 8005bdc:	20000800 	.word	0x20000800
 8005be0:	20001540 	.word	0x20001540
 8005be4:	0800ed00 	.word	0x0800ed00
	...

08005bf0 <sduInit>:
 8005bf0:	b500      	push	{lr}
 8005bf2:	4b06      	ldr	r3, [pc, #24]	; (8005c0c <sduInit+0x1c>)
 8005bf4:	b083      	sub	sp, #12
 8005bf6:	681a      	ldr	r2, [r3, #0]
 8005bf8:	9201      	str	r2, [sp, #4]
 8005bfa:	9a01      	ldr	r2, [sp, #4]
 8005bfc:	681b      	ldr	r3, [r3, #0]
 8005bfe:	429a      	cmp	r2, r3
 8005c00:	d102      	bne.n	8005c08 <sduInit+0x18>
 8005c02:	b003      	add	sp, #12
 8005c04:	f85d fb04 	ldr.w	pc, [sp], #4
 8005c08:	f7fb fb2a 	bl	8001260 <__stack_chk_fail>
 8005c0c:	20000800 	.word	0x20000800

08005c10 <sduObjectInit>:
 8005c10:	b530      	push	{r4, r5, lr}
 8005c12:	4603      	mov	r3, r0
 8005c14:	4d12      	ldr	r5, [pc, #72]	; (8005c60 <sduObjectInit+0x50>)
 8005c16:	4913      	ldr	r1, [pc, #76]	; (8005c64 <sduObjectInit+0x54>)
 8005c18:	682a      	ldr	r2, [r5, #0]
 8005c1a:	f843 1b04 	str.w	r1, [r3], #4
 8005c1e:	b085      	sub	sp, #20
 8005c20:	2101      	movs	r1, #1
 8005c22:	4604      	mov	r4, r0
 8005c24:	9000      	str	r0, [sp, #0]
 8005c26:	9203      	str	r2, [sp, #12]
 8005c28:	6043      	str	r3, [r0, #4]
 8005c2a:	7201      	strb	r1, [r0, #8]
 8005c2c:	4b0e      	ldr	r3, [pc, #56]	; (8005c68 <sduObjectInit+0x58>)
 8005c2e:	f100 0154 	add.w	r1, r0, #84	; 0x54
 8005c32:	f44f 7280 	mov.w	r2, #256	; 0x100
 8005c36:	300c      	adds	r0, #12
 8005c38:	f7fe f802 	bl	8003c40 <chIQObjectInit>
 8005c3c:	4b0b      	ldr	r3, [pc, #44]	; (8005c6c <sduObjectInit+0x5c>)
 8005c3e:	9400      	str	r4, [sp, #0]
 8005c40:	f44f 7280 	mov.w	r2, #256	; 0x100
 8005c44:	f504 71aa 	add.w	r1, r4, #340	; 0x154
 8005c48:	f104 0030 	add.w	r0, r4, #48	; 0x30
 8005c4c:	f7fe f938 	bl	8003ec0 <chOQObjectInit>
 8005c50:	9a03      	ldr	r2, [sp, #12]
 8005c52:	682b      	ldr	r3, [r5, #0]
 8005c54:	429a      	cmp	r2, r3
 8005c56:	d101      	bne.n	8005c5c <sduObjectInit+0x4c>
 8005c58:	b005      	add	sp, #20
 8005c5a:	bd30      	pop	{r4, r5, pc}
 8005c5c:	f7fb fb00 	bl	8001260 <__stack_chk_fail>
 8005c60:	20000800 	.word	0x20000800
 8005c64:	0800ed20 	.word	0x0800ed20
 8005c68:	080058e1 	.word	0x080058e1
 8005c6c:	08005b31 	.word	0x08005b31

08005c70 <sduStart>:
 8005c70:	b5f0      	push	{r4, r5, r6, r7, lr}
 8005c72:	4f24      	ldr	r7, [pc, #144]	; (8005d04 <sduStart+0x94>)
 8005c74:	680e      	ldr	r6, [r1, #0]
 8005c76:	683b      	ldr	r3, [r7, #0]
 8005c78:	b083      	sub	sp, #12
 8005c7a:	460d      	mov	r5, r1
 8005c7c:	9301      	str	r3, [sp, #4]
 8005c7e:	4604      	mov	r4, r0
 8005c80:	2800      	cmp	r0, #0
 8005c82:	d038      	beq.n	8005cf6 <sduStart+0x86>
 8005c84:	2320      	movs	r3, #32
 8005c86:	f383 8811 	msr	BASEPRI, r3
 8005c8a:	f7fd fd69 	bl	8003760 <_stats_start_measure_crit_thd>
 8005c8e:	f7fc fd6f 	bl	8002770 <_dbg_check_lock>
 8005c92:	7a23      	ldrb	r3, [r4, #8]
 8005c94:	3b01      	subs	r3, #1
 8005c96:	2b01      	cmp	r3, #1
 8005c98:	d902      	bls.n	8005ca0 <sduStart+0x30>
 8005c9a:	481b      	ldr	r0, [pc, #108]	; (8005d08 <sduStart+0x98>)
 8005c9c:	f7fc fcc8 	bl	8002630 <chSysHalt>
 8005ca0:	792b      	ldrb	r3, [r5, #4]
 8005ca2:	eb06 0383 	add.w	r3, r6, r3, lsl #2
 8005ca6:	619c      	str	r4, [r3, #24]
 8005ca8:	796b      	ldrb	r3, [r5, #5]
 8005caa:	3309      	adds	r3, #9
 8005cac:	f846 4023 	str.w	r4, [r6, r3, lsl #2]
 8005cb0:	79ab      	ldrb	r3, [r5, #6]
 8005cb2:	b113      	cbz	r3, 8005cba <sduStart+0x4a>
 8005cb4:	eb06 0683 	add.w	r6, r6, r3, lsl #2
 8005cb8:	61b4      	str	r4, [r6, #24]
 8005cba:	2302      	movs	r3, #2
 8005cbc:	7223      	strb	r3, [r4, #8]
 8005cbe:	f8c4 5254 	str.w	r5, [r4, #596]	; 0x254
 8005cc2:	f7fc fd75 	bl	80027b0 <_dbg_check_unlock>
 8005cc6:	f7fd fd63 	bl	8003790 <_stats_stop_measure_crit_thd>
 8005cca:	4b10      	ldr	r3, [pc, #64]	; (8005d0c <sduStart+0x9c>)
 8005ccc:	681a      	ldr	r2, [r3, #0]
 8005cce:	429a      	cmp	r2, r3
 8005cd0:	d004      	beq.n	8005cdc <sduStart+0x6c>
 8005cd2:	6999      	ldr	r1, [r3, #24]
 8005cd4:	6893      	ldr	r3, [r2, #8]
 8005cd6:	688a      	ldr	r2, [r1, #8]
 8005cd8:	429a      	cmp	r2, r3
 8005cda:	d308      	bcc.n	8005cee <sduStart+0x7e>
 8005cdc:	2300      	movs	r3, #0
 8005cde:	f383 8811 	msr	BASEPRI, r3
 8005ce2:	9a01      	ldr	r2, [sp, #4]
 8005ce4:	683b      	ldr	r3, [r7, #0]
 8005ce6:	429a      	cmp	r2, r3
 8005ce8:	d109      	bne.n	8005cfe <sduStart+0x8e>
 8005cea:	b003      	add	sp, #12
 8005cec:	bdf0      	pop	{r4, r5, r6, r7, pc}
 8005cee:	4808      	ldr	r0, [pc, #32]	; (8005d10 <sduStart+0xa0>)
 8005cf0:	f7fc fc9e 	bl	8002630 <chSysHalt>
 8005cf4:	e7f2      	b.n	8005cdc <sduStart+0x6c>
 8005cf6:	4804      	ldr	r0, [pc, #16]	; (8005d08 <sduStart+0x98>)
 8005cf8:	f7fc fc9a 	bl	8002630 <chSysHalt>
 8005cfc:	e7c2      	b.n	8005c84 <sduStart+0x14>
 8005cfe:	f7fb faaf 	bl	8001260 <__stack_chk_fail>
 8005d02:	bf00      	nop
 8005d04:	20000800 	.word	0x20000800
 8005d08:	0800ed10 	.word	0x0800ed10
 8005d0c:	20001540 	.word	0x20001540
 8005d10:	0800ed00 	.word	0x0800ed00
	...

08005d20 <sduConfigureHookI>:
 8005d20:	b5f0      	push	{r4, r5, r6, r7, lr}
 8005d22:	4e17      	ldr	r6, [pc, #92]	; (8005d80 <sduConfigureHookI+0x60>)
 8005d24:	f8d0 2254 	ldr.w	r2, [r0, #596]	; 0x254
 8005d28:	6833      	ldr	r3, [r6, #0]
 8005d2a:	6815      	ldr	r5, [r2, #0]
 8005d2c:	b083      	sub	sp, #12
 8005d2e:	f100 070c 	add.w	r7, r0, #12
 8005d32:	4604      	mov	r4, r0
 8005d34:	4638      	mov	r0, r7
 8005d36:	9301      	str	r3, [sp, #4]
 8005d38:	f7fd ffa2 	bl	8003c80 <chIQResetI>
 8005d3c:	f104 0030 	add.w	r0, r4, #48	; 0x30
 8005d40:	f7fe f8de 	bl	8003f00 <chOQResetI>
 8005d44:	1d20      	adds	r0, r4, #4
 8005d46:	2101      	movs	r1, #1
 8005d48:	f7fd ff4a 	bl	8003be0 <chEvtBroadcastFlagsI>
 8005d4c:	f8d4 3254 	ldr.w	r3, [r4, #596]	; 0x254
 8005d50:	7959      	ldrb	r1, [r3, #5]
 8005d52:	eb05 0381 	add.w	r3, r5, r1, lsl #2
 8005d56:	463a      	mov	r2, r7
 8005d58:	68db      	ldr	r3, [r3, #12]
 8005d5a:	4628      	mov	r0, r5
 8005d5c:	8a5b      	ldrh	r3, [r3, #18]
 8005d5e:	f000 fa27 	bl	80061b0 <usbPrepareQueuedReceive>
 8005d62:	9a01      	ldr	r2, [sp, #4]
 8005d64:	6833      	ldr	r3, [r6, #0]
 8005d66:	429a      	cmp	r2, r3
 8005d68:	d108      	bne.n	8005d7c <sduConfigureHookI+0x5c>
 8005d6a:	f8d4 3254 	ldr.w	r3, [r4, #596]	; 0x254
 8005d6e:	7959      	ldrb	r1, [r3, #5]
 8005d70:	4628      	mov	r0, r5
 8005d72:	b003      	add	sp, #12
 8005d74:	e8bd 40f0 	ldmia.w	sp!, {r4, r5, r6, r7, lr}
 8005d78:	f000 ba5a 	b.w	8006230 <usbStartReceiveI>
 8005d7c:	f7fb fa70 	bl	8001260 <__stack_chk_fail>
 8005d80:	20000800 	.word	0x20000800
	...

08005d90 <sduRequestsHook>:
 8005d90:	b500      	push	{lr}
 8005d92:	f890 3044 	ldrb.w	r3, [r0, #68]	; 0x44
 8005d96:	4a14      	ldr	r2, [pc, #80]	; (8005de8 <sduRequestsHook+0x58>)
 8005d98:	b083      	sub	sp, #12
 8005d9a:	f003 0360 	and.w	r3, r3, #96	; 0x60
 8005d9e:	6811      	ldr	r1, [r2, #0]
 8005da0:	9101      	str	r1, [sp, #4]
 8005da2:	2b20      	cmp	r3, #32
 8005da4:	d007      	beq.n	8005db6 <sduRequestsHook+0x26>
 8005da6:	2000      	movs	r0, #0
 8005da8:	9901      	ldr	r1, [sp, #4]
 8005daa:	6813      	ldr	r3, [r2, #0]
 8005dac:	4299      	cmp	r1, r3
 8005dae:	d118      	bne.n	8005de2 <sduRequestsHook+0x52>
 8005db0:	b003      	add	sp, #12
 8005db2:	f85d fb04 	ldr.w	pc, [sp], #4
 8005db6:	f890 3045 	ldrb.w	r3, [r0, #69]	; 0x45
 8005dba:	2b20      	cmp	r3, #32
 8005dbc:	d3f3      	bcc.n	8005da6 <sduRequestsHook+0x16>
 8005dbe:	2b21      	cmp	r3, #33	; 0x21
 8005dc0:	d807      	bhi.n	8005dd2 <sduRequestsHook+0x42>
 8005dc2:	4b0a      	ldr	r3, [pc, #40]	; (8005dec <sduRequestsHook+0x5c>)
 8005dc4:	6383      	str	r3, [r0, #56]	; 0x38
 8005dc6:	2107      	movs	r1, #7
 8005dc8:	2300      	movs	r3, #0
 8005dca:	e9c0 130f 	strd	r1, r3, [r0, #60]	; 0x3c
 8005dce:	2001      	movs	r0, #1
 8005dd0:	e7ea      	b.n	8005da8 <sduRequestsHook+0x18>
 8005dd2:	2b22      	cmp	r3, #34	; 0x22
 8005dd4:	d1e7      	bne.n	8005da6 <sduRequestsHook+0x16>
 8005dd6:	2300      	movs	r3, #0
 8005dd8:	e9c0 330e 	strd	r3, r3, [r0, #56]	; 0x38
 8005ddc:	6403      	str	r3, [r0, #64]	; 0x40
 8005dde:	2001      	movs	r0, #1
 8005de0:	e7e2      	b.n	8005da8 <sduRequestsHook+0x18>
 8005de2:	f7fb fa3d 	bl	8001260 <__stack_chk_fail>
 8005de6:	bf00      	nop
 8005de8:	20000800 	.word	0x20000800
 8005dec:	20000824 	.word	0x20000824

08005df0 <sduDataTransmitted>:
 8005df0:	e92d 43f0 	stmdb	sp!, {r4, r5, r6, r7, r8, r9, lr}
 8005df4:	eb00 0381 	add.w	r3, r0, r1, lsl #2
 8005df8:	4e2a      	ldr	r6, [pc, #168]	; (8005ea4 <sduDataTransmitted+0xb4>)
 8005dfa:	699c      	ldr	r4, [r3, #24]
 8005dfc:	6833      	ldr	r3, [r6, #0]
 8005dfe:	b083      	sub	sp, #12
 8005e00:	9301      	str	r3, [sp, #4]
 8005e02:	2c00      	cmp	r4, #0
 8005e04:	d03d      	beq.n	8005e82 <sduDataTransmitted+0x92>
 8005e06:	4607      	mov	r7, r0
 8005e08:	4688      	mov	r8, r1
 8005e0a:	f04f 0920 	mov.w	r9, #32
 8005e0e:	f389 8811 	msr	BASEPRI, r9
 8005e12:	f7fd fcd5 	bl	80037c0 <_stats_start_measure_crit_isr>
 8005e16:	f7fc fceb 	bl	80027f0 <_dbg_check_lock_from_isr>
 8005e1a:	1d20      	adds	r0, r4, #4
 8005e1c:	2108      	movs	r1, #8
 8005e1e:	f7fd fedf 	bl	8003be0 <chEvtBroadcastFlagsI>
 8005e22:	f7fc fd75 	bl	8002910 <chDbgCheckClassI>
 8005e26:	e9d4 230f 	ldrd	r2, r3, [r4, #60]	; 0x3c
 8005e2a:	6ba5      	ldr	r5, [r4, #56]	; 0x38
 8005e2c:	1a9b      	subs	r3, r3, r2
 8005e2e:	1b5d      	subs	r5, r3, r5
 8005e30:	d12e      	bne.n	8005e90 <sduDataTransmitted+0xa0>
 8005e32:	eb07 0388 	add.w	r3, r7, r8, lsl #2
 8005e36:	68db      	ldr	r3, [r3, #12]
 8005e38:	695a      	ldr	r2, [r3, #20]
 8005e3a:	6855      	ldr	r5, [r2, #4]
 8005e3c:	b1d5      	cbz	r5, 8005e74 <sduDataTransmitted+0x84>
 8005e3e:	8a1b      	ldrh	r3, [r3, #16]
 8005e40:	3b01      	subs	r3, #1
 8005e42:	401d      	ands	r5, r3
 8005e44:	d116      	bne.n	8005e74 <sduDataTransmitted+0x84>
 8005e46:	f7fc fcf3 	bl	8002830 <_dbg_check_unlock_from_isr>
 8005e4a:	f7fd fcd1 	bl	80037f0 <_stats_stop_measure_crit_isr>
 8005e4e:	f385 8811 	msr	BASEPRI, r5
 8005e52:	462b      	mov	r3, r5
 8005e54:	f104 0230 	add.w	r2, r4, #48	; 0x30
 8005e58:	4641      	mov	r1, r8
 8005e5a:	4638      	mov	r0, r7
 8005e5c:	f000 f9c8 	bl	80061f0 <usbPrepareQueuedTransmit>
 8005e60:	f389 8811 	msr	BASEPRI, r9
 8005e64:	f7fd fcac 	bl	80037c0 <_stats_start_measure_crit_isr>
 8005e68:	f7fc fcc2 	bl	80027f0 <_dbg_check_lock_from_isr>
 8005e6c:	4641      	mov	r1, r8
 8005e6e:	4638      	mov	r0, r7
 8005e70:	f000 fa0e 	bl	8006290 <usbStartTransmitI>
 8005e74:	f7fc fcdc 	bl	8002830 <_dbg_check_unlock_from_isr>
 8005e78:	f7fd fcba 	bl	80037f0 <_stats_stop_measure_crit_isr>
 8005e7c:	2300      	movs	r3, #0
 8005e7e:	f383 8811 	msr	BASEPRI, r3
 8005e82:	9a01      	ldr	r2, [sp, #4]
 8005e84:	6833      	ldr	r3, [r6, #0]
 8005e86:	429a      	cmp	r2, r3
 8005e88:	d10a      	bne.n	8005ea0 <sduDataTransmitted+0xb0>
 8005e8a:	b003      	add	sp, #12
 8005e8c:	e8bd 83f0 	ldmia.w	sp!, {r4, r5, r6, r7, r8, r9, pc}
 8005e90:	f7fc fcce 	bl	8002830 <_dbg_check_unlock_from_isr>
 8005e94:	f7fd fcac 	bl	80037f0 <_stats_stop_measure_crit_isr>
 8005e98:	2300      	movs	r3, #0
 8005e9a:	f383 8811 	msr	BASEPRI, r3
 8005e9e:	e7d8      	b.n	8005e52 <sduDataTransmitted+0x62>
 8005ea0:	f7fb f9de 	bl	8001260 <__stack_chk_fail>
 8005ea4:	20000800 	.word	0x20000800
	...

08005eb0 <sduDataReceived>:
 8005eb0:	e92d 47f0 	stmdb	sp!, {r4, r5, r6, r7, r8, r9, sl, lr}
 8005eb4:	f101 0309 	add.w	r3, r1, #9
 8005eb8:	4e27      	ldr	r6, [pc, #156]	; (8005f58 <sduDataReceived+0xa8>)
 8005eba:	f850 4023 	ldr.w	r4, [r0, r3, lsl #2]
 8005ebe:	6833      	ldr	r3, [r6, #0]
 8005ec0:	b082      	sub	sp, #8
 8005ec2:	9301      	str	r3, [sp, #4]
 8005ec4:	b314      	cbz	r4, 8005f0c <sduDataReceived+0x5c>
 8005ec6:	4688      	mov	r8, r1
 8005ec8:	4607      	mov	r7, r0
 8005eca:	f04f 0920 	mov.w	r9, #32
 8005ece:	f389 8811 	msr	BASEPRI, r9
 8005ed2:	f7fd fc75 	bl	80037c0 <_stats_start_measure_crit_isr>
 8005ed6:	f7fc fc8b 	bl	80027f0 <_dbg_check_lock_from_isr>
 8005eda:	2104      	movs	r1, #4
 8005edc:	1d20      	adds	r0, r4, #4
 8005ede:	f7fd fe7f 	bl	8003be0 <chEvtBroadcastFlagsI>
 8005ee2:	eb07 0388 	add.w	r3, r7, r8, lsl #2
 8005ee6:	68db      	ldr	r3, [r3, #12]
 8005ee8:	f8b3 a012 	ldrh.w	sl, [r3, #18]
 8005eec:	f7fc fd10 	bl	8002910 <chDbgCheckClassI>
 8005ef0:	e9d4 1206 	ldrd	r1, r2, [r4, #24]
 8005ef4:	6965      	ldr	r5, [r4, #20]
 8005ef6:	1a52      	subs	r2, r2, r1
 8005ef8:	1b55      	subs	r5, r2, r5
 8005efa:	45aa      	cmp	sl, r5
 8005efc:	d90d      	bls.n	8005f1a <sduDataReceived+0x6a>
 8005efe:	f7fc fc97 	bl	8002830 <_dbg_check_unlock_from_isr>
 8005f02:	f7fd fc75 	bl	80037f0 <_stats_stop_measure_crit_isr>
 8005f06:	2300      	movs	r3, #0
 8005f08:	f383 8811 	msr	BASEPRI, r3
 8005f0c:	9a01      	ldr	r2, [sp, #4]
 8005f0e:	6833      	ldr	r3, [r6, #0]
 8005f10:	429a      	cmp	r2, r3
 8005f12:	d11e      	bne.n	8005f52 <sduDataReceived+0xa2>
 8005f14:	b002      	add	sp, #8
 8005f16:	e8bd 87f0 	ldmia.w	sp!, {r4, r5, r6, r7, r8, r9, sl, pc}
 8005f1a:	f7fc fc89 	bl	8002830 <_dbg_check_unlock_from_isr>
 8005f1e:	f7fd fc67 	bl	80037f0 <_stats_stop_measure_crit_isr>
 8005f22:	2300      	movs	r3, #0
 8005f24:	f383 8811 	msr	BASEPRI, r3
 8005f28:	fbb5 f3fa 	udiv	r3, r5, sl
 8005f2c:	f104 020c 	add.w	r2, r4, #12
 8005f30:	fb0a f303 	mul.w	r3, sl, r3
 8005f34:	4641      	mov	r1, r8
 8005f36:	4638      	mov	r0, r7
 8005f38:	f000 f93a 	bl	80061b0 <usbPrepareQueuedReceive>
 8005f3c:	f389 8811 	msr	BASEPRI, r9
 8005f40:	f7fd fc3e 	bl	80037c0 <_stats_start_measure_crit_isr>
 8005f44:	f7fc fc54 	bl	80027f0 <_dbg_check_lock_from_isr>
 8005f48:	4641      	mov	r1, r8
 8005f4a:	4638      	mov	r0, r7
 8005f4c:	f000 f970 	bl	8006230 <usbStartReceiveI>
 8005f50:	e7d5      	b.n	8005efe <sduDataReceived+0x4e>
 8005f52:	f7fb f985 	bl	8001260 <__stack_chk_fail>
 8005f56:	bf00      	nop
 8005f58:	20000800 	.word	0x20000800
 8005f5c:	00000000 	.word	0x00000000

08005f60 <sduInterruptTransmitted>:
 8005f60:	b500      	push	{lr}
 8005f62:	4b06      	ldr	r3, [pc, #24]	; (8005f7c <sduInterruptTransmitted+0x1c>)
 8005f64:	b083      	sub	sp, #12
 8005f66:	681a      	ldr	r2, [r3, #0]
 8005f68:	9201      	str	r2, [sp, #4]
 8005f6a:	9a01      	ldr	r2, [sp, #4]
 8005f6c:	681b      	ldr	r3, [r3, #0]
 8005f6e:	429a      	cmp	r2, r3
 8005f70:	d102      	bne.n	8005f78 <sduInterruptTransmitted+0x18>
 8005f72:	b003      	add	sp, #12
 8005f74:	f85d fb04 	ldr.w	pc, [sp], #4
 8005f78:	f7fb f972 	bl	8001260 <__stack_chk_fail>
 8005f7c:	20000800 	.word	0x20000800

08005f80 <spiInit>:
 8005f80:	b500      	push	{lr}
 8005f82:	4b07      	ldr	r3, [pc, #28]	; (8005fa0 <spiInit+0x20>)
 8005f84:	b083      	sub	sp, #12
 8005f86:	681a      	ldr	r2, [r3, #0]
 8005f88:	9201      	str	r2, [sp, #4]
 8005f8a:	9a01      	ldr	r2, [sp, #4]
 8005f8c:	681b      	ldr	r3, [r3, #0]
 8005f8e:	429a      	cmp	r2, r3
 8005f90:	d104      	bne.n	8005f9c <spiInit+0x1c>
 8005f92:	b003      	add	sp, #12
 8005f94:	f85d eb04 	ldr.w	lr, [sp], #4
 8005f98:	f004 b8b2 	b.w	800a100 <spi_lld_init>
 8005f9c:	f7fb f960 	bl	8001260 <__stack_chk_fail>
 8005fa0:	20000800 	.word	0x20000800
	...

08005fb0 <spiObjectInit>:
 8005fb0:	b500      	push	{lr}
 8005fb2:	4b0a      	ldr	r3, [pc, #40]	; (8005fdc <spiObjectInit+0x2c>)
 8005fb4:	b083      	sub	sp, #12
 8005fb6:	681a      	ldr	r2, [r3, #0]
 8005fb8:	9201      	str	r2, [sp, #4]
 8005fba:	2201      	movs	r2, #1
 8005fbc:	7002      	strb	r2, [r0, #0]
 8005fbe:	9901      	ldr	r1, [sp, #4]
 8005fc0:	681a      	ldr	r2, [r3, #0]
 8005fc2:	2300      	movs	r3, #0
 8005fc4:	4291      	cmp	r1, r2
 8005fc6:	e9c0 3301 	strd	r3, r3, [r0, #4]
 8005fca:	d105      	bne.n	8005fd8 <spiObjectInit+0x28>
 8005fcc:	300c      	adds	r0, #12
 8005fce:	b003      	add	sp, #12
 8005fd0:	f85d eb04 	ldr.w	lr, [sp], #4
 8005fd4:	f7fd bc24 	b.w	8003820 <chMtxObjectInit>
 8005fd8:	f7fb f942 	bl	8001260 <__stack_chk_fail>
 8005fdc:	20000800 	.word	0x20000800

08005fe0 <stInit>:
 8005fe0:	b500      	push	{lr}
 8005fe2:	4b07      	ldr	r3, [pc, #28]	; (8006000 <stInit+0x20>)
 8005fe4:	b083      	sub	sp, #12
 8005fe6:	681a      	ldr	r2, [r3, #0]
 8005fe8:	9201      	str	r2, [sp, #4]
 8005fea:	9a01      	ldr	r2, [sp, #4]
 8005fec:	681b      	ldr	r3, [r3, #0]
 8005fee:	429a      	cmp	r2, r3
 8005ff0:	d104      	bne.n	8005ffc <stInit+0x1c>
 8005ff2:	b003      	add	sp, #12
 8005ff4:	f85d eb04 	ldr.w	lr, [sp], #4
 8005ff8:	f004 bbca 	b.w	800a790 <st_lld_init>
 8005ffc:	f7fb f930 	bl	8001260 <__stack_chk_fail>
 8006000:	20000800 	.word	0x20000800
	...

08006010 <usbInit>:
 8006010:	b500      	push	{lr}
 8006012:	4b07      	ldr	r3, [pc, #28]	; (8006030 <usbInit+0x20>)
 8006014:	b083      	sub	sp, #12
 8006016:	681a      	ldr	r2, [r3, #0]
 8006018:	9201      	str	r2, [sp, #4]
 800601a:	9a01      	ldr	r2, [sp, #4]
 800601c:	681b      	ldr	r3, [r3, #0]
 800601e:	429a      	cmp	r2, r3
 8006020:	d104      	bne.n	800602c <usbInit+0x1c>
 8006022:	b003      	add	sp, #12
 8006024:	f85d eb04 	ldr.w	lr, [sp], #4
 8006028:	f003 bb0a 	b.w	8009640 <usb_lld_init>
 800602c:	f7fb f918 	bl	8001260 <__stack_chk_fail>
 8006030:	20000800 	.word	0x20000800
	...

08006040 <usbObjectInit>:
 8006040:	b500      	push	{lr}
 8006042:	4b0c      	ldr	r3, [pc, #48]	; (8006074 <usbObjectInit+0x34>)
 8006044:	b083      	sub	sp, #12
 8006046:	681a      	ldr	r2, [r3, #0]
 8006048:	9201      	str	r2, [sp, #4]
 800604a:	2201      	movs	r2, #1
 800604c:	7002      	strb	r2, [r0, #0]
 800604e:	9901      	ldr	r1, [sp, #4]
 8006050:	681a      	ldr	r2, [r3, #0]
 8006052:	2300      	movs	r3, #0
 8006054:	4291      	cmp	r1, r2
 8006056:	61c3      	str	r3, [r0, #28]
 8006058:	6283      	str	r3, [r0, #40]	; 0x28
 800605a:	6203      	str	r3, [r0, #32]
 800605c:	62c3      	str	r3, [r0, #44]	; 0x2c
 800605e:	6243      	str	r3, [r0, #36]	; 0x24
 8006060:	6303      	str	r3, [r0, #48]	; 0x30
 8006062:	e9c0 3301 	strd	r3, r3, [r0, #4]
 8006066:	d102      	bne.n	800606e <usbObjectInit+0x2e>
 8006068:	b003      	add	sp, #12
 800606a:	f85d fb04 	ldr.w	pc, [sp], #4
 800606e:	f7fb f8f7 	bl	8001260 <__stack_chk_fail>
 8006072:	bf00      	nop
 8006074:	20000800 	.word	0x20000800
	...

08006080 <usbStart>:
 8006080:	b570      	push	{r4, r5, r6, lr}
 8006082:	4d20      	ldr	r5, [pc, #128]	; (8006104 <usbStart+0x84>)
 8006084:	b082      	sub	sp, #8
 8006086:	682b      	ldr	r3, [r5, #0]
 8006088:	9301      	str	r3, [sp, #4]
 800608a:	460e      	mov	r6, r1
 800608c:	4604      	mov	r4, r0
 800608e:	b398      	cbz	r0, 80060f8 <usbStart+0x78>
 8006090:	b391      	cbz	r1, 80060f8 <usbStart+0x78>
 8006092:	2320      	movs	r3, #32
 8006094:	f383 8811 	msr	BASEPRI, r3
 8006098:	f7fd fb62 	bl	8003760 <_stats_start_measure_crit_thd>
 800609c:	f7fc fb68 	bl	8002770 <_dbg_check_lock>
 80060a0:	7823      	ldrb	r3, [r4, #0]
 80060a2:	3b01      	subs	r3, #1
 80060a4:	2b01      	cmp	r3, #1
 80060a6:	d902      	bls.n	80060ae <usbStart+0x2e>
 80060a8:	4817      	ldr	r0, [pc, #92]	; (8006108 <usbStart+0x88>)
 80060aa:	f7fc fac1 	bl	8002630 <chSysHalt>
 80060ae:	2300      	movs	r3, #0
 80060b0:	4620      	mov	r0, r4
 80060b2:	e9c4 3303 	strd	r3, r3, [r4, #12]
 80060b6:	e9c4 3305 	strd	r3, r3, [r4, #20]
 80060ba:	6066      	str	r6, [r4, #4]
 80060bc:	f003 faf0 	bl	80096a0 <usb_lld_start>
 80060c0:	2302      	movs	r3, #2
 80060c2:	7023      	strb	r3, [r4, #0]
 80060c4:	f7fc fb74 	bl	80027b0 <_dbg_check_unlock>
 80060c8:	f7fd fb62 	bl	8003790 <_stats_stop_measure_crit_thd>
 80060cc:	4b0f      	ldr	r3, [pc, #60]	; (800610c <usbStart+0x8c>)
 80060ce:	681a      	ldr	r2, [r3, #0]
 80060d0:	429a      	cmp	r2, r3
 80060d2:	d004      	beq.n	80060de <usbStart+0x5e>
 80060d4:	6999      	ldr	r1, [r3, #24]
 80060d6:	6893      	ldr	r3, [r2, #8]
 80060d8:	688a      	ldr	r2, [r1, #8]
 80060da:	429a      	cmp	r2, r3
 80060dc:	d308      	bcc.n	80060f0 <usbStart+0x70>
 80060de:	2300      	movs	r3, #0
 80060e0:	f383 8811 	msr	BASEPRI, r3
 80060e4:	9a01      	ldr	r2, [sp, #4]
 80060e6:	682b      	ldr	r3, [r5, #0]
 80060e8:	429a      	cmp	r2, r3
 80060ea:	d109      	bne.n	8006100 <usbStart+0x80>
 80060ec:	b002      	add	sp, #8
 80060ee:	bd70      	pop	{r4, r5, r6, pc}
 80060f0:	4807      	ldr	r0, [pc, #28]	; (8006110 <usbStart+0x90>)
 80060f2:	f7fc fa9d 	bl	8002630 <chSysHalt>
 80060f6:	e7f2      	b.n	80060de <usbStart+0x5e>
 80060f8:	4803      	ldr	r0, [pc, #12]	; (8006108 <usbStart+0x88>)
 80060fa:	f7fc fa99 	bl	8002630 <chSysHalt>
 80060fe:	e7c8      	b.n	8006092 <usbStart+0x12>
 8006100:	f7fb f8ae 	bl	8001260 <__stack_chk_fail>
 8006104:	20000800 	.word	0x20000800
 8006108:	0800ed40 	.word	0x0800ed40
 800610c:	20001540 	.word	0x20001540
 8006110:	0800edd0 	.word	0x0800edd0
	...

08006120 <usbInitEndpointI>:
 8006120:	e92d 41f0 	stmdb	sp!, {r4, r5, r6, r7, r8, lr}
 8006124:	4e1d      	ldr	r6, [pc, #116]	; (800619c <usbInitEndpointI+0x7c>)
 8006126:	b082      	sub	sp, #8
 8006128:	4604      	mov	r4, r0
 800612a:	6833      	ldr	r3, [r6, #0]
 800612c:	9301      	str	r3, [sp, #4]
 800612e:	460f      	mov	r7, r1
 8006130:	4615      	mov	r5, r2
 8006132:	f7fc fbed 	bl	8002910 <chDbgCheckClassI>
 8006136:	b35c      	cbz	r4, 8006190 <usbInitEndpointI+0x70>
 8006138:	b355      	cbz	r5, 8006190 <usbInitEndpointI+0x70>
 800613a:	7823      	ldrb	r3, [r4, #0]
 800613c:	2b04      	cmp	r3, #4
 800613e:	d002      	beq.n	8006146 <usbInitEndpointI+0x26>
 8006140:	4817      	ldr	r0, [pc, #92]	; (80061a0 <usbInitEndpointI+0x80>)
 8006142:	f7fc fa75 	bl	8002630 <chSysHalt>
 8006146:	eb04 0887 	add.w	r8, r4, r7, lsl #2
 800614a:	f8d8 300c 	ldr.w	r3, [r8, #12]
 800614e:	b113      	cbz	r3, 8006156 <usbInitEndpointI+0x36>
 8006150:	4813      	ldr	r0, [pc, #76]	; (80061a0 <usbInitEndpointI+0x80>)
 8006152:	f7fc fa6d 	bl	8002630 <chSysHalt>
 8006156:	696b      	ldr	r3, [r5, #20]
 8006158:	b12b      	cbz	r3, 8006166 <usbInitEndpointI+0x46>
 800615a:	2200      	movs	r2, #0
 800615c:	601a      	str	r2, [r3, #0]
 800615e:	605a      	str	r2, [r3, #4]
 8006160:	609a      	str	r2, [r3, #8]
 8006162:	60da      	str	r2, [r3, #12]
 8006164:	611a      	str	r2, [r3, #16]
 8006166:	69ab      	ldr	r3, [r5, #24]
 8006168:	b12b      	cbz	r3, 8006176 <usbInitEndpointI+0x56>
 800616a:	2200      	movs	r2, #0
 800616c:	601a      	str	r2, [r3, #0]
 800616e:	605a      	str	r2, [r3, #4]
 8006170:	609a      	str	r2, [r3, #8]
 8006172:	60da      	str	r2, [r3, #12]
 8006174:	611a      	str	r2, [r3, #16]
 8006176:	9a01      	ldr	r2, [sp, #4]
 8006178:	6833      	ldr	r3, [r6, #0]
 800617a:	f8c8 500c 	str.w	r5, [r8, #12]
 800617e:	429a      	cmp	r2, r3
 8006180:	d10a      	bne.n	8006198 <usbInitEndpointI+0x78>
 8006182:	4639      	mov	r1, r7
 8006184:	4620      	mov	r0, r4
 8006186:	b002      	add	sp, #8
 8006188:	e8bd 41f0 	ldmia.w	sp!, {r4, r5, r6, r7, r8, lr}
 800618c:	f003 bba8 	b.w	80098e0 <usb_lld_init_endpoint>
 8006190:	4803      	ldr	r0, [pc, #12]	; (80061a0 <usbInitEndpointI+0x80>)
 8006192:	f7fc fa4d 	bl	8002630 <chSysHalt>
 8006196:	e7d0      	b.n	800613a <usbInitEndpointI+0x1a>
 8006198:	f7fb f862 	bl	8001260 <__stack_chk_fail>
 800619c:	20000800 	.word	0x20000800
 80061a0:	0800ed50 	.word	0x0800ed50
	...

080061b0 <usbPrepareQueuedReceive>:
 80061b0:	b570      	push	{r4, r5, r6, lr}
 80061b2:	eb00 0481 	add.w	r4, r0, r1, lsl #2
 80061b6:	4d0c      	ldr	r5, [pc, #48]	; (80061e8 <usbPrepareQueuedReceive+0x38>)
 80061b8:	68e4      	ldr	r4, [r4, #12]
 80061ba:	682e      	ldr	r6, [r5, #0]
 80061bc:	69a4      	ldr	r4, [r4, #24]
 80061be:	b082      	sub	sp, #8
 80061c0:	60e2      	str	r2, [r4, #12]
 80061c2:	9601      	str	r6, [sp, #4]
 80061c4:	2601      	movs	r6, #1
 80061c6:	7026      	strb	r6, [r4, #0]
 80061c8:	9e01      	ldr	r6, [sp, #4]
 80061ca:	682a      	ldr	r2, [r5, #0]
 80061cc:	6063      	str	r3, [r4, #4]
 80061ce:	4296      	cmp	r6, r2
 80061d0:	f04f 0300 	mov.w	r3, #0
 80061d4:	60a3      	str	r3, [r4, #8]
 80061d6:	d104      	bne.n	80061e2 <usbPrepareQueuedReceive+0x32>
 80061d8:	b002      	add	sp, #8
 80061da:	e8bd 4070 	ldmia.w	sp!, {r4, r5, r6, lr}
 80061de:	f003 bca7 	b.w	8009b30 <usb_lld_prepare_receive>
 80061e2:	f7fb f83d 	bl	8001260 <__stack_chk_fail>
 80061e6:	bf00      	nop
 80061e8:	20000800 	.word	0x20000800
 80061ec:	00000000 	.word	0x00000000

080061f0 <usbPrepareQueuedTransmit>:
 80061f0:	b570      	push	{r4, r5, r6, lr}
 80061f2:	eb00 0481 	add.w	r4, r0, r1, lsl #2
 80061f6:	4d0c      	ldr	r5, [pc, #48]	; (8006228 <usbPrepareQueuedTransmit+0x38>)
 80061f8:	68e4      	ldr	r4, [r4, #12]
 80061fa:	682e      	ldr	r6, [r5, #0]
 80061fc:	6964      	ldr	r4, [r4, #20]
 80061fe:	b082      	sub	sp, #8
 8006200:	60e2      	str	r2, [r4, #12]
 8006202:	9601      	str	r6, [sp, #4]
 8006204:	2601      	movs	r6, #1
 8006206:	7026      	strb	r6, [r4, #0]
 8006208:	9e01      	ldr	r6, [sp, #4]
 800620a:	682a      	ldr	r2, [r5, #0]
 800620c:	6063      	str	r3, [r4, #4]
 800620e:	4296      	cmp	r6, r2
 8006210:	f04f 0300 	mov.w	r3, #0
 8006214:	60a3      	str	r3, [r4, #8]
 8006216:	d104      	bne.n	8006222 <usbPrepareQueuedTransmit+0x32>
 8006218:	b002      	add	sp, #8
 800621a:	e8bd 4070 	ldmia.w	sp!, {r4, r5, r6, lr}
 800621e:	f003 bd27 	b.w	8009c70 <usb_lld_prepare_transmit>
 8006222:	f7fb f81d 	bl	8001260 <__stack_chk_fail>
 8006226:	bf00      	nop
 8006228:	20000800 	.word	0x20000800
 800622c:	00000000 	.word	0x00000000

08006230 <usbStartReceiveI>:
 8006230:	b5f0      	push	{r4, r5, r6, r7, lr}
 8006232:	4d12      	ldr	r5, [pc, #72]	; (800627c <usbStartReceiveI+0x4c>)
 8006234:	b083      	sub	sp, #12
 8006236:	4604      	mov	r4, r0
 8006238:	682b      	ldr	r3, [r5, #0]
 800623a:	9301      	str	r3, [sp, #4]
 800623c:	460e      	mov	r6, r1
 800623e:	f7fc fb67 	bl	8002910 <chDbgCheckClassI>
 8006242:	b1a4      	cbz	r4, 800626e <usbStartReceiveI+0x3e>
 8006244:	2001      	movs	r0, #1
 8006246:	fa00 f306 	lsl.w	r3, r0, r6
 800624a:	8962      	ldrh	r2, [r4, #10]
 800624c:	b29b      	uxth	r3, r3
 800624e:	ea12 0703 	ands.w	r7, r2, r3
 8006252:	d106      	bne.n	8006262 <usbStartReceiveI+0x32>
 8006254:	4313      	orrs	r3, r2
 8006256:	4620      	mov	r0, r4
 8006258:	8163      	strh	r3, [r4, #10]
 800625a:	4631      	mov	r1, r6
 800625c:	f003 fe60 	bl	8009f20 <usb_lld_start_out>
 8006260:	4638      	mov	r0, r7
 8006262:	9a01      	ldr	r2, [sp, #4]
 8006264:	682b      	ldr	r3, [r5, #0]
 8006266:	429a      	cmp	r2, r3
 8006268:	d105      	bne.n	8006276 <usbStartReceiveI+0x46>
 800626a:	b003      	add	sp, #12
 800626c:	bdf0      	pop	{r4, r5, r6, r7, pc}
 800626e:	4804      	ldr	r0, [pc, #16]	; (8006280 <usbStartReceiveI+0x50>)
 8006270:	f7fc f9de 	bl	8002630 <chSysHalt>
 8006274:	e7e6      	b.n	8006244 <usbStartReceiveI+0x14>
 8006276:	f7fa fff3 	bl	8001260 <__stack_chk_fail>
 800627a:	bf00      	nop
 800627c:	20000800 	.word	0x20000800
 8006280:	0800ed70 	.word	0x0800ed70
	...

08006290 <usbStartTransmitI>:
 8006290:	b5f0      	push	{r4, r5, r6, r7, lr}
 8006292:	4d12      	ldr	r5, [pc, #72]	; (80062dc <usbStartTransmitI+0x4c>)
 8006294:	b083      	sub	sp, #12
 8006296:	4604      	mov	r4, r0
 8006298:	682b      	ldr	r3, [r5, #0]
 800629a:	9301      	str	r3, [sp, #4]
 800629c:	460e      	mov	r6, r1
 800629e:	f7fc fb37 	bl	8002910 <chDbgCheckClassI>
 80062a2:	b1a4      	cbz	r4, 80062ce <usbStartTransmitI+0x3e>
 80062a4:	2001      	movs	r0, #1
 80062a6:	fa00 f306 	lsl.w	r3, r0, r6
 80062aa:	8922      	ldrh	r2, [r4, #8]
 80062ac:	b29b      	uxth	r3, r3
 80062ae:	ea12 0703 	ands.w	r7, r2, r3
 80062b2:	d106      	bne.n	80062c2 <usbStartTransmitI+0x32>
 80062b4:	4313      	orrs	r3, r2
 80062b6:	4620      	mov	r0, r4
 80062b8:	8123      	strh	r3, [r4, #8]
 80062ba:	4631      	mov	r1, r6
 80062bc:	f003 fe50 	bl	8009f60 <usb_lld_start_in>
 80062c0:	4638      	mov	r0, r7
 80062c2:	9a01      	ldr	r2, [sp, #4]
 80062c4:	682b      	ldr	r3, [r5, #0]
 80062c6:	429a      	cmp	r2, r3
 80062c8:	d105      	bne.n	80062d6 <usbStartTransmitI+0x46>
 80062ca:	b003      	add	sp, #12
 80062cc:	bdf0      	pop	{r4, r5, r6, r7, pc}
 80062ce:	4804      	ldr	r0, [pc, #16]	; (80062e0 <usbStartTransmitI+0x50>)
 80062d0:	f7fc f9ae 	bl	8002630 <chSysHalt>
 80062d4:	e7e6      	b.n	80062a4 <usbStartTransmitI+0x14>
 80062d6:	f7fa ffc3 	bl	8001260 <__stack_chk_fail>
 80062da:	bf00      	nop
 80062dc:	20000800 	.word	0x20000800
 80062e0:	0800ed90 	.word	0x0800ed90
	...

080062f0 <_usb_reset>:
 80062f0:	b510      	push	{r4, lr}
 80062f2:	4a0d      	ldr	r2, [pc, #52]	; (8006328 <_usb_reset+0x38>)
 80062f4:	b082      	sub	sp, #8
 80062f6:	6811      	ldr	r1, [r2, #0]
 80062f8:	9101      	str	r1, [sp, #4]
 80062fa:	2102      	movs	r1, #2
 80062fc:	7001      	strb	r1, [r0, #0]
 80062fe:	9c01      	ldr	r4, [sp, #4]
 8006300:	6811      	ldr	r1, [r2, #0]
 8006302:	2200      	movs	r2, #0
 8006304:	428c      	cmp	r4, r1
 8006306:	64c2      	str	r2, [r0, #76]	; 0x4c
 8006308:	e9c0 2202 	strd	r2, r2, [r0, #8]
 800630c:	e9c0 2204 	strd	r2, r2, [r0, #16]
 8006310:	6182      	str	r2, [r0, #24]
 8006312:	f880 2034 	strb.w	r2, [r0, #52]	; 0x34
 8006316:	d104      	bne.n	8006322 <_usb_reset+0x32>
 8006318:	b002      	add	sp, #8
 800631a:	e8bd 4010 	ldmia.w	sp!, {r4, lr}
 800631e:	f003 ba47 	b.w	80097b0 <usb_lld_reset>
 8006322:	f7fa ff9d 	bl	8001260 <__stack_chk_fail>
 8006326:	bf00      	nop
 8006328:	20000800 	.word	0x20000800
 800632c:	00000000 	.word	0x00000000

08006330 <_usb_ep0setup>:
 8006330:	b5f0      	push	{r4, r5, r6, r7, lr}
 8006332:	4dc3      	ldr	r5, [pc, #780]	; (8006640 <_usb_ep0setup+0x310>)
 8006334:	b083      	sub	sp, #12
 8006336:	4604      	mov	r4, r0
 8006338:	2200      	movs	r2, #0
 800633a:	682b      	ldr	r3, [r5, #0]
 800633c:	f880 2034 	strb.w	r2, [r0, #52]	; 0x34
 8006340:	f100 0244 	add.w	r2, r0, #68	; 0x44
 8006344:	9301      	str	r3, [sp, #4]
 8006346:	f003 fbdb 	bl	8009b00 <usb_lld_read_setup>
 800634a:	6863      	ldr	r3, [r4, #4]
 800634c:	689b      	ldr	r3, [r3, #8]
 800634e:	2b00      	cmp	r3, #0
 8006350:	d036      	beq.n	80063c0 <_usb_ep0setup+0x90>
 8006352:	4620      	mov	r0, r4
 8006354:	4798      	blx	r3
 8006356:	b398      	cbz	r0, 80063c0 <_usb_ep0setup+0x90>
 8006358:	6be1      	ldr	r1, [r4, #60]	; 0x3c
 800635a:	f894 3044 	ldrb.w	r3, [r4, #68]	; 0x44
 800635e:	f894 004b 	ldrb.w	r0, [r4, #75]	; 0x4b
 8006362:	f894 204a 	ldrb.w	r2, [r4, #74]	; 0x4a
 8006366:	ea42 2200 	orr.w	r2, r2, r0, lsl #8
 800636a:	428a      	cmp	r2, r1
 800636c:	bf2c      	ite	cs
 800636e:	460a      	movcs	r2, r1
 8006370:	63e2      	strcc	r2, [r4, #60]	; 0x3c
 8006372:	0618      	lsls	r0, r3, #24
 8006374:	68e1      	ldr	r1, [r4, #12]
 8006376:	f100 80a6 	bmi.w	80064c6 <_usb_ep0setup+0x196>
 800637a:	2a00      	cmp	r2, #0
 800637c:	f000 8084 	beq.w	8006488 <_usb_ep0setup+0x158>
 8006380:	2304      	movs	r3, #4
 8006382:	f884 3034 	strb.w	r3, [r4, #52]	; 0x34
 8006386:	698b      	ldr	r3, [r1, #24]
 8006388:	6ba1      	ldr	r1, [r4, #56]	; 0x38
 800638a:	60d9      	str	r1, [r3, #12]
 800638c:	2600      	movs	r6, #0
 800638e:	605a      	str	r2, [r3, #4]
 8006390:	701e      	strb	r6, [r3, #0]
 8006392:	609e      	str	r6, [r3, #8]
 8006394:	4631      	mov	r1, r6
 8006396:	4620      	mov	r0, r4
 8006398:	f003 fbca 	bl	8009b30 <usb_lld_prepare_receive>
 800639c:	2320      	movs	r3, #32
 800639e:	f383 8811 	msr	BASEPRI, r3
 80063a2:	f7fd fa0d 	bl	80037c0 <_stats_start_measure_crit_isr>
 80063a6:	f7fc fa23 	bl	80027f0 <_dbg_check_lock_from_isr>
 80063aa:	4631      	mov	r1, r6
 80063ac:	4620      	mov	r0, r4
 80063ae:	f7ff ff3f 	bl	8006230 <usbStartReceiveI>
 80063b2:	f7fc fa3d 	bl	8002830 <_dbg_check_unlock_from_isr>
 80063b6:	f7fd fa1b 	bl	80037f0 <_stats_stop_measure_crit_isr>
 80063ba:	f386 8811 	msr	BASEPRI, r6
 80063be:	e016      	b.n	80063ee <_usb_ep0setup+0xbe>
 80063c0:	f894 3044 	ldrb.w	r3, [r4, #68]	; 0x44
 80063c4:	f013 0660 	ands.w	r6, r3, #96	; 0x60
 80063c8:	4618      	mov	r0, r3
 80063ca:	d017      	beq.n	80063fc <_usb_ep0setup+0xcc>
 80063cc:	2100      	movs	r1, #0
 80063ce:	4620      	mov	r0, r4
 80063d0:	f003 fe0e 	bl	8009ff0 <usb_lld_stall_in>
 80063d4:	2100      	movs	r1, #0
 80063d6:	4620      	mov	r0, r4
 80063d8:	f003 fdea 	bl	8009fb0 <usb_lld_stall_out>
 80063dc:	6863      	ldr	r3, [r4, #4]
 80063de:	681b      	ldr	r3, [r3, #0]
 80063e0:	b113      	cbz	r3, 80063e8 <_usb_ep0setup+0xb8>
 80063e2:	2105      	movs	r1, #5
 80063e4:	4620      	mov	r0, r4
 80063e6:	4798      	blx	r3
 80063e8:	2306      	movs	r3, #6
 80063ea:	f884 3034 	strb.w	r3, [r4, #52]	; 0x34
 80063ee:	9a01      	ldr	r2, [sp, #4]
 80063f0:	682b      	ldr	r3, [r5, #0]
 80063f2:	429a      	cmp	r2, r3
 80063f4:	f040 813a 	bne.w	800666c <_usb_ep0setup+0x33c>
 80063f8:	b003      	add	sp, #12
 80063fa:	bdf0      	pop	{r4, r5, r6, r7, pc}
 80063fc:	f894 1045 	ldrb.w	r1, [r4, #69]	; 0x45
 8006400:	f003 027f 	and.w	r2, r3, #127	; 0x7f
 8006404:	ea42 2201 	orr.w	r2, r2, r1, lsl #8
 8006408:	f5b2 7f40 	cmp.w	r2, #768	; 0x300
 800640c:	f000 8105 	beq.w	800661a <_usb_ep0setup+0x2ea>
 8006410:	d917      	bls.n	8006442 <_usb_ep0setup+0x112>
 8006412:	f5b2 6fc0 	cmp.w	r2, #1536	; 0x600
 8006416:	f000 80c6 	beq.w	80065a6 <_usb_ep0setup+0x276>
 800641a:	f240 808a 	bls.w	8006532 <_usb_ep0setup+0x202>
 800641e:	f5b2 6f10 	cmp.w	r2, #2304	; 0x900
 8006422:	d064      	beq.n	80064ee <_usb_ep0setup+0x1be>
 8006424:	f640 4102 	movw	r1, #3074	; 0xc02
 8006428:	428a      	cmp	r2, r1
 800642a:	f000 80d8 	beq.w	80065de <_usb_ep0setup+0x2ae>
 800642e:	f5b2 6f00 	cmp.w	r2, #2048	; 0x800
 8006432:	d1cb      	bne.n	80063cc <_usb_ep0setup+0x9c>
 8006434:	f104 024f 	add.w	r2, r4, #79	; 0x4f
 8006438:	2101      	movs	r1, #1
 800643a:	6426      	str	r6, [r4, #64]	; 0x40
 800643c:	e9c4 210e 	strd	r2, r1, [r4, #56]	; 0x38
 8006440:	e78d      	b.n	800635e <_usb_ep0setup+0x2e>
 8006442:	2a02      	cmp	r2, #2
 8006444:	f000 80d2 	beq.w	80065ec <_usb_ep0setup+0x2bc>
 8006448:	f240 8092 	bls.w	8006570 <_usb_ep0setup+0x240>
 800644c:	f5b2 7f80 	cmp.w	r2, #256	; 0x100
 8006450:	d060      	beq.n	8006514 <_usb_ep0setup+0x1e4>
 8006452:	f5b2 7f81 	cmp.w	r2, #258	; 0x102
 8006456:	d1b9      	bne.n	80063cc <_usb_ep0setup+0x9c>
 8006458:	f894 3046 	ldrb.w	r3, [r4, #70]	; 0x46
 800645c:	2b00      	cmp	r3, #0
 800645e:	d1b5      	bne.n	80063cc <_usb_ep0setup+0x9c>
 8006460:	f894 3048 	ldrb.w	r3, [r4, #72]	; 0x48
 8006464:	f013 010f 	ands.w	r1, r3, #15
 8006468:	d007      	beq.n	800647a <_usb_ep0setup+0x14a>
 800646a:	061f      	lsls	r7, r3, #24
 800646c:	4620      	mov	r0, r4
 800646e:	f100 80f3 	bmi.w	8006658 <_usb_ep0setup+0x328>
 8006472:	f003 fddd 	bl	800a030 <usb_lld_clear_out>
 8006476:	f894 0044 	ldrb.w	r0, [r4, #68]	; 0x44
 800647a:	2300      	movs	r3, #0
 800647c:	e9c4 330e 	strd	r3, r3, [r4, #56]	; 0x38
 8006480:	6423      	str	r3, [r4, #64]	; 0x40
 8006482:	0603      	lsls	r3, r0, #24
 8006484:	68e1      	ldr	r1, [r4, #12]
 8006486:	d429      	bmi.n	80064dc <_usb_ep0setup+0x1ac>
 8006488:	2305      	movs	r3, #5
 800648a:	f884 3034 	strb.w	r3, [r4, #52]	; 0x34
 800648e:	694b      	ldr	r3, [r1, #20]
 8006490:	2600      	movs	r6, #0
 8006492:	701e      	strb	r6, [r3, #0]
 8006494:	60de      	str	r6, [r3, #12]
 8006496:	605e      	str	r6, [r3, #4]
 8006498:	609e      	str	r6, [r3, #8]
 800649a:	4631      	mov	r1, r6
 800649c:	4620      	mov	r0, r4
 800649e:	f003 fbe7 	bl	8009c70 <usb_lld_prepare_transmit>
 80064a2:	2320      	movs	r3, #32
 80064a4:	f383 8811 	msr	BASEPRI, r3
 80064a8:	f7fd f98a 	bl	80037c0 <_stats_start_measure_crit_isr>
 80064ac:	f7fc f9a0 	bl	80027f0 <_dbg_check_lock_from_isr>
 80064b0:	4631      	mov	r1, r6
 80064b2:	4620      	mov	r0, r4
 80064b4:	f7ff feec 	bl	8006290 <usbStartTransmitI>
 80064b8:	f7fc f9ba 	bl	8002830 <_dbg_check_unlock_from_isr>
 80064bc:	f7fd f998 	bl	80037f0 <_stats_stop_measure_crit_isr>
 80064c0:	f386 8811 	msr	BASEPRI, r6
 80064c4:	e793      	b.n	80063ee <_usb_ep0setup+0xbe>
 80064c6:	b14a      	cbz	r2, 80064dc <_usb_ep0setup+0x1ac>
 80064c8:	2301      	movs	r3, #1
 80064ca:	f884 3034 	strb.w	r3, [r4, #52]	; 0x34
 80064ce:	694b      	ldr	r3, [r1, #20]
 80064d0:	6ba1      	ldr	r1, [r4, #56]	; 0x38
 80064d2:	60d9      	str	r1, [r3, #12]
 80064d4:	2600      	movs	r6, #0
 80064d6:	605a      	str	r2, [r3, #4]
 80064d8:	701e      	strb	r6, [r3, #0]
 80064da:	e7dd      	b.n	8006498 <_usb_ep0setup+0x168>
 80064dc:	2303      	movs	r3, #3
 80064de:	f884 3034 	strb.w	r3, [r4, #52]	; 0x34
 80064e2:	698b      	ldr	r3, [r1, #24]
 80064e4:	2600      	movs	r6, #0
 80064e6:	701e      	strb	r6, [r3, #0]
 80064e8:	60de      	str	r6, [r3, #12]
 80064ea:	605e      	str	r6, [r3, #4]
 80064ec:	e751      	b.n	8006392 <_usb_ep0setup+0x62>
 80064ee:	f894 3046 	ldrb.w	r3, [r4, #70]	; 0x46
 80064f2:	f884 304f 	strb.w	r3, [r4, #79]	; 0x4f
 80064f6:	2b00      	cmp	r3, #0
 80064f8:	f040 809e 	bne.w	8006638 <_usb_ep0setup+0x308>
 80064fc:	2303      	movs	r3, #3
 80064fe:	7023      	strb	r3, [r4, #0]
 8006500:	6863      	ldr	r3, [r4, #4]
 8006502:	681b      	ldr	r3, [r3, #0]
 8006504:	2b00      	cmp	r3, #0
 8006506:	d0b8      	beq.n	800647a <_usb_ep0setup+0x14a>
 8006508:	4620      	mov	r0, r4
 800650a:	2102      	movs	r1, #2
 800650c:	4798      	blx	r3
 800650e:	f894 0044 	ldrb.w	r0, [r4, #68]	; 0x44
 8006512:	e7b2      	b.n	800647a <_usb_ep0setup+0x14a>
 8006514:	f894 3046 	ldrb.w	r3, [r4, #70]	; 0x46
 8006518:	2b01      	cmp	r3, #1
 800651a:	f47f af57 	bne.w	80063cc <_usb_ep0setup+0x9c>
 800651e:	f8b4 304c 	ldrh.w	r3, [r4, #76]	; 0x4c
 8006522:	63a6      	str	r6, [r4, #56]	; 0x38
 8006524:	f023 0302 	bic.w	r3, r3, #2
 8006528:	e9c4 660f 	strd	r6, r6, [r4, #60]	; 0x3c
 800652c:	f8a4 304c 	strh.w	r3, [r4, #76]	; 0x4c
 8006530:	e7a7      	b.n	8006482 <_usb_ep0setup+0x152>
 8006532:	f240 3302 	movw	r3, #770	; 0x302
 8006536:	429a      	cmp	r2, r3
 8006538:	d022      	beq.n	8006580 <_usb_ep0setup+0x250>
 800653a:	f5b2 6fa0 	cmp.w	r2, #1280	; 0x500
 800653e:	f47f af45 	bne.w	80063cc <_usb_ep0setup+0x9c>
 8006542:	f8b4 3044 	ldrh.w	r3, [r4, #68]	; 0x44
 8006546:	f5b3 6fa0 	cmp.w	r3, #1280	; 0x500
 800654a:	d196      	bne.n	800647a <_usb_ep0setup+0x14a>
 800654c:	f894 3046 	ldrb.w	r3, [r4, #70]	; 0x46
 8006550:	f884 304e 	strb.w	r3, [r4, #78]	; 0x4e
 8006554:	4620      	mov	r0, r4
 8006556:	f003 f9a3 	bl	80098a0 <usb_lld_set_address>
 800655a:	6863      	ldr	r3, [r4, #4]
 800655c:	681b      	ldr	r3, [r3, #0]
 800655e:	b113      	cbz	r3, 8006566 <_usb_ep0setup+0x236>
 8006560:	2101      	movs	r1, #1
 8006562:	4620      	mov	r0, r4
 8006564:	4798      	blx	r3
 8006566:	2303      	movs	r3, #3
 8006568:	f894 0044 	ldrb.w	r0, [r4, #68]	; 0x44
 800656c:	7023      	strb	r3, [r4, #0]
 800656e:	e784      	b.n	800647a <_usb_ep0setup+0x14a>
 8006570:	bb92      	cbnz	r2, 80065d8 <_usb_ep0setup+0x2a8>
 8006572:	f104 004c 	add.w	r0, r4, #76	; 0x4c
 8006576:	2102      	movs	r1, #2
 8006578:	6422      	str	r2, [r4, #64]	; 0x40
 800657a:	e9c4 010e 	strd	r0, r1, [r4, #56]	; 0x38
 800657e:	e6ee      	b.n	800635e <_usb_ep0setup+0x2e>
 8006580:	f894 3046 	ldrb.w	r3, [r4, #70]	; 0x46
 8006584:	2b00      	cmp	r3, #0
 8006586:	f47f af21 	bne.w	80063cc <_usb_ep0setup+0x9c>
 800658a:	f894 3048 	ldrb.w	r3, [r4, #72]	; 0x48
 800658e:	f013 010f 	ands.w	r1, r3, #15
 8006592:	f43f af72 	beq.w	800647a <_usb_ep0setup+0x14a>
 8006596:	061e      	lsls	r6, r3, #24
 8006598:	4620      	mov	r0, r4
 800659a:	d462      	bmi.n	8006662 <_usb_ep0setup+0x332>
 800659c:	f003 fd08 	bl	8009fb0 <usb_lld_stall_out>
 80065a0:	f894 0044 	ldrb.w	r0, [r4, #68]	; 0x44
 80065a4:	e769      	b.n	800647a <_usb_ep0setup+0x14a>
 80065a6:	f894 0049 	ldrb.w	r0, [r4, #73]	; 0x49
 80065aa:	6861      	ldr	r1, [r4, #4]
 80065ac:	f894 3048 	ldrb.w	r3, [r4, #72]	; 0x48
 80065b0:	684f      	ldr	r7, [r1, #4]
 80065b2:	f894 2046 	ldrb.w	r2, [r4, #70]	; 0x46
 80065b6:	f894 1047 	ldrb.w	r1, [r4, #71]	; 0x47
 80065ba:	ea43 2300 	orr.w	r3, r3, r0, lsl #8
 80065be:	4620      	mov	r0, r4
 80065c0:	47b8      	blx	r7
 80065c2:	2800      	cmp	r0, #0
 80065c4:	f43f af02 	beq.w	80063cc <_usb_ep0setup+0x9c>
 80065c8:	6843      	ldr	r3, [r0, #4]
 80065ca:	63a3      	str	r3, [r4, #56]	; 0x38
 80065cc:	6801      	ldr	r1, [r0, #0]
 80065ce:	f894 3044 	ldrb.w	r3, [r4, #68]	; 0x44
 80065d2:	e9c4 160f 	strd	r1, r6, [r4, #60]	; 0x3c
 80065d6:	e6c2      	b.n	800635e <_usb_ep0setup+0x2e>
 80065d8:	2a01      	cmp	r2, #1
 80065da:	f47f aef7 	bne.w	80063cc <_usb_ep0setup+0x9c>
 80065de:	4a19      	ldr	r2, [pc, #100]	; (8006644 <_usb_ep0setup+0x314>)
 80065e0:	63a2      	str	r2, [r4, #56]	; 0x38
 80065e2:	2102      	movs	r1, #2
 80065e4:	2200      	movs	r2, #0
 80065e6:	e9c4 120f 	strd	r1, r2, [r4, #60]	; 0x3c
 80065ea:	e6b8      	b.n	800635e <_usb_ep0setup+0x2e>
 80065ec:	f894 3048 	ldrb.w	r3, [r4, #72]	; 0x48
 80065f0:	f003 010f 	and.w	r1, r3, #15
 80065f4:	061b      	lsls	r3, r3, #24
 80065f6:	4620      	mov	r0, r4
 80065f8:	d428      	bmi.n	800664c <_usb_ep0setup+0x31c>
 80065fa:	f003 fa41 	bl	8009a80 <usb_lld_get_status_out>
 80065fe:	2801      	cmp	r0, #1
 8006600:	d028      	beq.n	8006654 <_usb_ep0setup+0x324>
 8006602:	2802      	cmp	r0, #2
 8006604:	f47f aee2 	bne.w	80063cc <_usb_ep0setup+0x9c>
 8006608:	4b0f      	ldr	r3, [pc, #60]	; (8006648 <_usb_ep0setup+0x318>)
 800660a:	63a3      	str	r3, [r4, #56]	; 0x38
 800660c:	2102      	movs	r1, #2
 800660e:	2300      	movs	r3, #0
 8006610:	e9c4 130f 	strd	r1, r3, [r4, #60]	; 0x3c
 8006614:	f894 3044 	ldrb.w	r3, [r4, #68]	; 0x44
 8006618:	e6a1      	b.n	800635e <_usb_ep0setup+0x2e>
 800661a:	f894 3046 	ldrb.w	r3, [r4, #70]	; 0x46
 800661e:	2b01      	cmp	r3, #1
 8006620:	f47f aed4 	bne.w	80063cc <_usb_ep0setup+0x9c>
 8006624:	f8b4 304c 	ldrh.w	r3, [r4, #76]	; 0x4c
 8006628:	63a6      	str	r6, [r4, #56]	; 0x38
 800662a:	f043 0302 	orr.w	r3, r3, #2
 800662e:	e9c4 660f 	strd	r6, r6, [r4, #60]	; 0x3c
 8006632:	f8a4 304c 	strh.w	r3, [r4, #76]	; 0x4c
 8006636:	e724      	b.n	8006482 <_usb_ep0setup+0x152>
 8006638:	2304      	movs	r3, #4
 800663a:	7023      	strb	r3, [r4, #0]
 800663c:	e760      	b.n	8006500 <_usb_ep0setup+0x1d0>
 800663e:	bf00      	nop
 8006640:	20000800 	.word	0x20000800
 8006644:	0800ee00 	.word	0x0800ee00
 8006648:	0800ede0 	.word	0x0800ede0
 800664c:	f003 fa38 	bl	8009ac0 <usb_lld_get_status_in>
 8006650:	2801      	cmp	r0, #1
 8006652:	d1d6      	bne.n	8006602 <_usb_ep0setup+0x2d2>
 8006654:	4b06      	ldr	r3, [pc, #24]	; (8006670 <_usb_ep0setup+0x340>)
 8006656:	e7d8      	b.n	800660a <_usb_ep0setup+0x2da>
 8006658:	f003 fd0a 	bl	800a070 <usb_lld_clear_in>
 800665c:	f894 0044 	ldrb.w	r0, [r4, #68]	; 0x44
 8006660:	e70b      	b.n	800647a <_usb_ep0setup+0x14a>
 8006662:	f003 fcc5 	bl	8009ff0 <usb_lld_stall_in>
 8006666:	f894 0044 	ldrb.w	r0, [r4, #68]	; 0x44
 800666a:	e706      	b.n	800647a <_usb_ep0setup+0x14a>
 800666c:	f7fa fdf8 	bl	8001260 <__stack_chk_fail>
 8006670:	0800edf0 	.word	0x0800edf0
	...

08006680 <_usb_ep0in>:
 8006680:	b570      	push	{r4, r5, r6, lr}
 8006682:	4d45      	ldr	r5, [pc, #276]	; (8006798 <_usb_ep0in+0x118>)
 8006684:	f890 3034 	ldrb.w	r3, [r0, #52]	; 0x34
 8006688:	682a      	ldr	r2, [r5, #0]
 800668a:	b082      	sub	sp, #8
 800668c:	4604      	mov	r4, r0
 800668e:	9201      	str	r2, [sp, #4]
 8006690:	2b06      	cmp	r3, #6
 8006692:	d857      	bhi.n	8006744 <_usb_ep0in+0xc4>
 8006694:	e8df f003 	tbb	[pc, r3]
 8006698:	04542504 	.word	0x04542504
 800669c:	1e04      	.short	0x1e04
 800669e:	07          	.byte	0x07
 800669f:	00          	.byte	0x00
 80066a0:	483e      	ldr	r0, [pc, #248]	; (800679c <_usb_ep0in+0x11c>)
 80066a2:	f7fb ffc5 	bl	8002630 <chSysHalt>
 80066a6:	2100      	movs	r1, #0
 80066a8:	4620      	mov	r0, r4
 80066aa:	f003 fca1 	bl	8009ff0 <usb_lld_stall_in>
 80066ae:	2100      	movs	r1, #0
 80066b0:	4620      	mov	r0, r4
 80066b2:	f003 fc7d 	bl	8009fb0 <usb_lld_stall_out>
 80066b6:	6863      	ldr	r3, [r4, #4]
 80066b8:	681b      	ldr	r3, [r3, #0]
 80066ba:	b113      	cbz	r3, 80066c2 <_usb_ep0in+0x42>
 80066bc:	2105      	movs	r1, #5
 80066be:	4620      	mov	r0, r4
 80066c0:	4798      	blx	r3
 80066c2:	2306      	movs	r3, #6
 80066c4:	f884 3034 	strb.w	r3, [r4, #52]	; 0x34
 80066c8:	9a01      	ldr	r2, [sp, #4]
 80066ca:	682b      	ldr	r3, [r5, #0]
 80066cc:	429a      	cmp	r2, r3
 80066ce:	d161      	bne.n	8006794 <_usb_ep0in+0x114>
 80066d0:	b002      	add	sp, #8
 80066d2:	bd70      	pop	{r4, r5, r6, pc}
 80066d4:	6c03      	ldr	r3, [r0, #64]	; 0x40
 80066d6:	b103      	cbz	r3, 80066da <_usb_ep0in+0x5a>
 80066d8:	4798      	blx	r3
 80066da:	2300      	movs	r3, #0
 80066dc:	f884 3034 	strb.w	r3, [r4, #52]	; 0x34
 80066e0:	e7f2      	b.n	80066c8 <_usb_ep0in+0x48>
 80066e2:	f890 004b 	ldrb.w	r0, [r0, #75]	; 0x4b
 80066e6:	f894 204a 	ldrb.w	r2, [r4, #74]	; 0x4a
 80066ea:	6be1      	ldr	r1, [r4, #60]	; 0x3c
 80066ec:	68e3      	ldr	r3, [r4, #12]
 80066ee:	ea42 2200 	orr.w	r2, r2, r0, lsl #8
 80066f2:	4291      	cmp	r1, r2
 80066f4:	d205      	bcs.n	8006702 <_usb_ep0in+0x82>
 80066f6:	8a1a      	ldrh	r2, [r3, #16]
 80066f8:	fbb1 f6f2 	udiv	r6, r1, r2
 80066fc:	fb02 1616 	mls	r6, r2, r6, r1
 8006700:	b356      	cbz	r6, 8006758 <_usb_ep0in+0xd8>
 8006702:	2203      	movs	r2, #3
 8006704:	f884 2034 	strb.w	r2, [r4, #52]	; 0x34
 8006708:	699b      	ldr	r3, [r3, #24]
 800670a:	2600      	movs	r6, #0
 800670c:	701e      	strb	r6, [r3, #0]
 800670e:	60de      	str	r6, [r3, #12]
 8006710:	e9c3 6601 	strd	r6, r6, [r3, #4]
 8006714:	4631      	mov	r1, r6
 8006716:	4620      	mov	r0, r4
 8006718:	f003 fa0a 	bl	8009b30 <usb_lld_prepare_receive>
 800671c:	2320      	movs	r3, #32
 800671e:	f383 8811 	msr	BASEPRI, r3
 8006722:	f7fd f84d 	bl	80037c0 <_stats_start_measure_crit_isr>
 8006726:	f7fc f863 	bl	80027f0 <_dbg_check_lock_from_isr>
 800672a:	4631      	mov	r1, r6
 800672c:	4620      	mov	r0, r4
 800672e:	f7ff fd7f 	bl	8006230 <usbStartReceiveI>
 8006732:	f7fc f87d 	bl	8002830 <_dbg_check_unlock_from_isr>
 8006736:	f7fd f85b 	bl	80037f0 <_stats_stop_measure_crit_isr>
 800673a:	f386 8811 	msr	BASEPRI, r6
 800673e:	e7c3      	b.n	80066c8 <_usb_ep0in+0x48>
 8006740:	68c3      	ldr	r3, [r0, #12]
 8006742:	e7de      	b.n	8006702 <_usb_ep0in+0x82>
 8006744:	9a01      	ldr	r2, [sp, #4]
 8006746:	682b      	ldr	r3, [r5, #0]
 8006748:	429a      	cmp	r2, r3
 800674a:	d123      	bne.n	8006794 <_usb_ep0in+0x114>
 800674c:	4813      	ldr	r0, [pc, #76]	; (800679c <_usb_ep0in+0x11c>)
 800674e:	b002      	add	sp, #8
 8006750:	e8bd 4070 	ldmia.w	sp!, {r4, r5, r6, lr}
 8006754:	f7fb bf6c 	b.w	8002630 <chSysHalt>
 8006758:	695b      	ldr	r3, [r3, #20]
 800675a:	4631      	mov	r1, r6
 800675c:	701e      	strb	r6, [r3, #0]
 800675e:	60de      	str	r6, [r3, #12]
 8006760:	e9c3 6601 	strd	r6, r6, [r3, #4]
 8006764:	4620      	mov	r0, r4
 8006766:	f003 fa83 	bl	8009c70 <usb_lld_prepare_transmit>
 800676a:	2320      	movs	r3, #32
 800676c:	f383 8811 	msr	BASEPRI, r3
 8006770:	f7fd f826 	bl	80037c0 <_stats_start_measure_crit_isr>
 8006774:	f7fc f83c 	bl	80027f0 <_dbg_check_lock_from_isr>
 8006778:	4631      	mov	r1, r6
 800677a:	4620      	mov	r0, r4
 800677c:	f7ff fd88 	bl	8006290 <usbStartTransmitI>
 8006780:	f7fc f856 	bl	8002830 <_dbg_check_unlock_from_isr>
 8006784:	f7fd f834 	bl	80037f0 <_stats_stop_measure_crit_isr>
 8006788:	f386 8811 	msr	BASEPRI, r6
 800678c:	2302      	movs	r3, #2
 800678e:	f884 3034 	strb.w	r3, [r4, #52]	; 0x34
 8006792:	e799      	b.n	80066c8 <_usb_ep0in+0x48>
 8006794:	f7fa fd64 	bl	8001260 <__stack_chk_fail>
 8006798:	20000800 	.word	0x20000800
 800679c:	0800edb0 	.word	0x0800edb0

080067a0 <_usb_ep0out>:
 80067a0:	b570      	push	{r4, r5, r6, lr}
 80067a2:	4d30      	ldr	r5, [pc, #192]	; (8006864 <_usb_ep0out+0xc4>)
 80067a4:	f890 3034 	ldrb.w	r3, [r0, #52]	; 0x34
 80067a8:	682a      	ldr	r2, [r5, #0]
 80067aa:	b082      	sub	sp, #8
 80067ac:	4604      	mov	r4, r0
 80067ae:	9201      	str	r2, [sp, #4]
 80067b0:	2b06      	cmp	r3, #6
 80067b2:	d84a      	bhi.n	800684a <_usb_ep0out+0xaa>
 80067b4:	e8df f003 	tbb	[pc, r3]
 80067b8:	3d040404 	.word	0x3d040404
 80067bc:	041e      	.short	0x041e
 80067be:	07          	.byte	0x07
 80067bf:	00          	.byte	0x00
 80067c0:	4829      	ldr	r0, [pc, #164]	; (8006868 <_usb_ep0out+0xc8>)
 80067c2:	f7fb ff35 	bl	8002630 <chSysHalt>
 80067c6:	2100      	movs	r1, #0
 80067c8:	4620      	mov	r0, r4
 80067ca:	f003 fc11 	bl	8009ff0 <usb_lld_stall_in>
 80067ce:	2100      	movs	r1, #0
 80067d0:	4620      	mov	r0, r4
 80067d2:	f003 fbed 	bl	8009fb0 <usb_lld_stall_out>
 80067d6:	6863      	ldr	r3, [r4, #4]
 80067d8:	681b      	ldr	r3, [r3, #0]
 80067da:	b113      	cbz	r3, 80067e2 <_usb_ep0out+0x42>
 80067dc:	2105      	movs	r1, #5
 80067de:	4620      	mov	r0, r4
 80067e0:	4798      	blx	r3
 80067e2:	2306      	movs	r3, #6
 80067e4:	f884 3034 	strb.w	r3, [r4, #52]	; 0x34
 80067e8:	9a01      	ldr	r2, [sp, #4]
 80067ea:	682b      	ldr	r3, [r5, #0]
 80067ec:	429a      	cmp	r2, r3
 80067ee:	d136      	bne.n	800685e <_usb_ep0out+0xbe>
 80067f0:	b002      	add	sp, #8
 80067f2:	bd70      	pop	{r4, r5, r6, pc}
 80067f4:	68c3      	ldr	r3, [r0, #12]
 80067f6:	2205      	movs	r2, #5
 80067f8:	f880 2034 	strb.w	r2, [r0, #52]	; 0x34
 80067fc:	695b      	ldr	r3, [r3, #20]
 80067fe:	2600      	movs	r6, #0
 8006800:	701e      	strb	r6, [r3, #0]
 8006802:	60de      	str	r6, [r3, #12]
 8006804:	e9c3 6601 	strd	r6, r6, [r3, #4]
 8006808:	4631      	mov	r1, r6
 800680a:	f003 fa31 	bl	8009c70 <usb_lld_prepare_transmit>
 800680e:	2320      	movs	r3, #32
 8006810:	f383 8811 	msr	BASEPRI, r3
 8006814:	f7fc ffd4 	bl	80037c0 <_stats_start_measure_crit_isr>
 8006818:	f7fb ffea 	bl	80027f0 <_dbg_check_lock_from_isr>
 800681c:	4631      	mov	r1, r6
 800681e:	4620      	mov	r0, r4
 8006820:	f7ff fd36 	bl	8006290 <usbStartTransmitI>
 8006824:	f7fc f804 	bl	8002830 <_dbg_check_unlock_from_isr>
 8006828:	f7fc ffe2 	bl	80037f0 <_stats_stop_measure_crit_isr>
 800682c:	f386 8811 	msr	BASEPRI, r6
 8006830:	e7da      	b.n	80067e8 <_usb_ep0out+0x48>
 8006832:	68c3      	ldr	r3, [r0, #12]
 8006834:	699b      	ldr	r3, [r3, #24]
 8006836:	689b      	ldr	r3, [r3, #8]
 8006838:	2b00      	cmp	r3, #0
 800683a:	d1d5      	bne.n	80067e8 <_usb_ep0out+0x48>
 800683c:	6c03      	ldr	r3, [r0, #64]	; 0x40
 800683e:	b103      	cbz	r3, 8006842 <_usb_ep0out+0xa2>
 8006840:	4798      	blx	r3
 8006842:	2300      	movs	r3, #0
 8006844:	f884 3034 	strb.w	r3, [r4, #52]	; 0x34
 8006848:	e7ce      	b.n	80067e8 <_usb_ep0out+0x48>
 800684a:	9a01      	ldr	r2, [sp, #4]
 800684c:	682b      	ldr	r3, [r5, #0]
 800684e:	429a      	cmp	r2, r3
 8006850:	d105      	bne.n	800685e <_usb_ep0out+0xbe>
 8006852:	4805      	ldr	r0, [pc, #20]	; (8006868 <_usb_ep0out+0xc8>)
 8006854:	b002      	add	sp, #8
 8006856:	e8bd 4070 	ldmia.w	sp!, {r4, r5, r6, lr}
 800685a:	f7fb bee9 	b.w	8002630 <chSysHalt>
 800685e:	f7fa fcff 	bl	8001260 <__stack_chk_fail>
 8006862:	bf00      	nop
 8006864:	20000800 	.word	0x20000800
 8006868:	0800edc0 	.word	0x0800edc0
 800686c:	00000000 	.word	0x00000000

08006870 <nvicEnableVector>:
 8006870:	b530      	push	{r4, r5, lr}
 8006872:	0943      	lsrs	r3, r0, #5
 8006874:	4d10      	ldr	r5, [pc, #64]	; (80068b8 <nvicEnableVector+0x48>)
 8006876:	b083      	sub	sp, #12
 8006878:	009b      	lsls	r3, r3, #2
 800687a:	682a      	ldr	r2, [r5, #0]
 800687c:	9201      	str	r2, [sp, #4]
 800687e:	f100 4460 	add.w	r4, r0, #3758096384	; 0xe0000000
 8006882:	f103 4360 	add.w	r3, r3, #3758096384	; 0xe0000000
 8006886:	f503 4361 	add.w	r3, r3, #57600	; 0xe100
 800688a:	2201      	movs	r2, #1
 800688c:	0109      	lsls	r1, r1, #4
 800688e:	f504 4461 	add.w	r4, r4, #57600	; 0xe100
 8006892:	f000 001f 	and.w	r0, r0, #31
 8006896:	fa02 f000 	lsl.w	r0, r2, r0
 800689a:	b2c9      	uxtb	r1, r1
 800689c:	f884 1300 	strb.w	r1, [r4, #768]	; 0x300
 80068a0:	f8c3 0180 	str.w	r0, [r3, #384]	; 0x180
 80068a4:	6018      	str	r0, [r3, #0]
 80068a6:	9a01      	ldr	r2, [sp, #4]
 80068a8:	682b      	ldr	r3, [r5, #0]
 80068aa:	429a      	cmp	r2, r3
 80068ac:	d101      	bne.n	80068b2 <nvicEnableVector+0x42>
 80068ae:	b003      	add	sp, #12
 80068b0:	bd30      	pop	{r4, r5, pc}
 80068b2:	f7fa fcd5 	bl	8001260 <__stack_chk_fail>
 80068b6:	bf00      	nop
 80068b8:	20000800 	.word	0x20000800
 80068bc:	00000000 	.word	0x00000000

080068c0 <nvicDisableVector>:
 80068c0:	b530      	push	{r4, r5, lr}
 80068c2:	0943      	lsrs	r3, r0, #5
 80068c4:	490b      	ldr	r1, [pc, #44]	; (80068f4 <nvicDisableVector+0x34>)
 80068c6:	4c0c      	ldr	r4, [pc, #48]	; (80068f8 <nvicDisableVector+0x38>)
 80068c8:	f000 051f 	and.w	r5, r0, #31
 80068cc:	b083      	sub	sp, #12
 80068ce:	3320      	adds	r3, #32
 80068d0:	2201      	movs	r2, #1
 80068d2:	40aa      	lsls	r2, r5
 80068d4:	4420      	add	r0, r4
 80068d6:	680d      	ldr	r5, [r1, #0]
 80068d8:	9501      	str	r5, [sp, #4]
 80068da:	f844 2023 	str.w	r2, [r4, r3, lsl #2]
 80068de:	2300      	movs	r3, #0
 80068e0:	f880 3300 	strb.w	r3, [r0, #768]	; 0x300
 80068e4:	9a01      	ldr	r2, [sp, #4]
 80068e6:	680b      	ldr	r3, [r1, #0]
 80068e8:	429a      	cmp	r2, r3
 80068ea:	d101      	bne.n	80068f0 <nvicDisableVector+0x30>
 80068ec:	b003      	add	sp, #12
 80068ee:	bd30      	pop	{r4, r5, pc}
 80068f0:	f7fa fcb6 	bl	8001260 <__stack_chk_fail>
 80068f4:	20000800 	.word	0x20000800
 80068f8:	e000e100 	.word	0xe000e100
 80068fc:	00000000 	.word	0x00000000

08006900 <nvicSetSystemHandlerPriority>:
 8006900:	b570      	push	{r4, r5, r6, lr}
 8006902:	4e0d      	ldr	r6, [pc, #52]	; (8006938 <nvicSetSystemHandlerPriority+0x38>)
 8006904:	b082      	sub	sp, #8
 8006906:	6833      	ldr	r3, [r6, #0]
 8006908:	9301      	str	r3, [sp, #4]
 800690a:	280c      	cmp	r0, #12
 800690c:	4604      	mov	r4, r0
 800690e:	460d      	mov	r5, r1
 8006910:	d902      	bls.n	8006918 <nvicSetSystemHandlerPriority+0x18>
 8006912:	480a      	ldr	r0, [pc, #40]	; (800693c <nvicSetSystemHandlerPriority+0x3c>)
 8006914:	f7fb fe8c 	bl	8002630 <chSysHalt>
 8006918:	f104 4060 	add.w	r0, r4, #3758096384	; 0xe0000000
 800691c:	f500 406d 	add.w	r0, r0, #60672	; 0xed00
 8006920:	012d      	lsls	r5, r5, #4
 8006922:	b2ed      	uxtb	r5, r5
 8006924:	7605      	strb	r5, [r0, #24]
 8006926:	9a01      	ldr	r2, [sp, #4]
 8006928:	6833      	ldr	r3, [r6, #0]
 800692a:	429a      	cmp	r2, r3
 800692c:	d101      	bne.n	8006932 <nvicSetSystemHandlerPriority+0x32>
 800692e:	b002      	add	sp, #8
 8006930:	bd70      	pop	{r4, r5, r6, pc}
 8006932:	f7fa fc95 	bl	8001260 <__stack_chk_fail>
 8006936:	bf00      	nop
 8006938:	20000800 	.word	0x20000800
 800693c:	0800ee10 	.word	0x0800ee10

08006940 <Vector6C>:
 8006940:	b510      	push	{r4, lr}
 8006942:	4c0f      	ldr	r4, [pc, #60]	; (8006980 <Vector6C+0x40>)
 8006944:	b082      	sub	sp, #8
 8006946:	6823      	ldr	r3, [r4, #0]
 8006948:	9301      	str	r3, [sp, #4]
 800694a:	f7fc fed1 	bl	80036f0 <_stats_increase_irq>
 800694e:	f7fb ff8f 	bl	8002870 <_dbg_check_enter_isr>
 8006952:	4b0c      	ldr	r3, [pc, #48]	; (8006984 <Vector6C+0x44>)
 8006954:	4a0c      	ldr	r2, [pc, #48]	; (8006988 <Vector6C+0x48>)
 8006956:	6819      	ldr	r1, [r3, #0]
 8006958:	f001 013d 	and.w	r1, r1, #61	; 0x3d
 800695c:	6099      	str	r1, [r3, #8]
 800695e:	6813      	ldr	r3, [r2, #0]
 8006960:	b10b      	cbz	r3, 8006966 <Vector6C+0x26>
 8006962:	6850      	ldr	r0, [r2, #4]
 8006964:	4798      	blx	r3
 8006966:	f7fb ffab 	bl	80028c0 <_dbg_check_leave_isr>
 800696a:	9a01      	ldr	r2, [sp, #4]
 800696c:	6823      	ldr	r3, [r4, #0]
 800696e:	429a      	cmp	r2, r3
 8006970:	d104      	bne.n	800697c <Vector6C+0x3c>
 8006972:	b002      	add	sp, #8
 8006974:	e8bd 4010 	ldmia.w	sp!, {r4, lr}
 8006978:	f7fd bcb2 	b.w	80042e0 <_port_irq_epilogue>
 800697c:	f7fa fc70 	bl	8001260 <__stack_chk_fail>
 8006980:	20000800 	.word	0x20000800
 8006984:	40026000 	.word	0x40026000
 8006988:	20001be0 	.word	0x20001be0
 800698c:	00000000 	.word	0x00000000

08006990 <Vector70>:
 8006990:	b530      	push	{r4, r5, lr}
 8006992:	4c10      	ldr	r4, [pc, #64]	; (80069d4 <Vector70+0x44>)
 8006994:	b083      	sub	sp, #12
 8006996:	6823      	ldr	r3, [r4, #0]
 8006998:	9301      	str	r3, [sp, #4]
 800699a:	f7fc fea9 	bl	80036f0 <_stats_increase_irq>
 800699e:	f7fb ff67 	bl	8002870 <_dbg_check_enter_isr>
 80069a2:	4b0d      	ldr	r3, [pc, #52]	; (80069d8 <Vector70+0x48>)
 80069a4:	480d      	ldr	r0, [pc, #52]	; (80069dc <Vector70+0x4c>)
 80069a6:	6819      	ldr	r1, [r3, #0]
 80069a8:	6882      	ldr	r2, [r0, #8]
 80069aa:	0989      	lsrs	r1, r1, #6
 80069ac:	f001 013d 	and.w	r1, r1, #61	; 0x3d
 80069b0:	018d      	lsls	r5, r1, #6
 80069b2:	609d      	str	r5, [r3, #8]
 80069b4:	b10a      	cbz	r2, 80069ba <Vector70+0x2a>
 80069b6:	68c0      	ldr	r0, [r0, #12]
 80069b8:	4790      	blx	r2
 80069ba:	f7fb ff81 	bl	80028c0 <_dbg_check_leave_isr>
 80069be:	9a01      	ldr	r2, [sp, #4]
 80069c0:	6823      	ldr	r3, [r4, #0]
 80069c2:	429a      	cmp	r2, r3
 80069c4:	d104      	bne.n	80069d0 <Vector70+0x40>
 80069c6:	b003      	add	sp, #12
 80069c8:	e8bd 4030 	ldmia.w	sp!, {r4, r5, lr}
 80069cc:	f7fd bc88 	b.w	80042e0 <_port_irq_epilogue>
 80069d0:	f7fa fc46 	bl	8001260 <__stack_chk_fail>
 80069d4:	20000800 	.word	0x20000800
 80069d8:	40026000 	.word	0x40026000
 80069dc:	20001be0 	.word	0x20001be0

080069e0 <Vector74>:
 80069e0:	b530      	push	{r4, r5, lr}
 80069e2:	4c10      	ldr	r4, [pc, #64]	; (8006a24 <Vector74+0x44>)
 80069e4:	b083      	sub	sp, #12
 80069e6:	6823      	ldr	r3, [r4, #0]
 80069e8:	9301      	str	r3, [sp, #4]
 80069ea:	f7fc fe81 	bl	80036f0 <_stats_increase_irq>
 80069ee:	f7fb ff3f 	bl	8002870 <_dbg_check_enter_isr>
 80069f2:	4b0d      	ldr	r3, [pc, #52]	; (8006a28 <Vector74+0x48>)
 80069f4:	480d      	ldr	r0, [pc, #52]	; (8006a2c <Vector74+0x4c>)
 80069f6:	6819      	ldr	r1, [r3, #0]
 80069f8:	6902      	ldr	r2, [r0, #16]
 80069fa:	0c09      	lsrs	r1, r1, #16
 80069fc:	f001 013d 	and.w	r1, r1, #61	; 0x3d
 8006a00:	040d      	lsls	r5, r1, #16
 8006a02:	609d      	str	r5, [r3, #8]
 8006a04:	b10a      	cbz	r2, 8006a0a <Vector74+0x2a>
 8006a06:	6940      	ldr	r0, [r0, #20]
 8006a08:	4790      	blx	r2
 8006a0a:	f7fb ff59 	bl	80028c0 <_dbg_check_leave_isr>
 8006a0e:	9a01      	ldr	r2, [sp, #4]
 8006a10:	6823      	ldr	r3, [r4, #0]
 8006a12:	429a      	cmp	r2, r3
 8006a14:	d104      	bne.n	8006a20 <Vector74+0x40>
 8006a16:	b003      	add	sp, #12
 8006a18:	e8bd 4030 	ldmia.w	sp!, {r4, r5, lr}
 8006a1c:	f7fd bc60 	b.w	80042e0 <_port_irq_epilogue>
 8006a20:	f7fa fc1e 	bl	8001260 <__stack_chk_fail>
 8006a24:	20000800 	.word	0x20000800
 8006a28:	40026000 	.word	0x40026000
 8006a2c:	20001be0 	.word	0x20001be0

08006a30 <Vector78>:
 8006a30:	b530      	push	{r4, r5, lr}
 8006a32:	4c10      	ldr	r4, [pc, #64]	; (8006a74 <Vector78+0x44>)
 8006a34:	b083      	sub	sp, #12
 8006a36:	6823      	ldr	r3, [r4, #0]
 8006a38:	9301      	str	r3, [sp, #4]
 8006a3a:	f7fc fe59 	bl	80036f0 <_stats_increase_irq>
 8006a3e:	f7fb ff17 	bl	8002870 <_dbg_check_enter_isr>
 8006a42:	4b0d      	ldr	r3, [pc, #52]	; (8006a78 <Vector78+0x48>)
 8006a44:	480d      	ldr	r0, [pc, #52]	; (8006a7c <Vector78+0x4c>)
 8006a46:	6819      	ldr	r1, [r3, #0]
 8006a48:	6982      	ldr	r2, [r0, #24]
 8006a4a:	0d89      	lsrs	r1, r1, #22
 8006a4c:	f001 013d 	and.w	r1, r1, #61	; 0x3d
 8006a50:	058d      	lsls	r5, r1, #22
 8006a52:	609d      	str	r5, [r3, #8]
 8006a54:	b10a      	cbz	r2, 8006a5a <Vector78+0x2a>
 8006a56:	69c0      	ldr	r0, [r0, #28]
 8006a58:	4790      	blx	r2
 8006a5a:	f7fb ff31 	bl	80028c0 <_dbg_check_leave_isr>
 8006a5e:	9a01      	ldr	r2, [sp, #4]
 8006a60:	6823      	ldr	r3, [r4, #0]
 8006a62:	429a      	cmp	r2, r3
 8006a64:	d104      	bne.n	8006a70 <Vector78+0x40>
 8006a66:	b003      	add	sp, #12
 8006a68:	e8bd 4030 	ldmia.w	sp!, {r4, r5, lr}
 8006a6c:	f7fd bc38 	b.w	80042e0 <_port_irq_epilogue>
 8006a70:	f7fa fbf6 	bl	8001260 <__stack_chk_fail>
 8006a74:	20000800 	.word	0x20000800
 8006a78:	40026000 	.word	0x40026000
 8006a7c:	20001be0 	.word	0x20001be0

08006a80 <Vector7C>:
 8006a80:	b510      	push	{r4, lr}
 8006a82:	4c0f      	ldr	r4, [pc, #60]	; (8006ac0 <Vector7C+0x40>)
 8006a84:	b082      	sub	sp, #8
 8006a86:	6823      	ldr	r3, [r4, #0]
 8006a88:	9301      	str	r3, [sp, #4]
 8006a8a:	f7fc fe31 	bl	80036f0 <_stats_increase_irq>
 8006a8e:	f7fb feef 	bl	8002870 <_dbg_check_enter_isr>
 8006a92:	4b0c      	ldr	r3, [pc, #48]	; (8006ac4 <Vector7C+0x44>)
 8006a94:	480c      	ldr	r0, [pc, #48]	; (8006ac8 <Vector7C+0x48>)
 8006a96:	6859      	ldr	r1, [r3, #4]
 8006a98:	6a02      	ldr	r2, [r0, #32]
 8006a9a:	f001 013d 	and.w	r1, r1, #61	; 0x3d
 8006a9e:	60d9      	str	r1, [r3, #12]
 8006aa0:	b10a      	cbz	r2, 8006aa6 <Vector7C+0x26>
 8006aa2:	6a40      	ldr	r0, [r0, #36]	; 0x24
 8006aa4:	4790      	blx	r2
 8006aa6:	f7fb ff0b 	bl	80028c0 <_dbg_check_leave_isr>
 8006aaa:	9a01      	ldr	r2, [sp, #4]
 8006aac:	6823      	ldr	r3, [r4, #0]
 8006aae:	429a      	cmp	r2, r3
 8006ab0:	d104      	bne.n	8006abc <Vector7C+0x3c>
 8006ab2:	b002      	add	sp, #8
 8006ab4:	e8bd 4010 	ldmia.w	sp!, {r4, lr}
 8006ab8:	f7fd bc12 	b.w	80042e0 <_port_irq_epilogue>
 8006abc:	f7fa fbd0 	bl	8001260 <__stack_chk_fail>
 8006ac0:	20000800 	.word	0x20000800
 8006ac4:	40026000 	.word	0x40026000
 8006ac8:	20001be0 	.word	0x20001be0
 8006acc:	00000000 	.word	0x00000000

08006ad0 <Vector80>:
 8006ad0:	b530      	push	{r4, r5, lr}
 8006ad2:	4c10      	ldr	r4, [pc, #64]	; (8006b14 <Vector80+0x44>)
 8006ad4:	b083      	sub	sp, #12
 8006ad6:	6823      	ldr	r3, [r4, #0]
 8006ad8:	9301      	str	r3, [sp, #4]
 8006ada:	f7fc fe09 	bl	80036f0 <_stats_increase_irq>
 8006ade:	f7fb fec7 	bl	8002870 <_dbg_check_enter_isr>
 8006ae2:	4b0d      	ldr	r3, [pc, #52]	; (8006b18 <Vector80+0x48>)
 8006ae4:	480d      	ldr	r0, [pc, #52]	; (8006b1c <Vector80+0x4c>)
 8006ae6:	6859      	ldr	r1, [r3, #4]
 8006ae8:	6a82      	ldr	r2, [r0, #40]	; 0x28
 8006aea:	0989      	lsrs	r1, r1, #6
 8006aec:	f001 013d 	and.w	r1, r1, #61	; 0x3d
 8006af0:	018d      	lsls	r5, r1, #6
 8006af2:	60dd      	str	r5, [r3, #12]
 8006af4:	b10a      	cbz	r2, 8006afa <Vector80+0x2a>
 8006af6:	6ac0      	ldr	r0, [r0, #44]	; 0x2c
 8006af8:	4790      	blx	r2
 8006afa:	f7fb fee1 	bl	80028c0 <_dbg_check_leave_isr>
 8006afe:	9a01      	ldr	r2, [sp, #4]
 8006b00:	6823      	ldr	r3, [r4, #0]
 8006b02:	429a      	cmp	r2, r3
 8006b04:	d104      	bne.n	8006b10 <Vector80+0x40>
 8006b06:	b003      	add	sp, #12
 8006b08:	e8bd 4030 	ldmia.w	sp!, {r4, r5, lr}
 8006b0c:	f7fd bbe8 	b.w	80042e0 <_port_irq_epilogue>
 8006b10:	f7fa fba6 	bl	8001260 <__stack_chk_fail>
 8006b14:	20000800 	.word	0x20000800
 8006b18:	40026000 	.word	0x40026000
 8006b1c:	20001be0 	.word	0x20001be0

08006b20 <Vector84>:
 8006b20:	b530      	push	{r4, r5, lr}
 8006b22:	4c10      	ldr	r4, [pc, #64]	; (8006b64 <Vector84+0x44>)
 8006b24:	b083      	sub	sp, #12
 8006b26:	6823      	ldr	r3, [r4, #0]
 8006b28:	9301      	str	r3, [sp, #4]
 8006b2a:	f7fc fde1 	bl	80036f0 <_stats_increase_irq>
 8006b2e:	f7fb fe9f 	bl	8002870 <_dbg_check_enter_isr>
 8006b32:	4b0d      	ldr	r3, [pc, #52]	; (8006b68 <Vector84+0x48>)
 8006b34:	480d      	ldr	r0, [pc, #52]	; (8006b6c <Vector84+0x4c>)
 8006b36:	6859      	ldr	r1, [r3, #4]
 8006b38:	6b02      	ldr	r2, [r0, #48]	; 0x30
 8006b3a:	0c09      	lsrs	r1, r1, #16
 8006b3c:	f001 013d 	and.w	r1, r1, #61	; 0x3d
 8006b40:	040d      	lsls	r5, r1, #16
 8006b42:	60dd      	str	r5, [r3, #12]
 8006b44:	b10a      	cbz	r2, 8006b4a <Vector84+0x2a>
 8006b46:	6b40      	ldr	r0, [r0, #52]	; 0x34
 8006b48:	4790      	blx	r2
 8006b4a:	f7fb feb9 	bl	80028c0 <_dbg_check_leave_isr>
 8006b4e:	9a01      	ldr	r2, [sp, #4]
 8006b50:	6823      	ldr	r3, [r4, #0]
 8006b52:	429a      	cmp	r2, r3
 8006b54:	d104      	bne.n	8006b60 <Vector84+0x40>
 8006b56:	b003      	add	sp, #12
 8006b58:	e8bd 4030 	ldmia.w	sp!, {r4, r5, lr}
 8006b5c:	f7fd bbc0 	b.w	80042e0 <_port_irq_epilogue>
 8006b60:	f7fa fb7e 	bl	8001260 <__stack_chk_fail>
 8006b64:	20000800 	.word	0x20000800
 8006b68:	40026000 	.word	0x40026000
 8006b6c:	20001be0 	.word	0x20001be0

08006b70 <VectorFC>:
 8006b70:	b530      	push	{r4, r5, lr}
 8006b72:	4c10      	ldr	r4, [pc, #64]	; (8006bb4 <VectorFC+0x44>)
 8006b74:	b083      	sub	sp, #12
 8006b76:	6823      	ldr	r3, [r4, #0]
 8006b78:	9301      	str	r3, [sp, #4]
 8006b7a:	f7fc fdb9 	bl	80036f0 <_stats_increase_irq>
 8006b7e:	f7fb fe77 	bl	8002870 <_dbg_check_enter_isr>
 8006b82:	4b0d      	ldr	r3, [pc, #52]	; (8006bb8 <VectorFC+0x48>)
 8006b84:	480d      	ldr	r0, [pc, #52]	; (8006bbc <VectorFC+0x4c>)
 8006b86:	6859      	ldr	r1, [r3, #4]
 8006b88:	6b82      	ldr	r2, [r0, #56]	; 0x38
 8006b8a:	0d89      	lsrs	r1, r1, #22
 8006b8c:	f001 013d 	and.w	r1, r1, #61	; 0x3d
 8006b90:	058d      	lsls	r5, r1, #22
 8006b92:	60dd      	str	r5, [r3, #12]
 8006b94:	b10a      	cbz	r2, 8006b9a <VectorFC+0x2a>
 8006b96:	6bc0      	ldr	r0, [r0, #60]	; 0x3c
 8006b98:	4790      	blx	r2
 8006b9a:	f7fb fe91 	bl	80028c0 <_dbg_check_leave_isr>
 8006b9e:	9a01      	ldr	r2, [sp, #4]
 8006ba0:	6823      	ldr	r3, [r4, #0]
 8006ba2:	429a      	cmp	r2, r3
 8006ba4:	d104      	bne.n	8006bb0 <VectorFC+0x40>
 8006ba6:	b003      	add	sp, #12
 8006ba8:	e8bd 4030 	ldmia.w	sp!, {r4, r5, lr}
 8006bac:	f7fd bb98 	b.w	80042e0 <_port_irq_epilogue>
 8006bb0:	f7fa fb56 	bl	8001260 <__stack_chk_fail>
 8006bb4:	20000800 	.word	0x20000800
 8006bb8:	40026000 	.word	0x40026000
 8006bbc:	20001be0 	.word	0x20001be0

08006bc0 <Vector120>:
 8006bc0:	b510      	push	{r4, lr}
 8006bc2:	4c0f      	ldr	r4, [pc, #60]	; (8006c00 <Vector120+0x40>)
 8006bc4:	b082      	sub	sp, #8
 8006bc6:	6823      	ldr	r3, [r4, #0]
 8006bc8:	9301      	str	r3, [sp, #4]
 8006bca:	f7fc fd91 	bl	80036f0 <_stats_increase_irq>
 8006bce:	f7fb fe4f 	bl	8002870 <_dbg_check_enter_isr>
 8006bd2:	4b0c      	ldr	r3, [pc, #48]	; (8006c04 <Vector120+0x44>)
 8006bd4:	480c      	ldr	r0, [pc, #48]	; (8006c08 <Vector120+0x48>)
 8006bd6:	6819      	ldr	r1, [r3, #0]
 8006bd8:	6c02      	ldr	r2, [r0, #64]	; 0x40
 8006bda:	f001 013d 	and.w	r1, r1, #61	; 0x3d
 8006bde:	6099      	str	r1, [r3, #8]
 8006be0:	b10a      	cbz	r2, 8006be6 <Vector120+0x26>
 8006be2:	6c40      	ldr	r0, [r0, #68]	; 0x44
 8006be4:	4790      	blx	r2
 8006be6:	f7fb fe6b 	bl	80028c0 <_dbg_check_leave_isr>
 8006bea:	9a01      	ldr	r2, [sp, #4]
 8006bec:	6823      	ldr	r3, [r4, #0]
 8006bee:	429a      	cmp	r2, r3
 8006bf0:	d104      	bne.n	8006bfc <Vector120+0x3c>
 8006bf2:	b002      	add	sp, #8
 8006bf4:	e8bd 4010 	ldmia.w	sp!, {r4, lr}
 8006bf8:	f7fd bb72 	b.w	80042e0 <_port_irq_epilogue>
 8006bfc:	f7fa fb30 	bl	8001260 <__stack_chk_fail>
 8006c00:	20000800 	.word	0x20000800
 8006c04:	40026400 	.word	0x40026400
 8006c08:	20001be0 	.word	0x20001be0
 8006c0c:	00000000 	.word	0x00000000

08006c10 <Vector124>:
 8006c10:	b530      	push	{r4, r5, lr}
 8006c12:	4c10      	ldr	r4, [pc, #64]	; (8006c54 <Vector124+0x44>)
 8006c14:	b083      	sub	sp, #12
 8006c16:	6823      	ldr	r3, [r4, #0]
 8006c18:	9301      	str	r3, [sp, #4]
 8006c1a:	f7fc fd69 	bl	80036f0 <_stats_increase_irq>
 8006c1e:	f7fb fe27 	bl	8002870 <_dbg_check_enter_isr>
 8006c22:	4b0d      	ldr	r3, [pc, #52]	; (8006c58 <Vector124+0x48>)
 8006c24:	480d      	ldr	r0, [pc, #52]	; (8006c5c <Vector124+0x4c>)
 8006c26:	6819      	ldr	r1, [r3, #0]
 8006c28:	6c82      	ldr	r2, [r0, #72]	; 0x48
 8006c2a:	0989      	lsrs	r1, r1, #6
 8006c2c:	f001 013d 	and.w	r1, r1, #61	; 0x3d
 8006c30:	018d      	lsls	r5, r1, #6
 8006c32:	609d      	str	r5, [r3, #8]
 8006c34:	b10a      	cbz	r2, 8006c3a <Vector124+0x2a>
 8006c36:	6cc0      	ldr	r0, [r0, #76]	; 0x4c
 8006c38:	4790      	blx	r2
 8006c3a:	f7fb fe41 	bl	80028c0 <_dbg_check_leave_isr>
 8006c3e:	9a01      	ldr	r2, [sp, #4]
 8006c40:	6823      	ldr	r3, [r4, #0]
 8006c42:	429a      	cmp	r2, r3
 8006c44:	d104      	bne.n	8006c50 <Vector124+0x40>
 8006c46:	b003      	add	sp, #12
 8006c48:	e8bd 4030 	ldmia.w	sp!, {r4, r5, lr}
 8006c4c:	f7fd bb48 	b.w	80042e0 <_port_irq_epilogue>
 8006c50:	f7fa fb06 	bl	8001260 <__stack_chk_fail>
 8006c54:	20000800 	.word	0x20000800
 8006c58:	40026400 	.word	0x40026400
 8006c5c:	20001be0 	.word	0x20001be0

08006c60 <Vector128>:
 8006c60:	b530      	push	{r4, r5, lr}
 8006c62:	4c10      	ldr	r4, [pc, #64]	; (8006ca4 <Vector128+0x44>)
 8006c64:	b083      	sub	sp, #12
 8006c66:	6823      	ldr	r3, [r4, #0]
 8006c68:	9301      	str	r3, [sp, #4]
 8006c6a:	f7fc fd41 	bl	80036f0 <_stats_increase_irq>
 8006c6e:	f7fb fdff 	bl	8002870 <_dbg_check_enter_isr>
 8006c72:	4b0d      	ldr	r3, [pc, #52]	; (8006ca8 <Vector128+0x48>)
 8006c74:	480d      	ldr	r0, [pc, #52]	; (8006cac <Vector128+0x4c>)
 8006c76:	6819      	ldr	r1, [r3, #0]
 8006c78:	6d02      	ldr	r2, [r0, #80]	; 0x50
 8006c7a:	0c09      	lsrs	r1, r1, #16
 8006c7c:	f001 013d 	and.w	r1, r1, #61	; 0x3d
 8006c80:	040d      	lsls	r5, r1, #16
 8006c82:	609d      	str	r5, [r3, #8]
 8006c84:	b10a      	cbz	r2, 8006c8a <Vector128+0x2a>
 8006c86:	6d40      	ldr	r0, [r0, #84]	; 0x54
 8006c88:	4790      	blx	r2
 8006c8a:	f7fb fe19 	bl	80028c0 <_dbg_check_leave_isr>
 8006c8e:	9a01      	ldr	r2, [sp, #4]
 8006c90:	6823      	ldr	r3, [r4, #0]
 8006c92:	429a      	cmp	r2, r3
 8006c94:	d104      	bne.n	8006ca0 <Vector128+0x40>
 8006c96:	b003      	add	sp, #12
 8006c98:	e8bd 4030 	ldmia.w	sp!, {r4, r5, lr}
 8006c9c:	f7fd bb20 	b.w	80042e0 <_port_irq_epilogue>
 8006ca0:	f7fa fade 	bl	8001260 <__stack_chk_fail>
 8006ca4:	20000800 	.word	0x20000800
 8006ca8:	40026400 	.word	0x40026400
 8006cac:	20001be0 	.word	0x20001be0

08006cb0 <Vector12C>:
 8006cb0:	b530      	push	{r4, r5, lr}
 8006cb2:	4c10      	ldr	r4, [pc, #64]	; (8006cf4 <Vector12C+0x44>)
 8006cb4:	b083      	sub	sp, #12
 8006cb6:	6823      	ldr	r3, [r4, #0]
 8006cb8:	9301      	str	r3, [sp, #4]
 8006cba:	f7fc fd19 	bl	80036f0 <_stats_increase_irq>
 8006cbe:	f7fb fdd7 	bl	8002870 <_dbg_check_enter_isr>
 8006cc2:	4b0d      	ldr	r3, [pc, #52]	; (8006cf8 <Vector12C+0x48>)
 8006cc4:	480d      	ldr	r0, [pc, #52]	; (8006cfc <Vector12C+0x4c>)
 8006cc6:	6819      	ldr	r1, [r3, #0]
 8006cc8:	6d82      	ldr	r2, [r0, #88]	; 0x58
 8006cca:	0d89      	lsrs	r1, r1, #22
 8006ccc:	f001 013d 	and.w	r1, r1, #61	; 0x3d
 8006cd0:	058d      	lsls	r5, r1, #22
 8006cd2:	609d      	str	r5, [r3, #8]
 8006cd4:	b10a      	cbz	r2, 8006cda <Vector12C+0x2a>
 8006cd6:	6dc0      	ldr	r0, [r0, #92]	; 0x5c
 8006cd8:	4790      	blx	r2
 8006cda:	f7fb fdf1 	bl	80028c0 <_dbg_check_leave_isr>
 8006cde:	9a01      	ldr	r2, [sp, #4]
 8006ce0:	6823      	ldr	r3, [r4, #0]
 8006ce2:	429a      	cmp	r2, r3
 8006ce4:	d104      	bne.n	8006cf0 <Vector12C+0x40>
 8006ce6:	b003      	add	sp, #12
 8006ce8:	e8bd 4030 	ldmia.w	sp!, {r4, r5, lr}
 8006cec:	f7fd baf8 	b.w	80042e0 <_port_irq_epilogue>
 8006cf0:	f7fa fab6 	bl	8001260 <__stack_chk_fail>
 8006cf4:	20000800 	.word	0x20000800
 8006cf8:	40026400 	.word	0x40026400
 8006cfc:	20001be0 	.word	0x20001be0

08006d00 <Vector130>:
 8006d00:	b510      	push	{r4, lr}
 8006d02:	4c0f      	ldr	r4, [pc, #60]	; (8006d40 <Vector130+0x40>)
 8006d04:	b082      	sub	sp, #8
 8006d06:	6823      	ldr	r3, [r4, #0]
 8006d08:	9301      	str	r3, [sp, #4]
 8006d0a:	f7fc fcf1 	bl	80036f0 <_stats_increase_irq>
 8006d0e:	f7fb fdaf 	bl	8002870 <_dbg_check_enter_isr>
 8006d12:	4b0c      	ldr	r3, [pc, #48]	; (8006d44 <Vector130+0x44>)
 8006d14:	480c      	ldr	r0, [pc, #48]	; (8006d48 <Vector130+0x48>)
 8006d16:	6859      	ldr	r1, [r3, #4]
 8006d18:	6e02      	ldr	r2, [r0, #96]	; 0x60
 8006d1a:	f001 013d 	and.w	r1, r1, #61	; 0x3d
 8006d1e:	60d9      	str	r1, [r3, #12]
 8006d20:	b10a      	cbz	r2, 8006d26 <Vector130+0x26>
 8006d22:	6e40      	ldr	r0, [r0, #100]	; 0x64
 8006d24:	4790      	blx	r2
 8006d26:	f7fb fdcb 	bl	80028c0 <_dbg_check_leave_isr>
 8006d2a:	9a01      	ldr	r2, [sp, #4]
 8006d2c:	6823      	ldr	r3, [r4, #0]
 8006d2e:	429a      	cmp	r2, r3
 8006d30:	d104      	bne.n	8006d3c <Vector130+0x3c>
 8006d32:	b002      	add	sp, #8
 8006d34:	e8bd 4010 	ldmia.w	sp!, {r4, lr}
 8006d38:	f7fd bad2 	b.w	80042e0 <_port_irq_epilogue>
 8006d3c:	f7fa fa90 	bl	8001260 <__stack_chk_fail>
 8006d40:	20000800 	.word	0x20000800
 8006d44:	40026400 	.word	0x40026400
 8006d48:	20001be0 	.word	0x20001be0
 8006d4c:	00000000 	.word	0x00000000

08006d50 <Vector150>:
 8006d50:	b530      	push	{r4, r5, lr}
 8006d52:	4c10      	ldr	r4, [pc, #64]	; (8006d94 <Vector150+0x44>)
 8006d54:	b083      	sub	sp, #12
 8006d56:	6823      	ldr	r3, [r4, #0]
 8006d58:	9301      	str	r3, [sp, #4]
 8006d5a:	f7fc fcc9 	bl	80036f0 <_stats_increase_irq>
 8006d5e:	f7fb fd87 	bl	8002870 <_dbg_check_enter_isr>
 8006d62:	4b0d      	ldr	r3, [pc, #52]	; (8006d98 <Vector150+0x48>)
 8006d64:	480d      	ldr	r0, [pc, #52]	; (8006d9c <Vector150+0x4c>)
 8006d66:	6859      	ldr	r1, [r3, #4]
 8006d68:	6e82      	ldr	r2, [r0, #104]	; 0x68
 8006d6a:	0989      	lsrs	r1, r1, #6
 8006d6c:	f001 013d 	and.w	r1, r1, #61	; 0x3d
 8006d70:	018d      	lsls	r5, r1, #6
 8006d72:	60dd      	str	r5, [r3, #12]
 8006d74:	b10a      	cbz	r2, 8006d7a <Vector150+0x2a>
 8006d76:	6ec0      	ldr	r0, [r0, #108]	; 0x6c
 8006d78:	4790      	blx	r2
 8006d7a:	f7fb fda1 	bl	80028c0 <_dbg_check_leave_isr>
 8006d7e:	9a01      	ldr	r2, [sp, #4]
 8006d80:	6823      	ldr	r3, [r4, #0]
 8006d82:	429a      	cmp	r2, r3
 8006d84:	d104      	bne.n	8006d90 <Vector150+0x40>
 8006d86:	b003      	add	sp, #12
 8006d88:	e8bd 4030 	ldmia.w	sp!, {r4, r5, lr}
 8006d8c:	f7fd baa8 	b.w	80042e0 <_port_irq_epilogue>
 8006d90:	f7fa fa66 	bl	8001260 <__stack_chk_fail>
 8006d94:	20000800 	.word	0x20000800
 8006d98:	40026400 	.word	0x40026400
 8006d9c:	20001be0 	.word	0x20001be0

08006da0 <Vector154>:
 8006da0:	b530      	push	{r4, r5, lr}
 8006da2:	4c10      	ldr	r4, [pc, #64]	; (8006de4 <Vector154+0x44>)
 8006da4:	b083      	sub	sp, #12
 8006da6:	6823      	ldr	r3, [r4, #0]
 8006da8:	9301      	str	r3, [sp, #4]
 8006daa:	f7fc fca1 	bl	80036f0 <_stats_increase_irq>
 8006dae:	f7fb fd5f 	bl	8002870 <_dbg_check_enter_isr>
 8006db2:	4b0d      	ldr	r3, [pc, #52]	; (8006de8 <Vector154+0x48>)
 8006db4:	480d      	ldr	r0, [pc, #52]	; (8006dec <Vector154+0x4c>)
 8006db6:	6859      	ldr	r1, [r3, #4]
 8006db8:	6f02      	ldr	r2, [r0, #112]	; 0x70
 8006dba:	0c09      	lsrs	r1, r1, #16
 8006dbc:	f001 013d 	and.w	r1, r1, #61	; 0x3d
 8006dc0:	040d      	lsls	r5, r1, #16
 8006dc2:	60dd      	str	r5, [r3, #12]
 8006dc4:	b10a      	cbz	r2, 8006dca <Vector154+0x2a>
 8006dc6:	6f40      	ldr	r0, [r0, #116]	; 0x74
 8006dc8:	4790      	blx	r2
 8006dca:	f7fb fd79 	bl	80028c0 <_dbg_check_leave_isr>
 8006dce:	9a01      	ldr	r2, [sp, #4]
 8006dd0:	6823      	ldr	r3, [r4, #0]
 8006dd2:	429a      	cmp	r2, r3
 8006dd4:	d104      	bne.n	8006de0 <Vector154+0x40>
 8006dd6:	b003      	add	sp, #12
 8006dd8:	e8bd 4030 	ldmia.w	sp!, {r4, r5, lr}
 8006ddc:	f7fd ba80 	b.w	80042e0 <_port_irq_epilogue>
 8006de0:	f7fa fa3e 	bl	8001260 <__stack_chk_fail>
 8006de4:	20000800 	.word	0x20000800
 8006de8:	40026400 	.word	0x40026400
 8006dec:	20001be0 	.word	0x20001be0

08006df0 <Vector158>:
 8006df0:	b530      	push	{r4, r5, lr}
 8006df2:	4c10      	ldr	r4, [pc, #64]	; (8006e34 <Vector158+0x44>)
 8006df4:	b083      	sub	sp, #12
 8006df6:	6823      	ldr	r3, [r4, #0]
 8006df8:	9301      	str	r3, [sp, #4]
 8006dfa:	f7fc fc79 	bl	80036f0 <_stats_increase_irq>
 8006dfe:	f7fb fd37 	bl	8002870 <_dbg_check_enter_isr>
 8006e02:	4b0d      	ldr	r3, [pc, #52]	; (8006e38 <Vector158+0x48>)
 8006e04:	480d      	ldr	r0, [pc, #52]	; (8006e3c <Vector158+0x4c>)
 8006e06:	6859      	ldr	r1, [r3, #4]
 8006e08:	6f82      	ldr	r2, [r0, #120]	; 0x78
 8006e0a:	0d89      	lsrs	r1, r1, #22
 8006e0c:	f001 013d 	and.w	r1, r1, #61	; 0x3d
 8006e10:	058d      	lsls	r5, r1, #22
 8006e12:	60dd      	str	r5, [r3, #12]
 8006e14:	b10a      	cbz	r2, 8006e1a <Vector158+0x2a>
 8006e16:	6fc0      	ldr	r0, [r0, #124]	; 0x7c
 8006e18:	4790      	blx	r2
 8006e1a:	f7fb fd51 	bl	80028c0 <_dbg_check_leave_isr>
 8006e1e:	9a01      	ldr	r2, [sp, #4]
 8006e20:	6823      	ldr	r3, [r4, #0]
 8006e22:	429a      	cmp	r2, r3
 8006e24:	d104      	bne.n	8006e30 <Vector158+0x40>
 8006e26:	b003      	add	sp, #12
 8006e28:	e8bd 4030 	ldmia.w	sp!, {r4, r5, lr}
 8006e2c:	f7fd ba58 	b.w	80042e0 <_port_irq_epilogue>
 8006e30:	f7fa fa16 	bl	8001260 <__stack_chk_fail>
 8006e34:	20000800 	.word	0x20000800
 8006e38:	40026400 	.word	0x40026400
 8006e3c:	20001be0 	.word	0x20001be0

08006e40 <dmaInit>:
 8006e40:	b570      	push	{r4, r5, r6, lr}
 8006e42:	4d13      	ldr	r5, [pc, #76]	; (8006e90 <dmaInit+0x50>)
 8006e44:	4e13      	ldr	r6, [pc, #76]	; (8006e94 <dmaInit+0x54>)
 8006e46:	682b      	ldr	r3, [r5, #0]
 8006e48:	4a13      	ldr	r2, [pc, #76]	; (8006e98 <dmaInit+0x58>)
 8006e4a:	4814      	ldr	r0, [pc, #80]	; (8006e9c <dmaInit+0x5c>)
 8006e4c:	4c14      	ldr	r4, [pc, #80]	; (8006ea0 <dmaInit+0x60>)
 8006e4e:	b082      	sub	sp, #8
 8006e50:	2100      	movs	r1, #0
 8006e52:	9301      	str	r3, [sp, #4]
 8006e54:	6031      	str	r1, [r6, #0]
 8006e56:	460b      	mov	r3, r1
 8006e58:	e001      	b.n	8006e5e <dmaInit+0x1e>
 8006e5a:	f852 0c0c 	ldr.w	r0, [r2, #-12]
 8006e5e:	6001      	str	r1, [r0, #0]
 8006e60:	f844 1033 	str.w	r1, [r4, r3, lsl #3]
 8006e64:	3301      	adds	r3, #1
 8006e66:	2b10      	cmp	r3, #16
 8006e68:	f102 020c 	add.w	r2, r2, #12
 8006e6c:	d1f5      	bne.n	8006e5a <dmaInit+0x1a>
 8006e6e:	4a0d      	ldr	r2, [pc, #52]	; (8006ea4 <dmaInit+0x64>)
 8006e70:	490d      	ldr	r1, [pc, #52]	; (8006ea8 <dmaInit+0x68>)
 8006e72:	f04f 33ff 	mov.w	r3, #4294967295
 8006e76:	608b      	str	r3, [r1, #8]
 8006e78:	60cb      	str	r3, [r1, #12]
 8006e7a:	6093      	str	r3, [r2, #8]
 8006e7c:	60d3      	str	r3, [r2, #12]
 8006e7e:	9a01      	ldr	r2, [sp, #4]
 8006e80:	682b      	ldr	r3, [r5, #0]
 8006e82:	429a      	cmp	r2, r3
 8006e84:	d101      	bne.n	8006e8a <dmaInit+0x4a>
 8006e86:	b002      	add	sp, #8
 8006e88:	bd70      	pop	{r4, r5, r6, pc}
 8006e8a:	f7fa f9e9 	bl	8001260 <__stack_chk_fail>
 8006e8e:	bf00      	nop
 8006e90:	20000800 	.word	0x20000800
 8006e94:	20001c60 	.word	0x20001c60
 8006e98:	0800ee7c 	.word	0x0800ee7c
 8006e9c:	40026010 	.word	0x40026010
 8006ea0:	20001be0 	.word	0x20001be0
 8006ea4:	40026400 	.word	0x40026400
 8006ea8:	40026000 	.word	0x40026000
 8006eac:	00000000 	.word	0x00000000

08006eb0 <dmaStreamAllocate>:
 8006eb0:	b5f0      	push	{r4, r5, r6, r7, lr}
 8006eb2:	4e2e      	ldr	r6, [pc, #184]	; (8006f6c <dmaStreamAllocate+0xbc>)
 8006eb4:	b087      	sub	sp, #28
 8006eb6:	6834      	ldr	r4, [r6, #0]
 8006eb8:	9405      	str	r4, [sp, #20]
 8006eba:	4605      	mov	r5, r0
 8006ebc:	2800      	cmp	r0, #0
 8006ebe:	d049      	beq.n	8006f54 <dmaStreamAllocate+0xa4>
 8006ec0:	4f2b      	ldr	r7, [pc, #172]	; (8006f70 <dmaStreamAllocate+0xc0>)
 8006ec2:	f895 e009 	ldrb.w	lr, [r5, #9]
 8006ec6:	f8d7 c000 	ldr.w	ip, [r7]
 8006eca:	2001      	movs	r0, #1
 8006ecc:	fa00 f40e 	lsl.w	r4, r0, lr
 8006ed0:	ea14 0f0c 	tst.w	r4, ip
 8006ed4:	d130      	bne.n	8006f38 <dmaStreamAllocate+0x88>
 8006ed6:	4c27      	ldr	r4, [pc, #156]	; (8006f74 <dmaStreamAllocate+0xc4>)
 8006ed8:	f844 203e 	str.w	r2, [r4, lr, lsl #3]
 8006edc:	f895 e009 	ldrb.w	lr, [r5, #9]
 8006ee0:	eb04 04ce 	add.w	r4, r4, lr, lsl #3
 8006ee4:	6063      	str	r3, [r4, #4]
 8006ee6:	7a6b      	ldrb	r3, [r5, #9]
 8006ee8:	4098      	lsls	r0, r3
 8006eea:	ea40 030c 	orr.w	r3, r0, ip
 8006eee:	f013 0fff 	tst.w	r3, #255	; 0xff
 8006ef2:	603b      	str	r3, [r7, #0]
 8006ef4:	d004      	beq.n	8006f00 <dmaStreamAllocate+0x50>
 8006ef6:	4c20      	ldr	r4, [pc, #128]	; (8006f78 <dmaStreamAllocate+0xc8>)
 8006ef8:	6b20      	ldr	r0, [r4, #48]	; 0x30
 8006efa:	f440 1000 	orr.w	r0, r0, #2097152	; 0x200000
 8006efe:	6320      	str	r0, [r4, #48]	; 0x30
 8006f00:	f413 4f7f 	tst.w	r3, #65280	; 0xff00
 8006f04:	d11e      	bne.n	8006f44 <dmaStreamAllocate+0x94>
 8006f06:	6828      	ldr	r0, [r5, #0]
 8006f08:	6803      	ldr	r3, [r0, #0]
 8006f0a:	f023 031f 	bic.w	r3, r3, #31
 8006f0e:	6003      	str	r3, [r0, #0]
 8006f10:	682b      	ldr	r3, [r5, #0]
 8006f12:	681c      	ldr	r4, [r3, #0]
 8006f14:	f014 0401 	ands.w	r4, r4, #1
 8006f18:	d1fb      	bne.n	8006f12 <dmaStreamAllocate+0x62>
 8006f1a:	7a2f      	ldrb	r7, [r5, #8]
 8006f1c:	6868      	ldr	r0, [r5, #4]
 8006f1e:	233d      	movs	r3, #61	; 0x3d
 8006f20:	40bb      	lsls	r3, r7
 8006f22:	6003      	str	r3, [r0, #0]
 8006f24:	682b      	ldr	r3, [r5, #0]
 8006f26:	601c      	str	r4, [r3, #0]
 8006f28:	682b      	ldr	r3, [r5, #0]
 8006f2a:	2021      	movs	r0, #33	; 0x21
 8006f2c:	6158      	str	r0, [r3, #20]
 8006f2e:	b17a      	cbz	r2, 8006f50 <dmaStreamAllocate+0xa0>
 8006f30:	7aa8      	ldrb	r0, [r5, #10]
 8006f32:	f7ff fc9d 	bl	8006870 <nvicEnableVector>
 8006f36:	4620      	mov	r0, r4
 8006f38:	9a05      	ldr	r2, [sp, #20]
 8006f3a:	6833      	ldr	r3, [r6, #0]
 8006f3c:	429a      	cmp	r2, r3
 8006f3e:	d113      	bne.n	8006f68 <dmaStreamAllocate+0xb8>
 8006f40:	b007      	add	sp, #28
 8006f42:	bdf0      	pop	{r4, r5, r6, r7, pc}
 8006f44:	480c      	ldr	r0, [pc, #48]	; (8006f78 <dmaStreamAllocate+0xc8>)
 8006f46:	6b03      	ldr	r3, [r0, #48]	; 0x30
 8006f48:	f443 0380 	orr.w	r3, r3, #4194304	; 0x400000
 8006f4c:	6303      	str	r3, [r0, #48]	; 0x30
 8006f4e:	e7da      	b.n	8006f06 <dmaStreamAllocate+0x56>
 8006f50:	4610      	mov	r0, r2
 8006f52:	e7f1      	b.n	8006f38 <dmaStreamAllocate+0x88>
 8006f54:	4809      	ldr	r0, [pc, #36]	; (8006f7c <dmaStreamAllocate+0xcc>)
 8006f56:	9101      	str	r1, [sp, #4]
 8006f58:	e9cd 2302 	strd	r2, r3, [sp, #8]
 8006f5c:	f7fb fb68 	bl	8002630 <chSysHalt>
 8006f60:	e9dd 2302 	ldrd	r2, r3, [sp, #8]
 8006f64:	9901      	ldr	r1, [sp, #4]
 8006f66:	e7ab      	b.n	8006ec0 <dmaStreamAllocate+0x10>
 8006f68:	f7fa f97a 	bl	8001260 <__stack_chk_fail>
 8006f6c:	20000800 	.word	0x20000800
 8006f70:	20001c60 	.word	0x20001c60
 8006f74:	20001be0 	.word	0x20001be0
 8006f78:	40023800 	.word	0x40023800
 8006f7c:	0800ee30 	.word	0x0800ee30

08006f80 <dmaStreamRelease>:
 8006f80:	b570      	push	{r4, r5, r6, lr}
 8006f82:	4e1b      	ldr	r6, [pc, #108]	; (8006ff0 <dmaStreamRelease+0x70>)
 8006f84:	b082      	sub	sp, #8
 8006f86:	6833      	ldr	r3, [r6, #0]
 8006f88:	9301      	str	r3, [sp, #4]
 8006f8a:	4604      	mov	r4, r0
 8006f8c:	b350      	cbz	r0, 8006fe4 <dmaStreamRelease+0x64>
 8006f8e:	4d19      	ldr	r5, [pc, #100]	; (8006ff4 <dmaStreamRelease+0x74>)
 8006f90:	7a61      	ldrb	r1, [r4, #9]
 8006f92:	682a      	ldr	r2, [r5, #0]
 8006f94:	2301      	movs	r3, #1
 8006f96:	408b      	lsls	r3, r1
 8006f98:	4213      	tst	r3, r2
 8006f9a:	d01f      	beq.n	8006fdc <dmaStreamRelease+0x5c>
 8006f9c:	7aa0      	ldrb	r0, [r4, #10]
 8006f9e:	f7ff fc8f 	bl	80068c0 <nvicDisableVector>
 8006fa2:	7a61      	ldrb	r1, [r4, #9]
 8006fa4:	682b      	ldr	r3, [r5, #0]
 8006fa6:	2201      	movs	r2, #1
 8006fa8:	408a      	lsls	r2, r1
 8006faa:	ea23 0302 	bic.w	r3, r3, r2
 8006fae:	f013 0fff 	tst.w	r3, #255	; 0xff
 8006fb2:	602b      	str	r3, [r5, #0]
 8006fb4:	d104      	bne.n	8006fc0 <dmaStreamRelease+0x40>
 8006fb6:	4910      	ldr	r1, [pc, #64]	; (8006ff8 <dmaStreamRelease+0x78>)
 8006fb8:	6b0a      	ldr	r2, [r1, #48]	; 0x30
 8006fba:	f422 1200 	bic.w	r2, r2, #2097152	; 0x200000
 8006fbe:	630a      	str	r2, [r1, #48]	; 0x30
 8006fc0:	f413 4f7f 	tst.w	r3, #65280	; 0xff00
 8006fc4:	d104      	bne.n	8006fd0 <dmaStreamRelease+0x50>
 8006fc6:	4a0c      	ldr	r2, [pc, #48]	; (8006ff8 <dmaStreamRelease+0x78>)
 8006fc8:	6b13      	ldr	r3, [r2, #48]	; 0x30
 8006fca:	f423 0380 	bic.w	r3, r3, #4194304	; 0x400000
 8006fce:	6313      	str	r3, [r2, #48]	; 0x30
 8006fd0:	9a01      	ldr	r2, [sp, #4]
 8006fd2:	6833      	ldr	r3, [r6, #0]
 8006fd4:	429a      	cmp	r2, r3
 8006fd6:	d109      	bne.n	8006fec <dmaStreamRelease+0x6c>
 8006fd8:	b002      	add	sp, #8
 8006fda:	bd70      	pop	{r4, r5, r6, pc}
 8006fdc:	4807      	ldr	r0, [pc, #28]	; (8006ffc <dmaStreamRelease+0x7c>)
 8006fde:	f7fb fb27 	bl	8002630 <chSysHalt>
 8006fe2:	e7db      	b.n	8006f9c <dmaStreamRelease+0x1c>
 8006fe4:	4805      	ldr	r0, [pc, #20]	; (8006ffc <dmaStreamRelease+0x7c>)
 8006fe6:	f7fb fb23 	bl	8002630 <chSysHalt>
 8006fea:	e7d0      	b.n	8006f8e <dmaStreamRelease+0xe>
 8006fec:	f7fa f938 	bl	8001260 <__stack_chk_fail>
 8006ff0:	20000800 	.word	0x20000800
 8006ff4:	20001c60 	.word	0x20001c60
 8006ff8:	40023800 	.word	0x40023800
 8006ffc:	0800ee50 	.word	0x0800ee50

08007000 <hal_lld_init>:
 8007000:	b530      	push	{r4, r5, lr}
 8007002:	4c1c      	ldr	r4, [pc, #112]	; (8007074 <hal_lld_init+0x74>)
 8007004:	4b1c      	ldr	r3, [pc, #112]	; (8007078 <hal_lld_init+0x78>)
 8007006:	6822      	ldr	r2, [r4, #0]
 8007008:	4d1c      	ldr	r5, [pc, #112]	; (800707c <hal_lld_init+0x7c>)
 800700a:	b083      	sub	sp, #12
 800700c:	f04f 31ff 	mov.w	r1, #4294967295
 8007010:	9201      	str	r2, [sp, #4]
 8007012:	2200      	movs	r2, #0
 8007014:	6918      	ldr	r0, [r3, #16]
 8007016:	6119      	str	r1, [r3, #16]
 8007018:	611a      	str	r2, [r3, #16]
 800701a:	6958      	ldr	r0, [r3, #20]
 800701c:	6159      	str	r1, [r3, #20]
 800701e:	615a      	str	r2, [r3, #20]
 8007020:	6a18      	ldr	r0, [r3, #32]
 8007022:	f060 5080 	orn	r0, r0, #268435456	; 0x10000000
 8007026:	6218      	str	r0, [r3, #32]
 8007028:	621a      	str	r2, [r3, #32]
 800702a:	6a58      	ldr	r0, [r3, #36]	; 0x24
 800702c:	6259      	str	r1, [r3, #36]	; 0x24
 800702e:	625a      	str	r2, [r3, #36]	; 0x24
 8007030:	6c19      	ldr	r1, [r3, #64]	; 0x40
 8007032:	f041 5180 	orr.w	r1, r1, #268435456	; 0x10000000
 8007036:	6419      	str	r1, [r3, #64]	; 0x40
 8007038:	6829      	ldr	r1, [r5, #0]
 800703a:	f441 7180 	orr.w	r1, r1, #256	; 0x100
 800703e:	6029      	str	r1, [r5, #0]
 8007040:	6f19      	ldr	r1, [r3, #112]	; 0x70
 8007042:	f401 7140 	and.w	r1, r1, #768	; 0x300
 8007046:	f5b1 7f00 	cmp.w	r1, #512	; 0x200
 800704a:	d003      	beq.n	8007054 <hal_lld_init+0x54>
 800704c:	f44f 3180 	mov.w	r1, #65536	; 0x10000
 8007050:	6719      	str	r1, [r3, #112]	; 0x70
 8007052:	671a      	str	r2, [r3, #112]	; 0x70
 8007054:	4a09      	ldr	r2, [pc, #36]	; (800707c <hal_lld_init+0x7c>)
 8007056:	6853      	ldr	r3, [r2, #4]
 8007058:	f423 7300 	bic.w	r3, r3, #512	; 0x200
 800705c:	6053      	str	r3, [r2, #4]
 800705e:	9a01      	ldr	r2, [sp, #4]
 8007060:	6823      	ldr	r3, [r4, #0]
 8007062:	429a      	cmp	r2, r3
 8007064:	d104      	bne.n	8007070 <hal_lld_init+0x70>
 8007066:	b003      	add	sp, #12
 8007068:	e8bd 4030 	ldmia.w	sp!, {r4, r5, lr}
 800706c:	f7ff bee8 	b.w	8006e40 <dmaInit>
 8007070:	f7fa f8f6 	bl	8001260 <__stack_chk_fail>
 8007074:	20000800 	.word	0x20000800
 8007078:	40023800 	.word	0x40023800
 800707c:	40007000 	.word	0x40007000

08007080 <stm32_clock_init>:
 8007080:	b510      	push	{r4, lr}
 8007082:	4936      	ldr	r1, [pc, #216]	; (800715c <stm32_clock_init+0xdc>)
 8007084:	4b36      	ldr	r3, [pc, #216]	; (8007160 <stm32_clock_init+0xe0>)
 8007086:	6808      	ldr	r0, [r1, #0]
 8007088:	4a36      	ldr	r2, [pc, #216]	; (8007164 <stm32_clock_init+0xe4>)
 800708a:	b082      	sub	sp, #8
 800708c:	f04f 5480 	mov.w	r4, #268435456	; 0x10000000
 8007090:	9001      	str	r0, [sp, #4]
 8007092:	f44f 4040 	mov.w	r0, #49152	; 0xc000
 8007096:	641c      	str	r4, [r3, #64]	; 0x40
 8007098:	6010      	str	r0, [r2, #0]
 800709a:	681a      	ldr	r2, [r3, #0]
 800709c:	f042 0201 	orr.w	r2, r2, #1
 80070a0:	601a      	str	r2, [r3, #0]
 80070a2:	681a      	ldr	r2, [r3, #0]
 80070a4:	0790      	lsls	r0, r2, #30
 80070a6:	d5fc      	bpl.n	80070a2 <stm32_clock_init+0x22>
 80070a8:	6898      	ldr	r0, [r3, #8]
 80070aa:	4a2d      	ldr	r2, [pc, #180]	; (8007160 <stm32_clock_init+0xe0>)
 80070ac:	f020 0003 	bic.w	r0, r0, #3
 80070b0:	6098      	str	r0, [r3, #8]
 80070b2:	6898      	ldr	r0, [r3, #8]
 80070b4:	6098      	str	r0, [r3, #8]
 80070b6:	6893      	ldr	r3, [r2, #8]
 80070b8:	f013 030c 	ands.w	r3, r3, #12
 80070bc:	d1fb      	bne.n	80070b6 <stm32_clock_init+0x36>
 80070be:	6814      	ldr	r4, [r2, #0]
 80070c0:	4827      	ldr	r0, [pc, #156]	; (8007160 <stm32_clock_init+0xe0>)
 80070c2:	f004 04f9 	and.w	r4, r4, #249	; 0xf9
 80070c6:	6014      	str	r4, [r2, #0]
 80070c8:	6093      	str	r3, [r2, #8]
 80070ca:	6813      	ldr	r3, [r2, #0]
 80070cc:	f443 23a0 	orr.w	r3, r3, #327680	; 0x50000
 80070d0:	6013      	str	r3, [r2, #0]
 80070d2:	6803      	ldr	r3, [r0, #0]
 80070d4:	039a      	lsls	r2, r3, #14
 80070d6:	d5fc      	bpl.n	80070d2 <stm32_clock_init+0x52>
 80070d8:	6f43      	ldr	r3, [r0, #116]	; 0x74
 80070da:	4a21      	ldr	r2, [pc, #132]	; (8007160 <stm32_clock_init+0xe0>)
 80070dc:	f043 0301 	orr.w	r3, r3, #1
 80070e0:	6743      	str	r3, [r0, #116]	; 0x74
 80070e2:	6f53      	ldr	r3, [r2, #116]	; 0x74
 80070e4:	079b      	lsls	r3, r3, #30
 80070e6:	d5fc      	bpl.n	80070e2 <stm32_clock_init+0x62>
 80070e8:	4b1f      	ldr	r3, [pc, #124]	; (8007168 <stm32_clock_init+0xe8>)
 80070ea:	6053      	str	r3, [r2, #4]
 80070ec:	6813      	ldr	r3, [r2, #0]
 80070ee:	481d      	ldr	r0, [pc, #116]	; (8007164 <stm32_clock_init+0xe4>)
 80070f0:	f043 7380 	orr.w	r3, r3, #16777216	; 0x1000000
 80070f4:	6013      	str	r3, [r2, #0]
 80070f6:	6843      	ldr	r3, [r0, #4]
 80070f8:	045c      	lsls	r4, r3, #17
 80070fa:	d5fc      	bpl.n	80070f6 <stm32_clock_init+0x76>
 80070fc:	4a18      	ldr	r2, [pc, #96]	; (8007160 <stm32_clock_init+0xe0>)
 80070fe:	6813      	ldr	r3, [r2, #0]
 8007100:	0198      	lsls	r0, r3, #6
 8007102:	d5fc      	bpl.n	80070fe <stm32_clock_init+0x7e>
 8007104:	4b19      	ldr	r3, [pc, #100]	; (800716c <stm32_clock_init+0xec>)
 8007106:	f8c2 3084 	str.w	r3, [r2, #132]	; 0x84
 800710a:	6813      	ldr	r3, [r2, #0]
 800710c:	4814      	ldr	r0, [pc, #80]	; (8007160 <stm32_clock_init+0xe0>)
 800710e:	f043 6380 	orr.w	r3, r3, #67108864	; 0x4000000
 8007112:	6013      	str	r3, [r2, #0]
 8007114:	6803      	ldr	r3, [r0, #0]
 8007116:	011b      	lsls	r3, r3, #4
 8007118:	d5fc      	bpl.n	8007114 <stm32_clock_init+0x94>
 800711a:	4b15      	ldr	r3, [pc, #84]	; (8007170 <stm32_clock_init+0xf0>)
 800711c:	4a15      	ldr	r2, [pc, #84]	; (8007174 <stm32_clock_init+0xf4>)
 800711e:	6082      	str	r2, [r0, #8]
 8007120:	f240 7205 	movw	r2, #1797	; 0x705
 8007124:	601a      	str	r2, [r3, #0]
 8007126:	6883      	ldr	r3, [r0, #8]
 8007128:	4a0d      	ldr	r2, [pc, #52]	; (8007160 <stm32_clock_init+0xe0>)
 800712a:	f043 0302 	orr.w	r3, r3, #2
 800712e:	6083      	str	r3, [r0, #8]
 8007130:	6893      	ldr	r3, [r2, #8]
 8007132:	f003 030c 	and.w	r3, r3, #12
 8007136:	2b08      	cmp	r3, #8
 8007138:	d1fa      	bne.n	8007130 <stm32_clock_init+0xb0>
 800713a:	6c53      	ldr	r3, [r2, #68]	; 0x44
 800713c:	f443 4380 	orr.w	r3, r3, #16384	; 0x4000
 8007140:	6453      	str	r3, [r2, #68]	; 0x44
 8007142:	6e53      	ldr	r3, [r2, #100]	; 0x64
 8007144:	f443 4380 	orr.w	r3, r3, #16384	; 0x4000
 8007148:	6653      	str	r3, [r2, #100]	; 0x64
 800714a:	9a01      	ldr	r2, [sp, #4]
 800714c:	680b      	ldr	r3, [r1, #0]
 800714e:	429a      	cmp	r2, r3
 8007150:	d101      	bne.n	8007156 <stm32_clock_init+0xd6>
 8007152:	b002      	add	sp, #8
 8007154:	bd10      	pop	{r4, pc}
 8007156:	f7fa f883 	bl	8001260 <__stack_chk_fail>
 800715a:	bf00      	nop
 800715c:	20000800 	.word	0x20000800
 8007160:	40023800 	.word	0x40023800
 8007164:	40007000 	.word	0x40007000
 8007168:	07405418 	.word	0x07405418
 800716c:	60003000 	.word	0x60003000
 8007170:	40023c00 	.word	0x40023c00
 8007174:	38089400 	.word	0x38089400
	...

08007180 <adc_lld_init>:
 8007180:	e92d 41f0 	stmdb	sp!, {r4, r5, r6, r7, r8, lr}
 8007184:	4f19      	ldr	r7, [pc, #100]	; (80071ec <adc_lld_init+0x6c>)
 8007186:	f8df 808c 	ldr.w	r8, [pc, #140]	; 8007214 <adc_lld_init+0x94>
 800718a:	4e19      	ldr	r6, [pc, #100]	; (80071f0 <adc_lld_init+0x70>)
 800718c:	f8d8 3000 	ldr.w	r3, [r8]
 8007190:	4c18      	ldr	r4, [pc, #96]	; (80071f4 <adc_lld_init+0x74>)
 8007192:	4d19      	ldr	r5, [pc, #100]	; (80071f8 <adc_lld_init+0x78>)
 8007194:	b082      	sub	sp, #8
 8007196:	4638      	mov	r0, r7
 8007198:	9301      	str	r3, [sp, #4]
 800719a:	f7fd f9d9 	bl	8004550 <adcObjectInit>
 800719e:	4b17      	ldr	r3, [pc, #92]	; (80071fc <adc_lld_init+0x7c>)
 80071a0:	62fb      	str	r3, [r7, #44]	; 0x2c
 80071a2:	4630      	mov	r0, r6
 80071a4:	4b16      	ldr	r3, [pc, #88]	; (8007200 <adc_lld_init+0x80>)
 80071a6:	637b      	str	r3, [r7, #52]	; 0x34
 80071a8:	633c      	str	r4, [r7, #48]	; 0x30
 80071aa:	f7fd f9d1 	bl	8004550 <adcObjectInit>
 80071ae:	4a15      	ldr	r2, [pc, #84]	; (8007204 <adc_lld_init+0x84>)
 80071b0:	4b15      	ldr	r3, [pc, #84]	; (8007208 <adc_lld_init+0x88>)
 80071b2:	62f2      	str	r2, [r6, #44]	; 0x2c
 80071b4:	4628      	mov	r0, r5
 80071b6:	f1a4 0218 	sub.w	r2, r4, #24
 80071ba:	6332      	str	r2, [r6, #48]	; 0x30
 80071bc:	6373      	str	r3, [r6, #52]	; 0x34
 80071be:	f7fd f9c7 	bl	8004550 <adcObjectInit>
 80071c2:	9a01      	ldr	r2, [sp, #4]
 80071c4:	f8d8 3000 	ldr.w	r3, [r8]
 80071c8:	4910      	ldr	r1, [pc, #64]	; (800720c <adc_lld_init+0x8c>)
 80071ca:	4811      	ldr	r0, [pc, #68]	; (8007210 <adc_lld_init+0x90>)
 80071cc:	62e8      	str	r0, [r5, #44]	; 0x2c
 80071ce:	3c24      	subs	r4, #36	; 0x24
 80071d0:	429a      	cmp	r2, r3
 80071d2:	e9c5 410c 	strd	r4, r1, [r5, #48]	; 0x30
 80071d6:	d106      	bne.n	80071e6 <adc_lld_init+0x66>
 80071d8:	2106      	movs	r1, #6
 80071da:	2012      	movs	r0, #18
 80071dc:	b002      	add	sp, #8
 80071de:	e8bd 41f0 	ldmia.w	sp!, {r4, r5, r6, r7, r8, lr}
 80071e2:	f7ff bb45 	b.w	8006870 <nvicEnableVector>
 80071e6:	f7fa f83b 	bl	8001260 <__stack_chk_fail>
 80071ea:	bf00      	nop
 80071ec:	20001c64 	.word	0x20001c64
 80071f0:	20001c9c 	.word	0x20001c9c
 80071f4:	0800ef00 	.word	0x0800ef00
 80071f8:	20001cd4 	.word	0x20001cd4
 80071fc:	40012000 	.word	0x40012000
 8007200:	00022c16 	.word	0x00022c16
 8007204:	40012100 	.word	0x40012100
 8007208:	02022c16 	.word	0x02022c16
 800720c:	04022c16 	.word	0x04022c16
 8007210:	40012200 	.word	0x40012200
 8007214:	20000800 	.word	0x20000800
	...

08007220 <adc_lld_stop_conversion>:
 8007220:	b530      	push	{r4, r5, lr}
 8007222:	6b02      	ldr	r2, [r0, #48]	; 0x30
 8007224:	4c11      	ldr	r4, [pc, #68]	; (800726c <adc_lld_stop_conversion+0x4c>)
 8007226:	6812      	ldr	r2, [r2, #0]
 8007228:	6823      	ldr	r3, [r4, #0]
 800722a:	b083      	sub	sp, #12
 800722c:	9301      	str	r3, [sp, #4]
 800722e:	6813      	ldr	r3, [r2, #0]
 8007230:	f023 031f 	bic.w	r3, r3, #31
 8007234:	6013      	str	r3, [r2, #0]
 8007236:	6b01      	ldr	r1, [r0, #48]	; 0x30
 8007238:	680a      	ldr	r2, [r1, #0]
 800723a:	6813      	ldr	r3, [r2, #0]
 800723c:	f013 0301 	ands.w	r3, r3, #1
 8007240:	d1fb      	bne.n	800723a <adc_lld_stop_conversion+0x1a>
 8007242:	7a0d      	ldrb	r5, [r1, #8]
 8007244:	6849      	ldr	r1, [r1, #4]
 8007246:	223d      	movs	r2, #61	; 0x3d
 8007248:	40aa      	lsls	r2, r5
 800724a:	600a      	str	r2, [r1, #0]
 800724c:	6ac2      	ldr	r2, [r0, #44]	; 0x2c
 800724e:	6053      	str	r3, [r2, #4]
 8007250:	6ac2      	ldr	r2, [r0, #44]	; 0x2c
 8007252:	6093      	str	r3, [r2, #8]
 8007254:	6ac3      	ldr	r3, [r0, #44]	; 0x2c
 8007256:	2201      	movs	r2, #1
 8007258:	609a      	str	r2, [r3, #8]
 800725a:	9a01      	ldr	r2, [sp, #4]
 800725c:	6823      	ldr	r3, [r4, #0]
 800725e:	429a      	cmp	r2, r3
 8007260:	d101      	bne.n	8007266 <adc_lld_stop_conversion+0x46>
 8007262:	b003      	add	sp, #12
 8007264:	bd30      	pop	{r4, r5, pc}
 8007266:	f7f9 fffb 	bl	8001260 <__stack_chk_fail>
 800726a:	bf00      	nop
 800726c:	20000800 	.word	0x20000800

08007270 <Vector88>:
 8007270:	b570      	push	{r4, r5, r6, lr}
 8007272:	4c57      	ldr	r4, [pc, #348]	; (80073d0 <Vector88+0x160>)
 8007274:	b082      	sub	sp, #8
 8007276:	6823      	ldr	r3, [r4, #0]
 8007278:	9301      	str	r3, [sp, #4]
 800727a:	f7fc fa39 	bl	80036f0 <_stats_increase_irq>
 800727e:	f7fb faf7 	bl	8002870 <_dbg_check_enter_isr>
 8007282:	4b54      	ldr	r3, [pc, #336]	; (80073d4 <Vector88+0x164>)
 8007284:	681a      	ldr	r2, [r3, #0]
 8007286:	2100      	movs	r1, #0
 8007288:	6019      	str	r1, [r3, #0]
 800728a:	0691      	lsls	r1, r2, #26
 800728c:	d505      	bpl.n	800729a <Vector88+0x2a>
 800728e:	4d52      	ldr	r5, [pc, #328]	; (80073d8 <Vector88+0x168>)
 8007290:	6b2b      	ldr	r3, [r5, #48]	; 0x30
 8007292:	681b      	ldr	r3, [r3, #0]
 8007294:	685b      	ldr	r3, [r3, #4]
 8007296:	2b00      	cmp	r3, #0
 8007298:	d16f      	bne.n	800737a <Vector88+0x10a>
 800729a:	4b50      	ldr	r3, [pc, #320]	; (80073dc <Vector88+0x16c>)
 800729c:	681a      	ldr	r2, [r3, #0]
 800729e:	2100      	movs	r1, #0
 80072a0:	0692      	lsls	r2, r2, #26
 80072a2:	6019      	str	r1, [r3, #0]
 80072a4:	d505      	bpl.n	80072b2 <Vector88+0x42>
 80072a6:	4d4e      	ldr	r5, [pc, #312]	; (80073e0 <Vector88+0x170>)
 80072a8:	6b2b      	ldr	r3, [r5, #48]	; 0x30
 80072aa:	681b      	ldr	r3, [r3, #0]
 80072ac:	685b      	ldr	r3, [r3, #4]
 80072ae:	2b00      	cmp	r3, #0
 80072b0:	d13b      	bne.n	800732a <Vector88+0xba>
 80072b2:	4b4c      	ldr	r3, [pc, #304]	; (80073e4 <Vector88+0x174>)
 80072b4:	681a      	ldr	r2, [r3, #0]
 80072b6:	2100      	movs	r1, #0
 80072b8:	6019      	str	r1, [r3, #0]
 80072ba:	0693      	lsls	r3, r2, #26
 80072bc:	d52a      	bpl.n	8007314 <Vector88+0xa4>
 80072be:	4d4a      	ldr	r5, [pc, #296]	; (80073e8 <Vector88+0x178>)
 80072c0:	6b2b      	ldr	r3, [r5, #48]	; 0x30
 80072c2:	681b      	ldr	r3, [r3, #0]
 80072c4:	685b      	ldr	r3, [r3, #4]
 80072c6:	b32b      	cbz	r3, 8007314 <Vector88+0xa4>
 80072c8:	692b      	ldr	r3, [r5, #16]
 80072ca:	b31b      	cbz	r3, 8007314 <Vector88+0xa4>
 80072cc:	4628      	mov	r0, r5
 80072ce:	f7ff ffa7 	bl	8007220 <adc_lld_stop_conversion>
 80072d2:	692b      	ldr	r3, [r5, #16]
 80072d4:	689b      	ldr	r3, [r3, #8]
 80072d6:	b14b      	cbz	r3, 80072ec <Vector88+0x7c>
 80072d8:	2205      	movs	r2, #5
 80072da:	702a      	strb	r2, [r5, #0]
 80072dc:	2101      	movs	r1, #1
 80072de:	4628      	mov	r0, r5
 80072e0:	4798      	blx	r3
 80072e2:	782b      	ldrb	r3, [r5, #0]
 80072e4:	2b05      	cmp	r3, #5
 80072e6:	bf04      	itt	eq
 80072e8:	2302      	moveq	r3, #2
 80072ea:	702b      	strbeq	r3, [r5, #0]
 80072ec:	2600      	movs	r6, #0
 80072ee:	612e      	str	r6, [r5, #16]
 80072f0:	2320      	movs	r3, #32
 80072f2:	f383 8811 	msr	BASEPRI, r3
 80072f6:	f7fc fa63 	bl	80037c0 <_stats_start_measure_crit_isr>
 80072fa:	f7fb fa79 	bl	80027f0 <_dbg_check_lock_from_isr>
 80072fe:	f04f 31ff 	mov.w	r1, #4294967295
 8007302:	483a      	ldr	r0, [pc, #232]	; (80073ec <Vector88+0x17c>)
 8007304:	f7fc f85c 	bl	80033c0 <chThdResumeI>
 8007308:	f7fb fa92 	bl	8002830 <_dbg_check_unlock_from_isr>
 800730c:	f7fc fa70 	bl	80037f0 <_stats_stop_measure_crit_isr>
 8007310:	f386 8811 	msr	BASEPRI, r6
 8007314:	f7fb fad4 	bl	80028c0 <_dbg_check_leave_isr>
 8007318:	9a01      	ldr	r2, [sp, #4]
 800731a:	6823      	ldr	r3, [r4, #0]
 800731c:	429a      	cmp	r2, r3
 800731e:	d154      	bne.n	80073ca <Vector88+0x15a>
 8007320:	b002      	add	sp, #8
 8007322:	e8bd 4070 	ldmia.w	sp!, {r4, r5, r6, lr}
 8007326:	f7fc bfdb 	b.w	80042e0 <_port_irq_epilogue>
 800732a:	692b      	ldr	r3, [r5, #16]
 800732c:	2b00      	cmp	r3, #0
 800732e:	d0c0      	beq.n	80072b2 <Vector88+0x42>
 8007330:	4628      	mov	r0, r5
 8007332:	f7ff ff75 	bl	8007220 <adc_lld_stop_conversion>
 8007336:	692b      	ldr	r3, [r5, #16]
 8007338:	689b      	ldr	r3, [r3, #8]
 800733a:	b14b      	cbz	r3, 8007350 <Vector88+0xe0>
 800733c:	2205      	movs	r2, #5
 800733e:	702a      	strb	r2, [r5, #0]
 8007340:	2101      	movs	r1, #1
 8007342:	4628      	mov	r0, r5
 8007344:	4798      	blx	r3
 8007346:	782b      	ldrb	r3, [r5, #0]
 8007348:	2b05      	cmp	r3, #5
 800734a:	bf04      	itt	eq
 800734c:	2302      	moveq	r3, #2
 800734e:	702b      	strbeq	r3, [r5, #0]
 8007350:	2600      	movs	r6, #0
 8007352:	612e      	str	r6, [r5, #16]
 8007354:	2320      	movs	r3, #32
 8007356:	f383 8811 	msr	BASEPRI, r3
 800735a:	f7fc fa31 	bl	80037c0 <_stats_start_measure_crit_isr>
 800735e:	f7fb fa47 	bl	80027f0 <_dbg_check_lock_from_isr>
 8007362:	f04f 31ff 	mov.w	r1, #4294967295
 8007366:	4822      	ldr	r0, [pc, #136]	; (80073f0 <Vector88+0x180>)
 8007368:	f7fc f82a 	bl	80033c0 <chThdResumeI>
 800736c:	f7fb fa60 	bl	8002830 <_dbg_check_unlock_from_isr>
 8007370:	f7fc fa3e 	bl	80037f0 <_stats_stop_measure_crit_isr>
 8007374:	f386 8811 	msr	BASEPRI, r6
 8007378:	e79b      	b.n	80072b2 <Vector88+0x42>
 800737a:	692b      	ldr	r3, [r5, #16]
 800737c:	2b00      	cmp	r3, #0
 800737e:	d08c      	beq.n	800729a <Vector88+0x2a>
 8007380:	4628      	mov	r0, r5
 8007382:	f7ff ff4d 	bl	8007220 <adc_lld_stop_conversion>
 8007386:	692b      	ldr	r3, [r5, #16]
 8007388:	689b      	ldr	r3, [r3, #8]
 800738a:	b14b      	cbz	r3, 80073a0 <Vector88+0x130>
 800738c:	2205      	movs	r2, #5
 800738e:	702a      	strb	r2, [r5, #0]
 8007390:	2101      	movs	r1, #1
 8007392:	4628      	mov	r0, r5
 8007394:	4798      	blx	r3
 8007396:	782b      	ldrb	r3, [r5, #0]
 8007398:	2b05      	cmp	r3, #5
 800739a:	bf04      	itt	eq
 800739c:	2302      	moveq	r3, #2
 800739e:	702b      	strbeq	r3, [r5, #0]
 80073a0:	2600      	movs	r6, #0
 80073a2:	612e      	str	r6, [r5, #16]
 80073a4:	2320      	movs	r3, #32
 80073a6:	f383 8811 	msr	BASEPRI, r3
 80073aa:	f7fc fa09 	bl	80037c0 <_stats_start_measure_crit_isr>
 80073ae:	f7fb fa1f 	bl	80027f0 <_dbg_check_lock_from_isr>
 80073b2:	f04f 31ff 	mov.w	r1, #4294967295
 80073b6:	480f      	ldr	r0, [pc, #60]	; (80073f4 <Vector88+0x184>)
 80073b8:	f7fc f802 	bl	80033c0 <chThdResumeI>
 80073bc:	f7fb fa38 	bl	8002830 <_dbg_check_unlock_from_isr>
 80073c0:	f7fc fa16 	bl	80037f0 <_stats_stop_measure_crit_isr>
 80073c4:	f386 8811 	msr	BASEPRI, r6
 80073c8:	e767      	b.n	800729a <Vector88+0x2a>
 80073ca:	f7f9 ff49 	bl	8001260 <__stack_chk_fail>
 80073ce:	bf00      	nop
 80073d0:	20000800 	.word	0x20000800
 80073d4:	40012000 	.word	0x40012000
 80073d8:	20001c64 	.word	0x20001c64
 80073dc:	40012100 	.word	0x40012100
 80073e0:	20001c9c 	.word	0x20001c9c
 80073e4:	40012200 	.word	0x40012200
 80073e8:	20001cd4 	.word	0x20001cd4
 80073ec:	20001ce8 	.word	0x20001ce8
 80073f0:	20001cb0 	.word	0x20001cb0
 80073f4:	20001c78 	.word	0x20001c78
	...

08007400 <Vector58>:
 8007400:	b510      	push	{r4, lr}
 8007402:	4c0e      	ldr	r4, [pc, #56]	; (800743c <Vector58+0x3c>)
 8007404:	b082      	sub	sp, #8
 8007406:	6823      	ldr	r3, [r4, #0]
 8007408:	9301      	str	r3, [sp, #4]
 800740a:	f7fc f971 	bl	80036f0 <_stats_increase_irq>
 800740e:	f7fb fa2f 	bl	8002870 <_dbg_check_enter_isr>
 8007412:	480b      	ldr	r0, [pc, #44]	; (8007440 <Vector58+0x40>)
 8007414:	4a0b      	ldr	r2, [pc, #44]	; (8007444 <Vector58+0x44>)
 8007416:	6843      	ldr	r3, [r0, #4]
 8007418:	2101      	movs	r1, #1
 800741a:	6151      	str	r1, [r2, #20]
 800741c:	685b      	ldr	r3, [r3, #4]
 800741e:	2100      	movs	r1, #0
 8007420:	4798      	blx	r3
 8007422:	f7fb fa4d 	bl	80028c0 <_dbg_check_leave_isr>
 8007426:	9a01      	ldr	r2, [sp, #4]
 8007428:	6823      	ldr	r3, [r4, #0]
 800742a:	429a      	cmp	r2, r3
 800742c:	d104      	bne.n	8007438 <Vector58+0x38>
 800742e:	b002      	add	sp, #8
 8007430:	e8bd 4010 	ldmia.w	sp!, {r4, lr}
 8007434:	f7fc bf54 	b.w	80042e0 <_port_irq_epilogue>
 8007438:	f7f9 ff12 	bl	8001260 <__stack_chk_fail>
 800743c:	20000800 	.word	0x20000800
 8007440:	20001d3c 	.word	0x20001d3c
 8007444:	40013c00 	.word	0x40013c00
	...

08007450 <Vector5C>:
 8007450:	b510      	push	{r4, lr}
 8007452:	4c0e      	ldr	r4, [pc, #56]	; (800748c <Vector5C+0x3c>)
 8007454:	b082      	sub	sp, #8
 8007456:	6823      	ldr	r3, [r4, #0]
 8007458:	9301      	str	r3, [sp, #4]
 800745a:	f7fc f949 	bl	80036f0 <_stats_increase_irq>
 800745e:	f7fb fa07 	bl	8002870 <_dbg_check_enter_isr>
 8007462:	480b      	ldr	r0, [pc, #44]	; (8007490 <Vector5C+0x40>)
 8007464:	4a0b      	ldr	r2, [pc, #44]	; (8007494 <Vector5C+0x44>)
 8007466:	6843      	ldr	r3, [r0, #4]
 8007468:	2102      	movs	r1, #2
 800746a:	6151      	str	r1, [r2, #20]
 800746c:	68db      	ldr	r3, [r3, #12]
 800746e:	2101      	movs	r1, #1
 8007470:	4798      	blx	r3
 8007472:	f7fb fa25 	bl	80028c0 <_dbg_check_leave_isr>
 8007476:	9a01      	ldr	r2, [sp, #4]
 8007478:	6823      	ldr	r3, [r4, #0]
 800747a:	429a      	cmp	r2, r3
 800747c:	d104      	bne.n	8007488 <Vector5C+0x38>
 800747e:	b002      	add	sp, #8
 8007480:	e8bd 4010 	ldmia.w	sp!, {r4, lr}
 8007484:	f7fc bf2c 	b.w	80042e0 <_port_irq_epilogue>
 8007488:	f7f9 feea 	bl	8001260 <__stack_chk_fail>
 800748c:	20000800 	.word	0x20000800
 8007490:	20001d3c 	.word	0x20001d3c
 8007494:	40013c00 	.word	0x40013c00
	...

080074a0 <Vector60>:
 80074a0:	b510      	push	{r4, lr}
 80074a2:	4c0e      	ldr	r4, [pc, #56]	; (80074dc <Vector60+0x3c>)
 80074a4:	b082      	sub	sp, #8
 80074a6:	6823      	ldr	r3, [r4, #0]
 80074a8:	9301      	str	r3, [sp, #4]
 80074aa:	f7fc f921 	bl	80036f0 <_stats_increase_irq>
 80074ae:	f7fb f9df 	bl	8002870 <_dbg_check_enter_isr>
 80074b2:	480b      	ldr	r0, [pc, #44]	; (80074e0 <Vector60+0x40>)
 80074b4:	4a0b      	ldr	r2, [pc, #44]	; (80074e4 <Vector60+0x44>)
 80074b6:	6843      	ldr	r3, [r0, #4]
 80074b8:	2104      	movs	r1, #4
 80074ba:	6151      	str	r1, [r2, #20]
 80074bc:	695b      	ldr	r3, [r3, #20]
 80074be:	2102      	movs	r1, #2
 80074c0:	4798      	blx	r3
 80074c2:	f7fb f9fd 	bl	80028c0 <_dbg_check_leave_isr>
 80074c6:	9a01      	ldr	r2, [sp, #4]
 80074c8:	6823      	ldr	r3, [r4, #0]
 80074ca:	429a      	cmp	r2, r3
 80074cc:	d104      	bne.n	80074d8 <Vector60+0x38>
 80074ce:	b002      	add	sp, #8
 80074d0:	e8bd 4010 	ldmia.w	sp!, {r4, lr}
 80074d4:	f7fc bf04 	b.w	80042e0 <_port_irq_epilogue>
 80074d8:	f7f9 fec2 	bl	8001260 <__stack_chk_fail>
 80074dc:	20000800 	.word	0x20000800
 80074e0:	20001d3c 	.word	0x20001d3c
 80074e4:	40013c00 	.word	0x40013c00
	...

080074f0 <Vector64>:
 80074f0:	b510      	push	{r4, lr}
 80074f2:	4c0e      	ldr	r4, [pc, #56]	; (800752c <Vector64+0x3c>)
 80074f4:	b082      	sub	sp, #8
 80074f6:	6823      	ldr	r3, [r4, #0]
 80074f8:	9301      	str	r3, [sp, #4]
 80074fa:	f7fc f8f9 	bl	80036f0 <_stats_increase_irq>
 80074fe:	f7fb f9b7 	bl	8002870 <_dbg_check_enter_isr>
 8007502:	480b      	ldr	r0, [pc, #44]	; (8007530 <Vector64+0x40>)
 8007504:	4a0b      	ldr	r2, [pc, #44]	; (8007534 <Vector64+0x44>)
 8007506:	6843      	ldr	r3, [r0, #4]
 8007508:	2108      	movs	r1, #8
 800750a:	6151      	str	r1, [r2, #20]
 800750c:	69db      	ldr	r3, [r3, #28]
 800750e:	2103      	movs	r1, #3
 8007510:	4798      	blx	r3
 8007512:	f7fb f9d5 	bl	80028c0 <_dbg_check_leave_isr>
 8007516:	9a01      	ldr	r2, [sp, #4]
 8007518:	6823      	ldr	r3, [r4, #0]
 800751a:	429a      	cmp	r2, r3
 800751c:	d104      	bne.n	8007528 <Vector64+0x38>
 800751e:	b002      	add	sp, #8
 8007520:	e8bd 4010 	ldmia.w	sp!, {r4, lr}
 8007524:	f7fc bedc 	b.w	80042e0 <_port_irq_epilogue>
 8007528:	f7f9 fe9a 	bl	8001260 <__stack_chk_fail>
 800752c:	20000800 	.word	0x20000800
 8007530:	20001d3c 	.word	0x20001d3c
 8007534:	40013c00 	.word	0x40013c00
	...

08007540 <Vector68>:
 8007540:	b510      	push	{r4, lr}
 8007542:	4c0e      	ldr	r4, [pc, #56]	; (800757c <Vector68+0x3c>)
 8007544:	b082      	sub	sp, #8
 8007546:	6823      	ldr	r3, [r4, #0]
 8007548:	9301      	str	r3, [sp, #4]
 800754a:	f7fc f8d1 	bl	80036f0 <_stats_increase_irq>
 800754e:	f7fb f98f 	bl	8002870 <_dbg_check_enter_isr>
 8007552:	480b      	ldr	r0, [pc, #44]	; (8007580 <Vector68+0x40>)
 8007554:	4a0b      	ldr	r2, [pc, #44]	; (8007584 <Vector68+0x44>)
 8007556:	6843      	ldr	r3, [r0, #4]
 8007558:	2110      	movs	r1, #16
 800755a:	6151      	str	r1, [r2, #20]
 800755c:	6a5b      	ldr	r3, [r3, #36]	; 0x24
 800755e:	2104      	movs	r1, #4
 8007560:	4798      	blx	r3
 8007562:	f7fb f9ad 	bl	80028c0 <_dbg_check_leave_isr>
 8007566:	9a01      	ldr	r2, [sp, #4]
 8007568:	6823      	ldr	r3, [r4, #0]
 800756a:	429a      	cmp	r2, r3
 800756c:	d104      	bne.n	8007578 <Vector68+0x38>
 800756e:	b002      	add	sp, #8
 8007570:	e8bd 4010 	ldmia.w	sp!, {r4, lr}
 8007574:	f7fc beb4 	b.w	80042e0 <_port_irq_epilogue>
 8007578:	f7f9 fe72 	bl	8001260 <__stack_chk_fail>
 800757c:	20000800 	.word	0x20000800
 8007580:	20001d3c 	.word	0x20001d3c
 8007584:	40013c00 	.word	0x40013c00
	...

08007590 <Vector9C>:
 8007590:	b530      	push	{r4, r5, lr}
 8007592:	4d1e      	ldr	r5, [pc, #120]	; (800760c <Vector9C+0x7c>)
 8007594:	b083      	sub	sp, #12
 8007596:	682b      	ldr	r3, [r5, #0]
 8007598:	9301      	str	r3, [sp, #4]
 800759a:	f7fc f8a9 	bl	80036f0 <_stats_increase_irq>
 800759e:	f7fb f967 	bl	8002870 <_dbg_check_enter_isr>
 80075a2:	4b1b      	ldr	r3, [pc, #108]	; (8007610 <Vector9C+0x80>)
 80075a4:	695c      	ldr	r4, [r3, #20]
 80075a6:	f404 7278 	and.w	r2, r4, #992	; 0x3e0
 80075aa:	615a      	str	r2, [r3, #20]
 80075ac:	06a3      	lsls	r3, r4, #26
 80075ae:	d504      	bpl.n	80075ba <Vector9C+0x2a>
 80075b0:	4818      	ldr	r0, [pc, #96]	; (8007614 <Vector9C+0x84>)
 80075b2:	6843      	ldr	r3, [r0, #4]
 80075b4:	2105      	movs	r1, #5
 80075b6:	6adb      	ldr	r3, [r3, #44]	; 0x2c
 80075b8:	4798      	blx	r3
 80075ba:	0660      	lsls	r0, r4, #25
 80075bc:	d504      	bpl.n	80075c8 <Vector9C+0x38>
 80075be:	4815      	ldr	r0, [pc, #84]	; (8007614 <Vector9C+0x84>)
 80075c0:	6843      	ldr	r3, [r0, #4]
 80075c2:	2106      	movs	r1, #6
 80075c4:	6b5b      	ldr	r3, [r3, #52]	; 0x34
 80075c6:	4798      	blx	r3
 80075c8:	0621      	lsls	r1, r4, #24
 80075ca:	d504      	bpl.n	80075d6 <Vector9C+0x46>
 80075cc:	4811      	ldr	r0, [pc, #68]	; (8007614 <Vector9C+0x84>)
 80075ce:	6843      	ldr	r3, [r0, #4]
 80075d0:	2107      	movs	r1, #7
 80075d2:	6bdb      	ldr	r3, [r3, #60]	; 0x3c
 80075d4:	4798      	blx	r3
 80075d6:	05e2      	lsls	r2, r4, #23
 80075d8:	d504      	bpl.n	80075e4 <Vector9C+0x54>
 80075da:	480e      	ldr	r0, [pc, #56]	; (8007614 <Vector9C+0x84>)
 80075dc:	6843      	ldr	r3, [r0, #4]
 80075de:	2108      	movs	r1, #8
 80075e0:	6c5b      	ldr	r3, [r3, #68]	; 0x44
 80075e2:	4798      	blx	r3
 80075e4:	05a3      	lsls	r3, r4, #22
 80075e6:	d504      	bpl.n	80075f2 <Vector9C+0x62>
 80075e8:	480a      	ldr	r0, [pc, #40]	; (8007614 <Vector9C+0x84>)
 80075ea:	6843      	ldr	r3, [r0, #4]
 80075ec:	2109      	movs	r1, #9
 80075ee:	6cdb      	ldr	r3, [r3, #76]	; 0x4c
 80075f0:	4798      	blx	r3
 80075f2:	f7fb f965 	bl	80028c0 <_dbg_check_leave_isr>
 80075f6:	9a01      	ldr	r2, [sp, #4]
 80075f8:	682b      	ldr	r3, [r5, #0]
 80075fa:	429a      	cmp	r2, r3
 80075fc:	d104      	bne.n	8007608 <Vector9C+0x78>
 80075fe:	b003      	add	sp, #12
 8007600:	e8bd 4030 	ldmia.w	sp!, {r4, r5, lr}
 8007604:	f7fc be6c 	b.w	80042e0 <_port_irq_epilogue>
 8007608:	f7f9 fe2a 	bl	8001260 <__stack_chk_fail>
 800760c:	20000800 	.word	0x20000800
 8007610:	40013c00 	.word	0x40013c00
 8007614:	20001d3c 	.word	0x20001d3c
	...

08007620 <VectorE0>:
 8007620:	b530      	push	{r4, r5, lr}
 8007622:	4d22      	ldr	r5, [pc, #136]	; (80076ac <VectorE0+0x8c>)
 8007624:	b083      	sub	sp, #12
 8007626:	682b      	ldr	r3, [r5, #0]
 8007628:	9301      	str	r3, [sp, #4]
 800762a:	f7fc f861 	bl	80036f0 <_stats_increase_irq>
 800762e:	f7fb f91f 	bl	8002870 <_dbg_check_enter_isr>
 8007632:	4b1f      	ldr	r3, [pc, #124]	; (80076b0 <VectorE0+0x90>)
 8007634:	695c      	ldr	r4, [r3, #20]
 8007636:	f404 427c 	and.w	r2, r4, #64512	; 0xfc00
 800763a:	615a      	str	r2, [r3, #20]
 800763c:	0562      	lsls	r2, r4, #21
 800763e:	d504      	bpl.n	800764a <VectorE0+0x2a>
 8007640:	481c      	ldr	r0, [pc, #112]	; (80076b4 <VectorE0+0x94>)
 8007642:	6843      	ldr	r3, [r0, #4]
 8007644:	210a      	movs	r1, #10
 8007646:	6d5b      	ldr	r3, [r3, #84]	; 0x54
 8007648:	4798      	blx	r3
 800764a:	0523      	lsls	r3, r4, #20
 800764c:	d504      	bpl.n	8007658 <VectorE0+0x38>
 800764e:	4819      	ldr	r0, [pc, #100]	; (80076b4 <VectorE0+0x94>)
 8007650:	6843      	ldr	r3, [r0, #4]
 8007652:	210b      	movs	r1, #11
 8007654:	6ddb      	ldr	r3, [r3, #92]	; 0x5c
 8007656:	4798      	blx	r3
 8007658:	04e0      	lsls	r0, r4, #19
 800765a:	d504      	bpl.n	8007666 <VectorE0+0x46>
 800765c:	4815      	ldr	r0, [pc, #84]	; (80076b4 <VectorE0+0x94>)
 800765e:	6843      	ldr	r3, [r0, #4]
 8007660:	210c      	movs	r1, #12
 8007662:	6e5b      	ldr	r3, [r3, #100]	; 0x64
 8007664:	4798      	blx	r3
 8007666:	04a1      	lsls	r1, r4, #18
 8007668:	d504      	bpl.n	8007674 <VectorE0+0x54>
 800766a:	4812      	ldr	r0, [pc, #72]	; (80076b4 <VectorE0+0x94>)
 800766c:	6843      	ldr	r3, [r0, #4]
 800766e:	210d      	movs	r1, #13
 8007670:	6edb      	ldr	r3, [r3, #108]	; 0x6c
 8007672:	4798      	blx	r3
 8007674:	0462      	lsls	r2, r4, #17
 8007676:	d504      	bpl.n	8007682 <VectorE0+0x62>
 8007678:	480e      	ldr	r0, [pc, #56]	; (80076b4 <VectorE0+0x94>)
 800767a:	6843      	ldr	r3, [r0, #4]
 800767c:	210e      	movs	r1, #14
 800767e:	6f5b      	ldr	r3, [r3, #116]	; 0x74
 8007680:	4798      	blx	r3
 8007682:	0423      	lsls	r3, r4, #16
 8007684:	d504      	bpl.n	8007690 <VectorE0+0x70>
 8007686:	480b      	ldr	r0, [pc, #44]	; (80076b4 <VectorE0+0x94>)
 8007688:	6843      	ldr	r3, [r0, #4]
 800768a:	210f      	movs	r1, #15
 800768c:	6fdb      	ldr	r3, [r3, #124]	; 0x7c
 800768e:	4798      	blx	r3
 8007690:	f7fb f916 	bl	80028c0 <_dbg_check_leave_isr>
 8007694:	9a01      	ldr	r2, [sp, #4]
 8007696:	682b      	ldr	r3, [r5, #0]
 8007698:	429a      	cmp	r2, r3
 800769a:	d104      	bne.n	80076a6 <VectorE0+0x86>
 800769c:	b003      	add	sp, #12
 800769e:	e8bd 4030 	ldmia.w	sp!, {r4, r5, lr}
 80076a2:	f7fc be1d 	b.w	80042e0 <_port_irq_epilogue>
 80076a6:	f7f9 fddb 	bl	8001260 <__stack_chk_fail>
 80076aa:	bf00      	nop
 80076ac:	20000800 	.word	0x20000800
 80076b0:	40013c00 	.word	0x40013c00
 80076b4:	20001d3c 	.word	0x20001d3c
	...

080076c0 <Vector44>:
 80076c0:	b510      	push	{r4, lr}
 80076c2:	4c0f      	ldr	r4, [pc, #60]	; (8007700 <Vector44+0x40>)
 80076c4:	b082      	sub	sp, #8
 80076c6:	6823      	ldr	r3, [r4, #0]
 80076c8:	9301      	str	r3, [sp, #4]
 80076ca:	f7fc f811 	bl	80036f0 <_stats_increase_irq>
 80076ce:	f7fb f8cf 	bl	8002870 <_dbg_check_enter_isr>
 80076d2:	480c      	ldr	r0, [pc, #48]	; (8007704 <Vector44+0x44>)
 80076d4:	4a0c      	ldr	r2, [pc, #48]	; (8007708 <Vector44+0x48>)
 80076d6:	6843      	ldr	r3, [r0, #4]
 80076d8:	f44f 3180 	mov.w	r1, #65536	; 0x10000
 80076dc:	6151      	str	r1, [r2, #20]
 80076de:	f8d3 3084 	ldr.w	r3, [r3, #132]	; 0x84
 80076e2:	2110      	movs	r1, #16
 80076e4:	4798      	blx	r3
 80076e6:	f7fb f8eb 	bl	80028c0 <_dbg_check_leave_isr>
 80076ea:	9a01      	ldr	r2, [sp, #4]
 80076ec:	6823      	ldr	r3, [r4, #0]
 80076ee:	429a      	cmp	r2, r3
 80076f0:	d104      	bne.n	80076fc <Vector44+0x3c>
 80076f2:	b002      	add	sp, #8
 80076f4:	e8bd 4010 	ldmia.w	sp!, {r4, lr}
 80076f8:	f7fc bdf2 	b.w	80042e0 <_port_irq_epilogue>
 80076fc:	f7f9 fdb0 	bl	8001260 <__stack_chk_fail>
 8007700:	20000800 	.word	0x20000800
 8007704:	20001d3c 	.word	0x20001d3c
 8007708:	40013c00 	.word	0x40013c00
 800770c:	00000000 	.word	0x00000000

08007710 <VectorE4>:
 8007710:	b510      	push	{r4, lr}
 8007712:	4c0f      	ldr	r4, [pc, #60]	; (8007750 <VectorE4+0x40>)
 8007714:	b082      	sub	sp, #8
 8007716:	6823      	ldr	r3, [r4, #0]
 8007718:	9301      	str	r3, [sp, #4]
 800771a:	f7fb ffe9 	bl	80036f0 <_stats_increase_irq>
 800771e:	f7fb f8a7 	bl	8002870 <_dbg_check_enter_isr>
 8007722:	480c      	ldr	r0, [pc, #48]	; (8007754 <VectorE4+0x44>)
 8007724:	4a0c      	ldr	r2, [pc, #48]	; (8007758 <VectorE4+0x48>)
 8007726:	6843      	ldr	r3, [r0, #4]
 8007728:	f44f 3100 	mov.w	r1, #131072	; 0x20000
 800772c:	6151      	str	r1, [r2, #20]
 800772e:	f8d3 308c 	ldr.w	r3, [r3, #140]	; 0x8c
 8007732:	2111      	movs	r1, #17
 8007734:	4798      	blx	r3
 8007736:	f7fb f8c3 	bl	80028c0 <_dbg_check_leave_isr>
 800773a:	9a01      	ldr	r2, [sp, #4]
 800773c:	6823      	ldr	r3, [r4, #0]
 800773e:	429a      	cmp	r2, r3
 8007740:	d104      	bne.n	800774c <VectorE4+0x3c>
 8007742:	b002      	add	sp, #8
 8007744:	e8bd 4010 	ldmia.w	sp!, {r4, lr}
 8007748:	f7fc bdca 	b.w	80042e0 <_port_irq_epilogue>
 800774c:	f7f9 fd88 	bl	8001260 <__stack_chk_fail>
 8007750:	20000800 	.word	0x20000800
 8007754:	20001d3c 	.word	0x20001d3c
 8007758:	40013c00 	.word	0x40013c00
 800775c:	00000000 	.word	0x00000000

08007760 <VectorE8>:
 8007760:	b510      	push	{r4, lr}
 8007762:	4c0f      	ldr	r4, [pc, #60]	; (80077a0 <VectorE8+0x40>)
 8007764:	b082      	sub	sp, #8
 8007766:	6823      	ldr	r3, [r4, #0]
 8007768:	9301      	str	r3, [sp, #4]
 800776a:	f7fb ffc1 	bl	80036f0 <_stats_increase_irq>
 800776e:	f7fb f87f 	bl	8002870 <_dbg_check_enter_isr>
 8007772:	480c      	ldr	r0, [pc, #48]	; (80077a4 <VectorE8+0x44>)
 8007774:	4a0c      	ldr	r2, [pc, #48]	; (80077a8 <VectorE8+0x48>)
 8007776:	6843      	ldr	r3, [r0, #4]
 8007778:	f44f 2180 	mov.w	r1, #262144	; 0x40000
 800777c:	6151      	str	r1, [r2, #20]
 800777e:	f8d3 3094 	ldr.w	r3, [r3, #148]	; 0x94
 8007782:	2112      	movs	r1, #18
 8007784:	4798      	blx	r3
 8007786:	f7fb f89b 	bl	80028c0 <_dbg_check_leave_isr>
 800778a:	9a01      	ldr	r2, [sp, #4]
 800778c:	6823      	ldr	r3, [r4, #0]
 800778e:	429a      	cmp	r2, r3
 8007790:	d104      	bne.n	800779c <VectorE8+0x3c>
 8007792:	b002      	add	sp, #8
 8007794:	e8bd 4010 	ldmia.w	sp!, {r4, lr}
 8007798:	f7fc bda2 	b.w	80042e0 <_port_irq_epilogue>
 800779c:	f7f9 fd60 	bl	8001260 <__stack_chk_fail>
 80077a0:	20000800 	.word	0x20000800
 80077a4:	20001d3c 	.word	0x20001d3c
 80077a8:	40013c00 	.word	0x40013c00
 80077ac:	00000000 	.word	0x00000000

080077b0 <Vector138>:
 80077b0:	b510      	push	{r4, lr}
 80077b2:	4c0f      	ldr	r4, [pc, #60]	; (80077f0 <Vector138+0x40>)
 80077b4:	b082      	sub	sp, #8
 80077b6:	6823      	ldr	r3, [r4, #0]
 80077b8:	9301      	str	r3, [sp, #4]
 80077ba:	f7fb ff99 	bl	80036f0 <_stats_increase_irq>
 80077be:	f7fb f857 	bl	8002870 <_dbg_check_enter_isr>
 80077c2:	480c      	ldr	r0, [pc, #48]	; (80077f4 <Vector138+0x44>)
 80077c4:	4a0c      	ldr	r2, [pc, #48]	; (80077f8 <Vector138+0x48>)
 80077c6:	6843      	ldr	r3, [r0, #4]
 80077c8:	f44f 2100 	mov.w	r1, #524288	; 0x80000
 80077cc:	6151      	str	r1, [r2, #20]
 80077ce:	f8d3 309c 	ldr.w	r3, [r3, #156]	; 0x9c
 80077d2:	2113      	movs	r1, #19
 80077d4:	4798      	blx	r3
 80077d6:	f7fb f873 	bl	80028c0 <_dbg_check_leave_isr>
 80077da:	9a01      	ldr	r2, [sp, #4]
 80077dc:	6823      	ldr	r3, [r4, #0]
 80077de:	429a      	cmp	r2, r3
 80077e0:	d104      	bne.n	80077ec <Vector138+0x3c>
 80077e2:	b002      	add	sp, #8
 80077e4:	e8bd 4010 	ldmia.w	sp!, {r4, lr}
 80077e8:	f7fc bd7a 	b.w	80042e0 <_port_irq_epilogue>
 80077ec:	f7f9 fd38 	bl	8001260 <__stack_chk_fail>
 80077f0:	20000800 	.word	0x20000800
 80077f4:	20001d3c 	.word	0x20001d3c
 80077f8:	40013c00 	.word	0x40013c00
 80077fc:	00000000 	.word	0x00000000

08007800 <Vector170>:
 8007800:	b510      	push	{r4, lr}
 8007802:	4c0f      	ldr	r4, [pc, #60]	; (8007840 <Vector170+0x40>)
 8007804:	b082      	sub	sp, #8
 8007806:	6823      	ldr	r3, [r4, #0]
 8007808:	9301      	str	r3, [sp, #4]
 800780a:	f7fb ff71 	bl	80036f0 <_stats_increase_irq>
 800780e:	f7fb f82f 	bl	8002870 <_dbg_check_enter_isr>
 8007812:	480c      	ldr	r0, [pc, #48]	; (8007844 <Vector170+0x44>)
 8007814:	4a0c      	ldr	r2, [pc, #48]	; (8007848 <Vector170+0x48>)
 8007816:	6843      	ldr	r3, [r0, #4]
 8007818:	f44f 1180 	mov.w	r1, #1048576	; 0x100000
 800781c:	6151      	str	r1, [r2, #20]
 800781e:	f8d3 30a4 	ldr.w	r3, [r3, #164]	; 0xa4
 8007822:	2114      	movs	r1, #20
 8007824:	4798      	blx	r3
 8007826:	f7fb f84b 	bl	80028c0 <_dbg_check_leave_isr>
 800782a:	9a01      	ldr	r2, [sp, #4]
 800782c:	6823      	ldr	r3, [r4, #0]
 800782e:	429a      	cmp	r2, r3
 8007830:	d104      	bne.n	800783c <Vector170+0x3c>
 8007832:	b002      	add	sp, #8
 8007834:	e8bd 4010 	ldmia.w	sp!, {r4, lr}
 8007838:	f7fc bd52 	b.w	80042e0 <_port_irq_epilogue>
 800783c:	f7f9 fd10 	bl	8001260 <__stack_chk_fail>
 8007840:	20000800 	.word	0x20000800
 8007844:	20001d3c 	.word	0x20001d3c
 8007848:	40013c00 	.word	0x40013c00
 800784c:	00000000 	.word	0x00000000

08007850 <Vector48>:
 8007850:	b510      	push	{r4, lr}
 8007852:	4c0f      	ldr	r4, [pc, #60]	; (8007890 <Vector48+0x40>)
 8007854:	b082      	sub	sp, #8
 8007856:	6823      	ldr	r3, [r4, #0]
 8007858:	9301      	str	r3, [sp, #4]
 800785a:	f7fb ff49 	bl	80036f0 <_stats_increase_irq>
 800785e:	f7fb f807 	bl	8002870 <_dbg_check_enter_isr>
 8007862:	480c      	ldr	r0, [pc, #48]	; (8007894 <Vector48+0x44>)
 8007864:	4a0c      	ldr	r2, [pc, #48]	; (8007898 <Vector48+0x48>)
 8007866:	6843      	ldr	r3, [r0, #4]
 8007868:	f44f 1100 	mov.w	r1, #2097152	; 0x200000
 800786c:	6151      	str	r1, [r2, #20]
 800786e:	f8d3 30ac 	ldr.w	r3, [r3, #172]	; 0xac
 8007872:	2115      	movs	r1, #21
 8007874:	4798      	blx	r3
 8007876:	f7fb f823 	bl	80028c0 <_dbg_check_leave_isr>
 800787a:	9a01      	ldr	r2, [sp, #4]
 800787c:	6823      	ldr	r3, [r4, #0]
 800787e:	429a      	cmp	r2, r3
 8007880:	d104      	bne.n	800788c <Vector48+0x3c>
 8007882:	b002      	add	sp, #8
 8007884:	e8bd 4010 	ldmia.w	sp!, {r4, lr}
 8007888:	f7fc bd2a 	b.w	80042e0 <_port_irq_epilogue>
 800788c:	f7f9 fce8 	bl	8001260 <__stack_chk_fail>
 8007890:	20000800 	.word	0x20000800
 8007894:	20001d3c 	.word	0x20001d3c
 8007898:	40013c00 	.word	0x40013c00
 800789c:	00000000 	.word	0x00000000

080078a0 <Vector4C>:
 80078a0:	b510      	push	{r4, lr}
 80078a2:	4c0f      	ldr	r4, [pc, #60]	; (80078e0 <Vector4C+0x40>)
 80078a4:	b082      	sub	sp, #8
 80078a6:	6823      	ldr	r3, [r4, #0]
 80078a8:	9301      	str	r3, [sp, #4]
 80078aa:	f7fb ff21 	bl	80036f0 <_stats_increase_irq>
 80078ae:	f7fa ffdf 	bl	8002870 <_dbg_check_enter_isr>
 80078b2:	480c      	ldr	r0, [pc, #48]	; (80078e4 <Vector4C+0x44>)
 80078b4:	4a0c      	ldr	r2, [pc, #48]	; (80078e8 <Vector4C+0x48>)
 80078b6:	6843      	ldr	r3, [r0, #4]
 80078b8:	f44f 0180 	mov.w	r1, #4194304	; 0x400000
 80078bc:	6151      	str	r1, [r2, #20]
 80078be:	f8d3 30b4 	ldr.w	r3, [r3, #180]	; 0xb4
 80078c2:	2116      	movs	r1, #22
 80078c4:	4798      	blx	r3
 80078c6:	f7fa fffb 	bl	80028c0 <_dbg_check_leave_isr>
 80078ca:	9a01      	ldr	r2, [sp, #4]
 80078cc:	6823      	ldr	r3, [r4, #0]
 80078ce:	429a      	cmp	r2, r3
 80078d0:	d104      	bne.n	80078dc <Vector4C+0x3c>
 80078d2:	b002      	add	sp, #8
 80078d4:	e8bd 4010 	ldmia.w	sp!, {r4, lr}
 80078d8:	f7fc bd02 	b.w	80042e0 <_port_irq_epilogue>
 80078dc:	f7f9 fcc0 	bl	8001260 <__stack_chk_fail>
 80078e0:	20000800 	.word	0x20000800
 80078e4:	20001d3c 	.word	0x20001d3c
 80078e8:	40013c00 	.word	0x40013c00
 80078ec:	00000000 	.word	0x00000000

080078f0 <can_lld_set_filters>:
 80078f0:	b5f0      	push	{r4, r5, r6, r7, lr}
 80078f2:	4d4d      	ldr	r5, [pc, #308]	; (8007a28 <can_lld_set_filters+0x138>)
 80078f4:	4e4d      	ldr	r6, [pc, #308]	; (8007a2c <can_lld_set_filters+0x13c>)
 80078f6:	682b      	ldr	r3, [r5, #0]
 80078f8:	4c4d      	ldr	r4, [pc, #308]	; (8007a30 <can_lld_set_filters+0x140>)
 80078fa:	b083      	sub	sp, #12
 80078fc:	9301      	str	r3, [sp, #4]
 80078fe:	6c33      	ldr	r3, [r6, #64]	; 0x40
 8007900:	f043 7300 	orr.w	r3, r3, #33554432	; 0x2000000
 8007904:	6433      	str	r3, [r6, #64]	; 0x40
 8007906:	f8d4 3200 	ldr.w	r3, [r4, #512]	; 0x200
 800790a:	0c1b      	lsrs	r3, r3, #16
 800790c:	041b      	lsls	r3, r3, #16
 800790e:	f043 0301 	orr.w	r3, r3, #1
 8007912:	ea43 2300 	orr.w	r3, r3, r0, lsl #8
 8007916:	f8c4 3200 	str.w	r3, [r4, #512]	; 0x200
 800791a:	2900      	cmp	r1, #0
 800791c:	d067      	beq.n	80079ee <can_lld_set_filters+0xfe>
 800791e:	2300      	movs	r3, #0
 8007920:	f8c4 321c 	str.w	r3, [r4, #540]	; 0x21c
 8007924:	4618      	mov	r0, r3
 8007926:	f8c4 3204 	str.w	r3, [r4, #516]	; 0x204
 800792a:	f8c4 320c 	str.w	r3, [r4, #524]	; 0x20c
 800792e:	f8c4 3214 	str.w	r3, [r4, #532]	; 0x214
 8007932:	461c      	mov	r4, r3
 8007934:	00c3      	lsls	r3, r0, #3
 8007936:	f103 4380 	add.w	r3, r3, #1073741824	; 0x40000000
 800793a:	f503 43c8 	add.w	r3, r3, #25600	; 0x6400
 800793e:	3001      	adds	r0, #1
 8007940:	281c      	cmp	r0, #28
 8007942:	f8c3 4240 	str.w	r4, [r3, #576]	; 0x240
 8007946:	f8c3 4244 	str.w	r4, [r3, #580]	; 0x244
 800794a:	d1f3      	bne.n	8007934 <can_lld_set_filters+0x44>
 800794c:	4b38      	ldr	r3, [pc, #224]	; (8007a30 <can_lld_set_filters+0x140>)
 800794e:	3210      	adds	r2, #16
 8007950:	2600      	movs	r6, #0
 8007952:	f04f 0c01 	mov.w	ip, #1
 8007956:	f1a2 0710 	sub.w	r7, r2, #16
 800795a:	7938      	ldrb	r0, [r7, #4]
 800795c:	f852 4c10 	ldr.w	r4, [r2, #-16]
 8007960:	f010 0f01 	tst.w	r0, #1
 8007964:	fa0c f404 	lsl.w	r4, ip, r4
 8007968:	d005      	beq.n	8007976 <can_lld_set_filters+0x86>
 800796a:	f8d3 0204 	ldr.w	r0, [r3, #516]	; 0x204
 800796e:	4320      	orrs	r0, r4
 8007970:	f8c3 0204 	str.w	r0, [r3, #516]	; 0x204
 8007974:	7938      	ldrb	r0, [r7, #4]
 8007976:	f010 0f02 	tst.w	r0, #2
 800797a:	d005      	beq.n	8007988 <can_lld_set_filters+0x98>
 800797c:	f8d3 020c 	ldr.w	r0, [r3, #524]	; 0x20c
 8007980:	4320      	orrs	r0, r4
 8007982:	f8c3 020c 	str.w	r0, [r3, #524]	; 0x20c
 8007986:	7938      	ldrb	r0, [r7, #4]
 8007988:	0740      	lsls	r0, r0, #29
 800798a:	d504      	bpl.n	8007996 <can_lld_set_filters+0xa6>
 800798c:	f8d3 0214 	ldr.w	r0, [r3, #532]	; 0x214
 8007990:	4320      	orrs	r0, r4
 8007992:	f8c3 0214 	str.w	r0, [r3, #532]	; 0x214
 8007996:	f852 0c10 	ldr.w	r0, [r2, #-16]
 800799a:	f852 7c08 	ldr.w	r7, [r2, #-8]
 800799e:	3048      	adds	r0, #72	; 0x48
 80079a0:	3601      	adds	r6, #1
 80079a2:	f843 7030 	str.w	r7, [r3, r0, lsl #3]
 80079a6:	f852 0c10 	ldr.w	r0, [r2, #-16]
 80079aa:	f852 7c04 	ldr.w	r7, [r2, #-4]
 80079ae:	3048      	adds	r0, #72	; 0x48
 80079b0:	eb03 00c0 	add.w	r0, r3, r0, lsl #3
 80079b4:	42b1      	cmp	r1, r6
 80079b6:	6047      	str	r7, [r0, #4]
 80079b8:	f8d3 021c 	ldr.w	r0, [r3, #540]	; 0x21c
 80079bc:	ea44 0400 	orr.w	r4, r4, r0
 80079c0:	f102 0210 	add.w	r2, r2, #16
 80079c4:	f8c3 421c 	str.w	r4, [r3, #540]	; 0x21c
 80079c8:	d1c5      	bne.n	8007956 <can_lld_set_filters+0x66>
 80079ca:	4919      	ldr	r1, [pc, #100]	; (8007a30 <can_lld_set_filters+0x140>)
 80079cc:	4a17      	ldr	r2, [pc, #92]	; (8007a2c <can_lld_set_filters+0x13c>)
 80079ce:	f8d1 3200 	ldr.w	r3, [r1, #512]	; 0x200
 80079d2:	f023 0301 	bic.w	r3, r3, #1
 80079d6:	f8c1 3200 	str.w	r3, [r1, #512]	; 0x200
 80079da:	6c13      	ldr	r3, [r2, #64]	; 0x40
 80079dc:	f023 7300 	bic.w	r3, r3, #33554432	; 0x2000000
 80079e0:	6413      	str	r3, [r2, #64]	; 0x40
 80079e2:	9a01      	ldr	r2, [sp, #4]
 80079e4:	682b      	ldr	r3, [r5, #0]
 80079e6:	429a      	cmp	r2, r3
 80079e8:	d11b      	bne.n	8007a22 <can_lld_set_filters+0x132>
 80079ea:	b003      	add	sp, #12
 80079ec:	bdf0      	pop	{r4, r5, r6, r7, pc}
 80079ee:	00c2      	lsls	r2, r0, #3
 80079f0:	f102 4280 	add.w	r2, r2, #1073741824	; 0x40000000
 80079f4:	2301      	movs	r3, #1
 80079f6:	f502 42c8 	add.w	r2, r2, #25600	; 0x6400
 80079fa:	4083      	lsls	r3, r0
 80079fc:	f043 0301 	orr.w	r3, r3, #1
 8007a00:	f8c4 1240 	str.w	r1, [r4, #576]	; 0x240
 8007a04:	f8c4 1244 	str.w	r1, [r4, #580]	; 0x244
 8007a08:	f8c2 1240 	str.w	r1, [r2, #576]	; 0x240
 8007a0c:	f8c2 1244 	str.w	r1, [r2, #580]	; 0x244
 8007a10:	f8c4 1204 	str.w	r1, [r4, #516]	; 0x204
 8007a14:	f8c4 1214 	str.w	r1, [r4, #532]	; 0x214
 8007a18:	f8c4 320c 	str.w	r3, [r4, #524]	; 0x20c
 8007a1c:	f8c4 321c 	str.w	r3, [r4, #540]	; 0x21c
 8007a20:	e7d3      	b.n	80079ca <can_lld_set_filters+0xda>
 8007a22:	f7f9 fc1d 	bl	8001260 <__stack_chk_fail>
 8007a26:	bf00      	nop
 8007a28:	20000800 	.word	0x20000800
 8007a2c:	40023800 	.word	0x40023800
 8007a30:	40006400 	.word	0x40006400
	...

08007a40 <Vector8C>:
 8007a40:	b530      	push	{r4, r5, lr}
 8007a42:	4d18      	ldr	r5, [pc, #96]	; (8007aa4 <Vector8C+0x64>)
 8007a44:	4c18      	ldr	r4, [pc, #96]	; (8007aa8 <Vector8C+0x68>)
 8007a46:	682b      	ldr	r3, [r5, #0]
 8007a48:	b083      	sub	sp, #12
 8007a4a:	9301      	str	r3, [sp, #4]
 8007a4c:	f7fb fe50 	bl	80036f0 <_stats_increase_irq>
 8007a50:	f7fa ff0e 	bl	8002870 <_dbg_check_enter_isr>
 8007a54:	6ae3      	ldr	r3, [r4, #44]	; 0x2c
 8007a56:	4a15      	ldr	r2, [pc, #84]	; (8007aac <Vector8C+0x6c>)
 8007a58:	609a      	str	r2, [r3, #8]
 8007a5a:	2320      	movs	r3, #32
 8007a5c:	f383 8811 	msr	BASEPRI, r3
 8007a60:	f7fb feae 	bl	80037c0 <_stats_start_measure_crit_isr>
 8007a64:	f7fa fec4 	bl	80027f0 <_dbg_check_lock_from_isr>
 8007a68:	f104 0008 	add.w	r0, r4, #8
 8007a6c:	2100      	movs	r1, #0
 8007a6e:	f7fb fd2f 	bl	80034d0 <chThdDequeueAllI>
 8007a72:	f104 001c 	add.w	r0, r4, #28
 8007a76:	2101      	movs	r1, #1
 8007a78:	f7fc f8b2 	bl	8003be0 <chEvtBroadcastFlagsI>
 8007a7c:	f7fa fed8 	bl	8002830 <_dbg_check_unlock_from_isr>
 8007a80:	f7fb feb6 	bl	80037f0 <_stats_stop_measure_crit_isr>
 8007a84:	2300      	movs	r3, #0
 8007a86:	f383 8811 	msr	BASEPRI, r3
 8007a8a:	f7fa ff19 	bl	80028c0 <_dbg_check_leave_isr>
 8007a8e:	9a01      	ldr	r2, [sp, #4]
 8007a90:	682b      	ldr	r3, [r5, #0]
 8007a92:	429a      	cmp	r2, r3
 8007a94:	d104      	bne.n	8007aa0 <Vector8C+0x60>
 8007a96:	b003      	add	sp, #12
 8007a98:	e8bd 4030 	ldmia.w	sp!, {r4, r5, lr}
 8007a9c:	f7fc bc20 	b.w	80042e0 <_port_irq_epilogue>
 8007aa0:	f7f9 fbde 	bl	8001260 <__stack_chk_fail>
 8007aa4:	20000800 	.word	0x20000800
 8007aa8:	20001d0c 	.word	0x20001d0c
 8007aac:	00010101 	.word	0x00010101

08007ab0 <Vector90>:
 8007ab0:	b570      	push	{r4, r5, r6, lr}
 8007ab2:	4d27      	ldr	r5, [pc, #156]	; (8007b50 <Vector90+0xa0>)
 8007ab4:	4c27      	ldr	r4, [pc, #156]	; (8007b54 <Vector90+0xa4>)
 8007ab6:	682b      	ldr	r3, [r5, #0]
 8007ab8:	b082      	sub	sp, #8
 8007aba:	9301      	str	r3, [sp, #4]
 8007abc:	f7fb fe18 	bl	80036f0 <_stats_increase_irq>
 8007ac0:	f7fa fed6 	bl	8002870 <_dbg_check_enter_isr>
 8007ac4:	6ae3      	ldr	r3, [r4, #44]	; 0x2c
 8007ac6:	68de      	ldr	r6, [r3, #12]
 8007ac8:	07b2      	lsls	r2, r6, #30
 8007aca:	d121      	bne.n	8007b10 <Vector90+0x60>
 8007acc:	06f3      	lsls	r3, r6, #27
 8007ace:	d514      	bpl.n	8007afa <Vector90+0x4a>
 8007ad0:	6ae3      	ldr	r3, [r4, #44]	; 0x2c
 8007ad2:	2410      	movs	r4, #16
 8007ad4:	60dc      	str	r4, [r3, #12]
 8007ad6:	2320      	movs	r3, #32
 8007ad8:	f383 8811 	msr	BASEPRI, r3
 8007adc:	f7fb fe70 	bl	80037c0 <_stats_start_measure_crit_isr>
 8007ae0:	f7fa fe86 	bl	80027f0 <_dbg_check_lock_from_isr>
 8007ae4:	4621      	mov	r1, r4
 8007ae6:	481c      	ldr	r0, [pc, #112]	; (8007b58 <Vector90+0xa8>)
 8007ae8:	f7fc f87a 	bl	8003be0 <chEvtBroadcastFlagsI>
 8007aec:	f7fa fea0 	bl	8002830 <_dbg_check_unlock_from_isr>
 8007af0:	f7fb fe7e 	bl	80037f0 <_stats_stop_measure_crit_isr>
 8007af4:	2300      	movs	r3, #0
 8007af6:	f383 8811 	msr	BASEPRI, r3
 8007afa:	f7fa fee1 	bl	80028c0 <_dbg_check_leave_isr>
 8007afe:	9a01      	ldr	r2, [sp, #4]
 8007b00:	682b      	ldr	r3, [r5, #0]
 8007b02:	429a      	cmp	r2, r3
 8007b04:	d121      	bne.n	8007b4a <Vector90+0x9a>
 8007b06:	b002      	add	sp, #8
 8007b08:	e8bd 4070 	ldmia.w	sp!, {r4, r5, r6, lr}
 8007b0c:	f7fc bbe8 	b.w	80042e0 <_port_irq_epilogue>
 8007b10:	695a      	ldr	r2, [r3, #20]
 8007b12:	f022 0202 	bic.w	r2, r2, #2
 8007b16:	615a      	str	r2, [r3, #20]
 8007b18:	2320      	movs	r3, #32
 8007b1a:	f383 8811 	msr	BASEPRI, r3
 8007b1e:	f7fb fe4f 	bl	80037c0 <_stats_start_measure_crit_isr>
 8007b22:	f7fa fe65 	bl	80027f0 <_dbg_check_lock_from_isr>
 8007b26:	f104 0010 	add.w	r0, r4, #16
 8007b2a:	2100      	movs	r1, #0
 8007b2c:	f7fb fcd0 	bl	80034d0 <chThdDequeueAllI>
 8007b30:	f104 0018 	add.w	r0, r4, #24
 8007b34:	2101      	movs	r1, #1
 8007b36:	f7fc f853 	bl	8003be0 <chEvtBroadcastFlagsI>
 8007b3a:	f7fa fe79 	bl	8002830 <_dbg_check_unlock_from_isr>
 8007b3e:	f7fb fe57 	bl	80037f0 <_stats_stop_measure_crit_isr>
 8007b42:	2300      	movs	r3, #0
 8007b44:	f383 8811 	msr	BASEPRI, r3
 8007b48:	e7c0      	b.n	8007acc <Vector90+0x1c>
 8007b4a:	f7f9 fb89 	bl	8001260 <__stack_chk_fail>
 8007b4e:	bf00      	nop
 8007b50:	20000800 	.word	0x20000800
 8007b54:	20001d0c 	.word	0x20001d0c
 8007b58:	20001d2c 	.word	0x20001d2c
 8007b5c:	00000000 	.word	0x00000000

08007b60 <Vector94>:
 8007b60:	b570      	push	{r4, r5, r6, lr}
 8007b62:	4d27      	ldr	r5, [pc, #156]	; (8007c00 <Vector94+0xa0>)
 8007b64:	4c27      	ldr	r4, [pc, #156]	; (8007c04 <Vector94+0xa4>)
 8007b66:	682b      	ldr	r3, [r5, #0]
 8007b68:	b082      	sub	sp, #8
 8007b6a:	9301      	str	r3, [sp, #4]
 8007b6c:	f7fb fdc0 	bl	80036f0 <_stats_increase_irq>
 8007b70:	f7fa fe7e 	bl	8002870 <_dbg_check_enter_isr>
 8007b74:	6ae3      	ldr	r3, [r4, #44]	; 0x2c
 8007b76:	691e      	ldr	r6, [r3, #16]
 8007b78:	07b2      	lsls	r2, r6, #30
 8007b7a:	d121      	bne.n	8007bc0 <Vector94+0x60>
 8007b7c:	06f3      	lsls	r3, r6, #27
 8007b7e:	d514      	bpl.n	8007baa <Vector94+0x4a>
 8007b80:	6ae3      	ldr	r3, [r4, #44]	; 0x2c
 8007b82:	2410      	movs	r4, #16
 8007b84:	611c      	str	r4, [r3, #16]
 8007b86:	2320      	movs	r3, #32
 8007b88:	f383 8811 	msr	BASEPRI, r3
 8007b8c:	f7fb fe18 	bl	80037c0 <_stats_start_measure_crit_isr>
 8007b90:	f7fa fe2e 	bl	80027f0 <_dbg_check_lock_from_isr>
 8007b94:	4621      	mov	r1, r4
 8007b96:	481c      	ldr	r0, [pc, #112]	; (8007c08 <Vector94+0xa8>)
 8007b98:	f7fc f822 	bl	8003be0 <chEvtBroadcastFlagsI>
 8007b9c:	f7fa fe48 	bl	8002830 <_dbg_check_unlock_from_isr>
 8007ba0:	f7fb fe26 	bl	80037f0 <_stats_stop_measure_crit_isr>
 8007ba4:	2300      	movs	r3, #0
 8007ba6:	f383 8811 	msr	BASEPRI, r3
 8007baa:	f7fa fe89 	bl	80028c0 <_dbg_check_leave_isr>
 8007bae:	9a01      	ldr	r2, [sp, #4]
 8007bb0:	682b      	ldr	r3, [r5, #0]
 8007bb2:	429a      	cmp	r2, r3
 8007bb4:	d121      	bne.n	8007bfa <Vector94+0x9a>
 8007bb6:	b002      	add	sp, #8
 8007bb8:	e8bd 4070 	ldmia.w	sp!, {r4, r5, r6, lr}
 8007bbc:	f7fc bb90 	b.w	80042e0 <_port_irq_epilogue>
 8007bc0:	695a      	ldr	r2, [r3, #20]
 8007bc2:	f022 0210 	bic.w	r2, r2, #16
 8007bc6:	615a      	str	r2, [r3, #20]
 8007bc8:	2320      	movs	r3, #32
 8007bca:	f383 8811 	msr	BASEPRI, r3
 8007bce:	f7fb fdf7 	bl	80037c0 <_stats_start_measure_crit_isr>
 8007bd2:	f7fa fe0d 	bl	80027f0 <_dbg_check_lock_from_isr>
 8007bd6:	f104 0010 	add.w	r0, r4, #16
 8007bda:	2100      	movs	r1, #0
 8007bdc:	f7fb fc78 	bl	80034d0 <chThdDequeueAllI>
 8007be0:	f104 0018 	add.w	r0, r4, #24
 8007be4:	2102      	movs	r1, #2
 8007be6:	f7fb fffb 	bl	8003be0 <chEvtBroadcastFlagsI>
 8007bea:	f7fa fe21 	bl	8002830 <_dbg_check_unlock_from_isr>
 8007bee:	f7fb fdff 	bl	80037f0 <_stats_stop_measure_crit_isr>
 8007bf2:	2300      	movs	r3, #0
 8007bf4:	f383 8811 	msr	BASEPRI, r3
 8007bf8:	e7c0      	b.n	8007b7c <Vector94+0x1c>
 8007bfa:	f7f9 fb31 	bl	8001260 <__stack_chk_fail>
 8007bfe:	bf00      	nop
 8007c00:	20000800 	.word	0x20000800
 8007c04:	20001d0c 	.word	0x20001d0c
 8007c08:	20001d2c 	.word	0x20001d2c
 8007c0c:	00000000 	.word	0x00000000

08007c10 <Vector98>:
 8007c10:	b570      	push	{r4, r5, r6, lr}
 8007c12:	4d2c      	ldr	r5, [pc, #176]	; (8007cc4 <Vector98+0xb4>)
 8007c14:	4c2c      	ldr	r4, [pc, #176]	; (8007cc8 <Vector98+0xb8>)
 8007c16:	682b      	ldr	r3, [r5, #0]
 8007c18:	b082      	sub	sp, #8
 8007c1a:	9301      	str	r3, [sp, #4]
 8007c1c:	f7fb fd68 	bl	80036f0 <_stats_increase_irq>
 8007c20:	f7fa fe26 	bl	8002870 <_dbg_check_enter_isr>
 8007c24:	6ae3      	ldr	r3, [r4, #44]	; 0x2c
 8007c26:	685e      	ldr	r6, [r3, #4]
 8007c28:	221c      	movs	r2, #28
 8007c2a:	605a      	str	r2, [r3, #4]
 8007c2c:	0732      	lsls	r2, r6, #28
 8007c2e:	d42c      	bmi.n	8007c8a <Vector98+0x7a>
 8007c30:	0773      	lsls	r3, r6, #29
 8007c32:	d51f      	bpl.n	8007c74 <Vector98+0x64>
 8007c34:	6ae3      	ldr	r3, [r4, #44]	; 0x2c
 8007c36:	699c      	ldr	r4, [r3, #24]
 8007c38:	699a      	ldr	r2, [r3, #24]
 8007c3a:	f004 0607 	and.w	r6, r4, #7
 8007c3e:	f022 0270 	bic.w	r2, r2, #112	; 0x70
 8007c42:	f014 0f70 	tst.w	r4, #112	; 0x70
 8007c46:	619a      	str	r2, [r3, #24]
 8007c48:	bf18      	it	ne
 8007c4a:	f046 0608 	orrne.w	r6, r6, #8
 8007c4e:	2320      	movs	r3, #32
 8007c50:	f383 8811 	msr	BASEPRI, r3
 8007c54:	f7fb fdb4 	bl	80037c0 <_stats_start_measure_crit_isr>
 8007c58:	f7fa fdca 	bl	80027f0 <_dbg_check_lock_from_isr>
 8007c5c:	ea46 4104 	orr.w	r1, r6, r4, lsl #16
 8007c60:	481a      	ldr	r0, [pc, #104]	; (8007ccc <Vector98+0xbc>)
 8007c62:	f7fb ffbd 	bl	8003be0 <chEvtBroadcastFlagsI>
 8007c66:	f7fa fde3 	bl	8002830 <_dbg_check_unlock_from_isr>
 8007c6a:	f7fb fdc1 	bl	80037f0 <_stats_stop_measure_crit_isr>
 8007c6e:	2300      	movs	r3, #0
 8007c70:	f383 8811 	msr	BASEPRI, r3
 8007c74:	f7fa fe24 	bl	80028c0 <_dbg_check_leave_isr>
 8007c78:	9a01      	ldr	r2, [sp, #4]
 8007c7a:	682b      	ldr	r3, [r5, #0]
 8007c7c:	429a      	cmp	r2, r3
 8007c7e:	d11f      	bne.n	8007cc0 <Vector98+0xb0>
 8007c80:	b002      	add	sp, #8
 8007c82:	e8bd 4070 	ldmia.w	sp!, {r4, r5, r6, lr}
 8007c86:	f7fc bb2b 	b.w	80042e0 <_port_irq_epilogue>
 8007c8a:	6ae2      	ldr	r2, [r4, #44]	; 0x2c
 8007c8c:	2303      	movs	r3, #3
 8007c8e:	7023      	strb	r3, [r4, #0]
 8007c90:	6813      	ldr	r3, [r2, #0]
 8007c92:	f023 0302 	bic.w	r3, r3, #2
 8007c96:	6013      	str	r3, [r2, #0]
 8007c98:	2320      	movs	r3, #32
 8007c9a:	f383 8811 	msr	BASEPRI, r3
 8007c9e:	f7fb fd8f 	bl	80037c0 <_stats_start_measure_crit_isr>
 8007ca2:	f7fa fda5 	bl	80027f0 <_dbg_check_lock_from_isr>
 8007ca6:	f104 0028 	add.w	r0, r4, #40	; 0x28
 8007caa:	2100      	movs	r1, #0
 8007cac:	f7fb ff98 	bl	8003be0 <chEvtBroadcastFlagsI>
 8007cb0:	f7fa fdbe 	bl	8002830 <_dbg_check_unlock_from_isr>
 8007cb4:	f7fb fd9c 	bl	80037f0 <_stats_stop_measure_crit_isr>
 8007cb8:	2300      	movs	r3, #0
 8007cba:	f383 8811 	msr	BASEPRI, r3
 8007cbe:	e7b7      	b.n	8007c30 <Vector98+0x20>
 8007cc0:	f7f9 face 	bl	8001260 <__stack_chk_fail>
 8007cc4:	20000800 	.word	0x20000800
 8007cc8:	20001d0c 	.word	0x20001d0c
 8007ccc:	20001d2c 	.word	0x20001d2c

08007cd0 <can_lld_init>:
 8007cd0:	b530      	push	{r4, r5, lr}
 8007cd2:	4d0c      	ldr	r5, [pc, #48]	; (8007d04 <can_lld_init+0x34>)
 8007cd4:	4c0c      	ldr	r4, [pc, #48]	; (8007d08 <can_lld_init+0x38>)
 8007cd6:	682b      	ldr	r3, [r5, #0]
 8007cd8:	b083      	sub	sp, #12
 8007cda:	4620      	mov	r0, r4
 8007cdc:	9301      	str	r3, [sp, #4]
 8007cde:	f7fc fc6f 	bl	80045c0 <canObjectInit>
 8007ce2:	9a01      	ldr	r2, [sp, #4]
 8007ce4:	682b      	ldr	r3, [r5, #0]
 8007ce6:	4909      	ldr	r1, [pc, #36]	; (8007d0c <can_lld_init+0x3c>)
 8007ce8:	62e1      	str	r1, [r4, #44]	; 0x2c
 8007cea:	429a      	cmp	r2, r3
 8007cec:	d107      	bne.n	8007cfe <can_lld_init+0x2e>
 8007cee:	2200      	movs	r2, #0
 8007cf0:	4611      	mov	r1, r2
 8007cf2:	200e      	movs	r0, #14
 8007cf4:	b003      	add	sp, #12
 8007cf6:	e8bd 4030 	ldmia.w	sp!, {r4, r5, lr}
 8007cfa:	f7ff bdf9 	b.w	80078f0 <can_lld_set_filters>
 8007cfe:	f7f9 faaf 	bl	8001260 <__stack_chk_fail>
 8007d02:	bf00      	nop
 8007d04:	20000800 	.word	0x20000800
 8007d08:	20001d0c 	.word	0x20001d0c
 8007d0c:	40006400 	.word	0x40006400

08007d10 <ext_lld_init>:
 8007d10:	b500      	push	{lr}
 8007d12:	4b08      	ldr	r3, [pc, #32]	; (8007d34 <ext_lld_init+0x24>)
 8007d14:	b083      	sub	sp, #12
 8007d16:	681a      	ldr	r2, [r3, #0]
 8007d18:	9201      	str	r2, [sp, #4]
 8007d1a:	9a01      	ldr	r2, [sp, #4]
 8007d1c:	681b      	ldr	r3, [r3, #0]
 8007d1e:	429a      	cmp	r2, r3
 8007d20:	d105      	bne.n	8007d2e <ext_lld_init+0x1e>
 8007d22:	4805      	ldr	r0, [pc, #20]	; (8007d38 <ext_lld_init+0x28>)
 8007d24:	b003      	add	sp, #12
 8007d26:	f85d eb04 	ldr.w	lr, [sp], #4
 8007d2a:	f7fc bcc1 	b.w	80046b0 <extObjectInit>
 8007d2e:	f7f9 fa97 	bl	8001260 <__stack_chk_fail>
 8007d32:	bf00      	nop
 8007d34:	20000800 	.word	0x20000800
 8007d38:	20001d3c 	.word	0x20001d3c
 8007d3c:	00000000 	.word	0x00000000

08007d40 <sdc_lld_collect_errors.isra.0>:
 8007d40:	b510      	push	{r4, lr}
 8007d42:	4c14      	ldr	r4, [pc, #80]	; (8007d94 <sdc_lld_collect_errors.isra.0+0x54>)
 8007d44:	b082      	sub	sp, #8
 8007d46:	6823      	ldr	r3, [r4, #0]
 8007d48:	9301      	str	r3, [sp, #4]
 8007d4a:	078a      	lsls	r2, r1, #30
 8007d4c:	f001 0301 	and.w	r3, r1, #1
 8007d50:	bf48      	it	mi
 8007d52:	f043 0302 	orrmi.w	r3, r3, #2
 8007d56:	074a      	lsls	r2, r1, #29
 8007d58:	bf48      	it	mi
 8007d5a:	f043 0308 	orrmi.w	r3, r3, #8
 8007d5e:	070a      	lsls	r2, r1, #28
 8007d60:	bf48      	it	mi
 8007d62:	f043 0304 	orrmi.w	r3, r3, #4
 8007d66:	06ca      	lsls	r2, r1, #27
 8007d68:	bf48      	it	mi
 8007d6a:	f043 0310 	orrmi.w	r3, r3, #16
 8007d6e:	068a      	lsls	r2, r1, #26
 8007d70:	bf48      	it	mi
 8007d72:	f043 0320 	orrmi.w	r3, r3, #32
 8007d76:	058a      	lsls	r2, r1, #22
 8007d78:	6802      	ldr	r2, [r0, #0]
 8007d7a:	9901      	ldr	r1, [sp, #4]
 8007d7c:	bf48      	it	mi
 8007d7e:	f043 0340 	orrmi.w	r3, r3, #64	; 0x40
 8007d82:	4313      	orrs	r3, r2
 8007d84:	6003      	str	r3, [r0, #0]
 8007d86:	6823      	ldr	r3, [r4, #0]
 8007d88:	4299      	cmp	r1, r3
 8007d8a:	d101      	bne.n	8007d90 <sdc_lld_collect_errors.isra.0+0x50>
 8007d8c:	b002      	add	sp, #8
 8007d8e:	bd10      	pop	{r4, pc}
 8007d90:	f7f9 fa66 	bl	8001260 <__stack_chk_fail>
 8007d94:	20000800 	.word	0x20000800
	...

08007da0 <Vector104>:
 8007da0:	b530      	push	{r4, r5, lr}
 8007da2:	4d14      	ldr	r5, [pc, #80]	; (8007df4 <Vector104+0x54>)
 8007da4:	b083      	sub	sp, #12
 8007da6:	682b      	ldr	r3, [r5, #0]
 8007da8:	9301      	str	r3, [sp, #4]
 8007daa:	f7fb fca1 	bl	80036f0 <_stats_increase_irq>
 8007dae:	f7fa fd5f 	bl	8002870 <_dbg_check_enter_isr>
 8007db2:	2320      	movs	r3, #32
 8007db4:	f383 8811 	msr	BASEPRI, r3
 8007db8:	f7fb fd02 	bl	80037c0 <_stats_start_measure_crit_isr>
 8007dbc:	f7fa fd18 	bl	80027f0 <_dbg_check_lock_from_isr>
 8007dc0:	4b0d      	ldr	r3, [pc, #52]	; (8007df8 <Vector104+0x58>)
 8007dc2:	480e      	ldr	r0, [pc, #56]	; (8007dfc <Vector104+0x5c>)
 8007dc4:	2400      	movs	r4, #0
 8007dc6:	63dc      	str	r4, [r3, #60]	; 0x3c
 8007dc8:	4621      	mov	r1, r4
 8007dca:	f7fb faf9 	bl	80033c0 <chThdResumeI>
 8007dce:	f7fa fd2f 	bl	8002830 <_dbg_check_unlock_from_isr>
 8007dd2:	f7fb fd0d 	bl	80037f0 <_stats_stop_measure_crit_isr>
 8007dd6:	f384 8811 	msr	BASEPRI, r4
 8007dda:	f7fa fd71 	bl	80028c0 <_dbg_check_leave_isr>
 8007dde:	9a01      	ldr	r2, [sp, #4]
 8007de0:	682b      	ldr	r3, [r5, #0]
 8007de2:	429a      	cmp	r2, r3
 8007de4:	d104      	bne.n	8007df0 <Vector104+0x50>
 8007de6:	b003      	add	sp, #12
 8007de8:	e8bd 4030 	ldmia.w	sp!, {r4, r5, lr}
 8007dec:	f7fc ba78 	b.w	80042e0 <_port_irq_epilogue>
 8007df0:	f7f9 fa36 	bl	8001260 <__stack_chk_fail>
 8007df4:	20000800 	.word	0x20000800
 8007df8:	40012c00 	.word	0x40012c00
 8007dfc:	20001d80 	.word	0x20001d80

08007e00 <sdc_lld_init>:
 8007e00:	b530      	push	{r4, r5, lr}
 8007e02:	4c0b      	ldr	r4, [pc, #44]	; (8007e30 <sdc_lld_init+0x30>)
 8007e04:	4d0b      	ldr	r5, [pc, #44]	; (8007e34 <sdc_lld_init+0x34>)
 8007e06:	b083      	sub	sp, #12
 8007e08:	682b      	ldr	r3, [r5, #0]
 8007e0a:	9301      	str	r3, [sp, #4]
 8007e0c:	4620      	mov	r0, r4
 8007e0e:	f7fd fbbf 	bl	8005590 <sdcObjectInit>
 8007e12:	9a01      	ldr	r2, [sp, #4]
 8007e14:	682b      	ldr	r3, [r5, #0]
 8007e16:	4808      	ldr	r0, [pc, #32]	; (8007e38 <sdc_lld_init+0x38>)
 8007e18:	4908      	ldr	r1, [pc, #32]	; (8007e3c <sdc_lld_init+0x3c>)
 8007e1a:	6460      	str	r0, [r4, #68]	; 0x44
 8007e1c:	429a      	cmp	r2, r3
 8007e1e:	f04f 0000 	mov.w	r0, #0
 8007e22:	63e0      	str	r0, [r4, #60]	; 0x3c
 8007e24:	64a1      	str	r1, [r4, #72]	; 0x48
 8007e26:	d101      	bne.n	8007e2c <sdc_lld_init+0x2c>
 8007e28:	b003      	add	sp, #12
 8007e2a:	bd30      	pop	{r4, r5, pc}
 8007e2c:	f7f9 fa18 	bl	8001260 <__stack_chk_fail>
 8007e30:	20001d44 	.word	0x20001d44
 8007e34:	20000800 	.word	0x20000800
 8007e38:	0800eef4 	.word	0x0800eef4
 8007e3c:	40012c00 	.word	0x40012c00

08007e40 <sdc_lld_start_clk>:
 8007e40:	b500      	push	{lr}
 8007e42:	4a0e      	ldr	r2, [pc, #56]	; (8007e7c <sdc_lld_start_clk+0x3c>)
 8007e44:	6c83      	ldr	r3, [r0, #72]	; 0x48
 8007e46:	6811      	ldr	r1, [r2, #0]
 8007e48:	b083      	sub	sp, #12
 8007e4a:	9101      	str	r1, [sp, #4]
 8007e4c:	2178      	movs	r1, #120	; 0x78
 8007e4e:	6059      	str	r1, [r3, #4]
 8007e50:	6c81      	ldr	r1, [r0, #72]	; 0x48
 8007e52:	680b      	ldr	r3, [r1, #0]
 8007e54:	f043 0303 	orr.w	r3, r3, #3
 8007e58:	600b      	str	r3, [r1, #0]
 8007e5a:	6c81      	ldr	r1, [r0, #72]	; 0x48
 8007e5c:	684b      	ldr	r3, [r1, #4]
 8007e5e:	f443 7380 	orr.w	r3, r3, #256	; 0x100
 8007e62:	604b      	str	r3, [r1, #4]
 8007e64:	9901      	ldr	r1, [sp, #4]
 8007e66:	6813      	ldr	r3, [r2, #0]
 8007e68:	4299      	cmp	r1, r3
 8007e6a:	d105      	bne.n	8007e78 <sdc_lld_start_clk+0x38>
 8007e6c:	200a      	movs	r0, #10
 8007e6e:	b003      	add	sp, #12
 8007e70:	f85d eb04 	ldr.w	lr, [sp], #4
 8007e74:	f7fb b9b4 	b.w	80031e0 <chThdSleep>
 8007e78:	f7f9 f9f2 	bl	8001260 <__stack_chk_fail>
 8007e7c:	20000800 	.word	0x20000800

08007e80 <sdc_lld_set_data_clk>:
 8007e80:	b500      	push	{lr}
 8007e82:	4a09      	ldr	r2, [pc, #36]	; (8007ea8 <sdc_lld_set_data_clk+0x28>)
 8007e84:	6c81      	ldr	r1, [r0, #72]	; 0x48
 8007e86:	6813      	ldr	r3, [r2, #0]
 8007e88:	b083      	sub	sp, #12
 8007e8a:	9301      	str	r3, [sp, #4]
 8007e8c:	684b      	ldr	r3, [r1, #4]
 8007e8e:	f023 03ff 	bic.w	r3, r3, #255	; 0xff
 8007e92:	604b      	str	r3, [r1, #4]
 8007e94:	9901      	ldr	r1, [sp, #4]
 8007e96:	6813      	ldr	r3, [r2, #0]
 8007e98:	4299      	cmp	r1, r3
 8007e9a:	d102      	bne.n	8007ea2 <sdc_lld_set_data_clk+0x22>
 8007e9c:	b003      	add	sp, #12
 8007e9e:	f85d fb04 	ldr.w	pc, [sp], #4
 8007ea2:	f7f9 f9dd 	bl	8001260 <__stack_chk_fail>
 8007ea6:	bf00      	nop
 8007ea8:	20000800 	.word	0x20000800
 8007eac:	00000000 	.word	0x00000000

08007eb0 <sdc_lld_stop_clk>:
 8007eb0:	b500      	push	{lr}
 8007eb2:	4b09      	ldr	r3, [pc, #36]	; (8007ed8 <sdc_lld_stop_clk+0x28>)
 8007eb4:	6c81      	ldr	r1, [r0, #72]	; 0x48
 8007eb6:	681a      	ldr	r2, [r3, #0]
 8007eb8:	b083      	sub	sp, #12
 8007eba:	9201      	str	r2, [sp, #4]
 8007ebc:	2200      	movs	r2, #0
 8007ebe:	604a      	str	r2, [r1, #4]
 8007ec0:	6c81      	ldr	r1, [r0, #72]	; 0x48
 8007ec2:	600a      	str	r2, [r1, #0]
 8007ec4:	9a01      	ldr	r2, [sp, #4]
 8007ec6:	681b      	ldr	r3, [r3, #0]
 8007ec8:	429a      	cmp	r2, r3
 8007eca:	d102      	bne.n	8007ed2 <sdc_lld_stop_clk+0x22>
 8007ecc:	b003      	add	sp, #12
 8007ece:	f85d fb04 	ldr.w	pc, [sp], #4
 8007ed2:	f7f9 f9c5 	bl	8001260 <__stack_chk_fail>
 8007ed6:	bf00      	nop
 8007ed8:	20000800 	.word	0x20000800
 8007edc:	00000000 	.word	0x00000000

08007ee0 <sdc_lld_set_bus_mode>:
 8007ee0:	b500      	push	{lr}
 8007ee2:	4a0f      	ldr	r2, [pc, #60]	; (8007f20 <sdc_lld_set_bus_mode+0x40>)
 8007ee4:	6c80      	ldr	r0, [r0, #72]	; 0x48
 8007ee6:	6813      	ldr	r3, [r2, #0]
 8007ee8:	b083      	sub	sp, #12
 8007eea:	2901      	cmp	r1, #1
 8007eec:	9301      	str	r3, [sp, #4]
 8007eee:	6843      	ldr	r3, [r0, #4]
 8007ef0:	f423 53c0 	bic.w	r3, r3, #6144	; 0x1800
 8007ef4:	d00d      	beq.n	8007f12 <sdc_lld_set_bus_mode+0x32>
 8007ef6:	d30a      	bcc.n	8007f0e <sdc_lld_set_bus_mode+0x2e>
 8007ef8:	2902      	cmp	r1, #2
 8007efa:	d006      	beq.n	8007f0a <sdc_lld_set_bus_mode+0x2a>
 8007efc:	9901      	ldr	r1, [sp, #4]
 8007efe:	6813      	ldr	r3, [r2, #0]
 8007f00:	4299      	cmp	r1, r3
 8007f02:	d10a      	bne.n	8007f1a <sdc_lld_set_bus_mode+0x3a>
 8007f04:	b003      	add	sp, #12
 8007f06:	f85d fb04 	ldr.w	pc, [sp], #4
 8007f0a:	f443 5380 	orr.w	r3, r3, #4096	; 0x1000
 8007f0e:	6043      	str	r3, [r0, #4]
 8007f10:	e7f4      	b.n	8007efc <sdc_lld_set_bus_mode+0x1c>
 8007f12:	f443 6300 	orr.w	r3, r3, #2048	; 0x800
 8007f16:	6043      	str	r3, [r0, #4]
 8007f18:	e7f0      	b.n	8007efc <sdc_lld_set_bus_mode+0x1c>
 8007f1a:	f7f9 f9a1 	bl	8001260 <__stack_chk_fail>
 8007f1e:	bf00      	nop
 8007f20:	20000800 	.word	0x20000800
	...

08007f30 <sdc_lld_send_cmd_none>:
 8007f30:	b530      	push	{r4, r5, lr}
 8007f32:	4c0c      	ldr	r4, [pc, #48]	; (8007f64 <sdc_lld_send_cmd_none+0x34>)
 8007f34:	6c83      	ldr	r3, [r0, #72]	; 0x48
 8007f36:	6825      	ldr	r5, [r4, #0]
 8007f38:	b083      	sub	sp, #12
 8007f3a:	f441 6180 	orr.w	r1, r1, #1024	; 0x400
 8007f3e:	9501      	str	r5, [sp, #4]
 8007f40:	609a      	str	r2, [r3, #8]
 8007f42:	6c83      	ldr	r3, [r0, #72]	; 0x48
 8007f44:	60d9      	str	r1, [r3, #12]
 8007f46:	6c82      	ldr	r2, [r0, #72]	; 0x48
 8007f48:	6b53      	ldr	r3, [r2, #52]	; 0x34
 8007f4a:	061b      	lsls	r3, r3, #24
 8007f4c:	d5fc      	bpl.n	8007f48 <sdc_lld_send_cmd_none+0x18>
 8007f4e:	2380      	movs	r3, #128	; 0x80
 8007f50:	6393      	str	r3, [r2, #56]	; 0x38
 8007f52:	9a01      	ldr	r2, [sp, #4]
 8007f54:	6823      	ldr	r3, [r4, #0]
 8007f56:	429a      	cmp	r2, r3
 8007f58:	d101      	bne.n	8007f5e <sdc_lld_send_cmd_none+0x2e>
 8007f5a:	b003      	add	sp, #12
 8007f5c:	bd30      	pop	{r4, r5, pc}
 8007f5e:	f7f9 f97f 	bl	8001260 <__stack_chk_fail>
 8007f62:	bf00      	nop
 8007f64:	20000800 	.word	0x20000800
	...

08007f70 <sdc_lld_send_cmd_short>:
 8007f70:	b570      	push	{r4, r5, r6, lr}
 8007f72:	4d12      	ldr	r5, [pc, #72]	; (8007fbc <sdc_lld_send_cmd_short+0x4c>)
 8007f74:	6c84      	ldr	r4, [r0, #72]	; 0x48
 8007f76:	682e      	ldr	r6, [r5, #0]
 8007f78:	b082      	sub	sp, #8
 8007f7a:	f441 6188 	orr.w	r1, r1, #1088	; 0x440
 8007f7e:	9601      	str	r6, [sp, #4]
 8007f80:	60a2      	str	r2, [r4, #8]
 8007f82:	6c82      	ldr	r2, [r0, #72]	; 0x48
 8007f84:	60d1      	str	r1, [r2, #12]
 8007f86:	6c82      	ldr	r2, [r0, #72]	; 0x48
 8007f88:	6b51      	ldr	r1, [r2, #52]	; 0x34
 8007f8a:	f011 0445 	ands.w	r4, r1, #69	; 0x45
 8007f8e:	d0fb      	beq.n	8007f88 <sdc_lld_send_cmd_short+0x18>
 8007f90:	6394      	str	r4, [r2, #56]	; 0x38
 8007f92:	f011 0204 	ands.w	r2, r1, #4
 8007f96:	d109      	bne.n	8007fac <sdc_lld_send_cmd_short+0x3c>
 8007f98:	6c81      	ldr	r1, [r0, #72]	; 0x48
 8007f9a:	6949      	ldr	r1, [r1, #20]
 8007f9c:	6019      	str	r1, [r3, #0]
 8007f9e:	4610      	mov	r0, r2
 8007fa0:	9a01      	ldr	r2, [sp, #4]
 8007fa2:	682b      	ldr	r3, [r5, #0]
 8007fa4:	429a      	cmp	r2, r3
 8007fa6:	d106      	bne.n	8007fb6 <sdc_lld_send_cmd_short+0x46>
 8007fa8:	b002      	add	sp, #8
 8007faa:	bd70      	pop	{r4, r5, r6, pc}
 8007fac:	3034      	adds	r0, #52	; 0x34
 8007fae:	f7ff fec7 	bl	8007d40 <sdc_lld_collect_errors.isra.0>
 8007fb2:	2001      	movs	r0, #1
 8007fb4:	e7f4      	b.n	8007fa0 <sdc_lld_send_cmd_short+0x30>
 8007fb6:	f7f9 f953 	bl	8001260 <__stack_chk_fail>
 8007fba:	bf00      	nop
 8007fbc:	20000800 	.word	0x20000800

08007fc0 <sdc_lld_send_cmd_short_crc>:
 8007fc0:	b570      	push	{r4, r5, r6, lr}
 8007fc2:	4d12      	ldr	r5, [pc, #72]	; (800800c <sdc_lld_send_cmd_short_crc+0x4c>)
 8007fc4:	6c84      	ldr	r4, [r0, #72]	; 0x48
 8007fc6:	682e      	ldr	r6, [r5, #0]
 8007fc8:	b082      	sub	sp, #8
 8007fca:	f441 6188 	orr.w	r1, r1, #1088	; 0x440
 8007fce:	9601      	str	r6, [sp, #4]
 8007fd0:	60a2      	str	r2, [r4, #8]
 8007fd2:	6c82      	ldr	r2, [r0, #72]	; 0x48
 8007fd4:	60d1      	str	r1, [r2, #12]
 8007fd6:	6c82      	ldr	r2, [r0, #72]	; 0x48
 8007fd8:	6b51      	ldr	r1, [r2, #52]	; 0x34
 8007fda:	f011 0445 	ands.w	r4, r1, #69	; 0x45
 8007fde:	d0fb      	beq.n	8007fd8 <sdc_lld_send_cmd_short_crc+0x18>
 8007fe0:	6394      	str	r4, [r2, #56]	; 0x38
 8007fe2:	f011 0205 	ands.w	r2, r1, #5
 8007fe6:	d109      	bne.n	8007ffc <sdc_lld_send_cmd_short_crc+0x3c>
 8007fe8:	6c81      	ldr	r1, [r0, #72]	; 0x48
 8007fea:	6949      	ldr	r1, [r1, #20]
 8007fec:	6019      	str	r1, [r3, #0]
 8007fee:	4610      	mov	r0, r2
 8007ff0:	9a01      	ldr	r2, [sp, #4]
 8007ff2:	682b      	ldr	r3, [r5, #0]
 8007ff4:	429a      	cmp	r2, r3
 8007ff6:	d106      	bne.n	8008006 <sdc_lld_send_cmd_short_crc+0x46>
 8007ff8:	b002      	add	sp, #8
 8007ffa:	bd70      	pop	{r4, r5, r6, pc}
 8007ffc:	3034      	adds	r0, #52	; 0x34
 8007ffe:	f7ff fe9f 	bl	8007d40 <sdc_lld_collect_errors.isra.0>
 8008002:	2001      	movs	r0, #1
 8008004:	e7f4      	b.n	8007ff0 <sdc_lld_send_cmd_short_crc+0x30>
 8008006:	f7f9 f92b 	bl	8001260 <__stack_chk_fail>
 800800a:	bf00      	nop
 800800c:	20000800 	.word	0x20000800

08008010 <sdc_lld_wait_transaction_end>:
 8008010:	b5f0      	push	{r4, r5, r6, r7, lr}
 8008012:	4d3a      	ldr	r5, [pc, #232]	; (80080fc <sdc_lld_wait_transaction_end+0xec>)
 8008014:	b083      	sub	sp, #12
 8008016:	682b      	ldr	r3, [r5, #0]
 8008018:	9301      	str	r3, [sp, #4]
 800801a:	4604      	mov	r4, r0
 800801c:	460e      	mov	r6, r1
 800801e:	4617      	mov	r7, r2
 8008020:	2320      	movs	r3, #32
 8008022:	f383 8811 	msr	BASEPRI, r3
 8008026:	f7fb fb9b 	bl	8003760 <_stats_start_measure_crit_thd>
 800802a:	f7fa fba1 	bl	8002770 <_dbg_check_lock>
 800802e:	6ca3      	ldr	r3, [r4, #72]	; 0x48
 8008030:	6bda      	ldr	r2, [r3, #60]	; 0x3c
 8008032:	2a00      	cmp	r2, #0
 8008034:	d139      	bne.n	80080aa <sdc_lld_wait_transaction_end+0x9a>
 8008036:	6b5b      	ldr	r3, [r3, #52]	; 0x34
 8008038:	05db      	lsls	r3, r3, #23
 800803a:	d53e      	bpl.n	80080ba <sdc_lld_wait_transaction_end+0xaa>
 800803c:	6c61      	ldr	r1, [r4, #68]	; 0x44
 800803e:	680a      	ldr	r2, [r1, #0]
 8008040:	6813      	ldr	r3, [r2, #0]
 8008042:	f013 0301 	ands.w	r3, r3, #1
 8008046:	d1fb      	bne.n	8008040 <sdc_lld_wait_transaction_end+0x30>
 8008048:	f891 c008 	ldrb.w	ip, [r1, #8]
 800804c:	6848      	ldr	r0, [r1, #4]
 800804e:	492c      	ldr	r1, [pc, #176]	; (8008100 <sdc_lld_wait_transaction_end+0xf0>)
 8008050:	223d      	movs	r2, #61	; 0x3d
 8008052:	fa02 f20c 	lsl.w	r2, r2, ip
 8008056:	6002      	str	r2, [r0, #0]
 8008058:	6ca2      	ldr	r2, [r4, #72]	; 0x48
 800805a:	6391      	str	r1, [r2, #56]	; 0x38
 800805c:	6ca2      	ldr	r2, [r4, #72]	; 0x48
 800805e:	62d3      	str	r3, [r2, #44]	; 0x2c
 8008060:	f7fa fba6 	bl	80027b0 <_dbg_check_unlock>
 8008064:	f7fb fb94 	bl	8003790 <_stats_stop_measure_crit_thd>
 8008068:	4b26      	ldr	r3, [pc, #152]	; (8008104 <sdc_lld_wait_transaction_end+0xf4>)
 800806a:	681a      	ldr	r2, [r3, #0]
 800806c:	429a      	cmp	r2, r3
 800806e:	d004      	beq.n	800807a <sdc_lld_wait_transaction_end+0x6a>
 8008070:	6999      	ldr	r1, [r3, #24]
 8008072:	6893      	ldr	r3, [r2, #8]
 8008074:	688a      	ldr	r2, [r1, #8]
 8008076:	429a      	cmp	r2, r3
 8008078:	d331      	bcc.n	80080de <sdc_lld_wait_transaction_end+0xce>
 800807a:	2200      	movs	r2, #0
 800807c:	f382 8811 	msr	BASEPRI, r2
 8008080:	2e01      	cmp	r6, #1
 8008082:	d90b      	bls.n	800809c <sdc_lld_wait_transaction_end+0x8c>
 8008084:	9901      	ldr	r1, [sp, #4]
 8008086:	682b      	ldr	r3, [r5, #0]
 8008088:	4299      	cmp	r1, r3
 800808a:	d135      	bne.n	80080f8 <sdc_lld_wait_transaction_end+0xe8>
 800808c:	463b      	mov	r3, r7
 800808e:	4620      	mov	r0, r4
 8008090:	210c      	movs	r1, #12
 8008092:	b003      	add	sp, #12
 8008094:	e8bd 40f0 	ldmia.w	sp!, {r4, r5, r6, r7, lr}
 8008098:	f7ff bf92 	b.w	8007fc0 <sdc_lld_send_cmd_short_crc>
 800809c:	4610      	mov	r0, r2
 800809e:	9a01      	ldr	r2, [sp, #4]
 80080a0:	682b      	ldr	r3, [r5, #0]
 80080a2:	429a      	cmp	r2, r3
 80080a4:	d128      	bne.n	80080f8 <sdc_lld_wait_transaction_end+0xe8>
 80080a6:	b003      	add	sp, #12
 80080a8:	bdf0      	pop	{r4, r5, r6, r7, pc}
 80080aa:	f104 003c 	add.w	r0, r4, #60	; 0x3c
 80080ae:	f7fb f92f 	bl	8003310 <chThdSuspendS>
 80080b2:	6ca3      	ldr	r3, [r4, #72]	; 0x48
 80080b4:	6b5b      	ldr	r3, [r3, #52]	; 0x34
 80080b6:	05db      	lsls	r3, r3, #23
 80080b8:	d4c0      	bmi.n	800803c <sdc_lld_wait_transaction_end+0x2c>
 80080ba:	f7fa fb79 	bl	80027b0 <_dbg_check_unlock>
 80080be:	f7fb fb67 	bl	8003790 <_stats_stop_measure_crit_thd>
 80080c2:	4b10      	ldr	r3, [pc, #64]	; (8008104 <sdc_lld_wait_transaction_end+0xf4>)
 80080c4:	681a      	ldr	r2, [r3, #0]
 80080c6:	429a      	cmp	r2, r3
 80080c8:	d004      	beq.n	80080d4 <sdc_lld_wait_transaction_end+0xc4>
 80080ca:	6999      	ldr	r1, [r3, #24]
 80080cc:	6893      	ldr	r3, [r2, #8]
 80080ce:	688a      	ldr	r2, [r1, #8]
 80080d0:	429a      	cmp	r2, r3
 80080d2:	d30d      	bcc.n	80080f0 <sdc_lld_wait_transaction_end+0xe0>
 80080d4:	2300      	movs	r3, #0
 80080d6:	f383 8811 	msr	BASEPRI, r3
 80080da:	2001      	movs	r0, #1
 80080dc:	e7df      	b.n	800809e <sdc_lld_wait_transaction_end+0x8e>
 80080de:	480a      	ldr	r0, [pc, #40]	; (8008108 <sdc_lld_wait_transaction_end+0xf8>)
 80080e0:	f7fa faa6 	bl	8002630 <chSysHalt>
 80080e4:	2200      	movs	r2, #0
 80080e6:	f382 8811 	msr	BASEPRI, r2
 80080ea:	2e01      	cmp	r6, #1
 80080ec:	d8ca      	bhi.n	8008084 <sdc_lld_wait_transaction_end+0x74>
 80080ee:	e7d5      	b.n	800809c <sdc_lld_wait_transaction_end+0x8c>
 80080f0:	4805      	ldr	r0, [pc, #20]	; (8008108 <sdc_lld_wait_transaction_end+0xf8>)
 80080f2:	f7fa fa9d 	bl	8002630 <chSysHalt>
 80080f6:	e7ed      	b.n	80080d4 <sdc_lld_wait_transaction_end+0xc4>
 80080f8:	f7f9 f8b2 	bl	8001260 <__stack_chk_fail>
 80080fc:	20000800 	.word	0x20000800
 8008100:	00c007ff 	.word	0x00c007ff
 8008104:	20001540 	.word	0x20001540
 8008108:	0800ef90 	.word	0x0800ef90
 800810c:	00000000 	.word	0x00000000

08008110 <sdc_lld_error_cleanup>:
 8008110:	e92d 41f0 	stmdb	sp!, {r4, r5, r6, r7, r8, lr}
 8008114:	4605      	mov	r5, r0
 8008116:	4e22      	ldr	r6, [pc, #136]	; (80081a0 <sdc_lld_error_cleanup+0x90>)
 8008118:	6c40      	ldr	r0, [r0, #68]	; 0x44
 800811a:	6833      	ldr	r3, [r6, #0]
 800811c:	7a07      	ldrb	r7, [r0, #8]
 800811e:	6cac      	ldr	r4, [r5, #72]	; 0x48
 8008120:	6840      	ldr	r0, [r0, #4]
 8008122:	b082      	sub	sp, #8
 8008124:	4688      	mov	r8, r1
 8008126:	9301      	str	r3, [sp, #4]
 8008128:	233d      	movs	r3, #61	; 0x3d
 800812a:	40bb      	lsls	r3, r7
 800812c:	f8d4 c034 	ldr.w	ip, [r4, #52]	; 0x34
 8008130:	6003      	str	r3, [r0, #0]
 8008132:	6c6b      	ldr	r3, [r5, #68]	; 0x44
 8008134:	6818      	ldr	r0, [r3, #0]
 8008136:	6803      	ldr	r3, [r0, #0]
 8008138:	f023 031f 	bic.w	r3, r3, #31
 800813c:	6003      	str	r3, [r0, #0]
 800813e:	6c68      	ldr	r0, [r5, #68]	; 0x44
 8008140:	6803      	ldr	r3, [r0, #0]
 8008142:	4617      	mov	r7, r2
 8008144:	681c      	ldr	r4, [r3, #0]
 8008146:	f014 0401 	ands.w	r4, r4, #1
 800814a:	d1fb      	bne.n	8008144 <sdc_lld_error_cleanup+0x34>
 800814c:	f890 e008 	ldrb.w	lr, [r0, #8]
 8008150:	6841      	ldr	r1, [r0, #4]
 8008152:	4a14      	ldr	r2, [pc, #80]	; (80081a4 <sdc_lld_error_cleanup+0x94>)
 8008154:	233d      	movs	r3, #61	; 0x3d
 8008156:	fa03 f30e 	lsl.w	r3, r3, lr
 800815a:	600b      	str	r3, [r1, #0]
 800815c:	6cab      	ldr	r3, [r5, #72]	; 0x48
 800815e:	639a      	str	r2, [r3, #56]	; 0x38
 8008160:	6cab      	ldr	r3, [r5, #72]	; 0x48
 8008162:	63dc      	str	r4, [r3, #60]	; 0x3c
 8008164:	6cab      	ldr	r3, [r5, #72]	; 0x48
 8008166:	4661      	mov	r1, ip
 8008168:	62dc      	str	r4, [r3, #44]	; 0x2c
 800816a:	f105 0034 	add.w	r0, r5, #52	; 0x34
 800816e:	f7ff fde7 	bl	8007d40 <sdc_lld_collect_errors.isra.0>
 8008172:	f1b8 0f01 	cmp.w	r8, #1
 8008176:	9a01      	ldr	r2, [sp, #4]
 8008178:	6833      	ldr	r3, [r6, #0]
 800817a:	d90a      	bls.n	8008192 <sdc_lld_error_cleanup+0x82>
 800817c:	429a      	cmp	r2, r3
 800817e:	d10d      	bne.n	800819c <sdc_lld_error_cleanup+0x8c>
 8008180:	463b      	mov	r3, r7
 8008182:	4622      	mov	r2, r4
 8008184:	4628      	mov	r0, r5
 8008186:	210c      	movs	r1, #12
 8008188:	b002      	add	sp, #8
 800818a:	e8bd 41f0 	ldmia.w	sp!, {r4, r5, r6, r7, r8, lr}
 800818e:	f7ff bf17 	b.w	8007fc0 <sdc_lld_send_cmd_short_crc>
 8008192:	429a      	cmp	r2, r3
 8008194:	d102      	bne.n	800819c <sdc_lld_error_cleanup+0x8c>
 8008196:	b002      	add	sp, #8
 8008198:	e8bd 81f0 	ldmia.w	sp!, {r4, r5, r6, r7, r8, pc}
 800819c:	f7f9 f860 	bl	8001260 <__stack_chk_fail>
 80081a0:	20000800 	.word	0x20000800
 80081a4:	00c007ff 	.word	0x00c007ff
	...

080081b0 <sdc_lld_send_cmd_long_crc>:
 80081b0:	b570      	push	{r4, r5, r6, lr}
 80081b2:	4d16      	ldr	r5, [pc, #88]	; (800820c <sdc_lld_send_cmd_long_crc+0x5c>)
 80081b4:	6c84      	ldr	r4, [r0, #72]	; 0x48
 80081b6:	682e      	ldr	r6, [r5, #0]
 80081b8:	b082      	sub	sp, #8
 80081ba:	f441 6198 	orr.w	r1, r1, #1216	; 0x4c0
 80081be:	9601      	str	r6, [sp, #4]
 80081c0:	60a2      	str	r2, [r4, #8]
 80081c2:	6c82      	ldr	r2, [r0, #72]	; 0x48
 80081c4:	60d1      	str	r1, [r2, #12]
 80081c6:	6c82      	ldr	r2, [r0, #72]	; 0x48
 80081c8:	6b51      	ldr	r1, [r2, #52]	; 0x34
 80081ca:	f011 0445 	ands.w	r4, r1, #69	; 0x45
 80081ce:	d0fb      	beq.n	80081c8 <sdc_lld_send_cmd_long_crc+0x18>
 80081d0:	6394      	str	r4, [r2, #56]	; 0x38
 80081d2:	f011 023f 	ands.w	r2, r1, #63	; 0x3f
 80081d6:	d112      	bne.n	80081fe <sdc_lld_send_cmd_long_crc+0x4e>
 80081d8:	6c81      	ldr	r1, [r0, #72]	; 0x48
 80081da:	6a09      	ldr	r1, [r1, #32]
 80081dc:	6019      	str	r1, [r3, #0]
 80081de:	6c81      	ldr	r1, [r0, #72]	; 0x48
 80081e0:	69c9      	ldr	r1, [r1, #28]
 80081e2:	6059      	str	r1, [r3, #4]
 80081e4:	6c81      	ldr	r1, [r0, #72]	; 0x48
 80081e6:	6989      	ldr	r1, [r1, #24]
 80081e8:	6099      	str	r1, [r3, #8]
 80081ea:	6c81      	ldr	r1, [r0, #72]	; 0x48
 80081ec:	6949      	ldr	r1, [r1, #20]
 80081ee:	60d9      	str	r1, [r3, #12]
 80081f0:	4610      	mov	r0, r2
 80081f2:	9a01      	ldr	r2, [sp, #4]
 80081f4:	682b      	ldr	r3, [r5, #0]
 80081f6:	429a      	cmp	r2, r3
 80081f8:	d106      	bne.n	8008208 <sdc_lld_send_cmd_long_crc+0x58>
 80081fa:	b002      	add	sp, #8
 80081fc:	bd70      	pop	{r4, r5, r6, pc}
 80081fe:	3034      	adds	r0, #52	; 0x34
 8008200:	f7ff fd9e 	bl	8007d40 <sdc_lld_collect_errors.isra.0>
 8008204:	2001      	movs	r0, #1
 8008206:	e7f4      	b.n	80081f2 <sdc_lld_send_cmd_long_crc+0x42>
 8008208:	f7f9 f82a 	bl	8001260 <__stack_chk_fail>
 800820c:	20000800 	.word	0x20000800

08008210 <sdc_lld_read_special>:
 8008210:	e92d 43f0 	stmdb	sp!, {r4, r5, r6, r7, r8, r9, lr}
 8008214:	4e2e      	ldr	r6, [pc, #184]	; (80082d0 <sdc_lld_read_special+0xc0>)
 8008216:	b083      	sub	sp, #12
 8008218:	6834      	ldr	r4, [r6, #0]
 800821a:	9401      	str	r4, [sp, #4]
 800821c:	f1b2 7f80 	cmp.w	r2, #16777216	; 0x1000000
 8008220:	f8dd 8028 	ldr.w	r8, [sp, #40]	; 0x28
 8008224:	4615      	mov	r5, r2
 8008226:	4604      	mov	r4, r0
 8008228:	4689      	mov	r9, r1
 800822a:	461f      	mov	r7, r3
 800822c:	d249      	bcs.n	80082c2 <sdc_lld_read_special+0xb2>
 800822e:	6ca3      	ldr	r3, [r4, #72]	; 0x48
 8008230:	4a28      	ldr	r2, [pc, #160]	; (80082d4 <sdc_lld_read_special+0xc4>)
 8008232:	625a      	str	r2, [r3, #36]	; 0x24
 8008234:	4620      	mov	r0, r4
 8008236:	f7fd f8fb 	bl	8005430 <_sdc_wait_for_transfer_state>
 800823a:	2800      	cmp	r0, #0
 800823c:	d13f      	bne.n	80082be <sdc_lld_read_special+0xae>
 800823e:	6c63      	ldr	r3, [r4, #68]	; 0x44
 8008240:	4925      	ldr	r1, [pc, #148]	; (80082d8 <sdc_lld_read_special+0xc8>)
 8008242:	681b      	ldr	r3, [r3, #0]
 8008244:	f8c3 900c 	str.w	r9, [r3, #12]
 8008248:	6c63      	ldr	r3, [r4, #68]	; 0x44
 800824a:	681b      	ldr	r3, [r3, #0]
 800824c:	08aa      	lsrs	r2, r5, #2
 800824e:	605a      	str	r2, [r3, #4]
 8008250:	e9d4 2310 	ldrd	r2, r3, [r4, #64]	; 0x40
 8008254:	681b      	ldr	r3, [r3, #0]
 8008256:	601a      	str	r2, [r3, #0]
 8008258:	6c63      	ldr	r3, [r4, #68]	; 0x44
 800825a:	681a      	ldr	r2, [r3, #0]
 800825c:	6813      	ldr	r3, [r2, #0]
 800825e:	f043 0301 	orr.w	r3, r3, #1
 8008262:	6013      	str	r3, [r2, #0]
 8008264:	6ca3      	ldr	r3, [r4, #72]	; 0x48
 8008266:	6399      	str	r1, [r3, #56]	; 0x38
 8008268:	6ca3      	ldr	r3, [r4, #72]	; 0x48
 800826a:	f240 322a 	movw	r2, #810	; 0x32a
 800826e:	63da      	str	r2, [r3, #60]	; 0x3c
 8008270:	6ca3      	ldr	r3, [r4, #72]	; 0x48
 8008272:	629d      	str	r5, [r3, #40]	; 0x28
 8008274:	6ca3      	ldr	r3, [r4, #72]	; 0x48
 8008276:	200f      	movs	r0, #15
 8008278:	466d      	mov	r5, sp
 800827a:	62d8      	str	r0, [r3, #44]	; 0x2c
 800827c:	4642      	mov	r2, r8
 800827e:	4639      	mov	r1, r7
 8008280:	462b      	mov	r3, r5
 8008282:	4620      	mov	r0, r4
 8008284:	f7ff fe9c 	bl	8007fc0 <sdc_lld_send_cmd_short_crc>
 8008288:	b160      	cbz	r0, 80082a4 <sdc_lld_read_special+0x94>
 800828a:	4620      	mov	r0, r4
 800828c:	462a      	mov	r2, r5
 800828e:	2101      	movs	r1, #1
 8008290:	f7ff ff3e 	bl	8008110 <sdc_lld_error_cleanup>
 8008294:	2001      	movs	r0, #1
 8008296:	9a01      	ldr	r2, [sp, #4]
 8008298:	6833      	ldr	r3, [r6, #0]
 800829a:	429a      	cmp	r2, r3
 800829c:	d115      	bne.n	80082ca <sdc_lld_read_special+0xba>
 800829e:	b003      	add	sp, #12
 80082a0:	e8bd 83f0 	ldmia.w	sp!, {r4, r5, r6, r7, r8, r9, pc}
 80082a4:	9a00      	ldr	r2, [sp, #0]
 80082a6:	4b0d      	ldr	r3, [pc, #52]	; (80082dc <sdc_lld_read_special+0xcc>)
 80082a8:	4013      	ands	r3, r2
 80082aa:	2b00      	cmp	r3, #0
 80082ac:	d1ed      	bne.n	800828a <sdc_lld_read_special+0x7a>
 80082ae:	462a      	mov	r2, r5
 80082b0:	2101      	movs	r1, #1
 80082b2:	4620      	mov	r0, r4
 80082b4:	f7ff feac 	bl	8008010 <sdc_lld_wait_transaction_end>
 80082b8:	2800      	cmp	r0, #0
 80082ba:	d1e6      	bne.n	800828a <sdc_lld_read_special+0x7a>
 80082bc:	e7eb      	b.n	8008296 <sdc_lld_read_special+0x86>
 80082be:	466d      	mov	r5, sp
 80082c0:	e7e3      	b.n	800828a <sdc_lld_read_special+0x7a>
 80082c2:	4807      	ldr	r0, [pc, #28]	; (80082e0 <sdc_lld_read_special+0xd0>)
 80082c4:	f7fa f9b4 	bl	8002630 <chSysHalt>
 80082c8:	e7b1      	b.n	800822e <sdc_lld_read_special+0x1e>
 80082ca:	f7f8 ffc9 	bl	8001260 <__stack_chk_fail>
 80082ce:	bf00      	nop
 80082d0:	20000800 	.word	0x20000800
 80082d4:	000927c0 	.word	0x000927c0
 80082d8:	00c007ff 	.word	0x00c007ff
 80082dc:	fdffe008 	.word	0xfdffe008
 80082e0:	0800ef30 	.word	0x0800ef30
	...

080082f0 <sdc_lld_read_aligned>:
 80082f0:	e92d 41f0 	stmdb	sp!, {r4, r5, r6, r7, r8, lr}
 80082f4:	4e32      	ldr	r6, [pc, #200]	; (80083c0 <sdc_lld_read_aligned+0xd0>)
 80082f6:	461d      	mov	r5, r3
 80082f8:	b082      	sub	sp, #8
 80082fa:	6833      	ldr	r3, [r6, #0]
 80082fc:	9301      	str	r3, [sp, #4]
 80082fe:	f5b5 4f00 	cmp.w	r5, #32768	; 0x8000
 8008302:	4604      	mov	r4, r0
 8008304:	460f      	mov	r7, r1
 8008306:	4690      	mov	r8, r2
 8008308:	d24c      	bcs.n	80083a4 <sdc_lld_read_aligned+0xb4>
 800830a:	6ca3      	ldr	r3, [r4, #72]	; 0x48
 800830c:	4a2d      	ldr	r2, [pc, #180]	; (80083c4 <sdc_lld_read_aligned+0xd4>)
 800830e:	625a      	str	r2, [r3, #36]	; 0x24
 8008310:	4620      	mov	r0, r4
 8008312:	f7fd f88d 	bl	8005430 <_sdc_wait_for_transfer_state>
 8008316:	b130      	cbz	r0, 8008326 <sdc_lld_read_aligned+0x36>
 8008318:	9a01      	ldr	r2, [sp, #4]
 800831a:	6833      	ldr	r3, [r6, #0]
 800831c:	429a      	cmp	r2, r3
 800831e:	d14c      	bne.n	80083ba <sdc_lld_read_aligned+0xca>
 8008320:	b002      	add	sp, #8
 8008322:	e8bd 81f0 	ldmia.w	sp!, {r4, r5, r6, r7, r8, pc}
 8008326:	6c63      	ldr	r3, [r4, #68]	; 0x44
 8008328:	4827      	ldr	r0, [pc, #156]	; (80083c8 <sdc_lld_read_aligned+0xd8>)
 800832a:	681b      	ldr	r3, [r3, #0]
 800832c:	f8c3 800c 	str.w	r8, [r3, #12]
 8008330:	6c62      	ldr	r2, [r4, #68]	; 0x44
 8008332:	026b      	lsls	r3, r5, #9
 8008334:	6812      	ldr	r2, [r2, #0]
 8008336:	0899      	lsrs	r1, r3, #2
 8008338:	6051      	str	r1, [r2, #4]
 800833a:	e9d4 1210 	ldrd	r1, r2, [r4, #64]	; 0x40
 800833e:	6812      	ldr	r2, [r2, #0]
 8008340:	6011      	str	r1, [r2, #0]
 8008342:	6c62      	ldr	r2, [r4, #68]	; 0x44
 8008344:	6811      	ldr	r1, [r2, #0]
 8008346:	680a      	ldr	r2, [r1, #0]
 8008348:	f042 0201 	orr.w	r2, r2, #1
 800834c:	600a      	str	r2, [r1, #0]
 800834e:	6ca2      	ldr	r2, [r4, #72]	; 0x48
 8008350:	6390      	str	r0, [r2, #56]	; 0x38
 8008352:	6ca2      	ldr	r2, [r4, #72]	; 0x48
 8008354:	f240 312a 	movw	r1, #810	; 0x32a
 8008358:	63d1      	str	r1, [r2, #60]	; 0x3c
 800835a:	6ca2      	ldr	r2, [r4, #72]	; 0x48
 800835c:	6293      	str	r3, [r2, #40]	; 0x28
 800835e:	6ca3      	ldr	r3, [r4, #72]	; 0x48
 8008360:	229b      	movs	r2, #155	; 0x9b
 8008362:	62da      	str	r2, [r3, #44]	; 0x2c
 8008364:	6b23      	ldr	r3, [r4, #48]	; 0x30
 8008366:	06db      	lsls	r3, r3, #27
 8008368:	bf58      	it	pl
 800836a:	027f      	lslpl	r7, r7, #9
 800836c:	46e8      	mov	r8, sp
 800836e:	2d01      	cmp	r5, #1
 8008370:	463a      	mov	r2, r7
 8008372:	4643      	mov	r3, r8
 8008374:	d91a      	bls.n	80083ac <sdc_lld_read_aligned+0xbc>
 8008376:	2112      	movs	r1, #18
 8008378:	4620      	mov	r0, r4
 800837a:	f7ff fe21 	bl	8007fc0 <sdc_lld_send_cmd_short_crc>
 800837e:	b950      	cbnz	r0, 8008396 <sdc_lld_read_aligned+0xa6>
 8008380:	9a00      	ldr	r2, [sp, #0]
 8008382:	4b12      	ldr	r3, [pc, #72]	; (80083cc <sdc_lld_read_aligned+0xdc>)
 8008384:	4013      	ands	r3, r2
 8008386:	b933      	cbnz	r3, 8008396 <sdc_lld_read_aligned+0xa6>
 8008388:	4642      	mov	r2, r8
 800838a:	4629      	mov	r1, r5
 800838c:	4620      	mov	r0, r4
 800838e:	f7ff fe3f 	bl	8008010 <sdc_lld_wait_transaction_end>
 8008392:	2800      	cmp	r0, #0
 8008394:	d0c0      	beq.n	8008318 <sdc_lld_read_aligned+0x28>
 8008396:	4620      	mov	r0, r4
 8008398:	4642      	mov	r2, r8
 800839a:	4629      	mov	r1, r5
 800839c:	f7ff feb8 	bl	8008110 <sdc_lld_error_cleanup>
 80083a0:	2001      	movs	r0, #1
 80083a2:	e7b9      	b.n	8008318 <sdc_lld_read_aligned+0x28>
 80083a4:	480a      	ldr	r0, [pc, #40]	; (80083d0 <sdc_lld_read_aligned+0xe0>)
 80083a6:	f7fa f943 	bl	8002630 <chSysHalt>
 80083aa:	e7ae      	b.n	800830a <sdc_lld_read_aligned+0x1a>
 80083ac:	2111      	movs	r1, #17
 80083ae:	4620      	mov	r0, r4
 80083b0:	f7ff fe06 	bl	8007fc0 <sdc_lld_send_cmd_short_crc>
 80083b4:	2800      	cmp	r0, #0
 80083b6:	d0e3      	beq.n	8008380 <sdc_lld_read_aligned+0x90>
 80083b8:	e7ed      	b.n	8008396 <sdc_lld_read_aligned+0xa6>
 80083ba:	f7f8 ff51 	bl	8001260 <__stack_chk_fail>
 80083be:	bf00      	nop
 80083c0:	20000800 	.word	0x20000800
 80083c4:	000927c0 	.word	0x000927c0
 80083c8:	00c007ff 	.word	0x00c007ff
 80083cc:	fdffe008 	.word	0xfdffe008
 80083d0:	0800ef50 	.word	0x0800ef50
	...

080083e0 <sdc_lld_write_aligned>:
 80083e0:	e92d 41f0 	stmdb	sp!, {r4, r5, r6, r7, r8, lr}
 80083e4:	4e33      	ldr	r6, [pc, #204]	; (80084b4 <sdc_lld_write_aligned+0xd4>)
 80083e6:	461d      	mov	r5, r3
 80083e8:	b084      	sub	sp, #16
 80083ea:	6833      	ldr	r3, [r6, #0]
 80083ec:	9303      	str	r3, [sp, #12]
 80083ee:	f5b5 4f00 	cmp.w	r5, #32768	; 0x8000
 80083f2:	4604      	mov	r4, r0
 80083f4:	460f      	mov	r7, r1
 80083f6:	4690      	mov	r8, r2
 80083f8:	d24e      	bcs.n	8008498 <sdc_lld_write_aligned+0xb8>
 80083fa:	6ca3      	ldr	r3, [r4, #72]	; 0x48
 80083fc:	4a2e      	ldr	r2, [pc, #184]	; (80084b8 <sdc_lld_write_aligned+0xd8>)
 80083fe:	625a      	str	r2, [r3, #36]	; 0x24
 8008400:	4620      	mov	r0, r4
 8008402:	f7fd f815 	bl	8005430 <_sdc_wait_for_transfer_state>
 8008406:	b130      	cbz	r0, 8008416 <sdc_lld_write_aligned+0x36>
 8008408:	9a03      	ldr	r2, [sp, #12]
 800840a:	6833      	ldr	r3, [r6, #0]
 800840c:	429a      	cmp	r2, r3
 800840e:	d14e      	bne.n	80084ae <sdc_lld_write_aligned+0xce>
 8008410:	b004      	add	sp, #16
 8008412:	e8bd 81f0 	ldmia.w	sp!, {r4, r5, r6, r7, r8, pc}
 8008416:	6c63      	ldr	r3, [r4, #68]	; 0x44
 8008418:	4828      	ldr	r0, [pc, #160]	; (80084bc <sdc_lld_write_aligned+0xdc>)
 800841a:	681b      	ldr	r3, [r3, #0]
 800841c:	f8c3 800c 	str.w	r8, [r3, #12]
 8008420:	6c62      	ldr	r2, [r4, #68]	; 0x44
 8008422:	026b      	lsls	r3, r5, #9
 8008424:	6812      	ldr	r2, [r2, #0]
 8008426:	0899      	lsrs	r1, r3, #2
 8008428:	6051      	str	r1, [r2, #4]
 800842a:	e9d4 2110 	ldrd	r2, r1, [r4, #64]	; 0x40
 800842e:	6809      	ldr	r1, [r1, #0]
 8008430:	f042 0240 	orr.w	r2, r2, #64	; 0x40
 8008434:	600a      	str	r2, [r1, #0]
 8008436:	6c62      	ldr	r2, [r4, #68]	; 0x44
 8008438:	6811      	ldr	r1, [r2, #0]
 800843a:	680a      	ldr	r2, [r1, #0]
 800843c:	f042 0201 	orr.w	r2, r2, #1
 8008440:	600a      	str	r2, [r1, #0]
 8008442:	6ca2      	ldr	r2, [r4, #72]	; 0x48
 8008444:	6390      	str	r0, [r2, #56]	; 0x38
 8008446:	6ca2      	ldr	r2, [r4, #72]	; 0x48
 8008448:	f240 311a 	movw	r1, #794	; 0x31a
 800844c:	63d1      	str	r1, [r2, #60]	; 0x3c
 800844e:	6ca2      	ldr	r2, [r4, #72]	; 0x48
 8008450:	6293      	str	r3, [r2, #40]	; 0x28
 8008452:	6b23      	ldr	r3, [r4, #48]	; 0x30
 8008454:	06db      	lsls	r3, r3, #27
 8008456:	bf58      	it	pl
 8008458:	027f      	lslpl	r7, r7, #9
 800845a:	ab02      	add	r3, sp, #8
 800845c:	2d01      	cmp	r5, #1
 800845e:	9301      	str	r3, [sp, #4]
 8008460:	463a      	mov	r2, r7
 8008462:	d91d      	bls.n	80084a0 <sdc_lld_write_aligned+0xc0>
 8008464:	2119      	movs	r1, #25
 8008466:	4620      	mov	r0, r4
 8008468:	f7ff fdaa 	bl	8007fc0 <sdc_lld_send_cmd_short_crc>
 800846c:	b968      	cbnz	r0, 800848a <sdc_lld_write_aligned+0xaa>
 800846e:	9a02      	ldr	r2, [sp, #8]
 8008470:	4b13      	ldr	r3, [pc, #76]	; (80084c0 <sdc_lld_write_aligned+0xe0>)
 8008472:	4013      	ands	r3, r2
 8008474:	b94b      	cbnz	r3, 800848a <sdc_lld_write_aligned+0xaa>
 8008476:	6ca3      	ldr	r3, [r4, #72]	; 0x48
 8008478:	2299      	movs	r2, #153	; 0x99
 800847a:	62da      	str	r2, [r3, #44]	; 0x2c
 800847c:	4629      	mov	r1, r5
 800847e:	9a01      	ldr	r2, [sp, #4]
 8008480:	4620      	mov	r0, r4
 8008482:	f7ff fdc5 	bl	8008010 <sdc_lld_wait_transaction_end>
 8008486:	2800      	cmp	r0, #0
 8008488:	d0be      	beq.n	8008408 <sdc_lld_write_aligned+0x28>
 800848a:	4620      	mov	r0, r4
 800848c:	4629      	mov	r1, r5
 800848e:	9a01      	ldr	r2, [sp, #4]
 8008490:	f7ff fe3e 	bl	8008110 <sdc_lld_error_cleanup>
 8008494:	2001      	movs	r0, #1
 8008496:	e7b7      	b.n	8008408 <sdc_lld_write_aligned+0x28>
 8008498:	480a      	ldr	r0, [pc, #40]	; (80084c4 <sdc_lld_write_aligned+0xe4>)
 800849a:	f7fa f8c9 	bl	8002630 <chSysHalt>
 800849e:	e7ac      	b.n	80083fa <sdc_lld_write_aligned+0x1a>
 80084a0:	2118      	movs	r1, #24
 80084a2:	4620      	mov	r0, r4
 80084a4:	f7ff fd8c 	bl	8007fc0 <sdc_lld_send_cmd_short_crc>
 80084a8:	2800      	cmp	r0, #0
 80084aa:	d0e0      	beq.n	800846e <sdc_lld_write_aligned+0x8e>
 80084ac:	e7ed      	b.n	800848a <sdc_lld_write_aligned+0xaa>
 80084ae:	f7f8 fed7 	bl	8001260 <__stack_chk_fail>
 80084b2:	bf00      	nop
 80084b4:	20000800 	.word	0x20000800
 80084b8:	005b8d80 	.word	0x005b8d80
 80084bc:	00c007ff 	.word	0x00c007ff
 80084c0:	fdffe008 	.word	0xfdffe008
 80084c4:	0800ef70 	.word	0x0800ef70
	...

080084d0 <sdc_lld_read>:
 80084d0:	e92d 43f0 	stmdb	sp!, {r4, r5, r6, r7, r8, r9, lr}
 80084d4:	f8df 9074 	ldr.w	r9, [pc, #116]	; 800854c <sdc_lld_read+0x7c>
 80084d8:	b083      	sub	sp, #12
 80084da:	f8d9 4000 	ldr.w	r4, [r9]
 80084de:	9401      	str	r4, [sp, #4]
 80084e0:	0794      	lsls	r4, r2, #30
 80084e2:	d024      	beq.n	800852e <sdc_lld_read+0x5e>
 80084e4:	461f      	mov	r7, r3
 80084e6:	b303      	cbz	r3, 800852a <sdc_lld_read+0x5a>
 80084e8:	4615      	mov	r5, r2
 80084ea:	4680      	mov	r8, r0
 80084ec:	460c      	mov	r4, r1
 80084ee:	4e16      	ldr	r6, [pc, #88]	; (8008548 <sdc_lld_read+0x78>)
 80084f0:	440f      	add	r7, r1
 80084f2:	e00a      	b.n	800850a <sdc_lld_read+0x3a>
 80084f4:	4628      	mov	r0, r5
 80084f6:	3401      	adds	r4, #1
 80084f8:	f44f 7200 	mov.w	r2, #512	; 0x200
 80084fc:	4631      	mov	r1, r6
 80084fe:	f7f8 fc87 	bl	8000e10 <memcpy>
 8008502:	42bc      	cmp	r4, r7
 8008504:	f505 7500 	add.w	r5, r5, #512	; 0x200
 8008508:	d00f      	beq.n	800852a <sdc_lld_read+0x5a>
 800850a:	2301      	movs	r3, #1
 800850c:	4632      	mov	r2, r6
 800850e:	4621      	mov	r1, r4
 8008510:	4640      	mov	r0, r8
 8008512:	f7ff feed 	bl	80082f0 <sdc_lld_read_aligned>
 8008516:	2800      	cmp	r0, #0
 8008518:	d0ec      	beq.n	80084f4 <sdc_lld_read+0x24>
 800851a:	9a01      	ldr	r2, [sp, #4]
 800851c:	f8d9 3000 	ldr.w	r3, [r9]
 8008520:	429a      	cmp	r2, r3
 8008522:	d10e      	bne.n	8008542 <sdc_lld_read+0x72>
 8008524:	b003      	add	sp, #12
 8008526:	e8bd 83f0 	ldmia.w	sp!, {r4, r5, r6, r7, r8, r9, pc}
 800852a:	2000      	movs	r0, #0
 800852c:	e7f5      	b.n	800851a <sdc_lld_read+0x4a>
 800852e:	9d01      	ldr	r5, [sp, #4]
 8008530:	f8d9 4000 	ldr.w	r4, [r9]
 8008534:	42a5      	cmp	r5, r4
 8008536:	d104      	bne.n	8008542 <sdc_lld_read+0x72>
 8008538:	b003      	add	sp, #12
 800853a:	e8bd 43f0 	ldmia.w	sp!, {r4, r5, r6, r7, r8, r9, lr}
 800853e:	f7ff bed7 	b.w	80082f0 <sdc_lld_read_aligned>
 8008542:	f7f8 fe8d 	bl	8001260 <__stack_chk_fail>
 8008546:	bf00      	nop
 8008548:	20001d90 	.word	0x20001d90
 800854c:	20000800 	.word	0x20000800

08008550 <sdc_lld_write>:
 8008550:	e92d 43f0 	stmdb	sp!, {r4, r5, r6, r7, r8, r9, lr}
 8008554:	f8df 9074 	ldr.w	r9, [pc, #116]	; 80085cc <sdc_lld_write+0x7c>
 8008558:	b083      	sub	sp, #12
 800855a:	f8d9 4000 	ldr.w	r4, [r9]
 800855e:	9401      	str	r4, [sp, #4]
 8008560:	0794      	lsls	r4, r2, #30
 8008562:	d024      	beq.n	80085ae <sdc_lld_write+0x5e>
 8008564:	461f      	mov	r7, r3
 8008566:	b303      	cbz	r3, 80085aa <sdc_lld_write+0x5a>
 8008568:	4615      	mov	r5, r2
 800856a:	4680      	mov	r8, r0
 800856c:	460c      	mov	r4, r1
 800856e:	4e16      	ldr	r6, [pc, #88]	; (80085c8 <sdc_lld_write+0x78>)
 8008570:	440f      	add	r7, r1
 8008572:	e002      	b.n	800857a <sdc_lld_write+0x2a>
 8008574:	3401      	adds	r4, #1
 8008576:	42bc      	cmp	r4, r7
 8008578:	d017      	beq.n	80085aa <sdc_lld_write+0x5a>
 800857a:	4629      	mov	r1, r5
 800857c:	f44f 7200 	mov.w	r2, #512	; 0x200
 8008580:	4630      	mov	r0, r6
 8008582:	f7f8 fc45 	bl	8000e10 <memcpy>
 8008586:	2301      	movs	r3, #1
 8008588:	4632      	mov	r2, r6
 800858a:	4621      	mov	r1, r4
 800858c:	4640      	mov	r0, r8
 800858e:	f7ff ff27 	bl	80083e0 <sdc_lld_write_aligned>
 8008592:	f505 7500 	add.w	r5, r5, #512	; 0x200
 8008596:	2800      	cmp	r0, #0
 8008598:	d0ec      	beq.n	8008574 <sdc_lld_write+0x24>
 800859a:	9a01      	ldr	r2, [sp, #4]
 800859c:	f8d9 3000 	ldr.w	r3, [r9]
 80085a0:	429a      	cmp	r2, r3
 80085a2:	d10e      	bne.n	80085c2 <sdc_lld_write+0x72>
 80085a4:	b003      	add	sp, #12
 80085a6:	e8bd 83f0 	ldmia.w	sp!, {r4, r5, r6, r7, r8, r9, pc}
 80085aa:	2000      	movs	r0, #0
 80085ac:	e7f5      	b.n	800859a <sdc_lld_write+0x4a>
 80085ae:	9d01      	ldr	r5, [sp, #4]
 80085b0:	f8d9 4000 	ldr.w	r4, [r9]
 80085b4:	42a5      	cmp	r5, r4
 80085b6:	d104      	bne.n	80085c2 <sdc_lld_write+0x72>
 80085b8:	b003      	add	sp, #12
 80085ba:	e8bd 43f0 	ldmia.w	sp!, {r4, r5, r6, r7, r8, r9, lr}
 80085be:	f7ff bf0f 	b.w	80083e0 <sdc_lld_write_aligned>
 80085c2:	f7f8 fe4d 	bl	8001260 <__stack_chk_fail>
 80085c6:	bf00      	nop
 80085c8:	20001d90 	.word	0x20001d90
 80085cc:	20000800 	.word	0x20000800

080085d0 <sdc_lld_sync>:
 80085d0:	b500      	push	{lr}
 80085d2:	4b07      	ldr	r3, [pc, #28]	; (80085f0 <sdc_lld_sync+0x20>)
 80085d4:	b083      	sub	sp, #12
 80085d6:	681a      	ldr	r2, [r3, #0]
 80085d8:	9201      	str	r2, [sp, #4]
 80085da:	9a01      	ldr	r2, [sp, #4]
 80085dc:	681b      	ldr	r3, [r3, #0]
 80085de:	429a      	cmp	r2, r3
 80085e0:	d103      	bne.n	80085ea <sdc_lld_sync+0x1a>
 80085e2:	2000      	movs	r0, #0
 80085e4:	b003      	add	sp, #12
 80085e6:	f85d fb04 	ldr.w	pc, [sp], #4
 80085ea:	f7f8 fe39 	bl	8001260 <__stack_chk_fail>
 80085ee:	bf00      	nop
 80085f0:	20000800 	.word	0x20000800
	...

08008600 <dac_lld_init>:
 8008600:	b530      	push	{r4, r5, lr}
 8008602:	4d09      	ldr	r5, [pc, #36]	; (8008628 <dac_lld_init+0x28>)
 8008604:	4c09      	ldr	r4, [pc, #36]	; (800862c <dac_lld_init+0x2c>)
 8008606:	682b      	ldr	r3, [r5, #0]
 8008608:	b083      	sub	sp, #12
 800860a:	4620      	mov	r0, r4
 800860c:	9301      	str	r3, [sp, #4]
 800860e:	f7fc f81f 	bl	8004650 <dacObjectInit>
 8008612:	9a01      	ldr	r2, [sp, #4]
 8008614:	682b      	ldr	r3, [r5, #0]
 8008616:	4906      	ldr	r1, [pc, #24]	; (8008630 <dac_lld_init+0x30>)
 8008618:	62e1      	str	r1, [r4, #44]	; 0x2c
 800861a:	429a      	cmp	r2, r3
 800861c:	d101      	bne.n	8008622 <dac_lld_init+0x22>
 800861e:	b003      	add	sp, #12
 8008620:	bd30      	pop	{r4, r5, pc}
 8008622:	f7f8 fe1d 	bl	8001260 <__stack_chk_fail>
 8008626:	bf00      	nop
 8008628:	20000800 	.word	0x20000800
 800862c:	20001f90 	.word	0x20001f90
 8008630:	0800efa0 	.word	0x0800efa0
	...

08008640 <_pal_lld_init>:
 8008640:	b570      	push	{r4, r5, r6, lr}
 8008642:	4c70      	ldr	r4, [pc, #448]	; (8008804 <_pal_lld_init+0x1c4>)
 8008644:	4a70      	ldr	r2, [pc, #448]	; (8008808 <_pal_lld_init+0x1c8>)
 8008646:	6823      	ldr	r3, [r4, #0]
 8008648:	b082      	sub	sp, #8
 800864a:	f240 16ff 	movw	r6, #511	; 0x1ff
 800864e:	9301      	str	r3, [sp, #4]
 8008650:	6b15      	ldr	r5, [r2, #48]	; 0x30
 8008652:	4b6e      	ldr	r3, [pc, #440]	; (800880c <_pal_lld_init+0x1cc>)
 8008654:	4335      	orrs	r5, r6
 8008656:	6315      	str	r5, [r2, #48]	; 0x30
 8008658:	6d11      	ldr	r1, [r2, #80]	; 0x50
 800865a:	4331      	orrs	r1, r6
 800865c:	6511      	str	r1, [r2, #80]	; 0x50
 800865e:	6842      	ldr	r2, [r0, #4]
 8008660:	605a      	str	r2, [r3, #4]
 8008662:	6882      	ldr	r2, [r0, #8]
 8008664:	609a      	str	r2, [r3, #8]
 8008666:	68c2      	ldr	r2, [r0, #12]
 8008668:	60da      	str	r2, [r3, #12]
 800866a:	6902      	ldr	r2, [r0, #16]
 800866c:	615a      	str	r2, [r3, #20]
 800866e:	6942      	ldr	r2, [r0, #20]
 8008670:	621a      	str	r2, [r3, #32]
 8008672:	6982      	ldr	r2, [r0, #24]
 8008674:	625a      	str	r2, [r3, #36]	; 0x24
 8008676:	6802      	ldr	r2, [r0, #0]
 8008678:	601a      	str	r2, [r3, #0]
 800867a:	6a02      	ldr	r2, [r0, #32]
 800867c:	f8c3 2404 	str.w	r2, [r3, #1028]	; 0x404
 8008680:	6a42      	ldr	r2, [r0, #36]	; 0x24
 8008682:	f8c3 2408 	str.w	r2, [r3, #1032]	; 0x408
 8008686:	6a82      	ldr	r2, [r0, #40]	; 0x28
 8008688:	f8c3 240c 	str.w	r2, [r3, #1036]	; 0x40c
 800868c:	6ac2      	ldr	r2, [r0, #44]	; 0x2c
 800868e:	f8c3 2414 	str.w	r2, [r3, #1044]	; 0x414
 8008692:	6b02      	ldr	r2, [r0, #48]	; 0x30
 8008694:	f8c3 2420 	str.w	r2, [r3, #1056]	; 0x420
 8008698:	6b42      	ldr	r2, [r0, #52]	; 0x34
 800869a:	f8c3 2424 	str.w	r2, [r3, #1060]	; 0x424
 800869e:	69c2      	ldr	r2, [r0, #28]
 80086a0:	f8c3 2400 	str.w	r2, [r3, #1024]	; 0x400
 80086a4:	6bc2      	ldr	r2, [r0, #60]	; 0x3c
 80086a6:	f8c3 2804 	str.w	r2, [r3, #2052]	; 0x804
 80086aa:	6c02      	ldr	r2, [r0, #64]	; 0x40
 80086ac:	f8c3 2808 	str.w	r2, [r3, #2056]	; 0x808
 80086b0:	6c42      	ldr	r2, [r0, #68]	; 0x44
 80086b2:	f8c3 280c 	str.w	r2, [r3, #2060]	; 0x80c
 80086b6:	6c82      	ldr	r2, [r0, #72]	; 0x48
 80086b8:	f8c3 2814 	str.w	r2, [r3, #2068]	; 0x814
 80086bc:	6cc2      	ldr	r2, [r0, #76]	; 0x4c
 80086be:	f8c3 2820 	str.w	r2, [r3, #2080]	; 0x820
 80086c2:	6d02      	ldr	r2, [r0, #80]	; 0x50
 80086c4:	f8c3 2824 	str.w	r2, [r3, #2084]	; 0x824
 80086c8:	6b82      	ldr	r2, [r0, #56]	; 0x38
 80086ca:	f8c3 2800 	str.w	r2, [r3, #2048]	; 0x800
 80086ce:	f503 6340 	add.w	r3, r3, #3072	; 0xc00
 80086d2:	6d82      	ldr	r2, [r0, #88]	; 0x58
 80086d4:	605a      	str	r2, [r3, #4]
 80086d6:	6dc2      	ldr	r2, [r0, #92]	; 0x5c
 80086d8:	609a      	str	r2, [r3, #8]
 80086da:	6e02      	ldr	r2, [r0, #96]	; 0x60
 80086dc:	60da      	str	r2, [r3, #12]
 80086de:	6e42      	ldr	r2, [r0, #100]	; 0x64
 80086e0:	615a      	str	r2, [r3, #20]
 80086e2:	6e82      	ldr	r2, [r0, #104]	; 0x68
 80086e4:	621a      	str	r2, [r3, #32]
 80086e6:	6ec2      	ldr	r2, [r0, #108]	; 0x6c
 80086e8:	625a      	str	r2, [r3, #36]	; 0x24
 80086ea:	6d42      	ldr	r2, [r0, #84]	; 0x54
 80086ec:	601a      	str	r2, [r3, #0]
 80086ee:	6f42      	ldr	r2, [r0, #116]	; 0x74
 80086f0:	f8c3 2404 	str.w	r2, [r3, #1028]	; 0x404
 80086f4:	6f82      	ldr	r2, [r0, #120]	; 0x78
 80086f6:	f8c3 2408 	str.w	r2, [r3, #1032]	; 0x408
 80086fa:	6fc2      	ldr	r2, [r0, #124]	; 0x7c
 80086fc:	f8c3 240c 	str.w	r2, [r3, #1036]	; 0x40c
 8008700:	f8d0 2080 	ldr.w	r2, [r0, #128]	; 0x80
 8008704:	f8c3 2414 	str.w	r2, [r3, #1044]	; 0x414
 8008708:	f8d0 2084 	ldr.w	r2, [r0, #132]	; 0x84
 800870c:	f8c3 2420 	str.w	r2, [r3, #1056]	; 0x420
 8008710:	f8d0 2088 	ldr.w	r2, [r0, #136]	; 0x88
 8008714:	f8c3 2424 	str.w	r2, [r3, #1060]	; 0x424
 8008718:	6f02      	ldr	r2, [r0, #112]	; 0x70
 800871a:	f8c3 2400 	str.w	r2, [r3, #1024]	; 0x400
 800871e:	f8d0 2090 	ldr.w	r2, [r0, #144]	; 0x90
 8008722:	f8c3 2804 	str.w	r2, [r3, #2052]	; 0x804
 8008726:	f8d0 2094 	ldr.w	r2, [r0, #148]	; 0x94
 800872a:	f8c3 2808 	str.w	r2, [r3, #2056]	; 0x808
 800872e:	f8d0 2098 	ldr.w	r2, [r0, #152]	; 0x98
 8008732:	f8c3 280c 	str.w	r2, [r3, #2060]	; 0x80c
 8008736:	f8d0 209c 	ldr.w	r2, [r0, #156]	; 0x9c
 800873a:	f8c3 2814 	str.w	r2, [r3, #2068]	; 0x814
 800873e:	f8d0 20a0 	ldr.w	r2, [r0, #160]	; 0xa0
 8008742:	f8c3 2820 	str.w	r2, [r3, #2080]	; 0x820
 8008746:	f8d0 20a4 	ldr.w	r2, [r0, #164]	; 0xa4
 800874a:	f8c3 2824 	str.w	r2, [r3, #2084]	; 0x824
 800874e:	f8d0 208c 	ldr.w	r2, [r0, #140]	; 0x8c
 8008752:	f8c3 2800 	str.w	r2, [r3, #2048]	; 0x800
 8008756:	f503 6340 	add.w	r3, r3, #3072	; 0xc00
 800875a:	f8d0 20ac 	ldr.w	r2, [r0, #172]	; 0xac
 800875e:	605a      	str	r2, [r3, #4]
 8008760:	f8d0 20b0 	ldr.w	r2, [r0, #176]	; 0xb0
 8008764:	609a      	str	r2, [r3, #8]
 8008766:	f8d0 20b4 	ldr.w	r2, [r0, #180]	; 0xb4
 800876a:	60da      	str	r2, [r3, #12]
 800876c:	f8d0 20b8 	ldr.w	r2, [r0, #184]	; 0xb8
 8008770:	615a      	str	r2, [r3, #20]
 8008772:	f8d0 20bc 	ldr.w	r2, [r0, #188]	; 0xbc
 8008776:	621a      	str	r2, [r3, #32]
 8008778:	f8d0 20c0 	ldr.w	r2, [r0, #192]	; 0xc0
 800877c:	625a      	str	r2, [r3, #36]	; 0x24
 800877e:	f8d0 20a8 	ldr.w	r2, [r0, #168]	; 0xa8
 8008782:	601a      	str	r2, [r3, #0]
 8008784:	f8d0 20c8 	ldr.w	r2, [r0, #200]	; 0xc8
 8008788:	f8c3 2404 	str.w	r2, [r3, #1028]	; 0x404
 800878c:	f8d0 20cc 	ldr.w	r2, [r0, #204]	; 0xcc
 8008790:	f8c3 2408 	str.w	r2, [r3, #1032]	; 0x408
 8008794:	f8d0 20d0 	ldr.w	r2, [r0, #208]	; 0xd0
 8008798:	f8c3 240c 	str.w	r2, [r3, #1036]	; 0x40c
 800879c:	f8d0 20d4 	ldr.w	r2, [r0, #212]	; 0xd4
 80087a0:	f8c3 2414 	str.w	r2, [r3, #1044]	; 0x414
 80087a4:	f8d0 20d8 	ldr.w	r2, [r0, #216]	; 0xd8
 80087a8:	f8c3 2420 	str.w	r2, [r3, #1056]	; 0x420
 80087ac:	f8d0 20dc 	ldr.w	r2, [r0, #220]	; 0xdc
 80087b0:	f8c3 2424 	str.w	r2, [r3, #1060]	; 0x424
 80087b4:	f8d0 20c4 	ldr.w	r2, [r0, #196]	; 0xc4
 80087b8:	f8c3 2400 	str.w	r2, [r3, #1024]	; 0x400
 80087bc:	f8d0 20e4 	ldr.w	r2, [r0, #228]	; 0xe4
 80087c0:	f8c3 2804 	str.w	r2, [r3, #2052]	; 0x804
 80087c4:	f8d0 20e8 	ldr.w	r2, [r0, #232]	; 0xe8
 80087c8:	f8c3 2808 	str.w	r2, [r3, #2056]	; 0x808
 80087cc:	f8d0 20ec 	ldr.w	r2, [r0, #236]	; 0xec
 80087d0:	f8c3 280c 	str.w	r2, [r3, #2060]	; 0x80c
 80087d4:	f8d0 20f0 	ldr.w	r2, [r0, #240]	; 0xf0
 80087d8:	f8c3 2814 	str.w	r2, [r3, #2068]	; 0x814
 80087dc:	f8d0 20f4 	ldr.w	r2, [r0, #244]	; 0xf4
 80087e0:	f8c3 2820 	str.w	r2, [r3, #2080]	; 0x820
 80087e4:	f8d0 20f8 	ldr.w	r2, [r0, #248]	; 0xf8
 80087e8:	f8c3 2824 	str.w	r2, [r3, #2084]	; 0x824
 80087ec:	f8d0 20e0 	ldr.w	r2, [r0, #224]	; 0xe0
 80087f0:	f8c3 2800 	str.w	r2, [r3, #2048]	; 0x800
 80087f4:	9a01      	ldr	r2, [sp, #4]
 80087f6:	6823      	ldr	r3, [r4, #0]
 80087f8:	429a      	cmp	r2, r3
 80087fa:	d101      	bne.n	8008800 <_pal_lld_init+0x1c0>
 80087fc:	b002      	add	sp, #8
 80087fe:	bd70      	pop	{r4, r5, r6, pc}
 8008800:	f7f8 fd2e 	bl	8001260 <__stack_chk_fail>
 8008804:	20000800 	.word	0x20000800
 8008808:	40023800 	.word	0x40023800
 800880c:	40020000 	.word	0x40020000

08008810 <_pal_lld_setgroupmode>:
 8008810:	e92d 4ff0 	stmdb	sp!, {r4, r5, r6, r7, r8, r9, sl, fp, lr}
 8008814:	4b2c      	ldr	r3, [pc, #176]	; (80088c8 <_pal_lld_setgroupmode+0xb8>)
 8008816:	b083      	sub	sp, #12
 8008818:	681b      	ldr	r3, [r3, #0]
 800881a:	9301      	str	r3, [sp, #4]
 800881c:	f002 0803 	and.w	r8, r2, #3
 8008820:	f3c2 0e80 	ubfx	lr, r2, #2, #1
 8008824:	f3c2 0cc1 	ubfx	ip, r2, #3, #2
 8008828:	f3c2 1741 	ubfx	r7, r2, #5, #2
 800882c:	2500      	movs	r5, #0
 800882e:	f3c2 12c3 	ubfx	r2, r2, #7, #4
 8008832:	f04f 0b0f 	mov.w	fp, #15
 8008836:	f04f 0a01 	mov.w	sl, #1
 800883a:	f04f 0903 	mov.w	r9, #3
 800883e:	e027      	b.n	8008890 <_pal_lld_setgroupmode+0x80>
 8008840:	6a06      	ldr	r6, [r0, #32]
 8008842:	4034      	ands	r4, r6
 8008844:	4323      	orrs	r3, r4
 8008846:	6203      	str	r3, [r0, #32]
 8008848:	6843      	ldr	r3, [r0, #4]
 800884a:	fa0a f405 	lsl.w	r4, sl, r5
 800884e:	ea23 0304 	bic.w	r3, r3, r4
 8008852:	ea43 030e 	orr.w	r3, r3, lr
 8008856:	6043      	str	r3, [r0, #4]
 8008858:	006b      	lsls	r3, r5, #1
 800885a:	6884      	ldr	r4, [r0, #8]
 800885c:	fa09 f303 	lsl.w	r3, r9, r3
 8008860:	43db      	mvns	r3, r3
 8008862:	401c      	ands	r4, r3
 8008864:	ea44 040c 	orr.w	r4, r4, ip
 8008868:	6084      	str	r4, [r0, #8]
 800886a:	68c4      	ldr	r4, [r0, #12]
 800886c:	401c      	ands	r4, r3
 800886e:	433c      	orrs	r4, r7
 8008870:	60c4      	str	r4, [r0, #12]
 8008872:	6804      	ldr	r4, [r0, #0]
 8008874:	4023      	ands	r3, r4
 8008876:	ea43 0308 	orr.w	r3, r3, r8
 800887a:	6003      	str	r3, [r0, #0]
 800887c:	0849      	lsrs	r1, r1, #1
 800887e:	d019      	beq.n	80088b4 <_pal_lld_setgroupmode+0xa4>
 8008880:	ea4f 0e4e 	mov.w	lr, lr, lsl #1
 8008884:	ea4f 0c8c 	mov.w	ip, ip, lsl #2
 8008888:	00bf      	lsls	r7, r7, #2
 800888a:	ea4f 0888 	mov.w	r8, r8, lsl #2
 800888e:	3501      	adds	r5, #1
 8008890:	07cb      	lsls	r3, r1, #31
 8008892:	d5f3      	bpl.n	800887c <_pal_lld_setgroupmode+0x6c>
 8008894:	f005 0307 	and.w	r3, r5, #7
 8008898:	009b      	lsls	r3, r3, #2
 800889a:	fa0b f403 	lsl.w	r4, fp, r3
 800889e:	2d07      	cmp	r5, #7
 80088a0:	ea6f 0404 	mvn.w	r4, r4
 80088a4:	fa02 f303 	lsl.w	r3, r2, r3
 80088a8:	d9ca      	bls.n	8008840 <_pal_lld_setgroupmode+0x30>
 80088aa:	6a46      	ldr	r6, [r0, #36]	; 0x24
 80088ac:	4034      	ands	r4, r6
 80088ae:	4323      	orrs	r3, r4
 80088b0:	6243      	str	r3, [r0, #36]	; 0x24
 80088b2:	e7c9      	b.n	8008848 <_pal_lld_setgroupmode+0x38>
 80088b4:	4b04      	ldr	r3, [pc, #16]	; (80088c8 <_pal_lld_setgroupmode+0xb8>)
 80088b6:	9a01      	ldr	r2, [sp, #4]
 80088b8:	681b      	ldr	r3, [r3, #0]
 80088ba:	429a      	cmp	r2, r3
 80088bc:	d102      	bne.n	80088c4 <_pal_lld_setgroupmode+0xb4>
 80088be:	b003      	add	sp, #12
 80088c0:	e8bd 8ff0 	ldmia.w	sp!, {r4, r5, r6, r7, r8, r9, sl, fp, pc}
 80088c4:	f7f8 fccc 	bl	8001260 <__stack_chk_fail>
 80088c8:	20000800 	.word	0x20000800
 80088cc:	00000000 	.word	0x00000000

080088d0 <i2c_lld_serve_tx_end_irq>:
 80088d0:	b570      	push	{r4, r5, r6, lr}
 80088d2:	4d14      	ldr	r5, [pc, #80]	; (8008924 <i2c_lld_serve_tx_end_irq+0x54>)
 80088d4:	6b86      	ldr	r6, [r0, #56]	; 0x38
 80088d6:	682b      	ldr	r3, [r5, #0]
 80088d8:	b082      	sub	sp, #8
 80088da:	f011 0f0c 	tst.w	r1, #12
 80088de:	4604      	mov	r4, r0
 80088e0:	9301      	str	r3, [sp, #4]
 80088e2:	d119      	bne.n	8008918 <i2c_lld_serve_tx_end_irq+0x48>
 80088e4:	6b63      	ldr	r3, [r4, #52]	; 0x34
 80088e6:	681a      	ldr	r2, [r3, #0]
 80088e8:	6813      	ldr	r3, [r2, #0]
 80088ea:	f023 031f 	bic.w	r3, r3, #31
 80088ee:	6013      	str	r3, [r2, #0]
 80088f0:	6b61      	ldr	r1, [r4, #52]	; 0x34
 80088f2:	680a      	ldr	r2, [r1, #0]
 80088f4:	6813      	ldr	r3, [r2, #0]
 80088f6:	07db      	lsls	r3, r3, #31
 80088f8:	d4fc      	bmi.n	80088f4 <i2c_lld_serve_tx_end_irq+0x24>
 80088fa:	7a08      	ldrb	r0, [r1, #8]
 80088fc:	684a      	ldr	r2, [r1, #4]
 80088fe:	233d      	movs	r3, #61	; 0x3d
 8008900:	4083      	lsls	r3, r0
 8008902:	6013      	str	r3, [r2, #0]
 8008904:	6873      	ldr	r3, [r6, #4]
 8008906:	f443 7300 	orr.w	r3, r3, #512	; 0x200
 800890a:	6073      	str	r3, [r6, #4]
 800890c:	9a01      	ldr	r2, [sp, #4]
 800890e:	682b      	ldr	r3, [r5, #0]
 8008910:	429a      	cmp	r2, r3
 8008912:	d105      	bne.n	8008920 <i2c_lld_serve_tx_end_irq+0x50>
 8008914:	b002      	add	sp, #8
 8008916:	bd70      	pop	{r4, r5, r6, pc}
 8008918:	4803      	ldr	r0, [pc, #12]	; (8008928 <i2c_lld_serve_tx_end_irq+0x58>)
 800891a:	f7f9 fe89 	bl	8002630 <chSysHalt>
 800891e:	e7e1      	b.n	80088e4 <i2c_lld_serve_tx_end_irq+0x14>
 8008920:	f7f8 fc9e 	bl	8001260 <__stack_chk_fail>
 8008924:	20000800 	.word	0x20000800
 8008928:	0800f000 	.word	0x0800f000
 800892c:	00000000 	.word	0x00000000

08008930 <i2c_lld_serve_rx_end_irq>:
 8008930:	b5f0      	push	{r4, r5, r6, r7, lr}
 8008932:	4f22      	ldr	r7, [pc, #136]	; (80089bc <i2c_lld_serve_rx_end_irq+0x8c>)
 8008934:	6b85      	ldr	r5, [r0, #56]	; 0x38
 8008936:	683b      	ldr	r3, [r7, #0]
 8008938:	b083      	sub	sp, #12
 800893a:	f011 0f0c 	tst.w	r1, #12
 800893e:	4606      	mov	r6, r0
 8008940:	9301      	str	r3, [sp, #4]
 8008942:	d134      	bne.n	80089ae <i2c_lld_serve_rx_end_irq+0x7e>
 8008944:	6b33      	ldr	r3, [r6, #48]	; 0x30
 8008946:	681a      	ldr	r2, [r3, #0]
 8008948:	6813      	ldr	r3, [r2, #0]
 800894a:	f023 031f 	bic.w	r3, r3, #31
 800894e:	6013      	str	r3, [r2, #0]
 8008950:	6b32      	ldr	r2, [r6, #48]	; 0x30
 8008952:	6813      	ldr	r3, [r2, #0]
 8008954:	681c      	ldr	r4, [r3, #0]
 8008956:	f014 0401 	ands.w	r4, r4, #1
 800895a:	d1fb      	bne.n	8008954 <i2c_lld_serve_rx_end_irq+0x24>
 800895c:	7a11      	ldrb	r1, [r2, #8]
 800895e:	6852      	ldr	r2, [r2, #4]
 8008960:	233d      	movs	r3, #61	; 0x3d
 8008962:	408b      	lsls	r3, r1
 8008964:	6013      	str	r3, [r2, #0]
 8008966:	686b      	ldr	r3, [r5, #4]
 8008968:	f423 5380 	bic.w	r3, r3, #4096	; 0x1000
 800896c:	606b      	str	r3, [r5, #4]
 800896e:	682b      	ldr	r3, [r5, #0]
 8008970:	f423 6380 	bic.w	r3, r3, #1024	; 0x400
 8008974:	602b      	str	r3, [r5, #0]
 8008976:	682b      	ldr	r3, [r5, #0]
 8008978:	f443 7300 	orr.w	r3, r3, #512	; 0x200
 800897c:	602b      	str	r3, [r5, #0]
 800897e:	2320      	movs	r3, #32
 8008980:	f383 8811 	msr	BASEPRI, r3
 8008984:	f7fa ff1c 	bl	80037c0 <_stats_start_measure_crit_isr>
 8008988:	f7f9 ff32 	bl	80027f0 <_dbg_check_lock_from_isr>
 800898c:	4621      	mov	r1, r4
 800898e:	f106 0020 	add.w	r0, r6, #32
 8008992:	f7fa fd15 	bl	80033c0 <chThdResumeI>
 8008996:	f7f9 ff4b 	bl	8002830 <_dbg_check_unlock_from_isr>
 800899a:	f7fa ff29 	bl	80037f0 <_stats_stop_measure_crit_isr>
 800899e:	f384 8811 	msr	BASEPRI, r4
 80089a2:	9a01      	ldr	r2, [sp, #4]
 80089a4:	683b      	ldr	r3, [r7, #0]
 80089a6:	429a      	cmp	r2, r3
 80089a8:	d105      	bne.n	80089b6 <i2c_lld_serve_rx_end_irq+0x86>
 80089aa:	b003      	add	sp, #12
 80089ac:	bdf0      	pop	{r4, r5, r6, r7, pc}
 80089ae:	4804      	ldr	r0, [pc, #16]	; (80089c0 <i2c_lld_serve_rx_end_irq+0x90>)
 80089b0:	f7f9 fe3e 	bl	8002630 <chSysHalt>
 80089b4:	e7c6      	b.n	8008944 <i2c_lld_serve_rx_end_irq+0x14>
 80089b6:	f7f8 fc53 	bl	8001260 <__stack_chk_fail>
 80089ba:	bf00      	nop
 80089bc:	20000800 	.word	0x20000800
 80089c0:	0800f000 	.word	0x0800f000
	...

080089d0 <VectorBC>:
 80089d0:	e92d 41f0 	stmdb	sp!, {r4, r5, r6, r7, r8, lr}
 80089d4:	4e47      	ldr	r6, [pc, #284]	; (8008af4 <VectorBC+0x124>)
 80089d6:	4d48      	ldr	r5, [pc, #288]	; (8008af8 <VectorBC+0x128>)
 80089d8:	6833      	ldr	r3, [r6, #0]
 80089da:	b082      	sub	sp, #8
 80089dc:	9301      	str	r3, [sp, #4]
 80089de:	f7fa fe87 	bl	80036f0 <_stats_increase_irq>
 80089e2:	f7f9 ff45 	bl	8002870 <_dbg_check_enter_isr>
 80089e6:	6bac      	ldr	r4, [r5, #56]	; 0x38
 80089e8:	4a44      	ldr	r2, [pc, #272]	; (8008afc <VectorBC+0x12c>)
 80089ea:	69a3      	ldr	r3, [r4, #24]
 80089ec:	6967      	ldr	r7, [r4, #20]
 80089ee:	ea47 4303 	orr.w	r3, r7, r3, lsl #16
 80089f2:	f023 437f 	bic.w	r3, r3, #4278190080	; 0xff000000
 80089f6:	4293      	cmp	r3, r2
 80089f8:	d04e      	beq.n	8008a98 <VectorBC+0xc8>
 80089fa:	d82b      	bhi.n	8008a54 <VectorBC+0x84>
 80089fc:	3a07      	subs	r2, #7
 80089fe:	4293      	cmp	r3, r2
 8008a00:	d03e      	beq.n	8008a80 <VectorBC+0xb0>
 8008a02:	3201      	adds	r2, #1
 8008a04:	4293      	cmp	r3, r2
 8008a06:	d116      	bne.n	8008a36 <VectorBC+0x66>
 8008a08:	6863      	ldr	r3, [r4, #4]
 8008a0a:	f423 7300 	bic.w	r3, r3, #512	; 0x200
 8008a0e:	6063      	str	r3, [r4, #4]
 8008a10:	6b2b      	ldr	r3, [r5, #48]	; 0x30
 8008a12:	681a      	ldr	r2, [r3, #0]
 8008a14:	6813      	ldr	r3, [r2, #0]
 8008a16:	f043 0301 	orr.w	r3, r3, #1
 8008a1a:	6013      	str	r3, [r2, #0]
 8008a1c:	6863      	ldr	r3, [r4, #4]
 8008a1e:	f443 5380 	orr.w	r3, r3, #4096	; 0x1000
 8008a22:	6063      	str	r3, [r4, #4]
 8008a24:	6b2b      	ldr	r3, [r5, #48]	; 0x30
 8008a26:	681b      	ldr	r3, [r3, #0]
 8008a28:	685b      	ldr	r3, [r3, #4]
 8008a2a:	2b01      	cmp	r3, #1
 8008a2c:	d803      	bhi.n	8008a36 <VectorBC+0x66>
 8008a2e:	6823      	ldr	r3, [r4, #0]
 8008a30:	f423 6380 	bic.w	r3, r3, #1024	; 0x400
 8008a34:	6023      	str	r3, [r4, #0]
 8008a36:	f017 0f0a 	tst.w	r7, #10
 8008a3a:	bf18      	it	ne
 8008a3c:	69a3      	ldrne	r3, [r4, #24]
 8008a3e:	f7f9 ff3f 	bl	80028c0 <_dbg_check_leave_isr>
 8008a42:	9a01      	ldr	r2, [sp, #4]
 8008a44:	6833      	ldr	r3, [r6, #0]
 8008a46:	429a      	cmp	r2, r3
 8008a48:	d151      	bne.n	8008aee <VectorBC+0x11e>
 8008a4a:	b002      	add	sp, #8
 8008a4c:	e8bd 41f0 	ldmia.w	sp!, {r4, r5, r6, r7, r8, lr}
 8008a50:	f7fb bc46 	b.w	80042e0 <_port_irq_epilogue>
 8008a54:	4a2a      	ldr	r2, [pc, #168]	; (8008b00 <VectorBC+0x130>)
 8008a56:	4293      	cmp	r3, r2
 8008a58:	d023      	beq.n	8008aa2 <VectorBC+0xd2>
 8008a5a:	3202      	adds	r2, #2
 8008a5c:	4293      	cmp	r3, r2
 8008a5e:	d1ea      	bne.n	8008a36 <VectorBC+0x66>
 8008a60:	6b2b      	ldr	r3, [r5, #48]	; 0x30
 8008a62:	681b      	ldr	r3, [r3, #0]
 8008a64:	f8d3 8004 	ldr.w	r8, [r3, #4]
 8008a68:	f1b8 0f00 	cmp.w	r8, #0
 8008a6c:	d024      	beq.n	8008ab8 <VectorBC+0xe8>
 8008a6e:	8cab      	ldrh	r3, [r5, #36]	; 0x24
 8008a70:	f043 0301 	orr.w	r3, r3, #1
 8008a74:	84ab      	strh	r3, [r5, #36]	; 0x24
 8008a76:	6823      	ldr	r3, [r4, #0]
 8008a78:	f443 63a0 	orr.w	r3, r3, #1280	; 0x500
 8008a7c:	6023      	str	r3, [r4, #0]
 8008a7e:	e7de      	b.n	8008a3e <VectorBC+0x6e>
 8008a80:	8cab      	ldrh	r3, [r5, #36]	; 0x24
 8008a82:	0a1a      	lsrs	r2, r3, #8
 8008a84:	d00b      	beq.n	8008a9e <VectorBC+0xce>
 8008a86:	f003 0301 	and.w	r3, r3, #1
 8008a8a:	f043 03f0 	orr.w	r3, r3, #240	; 0xf0
 8008a8e:	f002 0206 	and.w	r2, r2, #6
 8008a92:	4313      	orrs	r3, r2
 8008a94:	6123      	str	r3, [r4, #16]
 8008a96:	e7ce      	b.n	8008a36 <VectorBC+0x66>
 8008a98:	8cab      	ldrh	r3, [r5, #36]	; 0x24
 8008a9a:	f3c3 0347 	ubfx	r3, r3, #1, #8
 8008a9e:	6123      	str	r3, [r4, #16]
 8008aa0:	e7c9      	b.n	8008a36 <VectorBC+0x66>
 8008aa2:	6863      	ldr	r3, [r4, #4]
 8008aa4:	f423 7300 	bic.w	r3, r3, #512	; 0x200
 8008aa8:	6063      	str	r3, [r4, #4]
 8008aaa:	6b6b      	ldr	r3, [r5, #52]	; 0x34
 8008aac:	681a      	ldr	r2, [r3, #0]
 8008aae:	6813      	ldr	r3, [r2, #0]
 8008ab0:	f043 0301 	orr.w	r3, r3, #1
 8008ab4:	6013      	str	r3, [r2, #0]
 8008ab6:	e7be      	b.n	8008a36 <VectorBC+0x66>
 8008ab8:	6863      	ldr	r3, [r4, #4]
 8008aba:	f423 7300 	bic.w	r3, r3, #512	; 0x200
 8008abe:	6063      	str	r3, [r4, #4]
 8008ac0:	6823      	ldr	r3, [r4, #0]
 8008ac2:	f443 7300 	orr.w	r3, r3, #512	; 0x200
 8008ac6:	6023      	str	r3, [r4, #0]
 8008ac8:	2320      	movs	r3, #32
 8008aca:	f383 8811 	msr	BASEPRI, r3
 8008ace:	f7fa fe77 	bl	80037c0 <_stats_start_measure_crit_isr>
 8008ad2:	f7f9 fe8d 	bl	80027f0 <_dbg_check_lock_from_isr>
 8008ad6:	4641      	mov	r1, r8
 8008ad8:	f105 0020 	add.w	r0, r5, #32
 8008adc:	f7fa fc70 	bl	80033c0 <chThdResumeI>
 8008ae0:	f7f9 fea6 	bl	8002830 <_dbg_check_unlock_from_isr>
 8008ae4:	f7fa fe84 	bl	80037f0 <_stats_stop_measure_crit_isr>
 8008ae8:	f388 8811 	msr	BASEPRI, r8
 8008aec:	e7a3      	b.n	8008a36 <VectorBC+0x66>
 8008aee:	f7f8 fbb7 	bl	8001260 <__stack_chk_fail>
 8008af2:	bf00      	nop
 8008af4:	20000800 	.word	0x20000800
 8008af8:	20001fc0 	.word	0x20001fc0
 8008afc:	00030008 	.word	0x00030008
 8008b00:	00070082 	.word	0x00070082
	...

08008b10 <VectorC0>:
 8008b10:	b5f0      	push	{r4, r5, r6, r7, lr}
 8008b12:	4c44      	ldr	r4, [pc, #272]	; (8008c24 <VectorC0+0x114>)
 8008b14:	4d44      	ldr	r5, [pc, #272]	; (8008c28 <VectorC0+0x118>)
 8008b16:	6ba3      	ldr	r3, [r4, #56]	; 0x38
 8008b18:	682a      	ldr	r2, [r5, #0]
 8008b1a:	b083      	sub	sp, #12
 8008b1c:	9201      	str	r2, [sp, #4]
 8008b1e:	695e      	ldr	r6, [r3, #20]
 8008b20:	f7fa fde6 	bl	80036f0 <_stats_increase_irq>
 8008b24:	f7f9 fea4 	bl	8002870 <_dbg_check_enter_isr>
 8008b28:	6ba2      	ldr	r2, [r4, #56]	; 0x38
 8008b2a:	f406 435f 	and.w	r3, r6, #57088	; 0xdf00
 8008b2e:	43db      	mvns	r3, r3
 8008b30:	6153      	str	r3, [r2, #20]
 8008b32:	6b63      	ldr	r3, [r4, #52]	; 0x34
 8008b34:	681a      	ldr	r2, [r3, #0]
 8008b36:	6813      	ldr	r3, [r2, #0]
 8008b38:	f023 031f 	bic.w	r3, r3, #31
 8008b3c:	6013      	str	r3, [r2, #0]
 8008b3e:	6b60      	ldr	r0, [r4, #52]	; 0x34
 8008b40:	6801      	ldr	r1, [r0, #0]
 8008b42:	b2b2      	uxth	r2, r6
 8008b44:	680b      	ldr	r3, [r1, #0]
 8008b46:	07db      	lsls	r3, r3, #31
 8008b48:	d4fc      	bmi.n	8008b44 <VectorC0+0x34>
 8008b4a:	7a07      	ldrb	r7, [r0, #8]
 8008b4c:	6841      	ldr	r1, [r0, #4]
 8008b4e:	233d      	movs	r3, #61	; 0x3d
 8008b50:	40bb      	lsls	r3, r7
 8008b52:	600b      	str	r3, [r1, #0]
 8008b54:	6b23      	ldr	r3, [r4, #48]	; 0x30
 8008b56:	6819      	ldr	r1, [r3, #0]
 8008b58:	680b      	ldr	r3, [r1, #0]
 8008b5a:	f023 031f 	bic.w	r3, r3, #31
 8008b5e:	600b      	str	r3, [r1, #0]
 8008b60:	6b20      	ldr	r0, [r4, #48]	; 0x30
 8008b62:	6801      	ldr	r1, [r0, #0]
 8008b64:	680b      	ldr	r3, [r1, #0]
 8008b66:	07df      	lsls	r7, r3, #31
 8008b68:	d4fc      	bmi.n	8008b64 <VectorC0+0x54>
 8008b6a:	7a07      	ldrb	r7, [r0, #8]
 8008b6c:	6841      	ldr	r1, [r0, #4]
 8008b6e:	233d      	movs	r3, #61	; 0x3d
 8008b70:	40bb      	lsls	r3, r7
 8008b72:	600b      	str	r3, [r1, #0]
 8008b74:	f412 7380 	ands.w	r3, r2, #256	; 0x100
 8008b78:	bf18      	it	ne
 8008b7a:	2301      	movne	r3, #1
 8008b7c:	60a3      	str	r3, [r4, #8]
 8008b7e:	0593      	lsls	r3, r2, #22
 8008b80:	d503      	bpl.n	8008b8a <VectorC0+0x7a>
 8008b82:	68a3      	ldr	r3, [r4, #8]
 8008b84:	f043 0302 	orr.w	r3, r3, #2
 8008b88:	60a3      	str	r3, [r4, #8]
 8008b8a:	0557      	lsls	r7, r2, #21
 8008b8c:	d430      	bmi.n	8008bf0 <VectorC0+0xe0>
 8008b8e:	68a3      	ldr	r3, [r4, #8]
 8008b90:	0510      	lsls	r0, r2, #20
 8008b92:	bf44      	itt	mi
 8008b94:	f043 0308 	orrmi.w	r3, r3, #8
 8008b98:	60a3      	strmi	r3, [r4, #8]
 8008b9a:	0451      	lsls	r1, r2, #17
 8008b9c:	bf44      	itt	mi
 8008b9e:	f043 0320 	orrmi.w	r3, r3, #32
 8008ba2:	60a3      	strmi	r3, [r4, #8]
 8008ba4:	04d2      	lsls	r2, r2, #19
 8008ba6:	b236      	sxth	r6, r6
 8008ba8:	d531      	bpl.n	8008c0e <VectorC0+0xfe>
 8008baa:	f043 0310 	orr.w	r3, r3, #16
 8008bae:	2e00      	cmp	r6, #0
 8008bb0:	60a3      	str	r3, [r4, #8]
 8008bb2:	db31      	blt.n	8008c18 <VectorC0+0x108>
 8008bb4:	2320      	movs	r3, #32
 8008bb6:	f383 8811 	msr	BASEPRI, r3
 8008bba:	f7fa fe01 	bl	80037c0 <_stats_start_measure_crit_isr>
 8008bbe:	f7f9 fe17 	bl	80027f0 <_dbg_check_lock_from_isr>
 8008bc2:	f06f 0101 	mvn.w	r1, #1
 8008bc6:	4819      	ldr	r0, [pc, #100]	; (8008c2c <VectorC0+0x11c>)
 8008bc8:	f7fa fbfa 	bl	80033c0 <chThdResumeI>
 8008bcc:	f7f9 fe30 	bl	8002830 <_dbg_check_unlock_from_isr>
 8008bd0:	f7fa fe0e 	bl	80037f0 <_stats_stop_measure_crit_isr>
 8008bd4:	2300      	movs	r3, #0
 8008bd6:	f383 8811 	msr	BASEPRI, r3
 8008bda:	f7f9 fe71 	bl	80028c0 <_dbg_check_leave_isr>
 8008bde:	9a01      	ldr	r2, [sp, #4]
 8008be0:	682b      	ldr	r3, [r5, #0]
 8008be2:	429a      	cmp	r2, r3
 8008be4:	d11c      	bne.n	8008c20 <VectorC0+0x110>
 8008be6:	b003      	add	sp, #12
 8008be8:	e8bd 40f0 	ldmia.w	sp!, {r4, r5, r6, r7, lr}
 8008bec:	f7fb bb78 	b.w	80042e0 <_port_irq_epilogue>
 8008bf0:	6ba1      	ldr	r1, [r4, #56]	; 0x38
 8008bf2:	684b      	ldr	r3, [r1, #4]
 8008bf4:	f423 7300 	bic.w	r3, r3, #512	; 0x200
 8008bf8:	604b      	str	r3, [r1, #4]
 8008bfa:	6ba1      	ldr	r1, [r4, #56]	; 0x38
 8008bfc:	680b      	ldr	r3, [r1, #0]
 8008bfe:	f443 7300 	orr.w	r3, r3, #512	; 0x200
 8008c02:	600b      	str	r3, [r1, #0]
 8008c04:	68a3      	ldr	r3, [r4, #8]
 8008c06:	f043 0304 	orr.w	r3, r3, #4
 8008c0a:	60a3      	str	r3, [r4, #8]
 8008c0c:	e7c0      	b.n	8008b90 <VectorC0+0x80>
 8008c0e:	2e00      	cmp	r6, #0
 8008c10:	db02      	blt.n	8008c18 <VectorC0+0x108>
 8008c12:	2b00      	cmp	r3, #0
 8008c14:	d0e1      	beq.n	8008bda <VectorC0+0xca>
 8008c16:	e7cd      	b.n	8008bb4 <VectorC0+0xa4>
 8008c18:	f043 0340 	orr.w	r3, r3, #64	; 0x40
 8008c1c:	60a3      	str	r3, [r4, #8]
 8008c1e:	e7c9      	b.n	8008bb4 <VectorC0+0xa4>
 8008c20:	f7f8 fb1e 	bl	8001260 <__stack_chk_fail>
 8008c24:	20001fc0 	.word	0x20001fc0
 8008c28:	20000800 	.word	0x20000800
 8008c2c:	20001fe0 	.word	0x20001fe0

08008c30 <i2c_lld_init>:
 8008c30:	b530      	push	{r4, r5, lr}
 8008c32:	4c0c      	ldr	r4, [pc, #48]	; (8008c64 <i2c_lld_init+0x34>)
 8008c34:	4d0c      	ldr	r5, [pc, #48]	; (8008c68 <i2c_lld_init+0x38>)
 8008c36:	b083      	sub	sp, #12
 8008c38:	682b      	ldr	r3, [r5, #0]
 8008c3a:	9301      	str	r3, [sp, #4]
 8008c3c:	4620      	mov	r0, r4
 8008c3e:	f7fb fd97 	bl	8004770 <i2cObjectInit>
 8008c42:	4b0a      	ldr	r3, [pc, #40]	; (8008c6c <i2c_lld_init+0x3c>)
 8008c44:	9901      	ldr	r1, [sp, #4]
 8008c46:	682a      	ldr	r2, [r5, #0]
 8008c48:	4809      	ldr	r0, [pc, #36]	; (8008c70 <i2c_lld_init+0x40>)
 8008c4a:	63a0      	str	r0, [r4, #56]	; 0x38
 8008c4c:	2500      	movs	r5, #0
 8008c4e:	f103 0054 	add.w	r0, r3, #84	; 0x54
 8008c52:	4291      	cmp	r1, r2
 8008c54:	6225      	str	r5, [r4, #32]
 8008c56:	e9c4 300c 	strd	r3, r0, [r4, #48]	; 0x30
 8008c5a:	d101      	bne.n	8008c60 <i2c_lld_init+0x30>
 8008c5c:	b003      	add	sp, #12
 8008c5e:	bd30      	pop	{r4, r5, pc}
 8008c60:	f7f8 fafe 	bl	8001260 <__stack_chk_fail>
 8008c64:	20001fc0 	.word	0x20001fc0
 8008c68:	20000800 	.word	0x20000800
 8008c6c:	0800ee70 	.word	0x0800ee70
 8008c70:	40005400 	.word	0x40005400
	...

08008c80 <i2c_lld_start>:
 8008c80:	e92d 43f0 	stmdb	sp!, {r4, r5, r6, r7, r8, r9, lr}
 8008c84:	4f90      	ldr	r7, [pc, #576]	; (8008ec8 <i2c_lld_start+0x248>)
 8008c86:	7803      	ldrb	r3, [r0, #0]
 8008c88:	683a      	ldr	r2, [r7, #0]
 8008c8a:	6b86      	ldr	r6, [r0, #56]	; 0x38
 8008c8c:	b083      	sub	sp, #12
 8008c8e:	f240 4156 	movw	r1, #1110	; 0x456
 8008c92:	9201      	str	r2, [sp, #4]
 8008c94:	2b01      	cmp	r3, #1
 8008c96:	f240 4216 	movw	r2, #1046	; 0x416
 8008c9a:	4604      	mov	r4, r0
 8008c9c:	e9c0 210a 	strd	r2, r1, [r0, #40]	; 0x28
 8008ca0:	f000 8094 	beq.w	8008dcc <i2c_lld_start+0x14c>
 8008ca4:	6b23      	ldr	r3, [r4, #48]	; 0x30
 8008ca6:	4a89      	ldr	r2, [pc, #548]	; (8008ecc <i2c_lld_start+0x24c>)
 8008ca8:	6819      	ldr	r1, [r3, #0]
 8008caa:	f106 0310 	add.w	r3, r6, #16
 8008cae:	608b      	str	r3, [r1, #8]
 8008cb0:	6b61      	ldr	r1, [r4, #52]	; 0x34
 8008cb2:	f8d1 c000 	ldr.w	ip, [r1]
 8008cb6:	f44f 4500 	mov.w	r5, #32768	; 0x8000
 8008cba:	2000      	movs	r0, #0
 8008cbc:	f44f 6110 	mov.w	r1, #2304	; 0x900
 8008cc0:	f8cc 3008 	str.w	r3, [ip, #8]
 8008cc4:	6035      	str	r5, [r6, #0]
 8008cc6:	6030      	str	r0, [r6, #0]
 8008cc8:	6071      	str	r1, [r6, #4]
 8008cca:	6863      	ldr	r3, [r4, #4]
 8008ccc:	f8d4 8038 	ldr.w	r8, [r4, #56]	; 0x38
 8008cd0:	685d      	ldr	r5, [r3, #4]
 8008cd2:	f893 9008 	ldrb.w	r9, [r3, #8]
 8008cd6:	1e6b      	subs	r3, r5, #1
 8008cd8:	4293      	cmp	r3, r2
 8008cda:	d902      	bls.n	8008ce2 <i2c_lld_start+0x62>
 8008cdc:	487c      	ldr	r0, [pc, #496]	; (8008ed0 <i2c_lld_start+0x250>)
 8008cde:	f7f9 fca7 	bl	8002630 <chSysHalt>
 8008ce2:	f8d8 3004 	ldr.w	r3, [r8, #4]
 8008ce6:	4a7b      	ldr	r2, [pc, #492]	; (8008ed4 <i2c_lld_start+0x254>)
 8008ce8:	f64f 71c0 	movw	r1, #65472	; 0xffc0
 8008cec:	400b      	ands	r3, r1
 8008cee:	f8c8 3004 	str.w	r3, [r8, #4]
 8008cf2:	f8d8 3004 	ldr.w	r3, [r8, #4]
 8008cf6:	4295      	cmp	r5, r2
 8008cf8:	f043 032a 	orr.w	r3, r3, #42	; 0x2a
 8008cfc:	f8c8 3004 	str.w	r3, [r8, #4]
 8008d00:	dc3b      	bgt.n	8008d7a <i2c_lld_start+0xfa>
 8008d02:	f1b9 0f01 	cmp.w	r9, #1
 8008d06:	d15a      	bne.n	8008dbe <i2c_lld_start+0x13e>
 8008d08:	4a73      	ldr	r2, [pc, #460]	; (8008ed8 <i2c_lld_start+0x258>)
 8008d0a:	ea4f 0945 	mov.w	r9, r5, lsl #1
 8008d0e:	fbb2 f3f9 	udiv	r3, r2, r9
 8008d12:	fb09 2313 	mls	r3, r9, r3, r2
 8008d16:	2b00      	cmp	r3, #0
 8008d18:	f040 809a 	bne.w	8008e50 <i2c_lld_start+0x1d0>
 8008d1c:	4d6e      	ldr	r5, [pc, #440]	; (8008ed8 <i2c_lld_start+0x258>)
 8008d1e:	fbb5 f5f9 	udiv	r5, r5, r9
 8008d22:	b2ad      	uxth	r5, r5
 8008d24:	2d03      	cmp	r5, #3
 8008d26:	f240 808a 	bls.w	8008e3e <i2c_lld_start+0x1be>
 8008d2a:	232b      	movs	r3, #43	; 0x2b
 8008d2c:	f5b5 5f80 	cmp.w	r5, #4096	; 0x1000
 8008d30:	f8c8 3020 	str.w	r3, [r8, #32]
 8008d34:	f3c5 090b 	ubfx	r9, r5, #0, #12
 8008d38:	d302      	bcc.n	8008d40 <i2c_lld_start+0xc0>
 8008d3a:	4865      	ldr	r0, [pc, #404]	; (8008ed0 <i2c_lld_start+0x250>)
 8008d3c:	f7f9 fc78 	bl	8002630 <chSysHalt>
 8008d40:	f8c8 901c 	str.w	r9, [r8, #28]
 8008d44:	6862      	ldr	r2, [r4, #4]
 8008d46:	6ba1      	ldr	r1, [r4, #56]	; 0x38
 8008d48:	7812      	ldrb	r2, [r2, #0]
 8008d4a:	680b      	ldr	r3, [r1, #0]
 8008d4c:	2a02      	cmp	r2, #2
 8008d4e:	b29b      	uxth	r3, r3
 8008d50:	d06f      	beq.n	8008e32 <i2c_lld_start+0x1b2>
 8008d52:	2a03      	cmp	r2, #3
 8008d54:	d06a      	beq.n	8008e2c <i2c_lld_start+0x1ac>
 8008d56:	2a01      	cmp	r2, #1
 8008d58:	d102      	bne.n	8008d60 <i2c_lld_start+0xe0>
 8008d5a:	f023 030a 	bic.w	r3, r3, #10
 8008d5e:	b29b      	uxth	r3, r3
 8008d60:	600b      	str	r3, [r1, #0]
 8008d62:	6833      	ldr	r3, [r6, #0]
 8008d64:	f043 0301 	orr.w	r3, r3, #1
 8008d68:	6033      	str	r3, [r6, #0]
 8008d6a:	9a01      	ldr	r2, [sp, #4]
 8008d6c:	683b      	ldr	r3, [r7, #0]
 8008d6e:	429a      	cmp	r2, r3
 8008d70:	f040 80a7 	bne.w	8008ec2 <i2c_lld_start+0x242>
 8008d74:	b003      	add	sp, #12
 8008d76:	e8bd 83f0 	ldmia.w	sp!, {r4, r5, r6, r7, r8, r9, pc}
 8008d7a:	4b58      	ldr	r3, [pc, #352]	; (8008edc <i2c_lld_start+0x25c>)
 8008d7c:	429d      	cmp	r5, r3
 8008d7e:	dc22      	bgt.n	8008dc6 <i2c_lld_start+0x146>
 8008d80:	f1a9 0302 	sub.w	r3, r9, #2
 8008d84:	2b01      	cmp	r3, #1
 8008d86:	d86e      	bhi.n	8008e66 <i2c_lld_start+0x1e6>
 8008d88:	f1b9 0f02 	cmp.w	r9, #2
 8008d8c:	d174      	bne.n	8008e78 <i2c_lld_start+0x1f8>
 8008d8e:	4a52      	ldr	r2, [pc, #328]	; (8008ed8 <i2c_lld_start+0x258>)
 8008d90:	eb05 0545 	add.w	r5, r5, r5, lsl #1
 8008d94:	fbb2 f3f5 	udiv	r3, r2, r5
 8008d98:	fb05 2313 	mls	r3, r5, r3, r2
 8008d9c:	2b00      	cmp	r3, #0
 8008d9e:	f040 808c 	bne.w	8008eba <i2c_lld_start+0x23a>
 8008da2:	4b4d      	ldr	r3, [pc, #308]	; (8008ed8 <i2c_lld_start+0x258>)
 8008da4:	fbb3 f9f5 	udiv	r9, r3, r5
 8008da8:	2300      	movs	r3, #0
 8008daa:	fa1f f989 	uxth.w	r9, r9
 8008dae:	ea49 0903 	orr.w	r9, r9, r3
 8008db2:	230d      	movs	r3, #13
 8008db4:	f449 4900 	orr.w	r9, r9, #32768	; 0x8000
 8008db8:	f8c8 3020 	str.w	r3, [r8, #32]
 8008dbc:	e7c0      	b.n	8008d40 <i2c_lld_start+0xc0>
 8008dbe:	4844      	ldr	r0, [pc, #272]	; (8008ed0 <i2c_lld_start+0x250>)
 8008dc0:	f7f9 fc36 	bl	8002630 <chSysHalt>
 8008dc4:	e7a0      	b.n	8008d08 <i2c_lld_start+0x88>
 8008dc6:	f04f 0900 	mov.w	r9, #0
 8008dca:	e7b9      	b.n	8008d40 <i2c_lld_start+0xc0>
 8008dcc:	4d44      	ldr	r5, [pc, #272]	; (8008ee0 <i2c_lld_start+0x260>)
 8008dce:	42a8      	cmp	r0, r5
 8008dd0:	f47f af68 	bne.w	8008ca4 <i2c_lld_start+0x24>
 8008dd4:	4b43      	ldr	r3, [pc, #268]	; (8008ee4 <i2c_lld_start+0x264>)
 8008dd6:	4a44      	ldr	r2, [pc, #272]	; (8008ee8 <i2c_lld_start+0x268>)
 8008dd8:	6a19      	ldr	r1, [r3, #32]
 8008dda:	2000      	movs	r0, #0
 8008ddc:	f441 1100 	orr.w	r1, r1, #2097152	; 0x200000
 8008de0:	6219      	str	r1, [r3, #32]
 8008de2:	6218      	str	r0, [r3, #32]
 8008de4:	6b20      	ldr	r0, [r4, #48]	; 0x30
 8008de6:	4623      	mov	r3, r4
 8008de8:	2105      	movs	r1, #5
 8008dea:	f7fe f861 	bl	8006eb0 <dmaStreamAllocate>
 8008dee:	2800      	cmp	r0, #0
 8008df0:	d15f      	bne.n	8008eb2 <i2c_lld_start+0x232>
 8008df2:	4b3b      	ldr	r3, [pc, #236]	; (8008ee0 <i2c_lld_start+0x260>)
 8008df4:	4a3d      	ldr	r2, [pc, #244]	; (8008eec <i2c_lld_start+0x26c>)
 8008df6:	6b68      	ldr	r0, [r5, #52]	; 0x34
 8008df8:	2105      	movs	r1, #5
 8008dfa:	f7fe f859 	bl	8006eb0 <dmaStreamAllocate>
 8008dfe:	2800      	cmp	r0, #0
 8008e00:	d153      	bne.n	8008eaa <i2c_lld_start+0x22a>
 8008e02:	4a38      	ldr	r2, [pc, #224]	; (8008ee4 <i2c_lld_start+0x264>)
 8008e04:	6c13      	ldr	r3, [r2, #64]	; 0x40
 8008e06:	f443 1300 	orr.w	r3, r3, #2097152	; 0x200000
 8008e0a:	6413      	str	r3, [r2, #64]	; 0x40
 8008e0c:	2105      	movs	r1, #5
 8008e0e:	201f      	movs	r0, #31
 8008e10:	f7fd fd2e 	bl	8006870 <nvicEnableVector>
 8008e14:	2105      	movs	r1, #5
 8008e16:	2020      	movs	r0, #32
 8008e18:	f7fd fd2a 	bl	8006870 <nvicEnableVector>
 8008e1c:	6aaa      	ldr	r2, [r5, #40]	; 0x28
 8008e1e:	4934      	ldr	r1, [pc, #208]	; (8008ef0 <i2c_lld_start+0x270>)
 8008e20:	6aeb      	ldr	r3, [r5, #44]	; 0x2c
 8008e22:	430a      	orrs	r2, r1
 8008e24:	430b      	orrs	r3, r1
 8008e26:	e9c5 230a 	strd	r2, r3, [r5, #40]	; 0x28
 8008e2a:	e73b      	b.n	8008ca4 <i2c_lld_start+0x24>
 8008e2c:	f043 030a 	orr.w	r3, r3, #10
 8008e30:	e796      	b.n	8008d60 <i2c_lld_start+0xe0>
 8008e32:	f023 0308 	bic.w	r3, r3, #8
 8008e36:	b29b      	uxth	r3, r3
 8008e38:	f043 0302 	orr.w	r3, r3, #2
 8008e3c:	e790      	b.n	8008d60 <i2c_lld_start+0xe0>
 8008e3e:	4824      	ldr	r0, [pc, #144]	; (8008ed0 <i2c_lld_start+0x250>)
 8008e40:	f7f9 fbf6 	bl	8002630 <chSysHalt>
 8008e44:	232b      	movs	r3, #43	; 0x2b
 8008e46:	f3c5 090b 	ubfx	r9, r5, #0, #12
 8008e4a:	f8c8 3020 	str.w	r3, [r8, #32]
 8008e4e:	e777      	b.n	8008d40 <i2c_lld_start+0xc0>
 8008e50:	481f      	ldr	r0, [pc, #124]	; (8008ed0 <i2c_lld_start+0x250>)
 8008e52:	4d21      	ldr	r5, [pc, #132]	; (8008ed8 <i2c_lld_start+0x258>)
 8008e54:	f7f9 fbec 	bl	8002630 <chSysHalt>
 8008e58:	fbb5 f5f9 	udiv	r5, r5, r9
 8008e5c:	b2ad      	uxth	r5, r5
 8008e5e:	2d03      	cmp	r5, #3
 8008e60:	f63f af63 	bhi.w	8008d2a <i2c_lld_start+0xaa>
 8008e64:	e7eb      	b.n	8008e3e <i2c_lld_start+0x1be>
 8008e66:	481a      	ldr	r0, [pc, #104]	; (8008ed0 <i2c_lld_start+0x250>)
 8008e68:	f7f9 fbe2 	bl	8002630 <chSysHalt>
 8008e6c:	230d      	movs	r3, #13
 8008e6e:	f8c8 3020 	str.w	r3, [r8, #32]
 8008e72:	f648 79ff 	movw	r9, #36863	; 0x8fff
 8008e76:	e763      	b.n	8008d40 <i2c_lld_start+0xc0>
 8008e78:	f1b9 0f03 	cmp.w	r9, #3
 8008e7c:	d1f6      	bne.n	8008e6c <i2c_lld_start+0x1ec>
 8008e7e:	4a16      	ldr	r2, [pc, #88]	; (8008ed8 <i2c_lld_start+0x258>)
 8008e80:	eb05 0585 	add.w	r5, r5, r5, lsl #2
 8008e84:	eb05 0585 	add.w	r5, r5, r5, lsl #2
 8008e88:	fbb2 f3f5 	udiv	r3, r2, r5
 8008e8c:	fb05 2313 	mls	r3, r5, r3, r2
 8008e90:	b93b      	cbnz	r3, 8008ea2 <i2c_lld_start+0x222>
 8008e92:	4b11      	ldr	r3, [pc, #68]	; (8008ed8 <i2c_lld_start+0x258>)
 8008e94:	fbb3 f5f5 	udiv	r5, r3, r5
 8008e98:	f44f 4380 	mov.w	r3, #16384	; 0x4000
 8008e9c:	fa1f f985 	uxth.w	r9, r5
 8008ea0:	e785      	b.n	8008dae <i2c_lld_start+0x12e>
 8008ea2:	480b      	ldr	r0, [pc, #44]	; (8008ed0 <i2c_lld_start+0x250>)
 8008ea4:	f7f9 fbc4 	bl	8002630 <chSysHalt>
 8008ea8:	e7f3      	b.n	8008e92 <i2c_lld_start+0x212>
 8008eaa:	4812      	ldr	r0, [pc, #72]	; (8008ef4 <i2c_lld_start+0x274>)
 8008eac:	f7f9 fbc0 	bl	8002630 <chSysHalt>
 8008eb0:	e7a7      	b.n	8008e02 <i2c_lld_start+0x182>
 8008eb2:	4810      	ldr	r0, [pc, #64]	; (8008ef4 <i2c_lld_start+0x274>)
 8008eb4:	f7f9 fbbc 	bl	8002630 <chSysHalt>
 8008eb8:	e79b      	b.n	8008df2 <i2c_lld_start+0x172>
 8008eba:	4805      	ldr	r0, [pc, #20]	; (8008ed0 <i2c_lld_start+0x250>)
 8008ebc:	f7f9 fbb8 	bl	8002630 <chSysHalt>
 8008ec0:	e76f      	b.n	8008da2 <i2c_lld_start+0x122>
 8008ec2:	f7f8 f9cd 	bl	8001260 <__stack_chk_fail>
 8008ec6:	bf00      	nop
 8008ec8:	20000800 	.word	0x20000800
 8008ecc:	003d08ff 	.word	0x003d08ff
 8008ed0:	0800efd0 	.word	0x0800efd0
 8008ed4:	000186a0 	.word	0x000186a0
 8008ed8:	0280de80 	.word	0x0280de80
 8008edc:	00061a80 	.word	0x00061a80
 8008ee0:	20001fc0 	.word	0x20001fc0
 8008ee4:	40023800 	.word	0x40023800
 8008ee8:	08008931 	.word	0x08008931
 8008eec:	080088d1 	.word	0x080088d1
 8008ef0:	02030000 	.word	0x02030000
 8008ef4:	0800eff0 	.word	0x0800eff0
	...

08008f00 <i2c_lld_stop>:
 8008f00:	b530      	push	{r4, r5, lr}
 8008f02:	4d26      	ldr	r5, [pc, #152]	; (8008f9c <i2c_lld_stop+0x9c>)
 8008f04:	7803      	ldrb	r3, [r0, #0]
 8008f06:	682a      	ldr	r2, [r5, #0]
 8008f08:	b083      	sub	sp, #12
 8008f0a:	2b01      	cmp	r3, #1
 8008f0c:	9201      	str	r2, [sp, #4]
 8008f0e:	d031      	beq.n	8008f74 <i2c_lld_stop+0x74>
 8008f10:	6b83      	ldr	r3, [r0, #56]	; 0x38
 8008f12:	2200      	movs	r2, #0
 8008f14:	f44f 4100 	mov.w	r1, #32768	; 0x8000
 8008f18:	6019      	str	r1, [r3, #0]
 8008f1a:	601a      	str	r2, [r3, #0]
 8008f1c:	605a      	str	r2, [r3, #4]
 8008f1e:	615a      	str	r2, [r3, #20]
 8008f20:	6b43      	ldr	r3, [r0, #52]	; 0x34
 8008f22:	681a      	ldr	r2, [r3, #0]
 8008f24:	6813      	ldr	r3, [r2, #0]
 8008f26:	f023 031f 	bic.w	r3, r3, #31
 8008f2a:	6013      	str	r3, [r2, #0]
 8008f2c:	6b41      	ldr	r1, [r0, #52]	; 0x34
 8008f2e:	680a      	ldr	r2, [r1, #0]
 8008f30:	4604      	mov	r4, r0
 8008f32:	6813      	ldr	r3, [r2, #0]
 8008f34:	07d8      	lsls	r0, r3, #31
 8008f36:	d4fc      	bmi.n	8008f32 <i2c_lld_stop+0x32>
 8008f38:	7a08      	ldrb	r0, [r1, #8]
 8008f3a:	684a      	ldr	r2, [r1, #4]
 8008f3c:	233d      	movs	r3, #61	; 0x3d
 8008f3e:	4083      	lsls	r3, r0
 8008f40:	6013      	str	r3, [r2, #0]
 8008f42:	6b23      	ldr	r3, [r4, #48]	; 0x30
 8008f44:	681a      	ldr	r2, [r3, #0]
 8008f46:	6813      	ldr	r3, [r2, #0]
 8008f48:	f023 031f 	bic.w	r3, r3, #31
 8008f4c:	6013      	str	r3, [r2, #0]
 8008f4e:	6b21      	ldr	r1, [r4, #48]	; 0x30
 8008f50:	680a      	ldr	r2, [r1, #0]
 8008f52:	6813      	ldr	r3, [r2, #0]
 8008f54:	07db      	lsls	r3, r3, #31
 8008f56:	d4fc      	bmi.n	8008f52 <i2c_lld_stop+0x52>
 8008f58:	7a08      	ldrb	r0, [r1, #8]
 8008f5a:	684a      	ldr	r2, [r1, #4]
 8008f5c:	233d      	movs	r3, #61	; 0x3d
 8008f5e:	4083      	lsls	r3, r0
 8008f60:	6013      	str	r3, [r2, #0]
 8008f62:	6b60      	ldr	r0, [r4, #52]	; 0x34
 8008f64:	f7fe f80c 	bl	8006f80 <dmaStreamRelease>
 8008f68:	6b20      	ldr	r0, [r4, #48]	; 0x30
 8008f6a:	f7fe f809 	bl	8006f80 <dmaStreamRelease>
 8008f6e:	4b0c      	ldr	r3, [pc, #48]	; (8008fa0 <i2c_lld_stop+0xa0>)
 8008f70:	429c      	cmp	r4, r3
 8008f72:	d005      	beq.n	8008f80 <i2c_lld_stop+0x80>
 8008f74:	9a01      	ldr	r2, [sp, #4]
 8008f76:	682b      	ldr	r3, [r5, #0]
 8008f78:	429a      	cmp	r2, r3
 8008f7a:	d10d      	bne.n	8008f98 <i2c_lld_stop+0x98>
 8008f7c:	b003      	add	sp, #12
 8008f7e:	bd30      	pop	{r4, r5, pc}
 8008f80:	201f      	movs	r0, #31
 8008f82:	f7fd fc9d 	bl	80068c0 <nvicDisableVector>
 8008f86:	2020      	movs	r0, #32
 8008f88:	f7fd fc9a 	bl	80068c0 <nvicDisableVector>
 8008f8c:	4a05      	ldr	r2, [pc, #20]	; (8008fa4 <i2c_lld_stop+0xa4>)
 8008f8e:	6c13      	ldr	r3, [r2, #64]	; 0x40
 8008f90:	f423 1300 	bic.w	r3, r3, #2097152	; 0x200000
 8008f94:	6413      	str	r3, [r2, #64]	; 0x40
 8008f96:	e7ed      	b.n	8008f74 <i2c_lld_stop+0x74>
 8008f98:	f7f8 f962 	bl	8001260 <__stack_chk_fail>
 8008f9c:	20000800 	.word	0x20000800
 8008fa0:	20001fc0 	.word	0x20001fc0
 8008fa4:	40023800 	.word	0x40023800
	...

08008fb0 <i2c_lld_master_transmit_timeout>:
 8008fb0:	e92d 4ff0 	stmdb	sp!, {r4, r5, r6, r7, r8, r9, sl, fp, lr}
 8008fb4:	f8df 8118 	ldr.w	r8, [pc, #280]	; 80090d0 <i2c_lld_master_transmit_timeout+0x120>
 8008fb8:	4c43      	ldr	r4, [pc, #268]	; (80090c8 <i2c_lld_master_transmit_timeout+0x118>)
 8008fba:	b085      	sub	sp, #20
 8008fbc:	469a      	mov	sl, r3
 8008fbe:	e9dd 930e 	ldrd	r9, r3, [sp, #56]	; 0x38
 8008fc2:	4606      	mov	r6, r0
 8008fc4:	f8d8 0000 	ldr.w	r0, [r8]
 8008fc8:	9003      	str	r0, [sp, #12]
 8008fca:	0049      	lsls	r1, r1, #1
 8008fcc:	2000      	movs	r0, #0
 8008fce:	84b1      	strh	r1, [r6, #36]	; 0x24
 8008fd0:	60b0      	str	r0, [r6, #8]
 8008fd2:	9300      	str	r3, [sp, #0]
 8008fd4:	9b10      	ldr	r3, [sp, #64]	; 0x40
 8008fd6:	9301      	str	r3, [sp, #4]
 8008fd8:	4693      	mov	fp, r2
 8008fda:	6bb5      	ldr	r5, [r6, #56]	; 0x38
 8008fdc:	f7f9 fbe8 	bl	80027b0 <_dbg_check_unlock>
 8008fe0:	f7fa fbd6 	bl	8003790 <_stats_stop_measure_crit_thd>
 8008fe4:	6823      	ldr	r3, [r4, #0]
 8008fe6:	42a3      	cmp	r3, r4
 8008fe8:	d004      	beq.n	8008ff4 <i2c_lld_master_transmit_timeout+0x44>
 8008fea:	69a2      	ldr	r2, [r4, #24]
 8008fec:	689b      	ldr	r3, [r3, #8]
 8008fee:	6892      	ldr	r2, [r2, #8]
 8008ff0:	429a      	cmp	r2, r3
 8008ff2:	d34d      	bcc.n	8009090 <i2c_lld_master_transmit_timeout+0xe0>
 8008ff4:	2300      	movs	r3, #0
 8008ff6:	f383 8811 	msr	BASEPRI, r3
 8008ffa:	6b72      	ldr	r2, [r6, #52]	; 0x34
 8008ffc:	6af1      	ldr	r1, [r6, #44]	; 0x2c
 8008ffe:	6812      	ldr	r2, [r2, #0]
 8009000:	4f32      	ldr	r7, [pc, #200]	; (80090cc <i2c_lld_master_transmit_timeout+0x11c>)
 8009002:	6011      	str	r1, [r2, #0]
 8009004:	6b72      	ldr	r2, [r6, #52]	; 0x34
 8009006:	6812      	ldr	r2, [r2, #0]
 8009008:	f8c2 b00c 	str.w	fp, [r2, #12]
 800900c:	6b72      	ldr	r2, [r6, #52]	; 0x34
 800900e:	6812      	ldr	r2, [r2, #0]
 8009010:	f8c2 a004 	str.w	sl, [r2, #4]
 8009014:	6b32      	ldr	r2, [r6, #48]	; 0x30
 8009016:	6ab1      	ldr	r1, [r6, #40]	; 0x28
 8009018:	6812      	ldr	r2, [r2, #0]
 800901a:	6011      	str	r1, [r2, #0]
 800901c:	6b32      	ldr	r2, [r6, #48]	; 0x30
 800901e:	9900      	ldr	r1, [sp, #0]
 8009020:	6812      	ldr	r2, [r2, #0]
 8009022:	f8c2 900c 	str.w	r9, [r2, #12]
 8009026:	6b32      	ldr	r2, [r6, #48]	; 0x30
 8009028:	6812      	ldr	r2, [r2, #0]
 800902a:	6051      	str	r1, [r2, #4]
 800902c:	f8d4 b028 	ldr.w	fp, [r4, #40]	; 0x28
 8009030:	4699      	mov	r9, r3
 8009032:	f04f 0a20 	mov.w	sl, #32
 8009036:	e010      	b.n	800905a <i2c_lld_master_transmit_timeout+0xaa>
 8009038:	f7f9 fbba 	bl	80027b0 <_dbg_check_unlock>
 800903c:	f7fa fba8 	bl	8003790 <_stats_stop_measure_crit_thd>
 8009040:	6823      	ldr	r3, [r4, #0]
 8009042:	42a3      	cmp	r3, r4
 8009044:	d007      	beq.n	8009056 <i2c_lld_master_transmit_timeout+0xa6>
 8009046:	69a2      	ldr	r2, [r4, #24]
 8009048:	689b      	ldr	r3, [r3, #8]
 800904a:	6892      	ldr	r2, [r2, #8]
 800904c:	429a      	cmp	r2, r3
 800904e:	d202      	bcs.n	8009056 <i2c_lld_master_transmit_timeout+0xa6>
 8009050:	4638      	mov	r0, r7
 8009052:	f7f9 faed 	bl	8002630 <chSysHalt>
 8009056:	f389 8811 	msr	BASEPRI, r9
 800905a:	f38a 8811 	msr	BASEPRI, sl
 800905e:	f7fa fb7f 	bl	8003760 <_stats_start_measure_crit_thd>
 8009062:	f7f9 fb85 	bl	8002770 <_dbg_check_lock>
 8009066:	69ab      	ldr	r3, [r5, #24]
 8009068:	079a      	lsls	r2, r3, #30
 800906a:	d402      	bmi.n	8009072 <i2c_lld_master_transmit_timeout+0xc2>
 800906c:	682b      	ldr	r3, [r5, #0]
 800906e:	059b      	lsls	r3, r3, #22
 8009070:	d512      	bpl.n	8009098 <i2c_lld_master_transmit_timeout+0xe8>
 8009072:	6aa3      	ldr	r3, [r4, #40]	; 0x28
 8009074:	eba3 030b 	sub.w	r3, r3, fp
 8009078:	2b31      	cmp	r3, #49	; 0x31
 800907a:	d9dd      	bls.n	8009038 <i2c_lld_master_transmit_timeout+0x88>
 800907c:	9a03      	ldr	r2, [sp, #12]
 800907e:	f8d8 3000 	ldr.w	r3, [r8]
 8009082:	429a      	cmp	r2, r3
 8009084:	f04f 30ff 	mov.w	r0, #4294967295
 8009088:	d11b      	bne.n	80090c2 <i2c_lld_master_transmit_timeout+0x112>
 800908a:	b005      	add	sp, #20
 800908c:	e8bd 8ff0 	ldmia.w	sp!, {r4, r5, r6, r7, r8, r9, sl, fp, pc}
 8009090:	480e      	ldr	r0, [pc, #56]	; (80090cc <i2c_lld_master_transmit_timeout+0x11c>)
 8009092:	f7f9 facd 	bl	8002630 <chSysHalt>
 8009096:	e7ad      	b.n	8008ff4 <i2c_lld_master_transmit_timeout+0x44>
 8009098:	686b      	ldr	r3, [r5, #4]
 800909a:	f443 7300 	orr.w	r3, r3, #512	; 0x200
 800909e:	606b      	str	r3, [r5, #4]
 80090a0:	682b      	ldr	r3, [r5, #0]
 80090a2:	f443 7380 	orr.w	r3, r3, #256	; 0x100
 80090a6:	602b      	str	r3, [r5, #0]
 80090a8:	9a03      	ldr	r2, [sp, #12]
 80090aa:	f8d8 3000 	ldr.w	r3, [r8]
 80090ae:	429a      	cmp	r2, r3
 80090b0:	d107      	bne.n	80090c2 <i2c_lld_master_transmit_timeout+0x112>
 80090b2:	9901      	ldr	r1, [sp, #4]
 80090b4:	f106 0020 	add.w	r0, r6, #32
 80090b8:	b005      	add	sp, #20
 80090ba:	e8bd 4ff0 	ldmia.w	sp!, {r4, r5, r6, r7, r8, r9, sl, fp, lr}
 80090be:	f7fa b94f 	b.w	8003360 <chThdSuspendTimeoutS>
 80090c2:	f7f8 f8cd 	bl	8001260 <__stack_chk_fail>
 80090c6:	bf00      	nop
 80090c8:	20001540 	.word	0x20001540
 80090cc:	0800efc0 	.word	0x0800efc0
 80090d0:	20000800 	.word	0x20000800
	...

080090e0 <otg_disable_ep.isra.0>:
 80090e0:	e92d 41f0 	stmdb	sp!, {r4, r5, r6, r7, r8, lr}
 80090e4:	f8df c08c 	ldr.w	ip, [pc, #140]	; 8009174 <otg_disable_ep.isra.0+0x94>
 80090e8:	b082      	sub	sp, #8
 80090ea:	2500      	movs	r5, #0
 80090ec:	f8dc 3000 	ldr.w	r3, [ip]
 80090f0:	9301      	str	r3, [sp, #4]
 80090f2:	462e      	mov	r6, r5
 80090f4:	f04f 4e80 	mov.w	lr, #1073741824	; 0x40000000
 80090f8:	f04f 37ff 	mov.w	r7, #4294967295
 80090fc:	e017      	b.n	800912e <otg_disable_ep.isra.0+0x4e>
 80090fe:	f8c2 6900 	str.w	r6, [r2, #2304]	; 0x900
 8009102:	18c4      	adds	r4, r0, r3
 8009104:	f8c4 6910 	str.w	r6, [r4, #2320]	; 0x910
 8009108:	f8c4 7908 	str.w	r7, [r4, #2312]	; 0x908
 800910c:	f8d2 8b00 	ldr.w	r8, [r2, #2816]	; 0xb00
 8009110:	f1b8 0f00 	cmp.w	r8, #0
 8009114:	db19      	blt.n	800914a <otg_disable_ep.isra.0+0x6a>
 8009116:	f8c2 6b00 	str.w	r6, [r2, #2816]	; 0xb00
 800911a:	4403      	add	r3, r0
 800911c:	3501      	adds	r5, #1
 800911e:	f8c3 6b10 	str.w	r6, [r3, #2832]	; 0xb10
 8009122:	f8c3 7b08 	str.w	r7, [r3, #2824]	; 0xb08
 8009126:	680b      	ldr	r3, [r1, #0]
 8009128:	689b      	ldr	r3, [r3, #8]
 800912a:	429d      	cmp	r5, r3
 800912c:	d814      	bhi.n	8009158 <otg_disable_ep.isra.0+0x78>
 800912e:	016b      	lsls	r3, r5, #5
 8009130:	18c2      	adds	r2, r0, r3
 8009132:	f8d2 4900 	ldr.w	r4, [r2, #2304]	; 0x900
 8009136:	2c00      	cmp	r4, #0
 8009138:	dae1      	bge.n	80090fe <otg_disable_ep.isra.0+0x1e>
 800913a:	f8c2 e900 	str.w	lr, [r2, #2304]	; 0x900
 800913e:	4690      	mov	r8, r2
 8009140:	f8d8 4908 	ldr.w	r4, [r8, #2312]	; 0x908
 8009144:	07a4      	lsls	r4, r4, #30
 8009146:	d5fb      	bpl.n	8009140 <otg_disable_ep.isra.0+0x60>
 8009148:	e7db      	b.n	8009102 <otg_disable_ep.isra.0+0x22>
 800914a:	f8c2 eb00 	str.w	lr, [r2, #2816]	; 0xb00
 800914e:	f8d4 2b08 	ldr.w	r2, [r4, #2824]	; 0xb08
 8009152:	06d2      	lsls	r2, r2, #27
 8009154:	d5fb      	bpl.n	800914e <otg_disable_ep.isra.0+0x6e>
 8009156:	e7e0      	b.n	800911a <otg_disable_ep.isra.0+0x3a>
 8009158:	f04f 1301 	mov.w	r3, #65537	; 0x10001
 800915c:	f8c0 381c 	str.w	r3, [r0, #2076]	; 0x81c
 8009160:	9a01      	ldr	r2, [sp, #4]
 8009162:	f8dc 3000 	ldr.w	r3, [ip]
 8009166:	429a      	cmp	r2, r3
 8009168:	d102      	bne.n	8009170 <otg_disable_ep.isra.0+0x90>
 800916a:	b002      	add	sp, #8
 800916c:	e8bd 81f0 	ldmia.w	sp!, {r4, r5, r6, r7, r8, pc}
 8009170:	f7f8 f876 	bl	8001260 <__stack_chk_fail>
 8009174:	20000800 	.word	0x20000800
	...

08009180 <usb_lld_pump>:
 8009180:	e92d 4ff0 	stmdb	sp!, {r4, r5, r6, r7, r8, r9, sl, fp, lr}
 8009184:	4e8c      	ldr	r6, [pc, #560]	; (80093b8 <usb_lld_pump+0x238>)
 8009186:	4b8d      	ldr	r3, [pc, #564]	; (80093bc <usb_lld_pump+0x23c>)
 8009188:	69b2      	ldr	r2, [r6, #24]
 800918a:	681b      	ldr	r3, [r3, #0]
 800918c:	498c      	ldr	r1, [pc, #560]	; (80093c0 <usb_lld_pump+0x240>)
 800918e:	f8d0 8050 	ldr.w	r8, [r0, #80]	; 0x50
 8009192:	6191      	str	r1, [r2, #24]
 8009194:	b089      	sub	sp, #36	; 0x24
 8009196:	4682      	mov	sl, r0
 8009198:	9307      	str	r3, [sp, #28]
 800919a:	2320      	movs	r3, #32
 800919c:	f383 8811 	msr	BASEPRI, r3
 80091a0:	f7fa fade 	bl	8003760 <_stats_start_measure_crit_thd>
 80091a4:	f7f9 fae4 	bl	8002770 <_dbg_check_lock>
 80091a8:	f10a 0360 	add.w	r3, sl, #96	; 0x60
 80091ac:	4657      	mov	r7, sl
 80091ae:	9305      	str	r3, [sp, #20]
 80091b0:	46c2      	mov	sl, r8
 80091b2:	783b      	ldrb	r3, [r7, #0]
 80091b4:	2b01      	cmp	r3, #1
 80091b6:	d005      	beq.n	80091c4 <usb_lld_pump+0x44>
 80091b8:	6dfb      	ldr	r3, [r7, #92]	; 0x5c
 80091ba:	b963      	cbnz	r3, 80091d6 <usb_lld_pump+0x56>
 80091bc:	f8da 3014 	ldr.w	r3, [sl, #20]
 80091c0:	06da      	lsls	r2, r3, #27
 80091c2:	d408      	bmi.n	80091d6 <usb_lld_pump+0x56>
 80091c4:	f8da 3018 	ldr.w	r3, [sl, #24]
 80091c8:	9805      	ldr	r0, [sp, #20]
 80091ca:	f043 0310 	orr.w	r3, r3, #16
 80091ce:	f8ca 3018 	str.w	r3, [sl, #24]
 80091d2:	f7fa f89d 	bl	8003310 <chThdSuspendS>
 80091d6:	f7f9 faeb 	bl	80027b0 <_dbg_check_unlock>
 80091da:	f7fa fad9 	bl	8003790 <_stats_stop_measure_crit_thd>
 80091de:	6833      	ldr	r3, [r6, #0]
 80091e0:	42b3      	cmp	r3, r6
 80091e2:	d007      	beq.n	80091f4 <usb_lld_pump+0x74>
 80091e4:	69b2      	ldr	r2, [r6, #24]
 80091e6:	689b      	ldr	r3, [r3, #8]
 80091e8:	6892      	ldr	r2, [r2, #8]
 80091ea:	429a      	cmp	r2, r3
 80091ec:	d202      	bcs.n	80091f4 <usb_lld_pump+0x74>
 80091ee:	4875      	ldr	r0, [pc, #468]	; (80093c4 <usb_lld_pump+0x244>)
 80091f0:	f7f9 fa1e 	bl	8002630 <chSysHalt>
 80091f4:	2300      	movs	r3, #0
 80091f6:	f383 8811 	msr	BASEPRI, r3
 80091fa:	469b      	mov	fp, r3
 80091fc:	f8da 3014 	ldr.w	r3, [sl, #20]
 8009200:	06db      	lsls	r3, r3, #27
 8009202:	d562      	bpl.n	80092ca <usb_lld_pump+0x14a>
 8009204:	6d39      	ldr	r1, [r7, #80]	; 0x50
 8009206:	6a0b      	ldr	r3, [r1, #32]
 8009208:	f403 12f0 	and.w	r2, r3, #1966080	; 0x1e0000
 800920c:	f5b2 2f80 	cmp.w	r2, #262144	; 0x40000
 8009210:	d024      	beq.n	800925c <usb_lld_pump+0xdc>
 8009212:	f5b2 2f40 	cmp.w	r2, #786432	; 0xc0000
 8009216:	d1f1      	bne.n	80091fc <usb_lld_pump+0x7c>
 8009218:	f003 020f 	and.w	r2, r3, #15
 800921c:	eb07 0282 	add.w	r2, r7, r2, lsl #2
 8009220:	f3c3 130a 	ubfx	r3, r3, #4, #11
 8009224:	68d2      	ldr	r2, [r2, #12]
 8009226:	3303      	adds	r3, #3
 8009228:	089b      	lsrs	r3, r3, #2
 800922a:	6a14      	ldr	r4, [r2, #32]
 800922c:	d0e6      	beq.n	80091fc <usb_lld_pump+0x7c>
 800922e:	f501 5180 	add.w	r1, r1, #4096	; 0x1000
 8009232:	2202      	movs	r2, #2
 8009234:	680d      	ldr	r5, [r1, #0]
 8009236:	1e58      	subs	r0, r3, #1
 8009238:	b14a      	cbz	r2, 800924e <usb_lld_pump+0xce>
 800923a:	4603      	mov	r3, r0
 800923c:	f844 5b04 	str.w	r5, [r4], #4
 8009240:	3a01      	subs	r2, #1
 8009242:	2b00      	cmp	r3, #0
 8009244:	d0da      	beq.n	80091fc <usb_lld_pump+0x7c>
 8009246:	680d      	ldr	r5, [r1, #0]
 8009248:	1e58      	subs	r0, r3, #1
 800924a:	2a00      	cmp	r2, #0
 800924c:	d1f5      	bne.n	800923a <usb_lld_pump+0xba>
 800924e:	2800      	cmp	r0, #0
 8009250:	d0d4      	beq.n	80091fc <usb_lld_pump+0x7c>
 8009252:	3b02      	subs	r3, #2
 8009254:	6808      	ldr	r0, [r1, #0]
 8009256:	2b00      	cmp	r3, #0
 8009258:	d1f5      	bne.n	8009246 <usb_lld_pump+0xc6>
 800925a:	e7cf      	b.n	80091fc <usb_lld_pump+0x7c>
 800925c:	f003 050f 	and.w	r5, r3, #15
 8009260:	eb07 0585 	add.w	r5, r7, r5, lsl #2
 8009264:	f3c3 140a 	ubfx	r4, r3, #4, #11
 8009268:	68eb      	ldr	r3, [r5, #12]
 800926a:	f8d3 c018 	ldr.w	ip, [r3, #24]
 800926e:	f89c 3000 	ldrb.w	r3, [ip]
 8009272:	f8dc 800c 	ldr.w	r8, [ip, #12]
 8009276:	2b00      	cmp	r3, #0
 8009278:	d148      	bne.n	800930c <usb_lld_pump+0x18c>
 800927a:	e9dc 3201 	ldrd	r3, r2, [ip, #4]
 800927e:	3303      	adds	r3, #3
 8009280:	1a9a      	subs	r2, r3, r2
 8009282:	1ce3      	adds	r3, r4, #3
 8009284:	089b      	lsrs	r3, r3, #2
 8009286:	ea4f 0292 	mov.w	r2, r2, lsr #2
 800928a:	d011      	beq.n	80092b0 <usb_lld_pump+0x130>
 800928c:	f501 5180 	add.w	r1, r1, #4096	; 0x1000
 8009290:	468c      	mov	ip, r1
 8009292:	f8dc 1000 	ldr.w	r1, [ip]
 8009296:	1e58      	subs	r0, r3, #1
 8009298:	b382      	cbz	r2, 80092fc <usb_lld_pump+0x17c>
 800929a:	4603      	mov	r3, r0
 800929c:	f848 1b04 	str.w	r1, [r8], #4
 80092a0:	3a01      	subs	r2, #1
 80092a2:	2b00      	cmp	r3, #0
 80092a4:	d1f5      	bne.n	8009292 <usb_lld_pump+0x112>
 80092a6:	68eb      	ldr	r3, [r5, #12]
 80092a8:	f8d3 c018 	ldr.w	ip, [r3, #24]
 80092ac:	f8dc 800c 	ldr.w	r8, [ip, #12]
 80092b0:	eb08 0004 	add.w	r0, r8, r4
 80092b4:	f8cc 000c 	str.w	r0, [ip, #12]
 80092b8:	68eb      	ldr	r3, [r5, #12]
 80092ba:	699a      	ldr	r2, [r3, #24]
 80092bc:	6893      	ldr	r3, [r2, #8]
 80092be:	4423      	add	r3, r4
 80092c0:	6093      	str	r3, [r2, #8]
 80092c2:	f8da 3014 	ldr.w	r3, [sl, #20]
 80092c6:	06db      	lsls	r3, r3, #27
 80092c8:	d49c      	bmi.n	8009204 <usb_lld_pump+0x84>
 80092ca:	f04f 0801 	mov.w	r8, #1
 80092ce:	6dfb      	ldr	r3, [r7, #92]	; 0x5c
 80092d0:	fa08 f80b 	lsl.w	r8, r8, fp
 80092d4:	ea18 0f03 	tst.w	r8, r3
 80092d8:	d176      	bne.n	80093c8 <usb_lld_pump+0x248>
 80092da:	f10b 0301 	add.w	r3, fp, #1
 80092de:	9301      	str	r3, [sp, #4]
 80092e0:	6d7b      	ldr	r3, [r7, #84]	; 0x54
 80092e2:	f89d b004 	ldrb.w	fp, [sp, #4]
 80092e6:	689b      	ldr	r3, [r3, #8]
 80092e8:	459b      	cmp	fp, r3
 80092ea:	d987      	bls.n	80091fc <usb_lld_pump+0x7c>
 80092ec:	2320      	movs	r3, #32
 80092ee:	f383 8811 	msr	BASEPRI, r3
 80092f2:	f7fa fa35 	bl	8003760 <_stats_start_measure_crit_thd>
 80092f6:	f7f9 fa3b 	bl	8002770 <_dbg_check_lock>
 80092fa:	e75a      	b.n	80091b2 <usb_lld_pump+0x32>
 80092fc:	2800      	cmp	r0, #0
 80092fe:	d0d2      	beq.n	80092a6 <usb_lld_pump+0x126>
 8009300:	3b02      	subs	r3, #2
 8009302:	f8dc 1000 	ldr.w	r1, [ip]
 8009306:	2b00      	cmp	r3, #0
 8009308:	d1c3      	bne.n	8009292 <usb_lld_pump+0x112>
 800930a:	e7cc      	b.n	80092a6 <usb_lld_pump+0x126>
 800930c:	b374      	cbz	r4, 800936c <usb_lld_pump+0x1ec>
 800930e:	f8d8 2014 	ldr.w	r2, [r8, #20]
 8009312:	f501 5180 	add.w	r1, r1, #4096	; 0x1000
 8009316:	46a4      	mov	ip, r4
 8009318:	f1bc 0f03 	cmp.w	ip, #3
 800931c:	d90a      	bls.n	8009334 <usb_lld_pump+0x1b4>
 800931e:	f8d8 3010 	ldr.w	r3, [r8, #16]
 8009322:	4293      	cmp	r3, r2
 8009324:	d806      	bhi.n	8009334 <usb_lld_pump+0x1b4>
 8009326:	f8d8 200c 	ldr.w	r2, [r8, #12]
 800932a:	f8c8 2014 	str.w	r2, [r8, #20]
 800932e:	f1bc 0f03 	cmp.w	ip, #3
 8009332:	d8f4      	bhi.n	800931e <usb_lld_pump+0x19e>
 8009334:	f8d1 e000 	ldr.w	lr, [r1]
 8009338:	2300      	movs	r3, #0
 800933a:	fa2e f003 	lsr.w	r0, lr, r3
 800933e:	f102 0901 	add.w	r9, r2, #1
 8009342:	f8c8 9014 	str.w	r9, [r8, #20]
 8009346:	7010      	strb	r0, [r2, #0]
 8009348:	e9d8 2004 	ldrd	r2, r0, [r8, #16]
 800934c:	4290      	cmp	r0, r2
 800934e:	bf24      	itt	cs
 8009350:	f8d8 200c 	ldrcs.w	r2, [r8, #12]
 8009354:	f8c8 2014 	strcs.w	r2, [r8, #20]
 8009358:	f1bc 0c01 	subs.w	ip, ip, #1
 800935c:	f103 0308 	add.w	r3, r3, #8
 8009360:	d004      	beq.n	800936c <usb_lld_pump+0x1ec>
 8009362:	2b20      	cmp	r3, #32
 8009364:	f8d8 2014 	ldr.w	r2, [r8, #20]
 8009368:	d1e7      	bne.n	800933a <usb_lld_pump+0x1ba>
 800936a:	e7d5      	b.n	8009318 <usb_lld_pump+0x198>
 800936c:	2320      	movs	r3, #32
 800936e:	f383 8811 	msr	BASEPRI, r3
 8009372:	f7fa f9f5 	bl	8003760 <_stats_start_measure_crit_thd>
 8009376:	f7f9 f9fb 	bl	8002770 <_dbg_check_lock>
 800937a:	f8d8 3008 	ldr.w	r3, [r8, #8]
 800937e:	4423      	add	r3, r4
 8009380:	f8c8 3008 	str.w	r3, [r8, #8]
 8009384:	4640      	mov	r0, r8
 8009386:	2100      	movs	r1, #0
 8009388:	f7fa f8a2 	bl	80034d0 <chThdDequeueAllI>
 800938c:	f7f9 fde8 	bl	8002f60 <chSchRescheduleS>
 8009390:	f7f9 fa0e 	bl	80027b0 <_dbg_check_unlock>
 8009394:	f7fa f9fc 	bl	8003790 <_stats_stop_measure_crit_thd>
 8009398:	6833      	ldr	r3, [r6, #0]
 800939a:	42b3      	cmp	r3, r6
 800939c:	d007      	beq.n	80093ae <usb_lld_pump+0x22e>
 800939e:	69b2      	ldr	r2, [r6, #24]
 80093a0:	689b      	ldr	r3, [r3, #8]
 80093a2:	6892      	ldr	r2, [r2, #8]
 80093a4:	429a      	cmp	r2, r3
 80093a6:	d202      	bcs.n	80093ae <usb_lld_pump+0x22e>
 80093a8:	4806      	ldr	r0, [pc, #24]	; (80093c4 <usb_lld_pump+0x244>)
 80093aa:	f7f9 f941 	bl	8002630 <chSysHalt>
 80093ae:	2300      	movs	r3, #0
 80093b0:	f383 8811 	msr	BASEPRI, r3
 80093b4:	e780      	b.n	80092b8 <usb_lld_pump+0x138>
 80093b6:	bf00      	nop
 80093b8:	20001540 	.word	0x20001540
 80093bc:	20000800 	.word	0x20000800
 80093c0:	0800f080 	.word	0x0800f080
 80093c4:	0800f020 	.word	0x0800f020
 80093c8:	2320      	movs	r3, #32
 80093ca:	f383 8811 	msr	BASEPRI, r3
 80093ce:	f7fa f9c7 	bl	8003760 <_stats_start_measure_crit_thd>
 80093d2:	f7f9 f9cd 	bl	8002770 <_dbg_check_lock>
 80093d6:	f8da 3008 	ldr.w	r3, [sl, #8]
 80093da:	f023 0301 	bic.w	r3, r3, #1
 80093de:	f8ca 3008 	str.w	r3, [sl, #8]
 80093e2:	6dfb      	ldr	r3, [r7, #92]	; 0x5c
 80093e4:	ea23 0308 	bic.w	r3, r3, r8
 80093e8:	65fb      	str	r3, [r7, #92]	; 0x5c
 80093ea:	f7f9 f9e1 	bl	80027b0 <_dbg_check_unlock>
 80093ee:	f7fa f9cf 	bl	8003790 <_stats_stop_measure_crit_thd>
 80093f2:	6833      	ldr	r3, [r6, #0]
 80093f4:	42b3      	cmp	r3, r6
 80093f6:	d007      	beq.n	8009408 <usb_lld_pump+0x288>
 80093f8:	69b2      	ldr	r2, [r6, #24]
 80093fa:	689b      	ldr	r3, [r3, #8]
 80093fc:	6892      	ldr	r2, [r2, #8]
 80093fe:	429a      	cmp	r2, r3
 8009400:	d202      	bcs.n	8009408 <usb_lld_pump+0x288>
 8009402:	488c      	ldr	r0, [pc, #560]	; (8009634 <usb_lld_pump+0x4b4>)
 8009404:	f7f9 f914 	bl	8002630 <chSysHalt>
 8009408:	2300      	movs	r3, #0
 800940a:	f383 8811 	msr	BASEPRI, r3
 800940e:	eb07 098b 	add.w	r9, r7, fp, lsl #2
 8009412:	f8d9 100c 	ldr.w	r1, [r9, #12]
 8009416:	694c      	ldr	r4, [r1, #20]
 8009418:	e9d4 3c01 	ldrd	r3, ip, [r4, #4]
 800941c:	459c      	cmp	ip, r3
 800941e:	f080 80e7 	bcs.w	80095f0 <usb_lld_pump+0x470>
 8009422:	6d38      	ldr	r0, [r7, #80]	; 0x50
 8009424:	8a0d      	ldrh	r5, [r1, #16]
 8009426:	ea4f 124b 	mov.w	r2, fp, lsl #5
 800942a:	9202      	str	r2, [sp, #8]
 800942c:	1882      	adds	r2, r0, r2
 800942e:	eba3 030c 	sub.w	r3, r3, ip
 8009432:	f8d2 2918 	ldr.w	r2, [r2, #2328]	; 0x918
 8009436:	429d      	cmp	r5, r3
 8009438:	bf28      	it	cs
 800943a:	461d      	movcs	r5, r3
 800943c:	b293      	uxth	r3, r2
 800943e:	ebb5 0f83 	cmp.w	r5, r3, lsl #2
 8009442:	f200 80e6 	bhi.w	8009612 <usb_lld_pump+0x492>
 8009446:	f10b 0301 	add.w	r3, fp, #1
 800944a:	e9cd a803 	strd	sl, r8, [sp, #12]
 800944e:	9301      	str	r3, [sp, #4]
 8009450:	f8dd a008 	ldr.w	sl, [sp, #8]
 8009454:	031b      	lsls	r3, r3, #12
 8009456:	4698      	mov	r8, r3
 8009458:	7823      	ldrb	r3, [r4, #0]
 800945a:	68e4      	ldr	r4, [r4, #12]
 800945c:	eb00 0c08 	add.w	ip, r0, r8
 8009460:	2b00      	cmp	r3, #0
 8009462:	f000 80ad 	beq.w	80095c0 <usb_lld_pump+0x440>
 8009466:	b335      	cbz	r5, 80094b6 <usb_lld_pump+0x336>
 8009468:	462a      	mov	r2, r5
 800946a:	9502      	str	r5, [sp, #8]
 800946c:	ea5f 0b92 	movs.w	fp, r2, lsr #2
 8009470:	f8d4 e010 	ldr.w	lr, [r4, #16]
 8009474:	69a3      	ldr	r3, [r4, #24]
 8009476:	f000 8089 	beq.w	800958c <usb_lld_pump+0x40c>
 800947a:	ebbe 0103 	subs.w	r1, lr, r3
 800947e:	bf48      	it	mi
 8009480:	3103      	addmi	r1, #3
 8009482:	1088      	asrs	r0, r1, #2
 8009484:	4558      	cmp	r0, fp
 8009486:	bf28      	it	cs
 8009488:	4658      	movcs	r0, fp
 800948a:	0081      	lsls	r1, r0, #2
 800948c:	1a52      	subs	r2, r2, r1
 800948e:	2800      	cmp	r0, #0
 8009490:	f000 80a8 	beq.w	80095e4 <usb_lld_pump+0x464>
 8009494:	4419      	add	r1, r3
 8009496:	f853 0b04 	ldr.w	r0, [r3], #4
 800949a:	f8cc 0000 	str.w	r0, [ip]
 800949e:	428b      	cmp	r3, r1
 80094a0:	d1f9      	bne.n	8009496 <usb_lld_pump+0x316>
 80094a2:	f8d4 e010 	ldr.w	lr, [r4, #16]
 80094a6:	61a1      	str	r1, [r4, #24]
 80094a8:	4571      	cmp	r1, lr
 80094aa:	d36c      	bcc.n	8009586 <usb_lld_pump+0x406>
 80094ac:	68e3      	ldr	r3, [r4, #12]
 80094ae:	61a3      	str	r3, [r4, #24]
 80094b0:	2a00      	cmp	r2, #0
 80094b2:	d1db      	bne.n	800946c <usb_lld_pump+0x2ec>
 80094b4:	9d02      	ldr	r5, [sp, #8]
 80094b6:	2320      	movs	r3, #32
 80094b8:	f383 8811 	msr	BASEPRI, r3
 80094bc:	f7fa f950 	bl	8003760 <_stats_start_measure_crit_thd>
 80094c0:	f7f9 f956 	bl	8002770 <_dbg_check_lock>
 80094c4:	68a3      	ldr	r3, [r4, #8]
 80094c6:	442b      	add	r3, r5
 80094c8:	60a3      	str	r3, [r4, #8]
 80094ca:	4620      	mov	r0, r4
 80094cc:	2100      	movs	r1, #0
 80094ce:	f7f9 ffff 	bl	80034d0 <chThdDequeueAllI>
 80094d2:	f7f9 fd45 	bl	8002f60 <chSchRescheduleS>
 80094d6:	f7f9 f96b 	bl	80027b0 <_dbg_check_unlock>
 80094da:	f7fa f959 	bl	8003790 <_stats_stop_measure_crit_thd>
 80094de:	6833      	ldr	r3, [r6, #0]
 80094e0:	42b3      	cmp	r3, r6
 80094e2:	d007      	beq.n	80094f4 <usb_lld_pump+0x374>
 80094e4:	69b2      	ldr	r2, [r6, #24]
 80094e6:	689b      	ldr	r3, [r3, #8]
 80094e8:	6892      	ldr	r2, [r2, #8]
 80094ea:	429a      	cmp	r2, r3
 80094ec:	d202      	bcs.n	80094f4 <usb_lld_pump+0x374>
 80094ee:	4851      	ldr	r0, [pc, #324]	; (8009634 <usb_lld_pump+0x4b4>)
 80094f0:	f7f9 f89e 	bl	8002630 <chSysHalt>
 80094f4:	2300      	movs	r3, #0
 80094f6:	f383 8811 	msr	BASEPRI, r3
 80094fa:	f8d9 300c 	ldr.w	r3, [r9, #12]
 80094fe:	695a      	ldr	r2, [r3, #20]
 8009500:	6893      	ldr	r3, [r2, #8]
 8009502:	441d      	add	r5, r3
 8009504:	6095      	str	r5, [r2, #8]
 8009506:	f8d9 100c 	ldr.w	r1, [r9, #12]
 800950a:	694c      	ldr	r4, [r1, #20]
 800950c:	e9d4 3c01 	ldrd	r3, ip, [r4, #4]
 8009510:	459c      	cmp	ip, r3
 8009512:	d269      	bcs.n	80095e8 <usb_lld_pump+0x468>
 8009514:	6d38      	ldr	r0, [r7, #80]	; 0x50
 8009516:	8a0d      	ldrh	r5, [r1, #16]
 8009518:	eb00 020a 	add.w	r2, r0, sl
 800951c:	eba3 030c 	sub.w	r3, r3, ip
 8009520:	f8d2 2918 	ldr.w	r2, [r2, #2328]	; 0x918
 8009524:	429d      	cmp	r5, r3
 8009526:	bf28      	it	cs
 8009528:	461d      	movcs	r5, r3
 800952a:	b293      	uxth	r3, r2
 800952c:	ebb5 0f83 	cmp.w	r5, r3, lsl #2
 8009530:	d992      	bls.n	8009458 <usb_lld_pump+0x2d8>
 8009532:	e9dd a803 	ldrd	sl, r8, [sp, #12]
 8009536:	2400      	movs	r4, #0
 8009538:	2320      	movs	r3, #32
 800953a:	f383 8811 	msr	BASEPRI, r3
 800953e:	f7fa f90f 	bl	8003760 <_stats_start_measure_crit_thd>
 8009542:	f7f9 f915 	bl	8002770 <_dbg_check_lock>
 8009546:	f8da 3008 	ldr.w	r3, [sl, #8]
 800954a:	f043 0301 	orr.w	r3, r3, #1
 800954e:	f8ca 3008 	str.w	r3, [sl, #8]
 8009552:	b92c      	cbnz	r4, 8009560 <usb_lld_pump+0x3e0>
 8009554:	f8da 3834 	ldr.w	r3, [sl, #2100]	; 0x834
 8009558:	ea43 0308 	orr.w	r3, r3, r8
 800955c:	f8ca 3834 	str.w	r3, [sl, #2100]	; 0x834
 8009560:	f7f9 f926 	bl	80027b0 <_dbg_check_unlock>
 8009564:	f7fa f914 	bl	8003790 <_stats_stop_measure_crit_thd>
 8009568:	6833      	ldr	r3, [r6, #0]
 800956a:	42b3      	cmp	r3, r6
 800956c:	d007      	beq.n	800957e <usb_lld_pump+0x3fe>
 800956e:	69b2      	ldr	r2, [r6, #24]
 8009570:	689b      	ldr	r3, [r3, #8]
 8009572:	6892      	ldr	r2, [r2, #8]
 8009574:	429a      	cmp	r2, r3
 8009576:	d202      	bcs.n	800957e <usb_lld_pump+0x3fe>
 8009578:	482e      	ldr	r0, [pc, #184]	; (8009634 <usb_lld_pump+0x4b4>)
 800957a:	f7f9 f859 	bl	8002630 <chSysHalt>
 800957e:	2300      	movs	r3, #0
 8009580:	f383 8811 	msr	BASEPRI, r3
 8009584:	e6ac      	b.n	80092e0 <usb_lld_pump+0x160>
 8009586:	2a00      	cmp	r2, #0
 8009588:	d094      	beq.n	80094b4 <usb_lld_pump+0x334>
 800958a:	460b      	mov	r3, r1
 800958c:	2100      	movs	r1, #0
 800958e:	4608      	mov	r0, r1
 8009590:	1c5d      	adds	r5, r3, #1
 8009592:	61a5      	str	r5, [r4, #24]
 8009594:	781b      	ldrb	r3, [r3, #0]
 8009596:	4575      	cmp	r5, lr
 8009598:	fa03 f301 	lsl.w	r3, r3, r1
 800959c:	ea40 0003 	orr.w	r0, r0, r3
 80095a0:	bf24      	itt	cs
 80095a2:	68e3      	ldrcs	r3, [r4, #12]
 80095a4:	61a3      	strcs	r3, [r4, #24]
 80095a6:	3a01      	subs	r2, #1
 80095a8:	d004      	beq.n	80095b4 <usb_lld_pump+0x434>
 80095aa:	2918      	cmp	r1, #24
 80095ac:	d002      	beq.n	80095b4 <usb_lld_pump+0x434>
 80095ae:	3108      	adds	r1, #8
 80095b0:	69a3      	ldr	r3, [r4, #24]
 80095b2:	e7ed      	b.n	8009590 <usb_lld_pump+0x410>
 80095b4:	f8cc 0000 	str.w	r0, [ip]
 80095b8:	2a00      	cmp	r2, #0
 80095ba:	f47f af57 	bne.w	800946c <usb_lld_pump+0x2ec>
 80095be:	e779      	b.n	80094b4 <usb_lld_pump+0x334>
 80095c0:	1ceb      	adds	r3, r5, #3
 80095c2:	089b      	lsrs	r3, r3, #2
 80095c4:	d009      	beq.n	80095da <usb_lld_pump+0x45a>
 80095c6:	eb04 0383 	add.w	r3, r4, r3, lsl #2
 80095ca:	f854 2b04 	ldr.w	r2, [r4], #4
 80095ce:	f8cc 2000 	str.w	r2, [ip]
 80095d2:	429c      	cmp	r4, r3
 80095d4:	d1f9      	bne.n	80095ca <usb_lld_pump+0x44a>
 80095d6:	f8d9 100c 	ldr.w	r1, [r9, #12]
 80095da:	694a      	ldr	r2, [r1, #20]
 80095dc:	68d3      	ldr	r3, [r2, #12]
 80095de:	442b      	add	r3, r5
 80095e0:	60d3      	str	r3, [r2, #12]
 80095e2:	e78a      	b.n	80094fa <usb_lld_pump+0x37a>
 80095e4:	4619      	mov	r1, r3
 80095e6:	e75e      	b.n	80094a6 <usb_lld_pump+0x326>
 80095e8:	e9dd a803 	ldrd	sl, r8, [sp, #12]
 80095ec:	2401      	movs	r4, #1
 80095ee:	e7a3      	b.n	8009538 <usb_lld_pump+0x3b8>
 80095f0:	2320      	movs	r3, #32
 80095f2:	f383 8811 	msr	BASEPRI, r3
 80095f6:	f7fa f8b3 	bl	8003760 <_stats_start_measure_crit_thd>
 80095fa:	f7f9 f8b9 	bl	8002770 <_dbg_check_lock>
 80095fe:	f8da 3008 	ldr.w	r3, [sl, #8]
 8009602:	f10b 0201 	add.w	r2, fp, #1
 8009606:	f043 0301 	orr.w	r3, r3, #1
 800960a:	9201      	str	r2, [sp, #4]
 800960c:	f8ca 3008 	str.w	r3, [sl, #8]
 8009610:	e7a6      	b.n	8009560 <usb_lld_pump+0x3e0>
 8009612:	2320      	movs	r3, #32
 8009614:	f383 8811 	msr	BASEPRI, r3
 8009618:	f7fa f8a2 	bl	8003760 <_stats_start_measure_crit_thd>
 800961c:	f7f9 f8a8 	bl	8002770 <_dbg_check_lock>
 8009620:	f8da 3008 	ldr.w	r3, [sl, #8]
 8009624:	f10b 0201 	add.w	r2, fp, #1
 8009628:	f043 0301 	orr.w	r3, r3, #1
 800962c:	9201      	str	r2, [sp, #4]
 800962e:	f8ca 3008 	str.w	r3, [sl, #8]
 8009632:	e78f      	b.n	8009554 <usb_lld_pump+0x3d4>
 8009634:	0800f020 	.word	0x0800f020
	...

08009640 <usb_lld_init>:
 8009640:	b530      	push	{r4, r5, lr}
 8009642:	4c13      	ldr	r4, [pc, #76]	; (8009690 <usb_lld_init+0x50>)
 8009644:	4d13      	ldr	r5, [pc, #76]	; (8009694 <usb_lld_init+0x54>)
 8009646:	b083      	sub	sp, #12
 8009648:	682b      	ldr	r3, [r5, #0]
 800964a:	9301      	str	r3, [sp, #4]
 800964c:	4620      	mov	r0, r4
 800964e:	f7fc fcf7 	bl	8006040 <usbObjectInit>
 8009652:	f04f 43a0 	mov.w	r3, #1342177280	; 0x50000000
 8009656:	4a10      	ldr	r2, [pc, #64]	; (8009698 <usb_lld_init+0x58>)
 8009658:	6523      	str	r3, [r4, #80]	; 0x50
 800965a:	6562      	str	r2, [r4, #84]	; 0x54
 800965c:	2300      	movs	r3, #0
 800965e:	22ff      	movs	r2, #255	; 0xff
 8009660:	f104 01d0 	add.w	r1, r4, #208	; 0xd0
 8009664:	f104 0068 	add.w	r0, r4, #104	; 0x68
 8009668:	e9c4 3318 	strd	r3, r3, [r4, #96]	; 0x60
 800966c:	f7f9 fd08 	bl	8003080 <_thread_memfill>
 8009670:	9a01      	ldr	r2, [sp, #4]
 8009672:	682b      	ldr	r3, [r5, #0]
 8009674:	429a      	cmp	r2, r3
 8009676:	d109      	bne.n	800968c <usb_lld_init+0x4c>
 8009678:	2255      	movs	r2, #85	; 0x55
 800967a:	f504 7118 	add.w	r1, r4, #608	; 0x260
 800967e:	f104 00d0 	add.w	r0, r4, #208	; 0xd0
 8009682:	b003      	add	sp, #12
 8009684:	e8bd 4030 	ldmia.w	sp!, {r4, r5, lr}
 8009688:	f7f9 bcfa 	b.w	8003080 <_thread_memfill>
 800968c:	f7f7 fde8 	bl	8001260 <__stack_chk_fail>
 8009690:	20002000 	.word	0x20002000
 8009694:	20000800 	.word	0x20000800
 8009698:	0800f070 	.word	0x0800f070
 800969c:	00000000 	.word	0x00000000

080096a0 <usb_lld_start>:
 80096a0:	b5f0      	push	{r4, r5, r6, r7, lr}
 80096a2:	4f3c      	ldr	r7, [pc, #240]	; (8009794 <usb_lld_start+0xf4>)
 80096a4:	7803      	ldrb	r3, [r0, #0]
 80096a6:	683a      	ldr	r2, [r7, #0]
 80096a8:	b085      	sub	sp, #20
 80096aa:	2b01      	cmp	r3, #1
 80096ac:	9203      	str	r2, [sp, #12]
 80096ae:	d005      	beq.n	80096bc <usb_lld_start+0x1c>
 80096b0:	9a03      	ldr	r2, [sp, #12]
 80096b2:	683b      	ldr	r3, [r7, #0]
 80096b4:	429a      	cmp	r2, r3
 80096b6:	d16a      	bne.n	800978e <usb_lld_start+0xee>
 80096b8:	b005      	add	sp, #20
 80096ba:	bdf0      	pop	{r4, r5, r6, r7, pc}
 80096bc:	4b36      	ldr	r3, [pc, #216]	; (8009798 <usb_lld_start+0xf8>)
 80096be:	6d06      	ldr	r6, [r0, #80]	; 0x50
 80096c0:	4298      	cmp	r0, r3
 80096c2:	4605      	mov	r5, r0
 80096c4:	d03b      	beq.n	800973e <usb_lld_start+0x9e>
 80096c6:	2300      	movs	r3, #0
 80096c8:	4a34      	ldr	r2, [pc, #208]	; (800979c <usb_lld_start+0xfc>)
 80096ca:	65eb      	str	r3, [r5, #92]	; 0x5c
 80096cc:	4934      	ldr	r1, [pc, #208]	; (80097a0 <usb_lld_start+0x100>)
 80096ce:	60f2      	str	r2, [r6, #12]
 80096d0:	f44f 2250 	mov.w	r2, #851968	; 0xd0000
 80096d4:	f8c6 1800 	str.w	r1, [r6, #2048]	; 0x800
 80096d8:	f8c6 3e00 	str.w	r3, [r6, #3584]	; 0xe00
 80096dc:	63b2      	str	r2, [r6, #56]	; 0x38
 80096de:	6d2c      	ldr	r4, [r5, #80]	; 0x50
 80096e0:	2020      	movs	r0, #32
 80096e2:	f7f9 f805 	bl	80026f0 <chSysPolledDelayX>
 80096e6:	2301      	movs	r3, #1
 80096e8:	6123      	str	r3, [r4, #16]
 80096ea:	6923      	ldr	r3, [r4, #16]
 80096ec:	07db      	lsls	r3, r3, #31
 80096ee:	d4fc      	bmi.n	80096ea <usb_lld_start+0x4a>
 80096f0:	200c      	movs	r0, #12
 80096f2:	f7f8 fffd 	bl	80026f0 <chSysPolledDelayX>
 80096f6:	6923      	ldr	r3, [r4, #16]
 80096f8:	2b00      	cmp	r3, #0
 80096fa:	dafc      	bge.n	80096f6 <usb_lld_start+0x56>
 80096fc:	2400      	movs	r4, #0
 80096fe:	60b4      	str	r4, [r6, #8]
 8009700:	6d28      	ldr	r0, [r5, #80]	; 0x50
 8009702:	f105 0154 	add.w	r1, r5, #84	; 0x54
 8009706:	f7ff fceb 	bl	80090e0 <otg_disable_ep.isra.0>
 800970a:	f8c6 4810 	str.w	r4, [r6, #2064]	; 0x810
 800970e:	f8c6 4814 	str.w	r4, [r6, #2068]	; 0x814
 8009712:	f8c6 481c 	str.w	r4, [r6, #2076]	; 0x81c
 8009716:	686b      	ldr	r3, [r5, #4]
 8009718:	68db      	ldr	r3, [r3, #12]
 800971a:	b163      	cbz	r3, 8009736 <usb_lld_start+0x96>
 800971c:	f243 0308 	movw	r3, #12296	; 0x3008
 8009720:	61b3      	str	r3, [r6, #24]
 8009722:	f04f 33ff 	mov.w	r3, #4294967295
 8009726:	6173      	str	r3, [r6, #20]
 8009728:	6e6b      	ldr	r3, [r5, #100]	; 0x64
 800972a:	b1c3      	cbz	r3, 800975e <usb_lld_start+0xbe>
 800972c:	68b3      	ldr	r3, [r6, #8]
 800972e:	f043 0301 	orr.w	r3, r3, #1
 8009732:	60b3      	str	r3, [r6, #8]
 8009734:	e7bc      	b.n	80096b0 <usb_lld_start+0x10>
 8009736:	f44f 5340 	mov.w	r3, #12288	; 0x3000
 800973a:	61b3      	str	r3, [r6, #24]
 800973c:	e7f1      	b.n	8009722 <usb_lld_start+0x82>
 800973e:	4b19      	ldr	r3, [pc, #100]	; (80097a4 <usb_lld_start+0x104>)
 8009740:	6b5a      	ldr	r2, [r3, #52]	; 0x34
 8009742:	f042 0280 	orr.w	r2, r2, #128	; 0x80
 8009746:	635a      	str	r2, [r3, #52]	; 0x34
 8009748:	695a      	ldr	r2, [r3, #20]
 800974a:	2100      	movs	r1, #0
 800974c:	f042 0280 	orr.w	r2, r2, #128	; 0x80
 8009750:	615a      	str	r2, [r3, #20]
 8009752:	2043      	movs	r0, #67	; 0x43
 8009754:	6159      	str	r1, [r3, #20]
 8009756:	210e      	movs	r1, #14
 8009758:	f7fd f88a 	bl	8006870 <nvicEnableVector>
 800975c:	e7b3      	b.n	80096c6 <usb_lld_start+0x26>
 800975e:	4b12      	ldr	r3, [pc, #72]	; (80097a8 <usb_lld_start+0x108>)
 8009760:	9500      	str	r5, [sp, #0]
 8009762:	224a      	movs	r2, #74	; 0x4a
 8009764:	f44f 71fc 	mov.w	r1, #504	; 0x1f8
 8009768:	f105 0068 	add.w	r0, r5, #104	; 0x68
 800976c:	f7f9 fca0 	bl	80030b0 <chThdCreateI>
 8009770:	6668      	str	r0, [r5, #100]	; 0x64
 8009772:	f890 3020 	ldrb.w	r3, [r0, #32]
 8009776:	2b02      	cmp	r3, #2
 8009778:	4604      	mov	r4, r0
 800977a:	d002      	beq.n	8009782 <usb_lld_start+0xe2>
 800977c:	480b      	ldr	r0, [pc, #44]	; (80097ac <usb_lld_start+0x10c>)
 800977e:	f7f8 ff57 	bl	8002630 <chSysHalt>
 8009782:	4620      	mov	r0, r4
 8009784:	f7f9 fa0c 	bl	8002ba0 <chSchReadyI>
 8009788:	f7f9 fbea 	bl	8002f60 <chSchRescheduleS>
 800978c:	e7ce      	b.n	800972c <usb_lld_start+0x8c>
 800978e:	f7f7 fd67 	bl	8001260 <__stack_chk_fail>
 8009792:	bf00      	nop
 8009794:	20000800 	.word	0x20000800
 8009798:	20002000 	.word	0x20002000
 800979c:	40001440 	.word	0x40001440
 80097a0:	02200003 	.word	0x02200003
 80097a4:	40023800 	.word	0x40023800
 80097a8:	08009181 	.word	0x08009181
 80097ac:	0800f030 	.word	0x0800f030

080097b0 <usb_lld_reset>:
 80097b0:	b5f0      	push	{r4, r5, r6, r7, lr}
 80097b2:	4e35      	ldr	r6, [pc, #212]	; (8009888 <usb_lld_reset+0xd8>)
 80097b4:	6d05      	ldr	r5, [r0, #80]	; 0x50
 80097b6:	6833      	ldr	r3, [r6, #0]
 80097b8:	b083      	sub	sp, #12
 80097ba:	4607      	mov	r7, r0
 80097bc:	9301      	str	r3, [sp, #4]
 80097be:	2320      	movs	r3, #32
 80097c0:	612b      	str	r3, [r5, #16]
 80097c2:	692c      	ldr	r4, [r5, #16]
 80097c4:	f014 0420 	ands.w	r4, r4, #32
 80097c8:	d1fb      	bne.n	80097c2 <usb_lld_reset+0x12>
 80097ca:	200c      	movs	r0, #12
 80097cc:	f7f8 ff90 	bl	80026f0 <chSysPolledDelayX>
 80097d0:	4623      	mov	r3, r4
 80097d2:	f04f 6000 	mov.w	r0, #134217728	; 0x8000000
 80097d6:	21ff      	movs	r1, #255	; 0xff
 80097d8:	eb05 1243 	add.w	r2, r5, r3, lsl #5
 80097dc:	3301      	adds	r3, #1
 80097de:	f8c2 0900 	str.w	r0, [r2, #2304]	; 0x900
 80097e2:	f8c2 0b00 	str.w	r0, [r2, #2816]	; 0xb00
 80097e6:	f8c2 1908 	str.w	r1, [r2, #2312]	; 0x908
 80097ea:	f8c2 1b08 	str.w	r1, [r2, #2824]	; 0xb08
 80097ee:	6d7a      	ldr	r2, [r7, #84]	; 0x54
 80097f0:	6892      	ldr	r2, [r2, #8]
 80097f2:	429a      	cmp	r2, r3
 80097f4:	d2f0      	bcs.n	80097d8 <usb_lld_reset+0x28>
 80097f6:	f04f 32ff 	mov.w	r2, #4294967295
 80097fa:	f04f 1301 	mov.w	r3, #65537	; 0x10001
 80097fe:	f8c5 2818 	str.w	r2, [r5, #2072]	; 0x818
 8009802:	f8c5 381c 	str.w	r3, [r5, #2076]	; 0x81c
 8009806:	6d7b      	ldr	r3, [r7, #84]	; 0x54
 8009808:	681a      	ldr	r2, [r3, #0]
 800980a:	65ba      	str	r2, [r7, #88]	; 0x58
 800980c:	681b      	ldr	r3, [r3, #0]
 800980e:	626b      	str	r3, [r5, #36]	; 0x24
 8009810:	6d3a      	ldr	r2, [r7, #80]	; 0x50
 8009812:	2310      	movs	r3, #16
 8009814:	6113      	str	r3, [r2, #16]
 8009816:	6914      	ldr	r4, [r2, #16]
 8009818:	f014 0410 	ands.w	r4, r4, #16
 800981c:	d1fb      	bne.n	8009816 <usb_lld_reset+0x66>
 800981e:	200c      	movs	r0, #12
 8009820:	f7f8 ff66 	bl	80026f0 <chSysPolledDelayX>
 8009824:	f8d5 3800 	ldr.w	r3, [r5, #2048]	; 0x800
 8009828:	4a18      	ldr	r2, [pc, #96]	; (800988c <usb_lld_reset+0xdc>)
 800982a:	f423 63fe 	bic.w	r3, r3, #2032	; 0x7f0
 800982e:	f8c5 3800 	str.w	r3, [r5, #2048]	; 0x800
 8009832:	69ab      	ldr	r3, [r5, #24]
 8009834:	f443 2340 	orr.w	r3, r3, #786432	; 0xc0000
 8009838:	f043 0310 	orr.w	r3, r3, #16
 800983c:	61ab      	str	r3, [r5, #24]
 800983e:	2309      	movs	r3, #9
 8009840:	f8c5 3810 	str.w	r3, [r5, #2064]	; 0x810
 8009844:	f8c5 3814 	str.w	r3, [r5, #2068]	; 0x814
 8009848:	4b11      	ldr	r3, [pc, #68]	; (8009890 <usb_lld_reset+0xe0>)
 800984a:	60fa      	str	r2, [r7, #12]
 800984c:	f8c5 4b10 	str.w	r4, [r5, #2832]	; 0xb10
 8009850:	f8c5 3b00 	str.w	r3, [r5, #2816]	; 0xb00
 8009854:	f8c5 4910 	str.w	r4, [r5, #2320]	; 0x910
 8009858:	f8c5 3900 	str.w	r3, [r5, #2304]	; 0x900
 800985c:	e9d7 2415 	ldrd	r2, r4, [r7, #84]	; 0x54
 8009860:	f104 0310 	add.w	r3, r4, #16
 8009864:	65bb      	str	r3, [r7, #88]	; 0x58
 8009866:	6852      	ldr	r2, [r2, #4]
 8009868:	4293      	cmp	r3, r2
 800986a:	d902      	bls.n	8009872 <usb_lld_reset+0xc2>
 800986c:	4809      	ldr	r0, [pc, #36]	; (8009894 <usb_lld_reset+0xe4>)
 800986e:	f7f8 fedf 	bl	8002630 <chSysHalt>
 8009872:	f444 1480 	orr.w	r4, r4, #1048576	; 0x100000
 8009876:	62ac      	str	r4, [r5, #40]	; 0x28
 8009878:	9a01      	ldr	r2, [sp, #4]
 800987a:	6833      	ldr	r3, [r6, #0]
 800987c:	429a      	cmp	r2, r3
 800987e:	d101      	bne.n	8009884 <usb_lld_reset+0xd4>
 8009880:	b003      	add	sp, #12
 8009882:	bdf0      	pop	{r4, r5, r6, r7, pc}
 8009884:	f7f7 fcec 	bl	8001260 <__stack_chk_fail>
 8009888:	20000800 	.word	0x20000800
 800988c:	0800f040 	.word	0x0800f040
 8009890:	10008040 	.word	0x10008040
 8009894:	0800f010 	.word	0x0800f010
	...

080098a0 <usb_lld_set_address>:
 80098a0:	b500      	push	{lr}
 80098a2:	4a0c      	ldr	r2, [pc, #48]	; (80098d4 <usb_lld_set_address+0x34>)
 80098a4:	6d01      	ldr	r1, [r0, #80]	; 0x50
 80098a6:	6813      	ldr	r3, [r2, #0]
 80098a8:	f890 004e 	ldrb.w	r0, [r0, #78]	; 0x4e
 80098ac:	b083      	sub	sp, #12
 80098ae:	9301      	str	r3, [sp, #4]
 80098b0:	f8d1 3800 	ldr.w	r3, [r1, #2048]	; 0x800
 80098b4:	f423 63fe 	bic.w	r3, r3, #2032	; 0x7f0
 80098b8:	ea43 1300 	orr.w	r3, r3, r0, lsl #4
 80098bc:	f8c1 3800 	str.w	r3, [r1, #2048]	; 0x800
 80098c0:	9901      	ldr	r1, [sp, #4]
 80098c2:	6813      	ldr	r3, [r2, #0]
 80098c4:	4299      	cmp	r1, r3
 80098c6:	d102      	bne.n	80098ce <usb_lld_set_address+0x2e>
 80098c8:	b003      	add	sp, #12
 80098ca:	f85d fb04 	ldr.w	pc, [sp], #4
 80098ce:	f7f7 fcc7 	bl	8001260 <__stack_chk_fail>
 80098d2:	bf00      	nop
 80098d4:	20000800 	.word	0x20000800
	...

080098e0 <usb_lld_init_endpoint>:
 80098e0:	e92d 4ff0 	stmdb	sp!, {r4, r5, r6, r7, r8, r9, sl, fp, lr}
 80098e4:	b20e      	sxth	r6, r1
 80098e6:	eb00 0886 	add.w	r8, r0, r6, lsl #2
 80098ea:	f8df 9188 	ldr.w	r9, [pc, #392]	; 8009a74 <usb_lld_init_endpoint+0x194>
 80098ee:	f8d8 300c 	ldr.w	r3, [r8, #12]
 80098f2:	f8d9 2000 	ldr.w	r2, [r9]
 80098f6:	681b      	ldr	r3, [r3, #0]
 80098f8:	b085      	sub	sp, #20
 80098fa:	f003 0303 	and.w	r3, r3, #3
 80098fe:	2b02      	cmp	r3, #2
 8009900:	460d      	mov	r5, r1
 8009902:	4607      	mov	r7, r0
 8009904:	9203      	str	r2, [sp, #12]
 8009906:	f000 80a0 	beq.w	8009a4a <usb_lld_init_endpoint+0x16a>
 800990a:	2b03      	cmp	r3, #3
 800990c:	f000 809a 	beq.w	8009a44 <usb_lld_init_endpoint+0x164>
 8009910:	4954      	ldr	r1, [pc, #336]	; (8009a64 <usb_lld_init_endpoint+0x184>)
 8009912:	4a55      	ldr	r2, [pc, #340]	; (8009a68 <usb_lld_init_endpoint+0x188>)
 8009914:	2b01      	cmp	r3, #1
 8009916:	bf0c      	ite	eq
 8009918:	468a      	moveq	sl, r1
 800991a:	4692      	movne	sl, r2
 800991c:	6d3c      	ldr	r4, [r7, #80]	; 0x50
 800991e:	016a      	lsls	r2, r5, #5
 8009920:	18a3      	adds	r3, r4, r2
 8009922:	2100      	movs	r1, #0
 8009924:	f8c3 1b10 	str.w	r1, [r3, #2832]	; 0xb10
 8009928:	f8d8 000c 	ldr.w	r0, [r8, #12]
 800992c:	68c3      	ldr	r3, [r0, #12]
 800992e:	f105 0110 	add.w	r1, r5, #16
 8009932:	f04f 0c01 	mov.w	ip, #1
 8009936:	fa0c f101 	lsl.w	r1, ip, r1
 800993a:	2b00      	cmp	r3, #0
 800993c:	d073      	beq.n	8009a26 <usb_lld_init_endpoint+0x146>
 800993e:	8a40      	ldrh	r0, [r0, #18]
 8009940:	f105 0358 	add.w	r3, r5, #88	; 0x58
 8009944:	015b      	lsls	r3, r3, #5
 8009946:	ea40 000a 	orr.w	r0, r0, sl
 800994a:	50e0      	str	r0, [r4, r3]
 800994c:	f8d4 381c 	ldr.w	r3, [r4, #2076]	; 0x81c
 8009950:	4319      	orrs	r1, r3
 8009952:	f8c4 181c 	str.w	r1, [r4, #2076]	; 0x81c
 8009956:	4422      	add	r2, r4
 8009958:	2300      	movs	r3, #0
 800995a:	f8c2 3910 	str.w	r3, [r2, #2320]	; 0x910
 800995e:	f8d8 100c 	ldr.w	r1, [r8, #12]
 8009962:	688a      	ldr	r2, [r1, #8]
 8009964:	01ab      	lsls	r3, r5, #6
 8009966:	f043 0320 	orr.w	r3, r3, #32
 800996a:	f105 3bff 	add.w	fp, r5, #4294967295
 800996e:	2a00      	cmp	r2, #0
 8009970:	d039      	beq.n	80099e6 <usb_lld_init_endpoint+0x106>
 8009972:	8b8a      	ldrh	r2, [r1, #28]
 8009974:	8a0e      	ldrh	r6, [r1, #16]
 8009976:	2a01      	cmp	r2, #1
 8009978:	ea4f 0696 	mov.w	r6, r6, lsr #2
 800997c:	bf88      	it	hi
 800997e:	4356      	mulhi	r6, r2
 8009980:	e9d7 1215 	ldrd	r1, r2, [r7, #84]	; 0x54
 8009984:	18b0      	adds	r0, r6, r2
 8009986:	65b8      	str	r0, [r7, #88]	; 0x58
 8009988:	6849      	ldr	r1, [r1, #4]
 800998a:	4288      	cmp	r0, r1
 800998c:	ea4f 4606 	mov.w	r6, r6, lsl #16
 8009990:	d85e      	bhi.n	8009a50 <usb_lld_init_endpoint+0x170>
 8009992:	f10b 0b40 	add.w	fp, fp, #64	; 0x40
 8009996:	eb04 0b8b 	add.w	fp, r4, fp, lsl #2
 800999a:	4316      	orrs	r6, r2
 800999c:	f8cb 6004 	str.w	r6, [fp, #4]
 80099a0:	6d3a      	ldr	r2, [r7, #80]	; 0x50
 80099a2:	6113      	str	r3, [r2, #16]
 80099a4:	6913      	ldr	r3, [r2, #16]
 80099a6:	0699      	lsls	r1, r3, #26
 80099a8:	d4fc      	bmi.n	80099a4 <usb_lld_init_endpoint+0xc4>
 80099aa:	200c      	movs	r0, #12
 80099ac:	f7f8 fea0 	bl	80026f0 <chSysPolledDelayX>
 80099b0:	f8d8 300c 	ldr.w	r3, [r8, #12]
 80099b4:	8a1b      	ldrh	r3, [r3, #16]
 80099b6:	f105 0248 	add.w	r2, r5, #72	; 0x48
 80099ba:	ea43 5385 	orr.w	r3, r3, r5, lsl #22
 80099be:	0152      	lsls	r2, r2, #5
 80099c0:	ea43 030a 	orr.w	r3, r3, sl
 80099c4:	50a3      	str	r3, [r4, r2]
 80099c6:	2101      	movs	r1, #1
 80099c8:	f8d4 381c 	ldr.w	r3, [r4, #2076]	; 0x81c
 80099cc:	fa01 f505 	lsl.w	r5, r1, r5
 80099d0:	431d      	orrs	r5, r3
 80099d2:	f8c4 581c 	str.w	r5, [r4, #2076]	; 0x81c
 80099d6:	9a03      	ldr	r2, [sp, #12]
 80099d8:	f8d9 3000 	ldr.w	r3, [r9]
 80099dc:	429a      	cmp	r2, r3
 80099de:	d13f      	bne.n	8009a60 <usb_lld_init_endpoint+0x180>
 80099e0:	b005      	add	sp, #20
 80099e2:	e8bd 8ff0 	ldmia.w	sp!, {r4, r5, r6, r7, r8, r9, sl, fp, pc}
 80099e6:	f105 023f 	add.w	r2, r5, #63	; 0x3f
 80099ea:	eb04 0282 	add.w	r2, r4, r2, lsl #2
 80099ee:	491f      	ldr	r1, [pc, #124]	; (8009a6c <usb_lld_init_endpoint+0x18c>)
 80099f0:	6051      	str	r1, [r2, #4]
 80099f2:	6d3a      	ldr	r2, [r7, #80]	; 0x50
 80099f4:	6113      	str	r3, [r2, #16]
 80099f6:	6913      	ldr	r3, [r2, #16]
 80099f8:	069b      	lsls	r3, r3, #26
 80099fa:	d4fc      	bmi.n	80099f6 <usb_lld_init_endpoint+0x116>
 80099fc:	eb04 1646 	add.w	r6, r4, r6, lsl #5
 8009a00:	200c      	movs	r0, #12
 8009a02:	f7f8 fe75 	bl	80026f0 <chSysPolledDelayX>
 8009a06:	f8d6 3900 	ldr.w	r3, [r6, #2304]	; 0x900
 8009a0a:	f423 4300 	bic.w	r3, r3, #32768	; 0x8000
 8009a0e:	f8c6 3900 	str.w	r3, [r6, #2304]	; 0x900
 8009a12:	f8d4 381c 	ldr.w	r3, [r4, #2076]	; 0x81c
 8009a16:	2101      	movs	r1, #1
 8009a18:	fa01 f505 	lsl.w	r5, r1, r5
 8009a1c:	ea23 0505 	bic.w	r5, r3, r5
 8009a20:	f8c4 581c 	str.w	r5, [r4, #2076]	; 0x81c
 8009a24:	e7d7      	b.n	80099d6 <usb_lld_init_endpoint+0xf6>
 8009a26:	eb04 1046 	add.w	r0, r4, r6, lsl #5
 8009a2a:	f8d0 3b00 	ldr.w	r3, [r0, #2816]	; 0xb00
 8009a2e:	f423 4300 	bic.w	r3, r3, #32768	; 0x8000
 8009a32:	f8c0 3b00 	str.w	r3, [r0, #2816]	; 0xb00
 8009a36:	f8d4 381c 	ldr.w	r3, [r4, #2076]	; 0x81c
 8009a3a:	ea23 0101 	bic.w	r1, r3, r1
 8009a3e:	f8c4 181c 	str.w	r1, [r4, #2076]	; 0x81c
 8009a42:	e788      	b.n	8009956 <usb_lld_init_endpoint+0x76>
 8009a44:	f8df a030 	ldr.w	sl, [pc, #48]	; 8009a78 <usb_lld_init_endpoint+0x198>
 8009a48:	e768      	b.n	800991c <usb_lld_init_endpoint+0x3c>
 8009a4a:	f8df a030 	ldr.w	sl, [pc, #48]	; 8009a7c <usb_lld_init_endpoint+0x19c>
 8009a4e:	e765      	b.n	800991c <usb_lld_init_endpoint+0x3c>
 8009a50:	4807      	ldr	r0, [pc, #28]	; (8009a70 <usb_lld_init_endpoint+0x190>)
 8009a52:	e9cd 2300 	strd	r2, r3, [sp]
 8009a56:	f7f8 fdeb 	bl	8002630 <chSysHalt>
 8009a5a:	e9dd 2300 	ldrd	r2, r3, [sp]
 8009a5e:	e798      	b.n	8009992 <usb_lld_init_endpoint+0xb2>
 8009a60:	f7f7 fbfe 	bl	8001260 <__stack_chk_fail>
 8009a64:	10048000 	.word	0x10048000
 8009a68:	10008000 	.word	0x10008000
 8009a6c:	02000400 	.word	0x02000400
 8009a70:	0800f010 	.word	0x0800f010
 8009a74:	20000800 	.word	0x20000800
 8009a78:	100c8000 	.word	0x100c8000
 8009a7c:	10088000 	.word	0x10088000

08009a80 <usb_lld_get_status_out>:
 8009a80:	b500      	push	{lr}
 8009a82:	4a0c      	ldr	r2, [pc, #48]	; (8009ab4 <usb_lld_get_status_out+0x34>)
 8009a84:	6d03      	ldr	r3, [r0, #80]	; 0x50
 8009a86:	6810      	ldr	r0, [r2, #0]
 8009a88:	b083      	sub	sp, #12
 8009a8a:	3158      	adds	r1, #88	; 0x58
 8009a8c:	0149      	lsls	r1, r1, #5
 8009a8e:	9001      	str	r0, [sp, #4]
 8009a90:	585b      	ldr	r3, [r3, r1]
 8009a92:	f413 4000 	ands.w	r0, r3, #32768	; 0x8000
 8009a96:	d004      	beq.n	8009aa2 <usb_lld_get_status_out+0x22>
 8009a98:	f413 1f00 	tst.w	r3, #2097152	; 0x200000
 8009a9c:	bf14      	ite	ne
 8009a9e:	2001      	movne	r0, #1
 8009aa0:	2002      	moveq	r0, #2
 8009aa2:	9901      	ldr	r1, [sp, #4]
 8009aa4:	6813      	ldr	r3, [r2, #0]
 8009aa6:	4299      	cmp	r1, r3
 8009aa8:	d102      	bne.n	8009ab0 <usb_lld_get_status_out+0x30>
 8009aaa:	b003      	add	sp, #12
 8009aac:	f85d fb04 	ldr.w	pc, [sp], #4
 8009ab0:	f7f7 fbd6 	bl	8001260 <__stack_chk_fail>
 8009ab4:	20000800 	.word	0x20000800
	...

08009ac0 <usb_lld_get_status_in>:
 8009ac0:	b500      	push	{lr}
 8009ac2:	4a0c      	ldr	r2, [pc, #48]	; (8009af4 <usb_lld_get_status_in+0x34>)
 8009ac4:	6d03      	ldr	r3, [r0, #80]	; 0x50
 8009ac6:	6810      	ldr	r0, [r2, #0]
 8009ac8:	b083      	sub	sp, #12
 8009aca:	3148      	adds	r1, #72	; 0x48
 8009acc:	0149      	lsls	r1, r1, #5
 8009ace:	9001      	str	r0, [sp, #4]
 8009ad0:	585b      	ldr	r3, [r3, r1]
 8009ad2:	f413 4000 	ands.w	r0, r3, #32768	; 0x8000
 8009ad6:	d004      	beq.n	8009ae2 <usb_lld_get_status_in+0x22>
 8009ad8:	f413 1f00 	tst.w	r3, #2097152	; 0x200000
 8009adc:	bf14      	ite	ne
 8009ade:	2001      	movne	r0, #1
 8009ae0:	2002      	moveq	r0, #2
 8009ae2:	9901      	ldr	r1, [sp, #4]
 8009ae4:	6813      	ldr	r3, [r2, #0]
 8009ae6:	4299      	cmp	r1, r3
 8009ae8:	d102      	bne.n	8009af0 <usb_lld_get_status_in+0x30>
 8009aea:	b003      	add	sp, #12
 8009aec:	f85d fb04 	ldr.w	pc, [sp], #4
 8009af0:	f7f7 fbb6 	bl	8001260 <__stack_chk_fail>
 8009af4:	20000800 	.word	0x20000800
	...

08009b00 <usb_lld_read_setup>:
 8009b00:	b510      	push	{r4, lr}
 8009b02:	eb00 0181 	add.w	r1, r0, r1, lsl #2
 8009b06:	4b09      	ldr	r3, [pc, #36]	; (8009b2c <usb_lld_read_setup+0x2c>)
 8009b08:	68c9      	ldr	r1, [r1, #12]
 8009b0a:	6818      	ldr	r0, [r3, #0]
 8009b0c:	6a09      	ldr	r1, [r1, #32]
 8009b0e:	b082      	sub	sp, #8
 8009b10:	680c      	ldr	r4, [r1, #0]
 8009b12:	9001      	str	r0, [sp, #4]
 8009b14:	6848      	ldr	r0, [r1, #4]
 8009b16:	6014      	str	r4, [r2, #0]
 8009b18:	9901      	ldr	r1, [sp, #4]
 8009b1a:	681b      	ldr	r3, [r3, #0]
 8009b1c:	6050      	str	r0, [r2, #4]
 8009b1e:	4299      	cmp	r1, r3
 8009b20:	d101      	bne.n	8009b26 <usb_lld_read_setup+0x26>
 8009b22:	b002      	add	sp, #8
 8009b24:	bd10      	pop	{r4, pc}
 8009b26:	f7f7 fb9b 	bl	8001260 <__stack_chk_fail>
 8009b2a:	bf00      	nop
 8009b2c:	20000800 	.word	0x20000800

08009b30 <usb_lld_prepare_receive>:
 8009b30:	b5f0      	push	{r4, r5, r6, r7, lr}
 8009b32:	eb00 0781 	add.w	r7, r0, r1, lsl #2
 8009b36:	4e13      	ldr	r6, [pc, #76]	; (8009b84 <usb_lld_prepare_receive+0x54>)
 8009b38:	68fa      	ldr	r2, [r7, #12]
 8009b3a:	6833      	ldr	r3, [r6, #0]
 8009b3c:	6995      	ldr	r5, [r2, #24]
 8009b3e:	b083      	sub	sp, #12
 8009b40:	686a      	ldr	r2, [r5, #4]
 8009b42:	9301      	str	r3, [sp, #4]
 8009b44:	612a      	str	r2, [r5, #16]
 8009b46:	b929      	cbnz	r1, 8009b54 <usb_lld_prepare_receive+0x24>
 8009b48:	2a40      	cmp	r2, #64	; 0x40
 8009b4a:	d903      	bls.n	8009b54 <usb_lld_prepare_receive+0x24>
 8009b4c:	2240      	movs	r2, #64	; 0x40
 8009b4e:	4c0e      	ldr	r4, [pc, #56]	; (8009b88 <usb_lld_prepare_receive+0x58>)
 8009b50:	606a      	str	r2, [r5, #4]
 8009b52:	e001      	b.n	8009b58 <usb_lld_prepare_receive+0x28>
 8009b54:	f042 44c0 	orr.w	r4, r2, #1610612736	; 0x60000000
 8009b58:	68fb      	ldr	r3, [r7, #12]
 8009b5a:	6d00      	ldr	r0, [r0, #80]	; 0x50
 8009b5c:	8a5d      	ldrh	r5, [r3, #18]
 8009b5e:	eb00 1141 	add.w	r1, r0, r1, lsl #5
 8009b62:	1e6b      	subs	r3, r5, #1
 8009b64:	4413      	add	r3, r2
 8009b66:	fbb3 f3f5 	udiv	r3, r3, r5
 8009b6a:	ea44 43c3 	orr.w	r3, r4, r3, lsl #19
 8009b6e:	f8c1 3b10 	str.w	r3, [r1, #2832]	; 0xb10
 8009b72:	9a01      	ldr	r2, [sp, #4]
 8009b74:	6833      	ldr	r3, [r6, #0]
 8009b76:	429a      	cmp	r2, r3
 8009b78:	d101      	bne.n	8009b7e <usb_lld_prepare_receive+0x4e>
 8009b7a:	b003      	add	sp, #12
 8009b7c:	bdf0      	pop	{r4, r5, r6, r7, pc}
 8009b7e:	f7f7 fb6f 	bl	8001260 <__stack_chk_fail>
 8009b82:	bf00      	nop
 8009b84:	20000800 	.word	0x20000800
 8009b88:	60000040 	.word	0x60000040
 8009b8c:	00000000 	.word	0x00000000

08009b90 <otg_epout_handler.constprop.7>:
 8009b90:	e92d 41f0 	stmdb	sp!, {r4, r5, r6, r7, r8, lr}
 8009b94:	4e31      	ldr	r6, [pc, #196]	; (8009c5c <otg_epout_handler.constprop.7+0xcc>)
 8009b96:	f8df 80c8 	ldr.w	r8, [pc, #200]	; 8009c60 <otg_epout_handler.constprop.7+0xd0>
 8009b9a:	6d37      	ldr	r7, [r6, #80]	; 0x50
 8009b9c:	f8d8 3000 	ldr.w	r3, [r8]
 8009ba0:	b082      	sub	sp, #8
 8009ba2:	4605      	mov	r5, r0
 8009ba4:	9301      	str	r3, [sp, #4]
 8009ba6:	eb07 1340 	add.w	r3, r7, r0, lsl #5
 8009baa:	f8d3 4b08 	ldr.w	r4, [r3, #2824]	; 0xb08
 8009bae:	f8c3 4b08 	str.w	r4, [r3, #2824]	; 0xb08
 8009bb2:	0720      	lsls	r0, r4, #28
 8009bb4:	d50a      	bpl.n	8009bcc <otg_epout_handler.constprop.7+0x3c>
 8009bb6:	f8d7 3814 	ldr.w	r3, [r7, #2068]	; 0x814
 8009bba:	0719      	lsls	r1, r3, #28
 8009bbc:	d506      	bpl.n	8009bcc <otg_epout_handler.constprop.7+0x3c>
 8009bbe:	eb06 0385 	add.w	r3, r6, r5, lsl #2
 8009bc2:	4629      	mov	r1, r5
 8009bc4:	68db      	ldr	r3, [r3, #12]
 8009bc6:	4630      	mov	r0, r6
 8009bc8:	685b      	ldr	r3, [r3, #4]
 8009bca:	4798      	blx	r3
 8009bcc:	07e2      	lsls	r2, r4, #31
 8009bce:	d53b      	bpl.n	8009c48 <otg_epout_handler.constprop.7+0xb8>
 8009bd0:	f8d7 3814 	ldr.w	r3, [r7, #2068]	; 0x814
 8009bd4:	07db      	lsls	r3, r3, #31
 8009bd6:	d537      	bpl.n	8009c48 <otg_epout_handler.constprop.7+0xb8>
 8009bd8:	eb06 0385 	add.w	r3, r6, r5, lsl #2
 8009bdc:	68d9      	ldr	r1, [r3, #12]
 8009bde:	698b      	ldr	r3, [r1, #24]
 8009be0:	6858      	ldr	r0, [r3, #4]
 8009be2:	691a      	ldr	r2, [r3, #16]
 8009be4:	4290      	cmp	r0, r2
 8009be6:	d311      	bcc.n	8009c0c <otg_epout_handler.constprop.7+0x7c>
 8009be8:	8973      	ldrh	r3, [r6, #10]
 8009bea:	9c01      	ldr	r4, [sp, #4]
 8009bec:	f8d8 0000 	ldr.w	r0, [r8]
 8009bf0:	2201      	movs	r2, #1
 8009bf2:	40aa      	lsls	r2, r5
 8009bf4:	ea23 0302 	bic.w	r3, r3, r2
 8009bf8:	4284      	cmp	r4, r0
 8009bfa:	8173      	strh	r3, [r6, #10]
 8009bfc:	d12c      	bne.n	8009c58 <otg_epout_handler.constprop.7+0xc8>
 8009bfe:	68cb      	ldr	r3, [r1, #12]
 8009c00:	4816      	ldr	r0, [pc, #88]	; (8009c5c <otg_epout_handler.constprop.7+0xcc>)
 8009c02:	4629      	mov	r1, r5
 8009c04:	b002      	add	sp, #8
 8009c06:	e8bd 41f0 	ldmia.w	sp!, {r4, r5, r6, r7, r8, lr}
 8009c0a:	4718      	bx	r3
 8009c0c:	1a12      	subs	r2, r2, r0
 8009c0e:	2400      	movs	r4, #0
 8009c10:	e9c3 2401 	strd	r2, r4, [r3, #4]
 8009c14:	4629      	mov	r1, r5
 8009c16:	4811      	ldr	r0, [pc, #68]	; (8009c5c <otg_epout_handler.constprop.7+0xcc>)
 8009c18:	f7ff ff8a 	bl	8009b30 <usb_lld_prepare_receive>
 8009c1c:	2320      	movs	r3, #32
 8009c1e:	f383 8811 	msr	BASEPRI, r3
 8009c22:	f7f9 fdcd 	bl	80037c0 <_stats_start_measure_crit_isr>
 8009c26:	f7f8 fde3 	bl	80027f0 <_dbg_check_lock_from_isr>
 8009c2a:	6d33      	ldr	r3, [r6, #80]	; 0x50
 8009c2c:	eb03 1545 	add.w	r5, r3, r5, lsl #5
 8009c30:	f8d5 3b00 	ldr.w	r3, [r5, #2816]	; 0xb00
 8009c34:	f043 6380 	orr.w	r3, r3, #67108864	; 0x4000000
 8009c38:	f8c5 3b00 	str.w	r3, [r5, #2816]	; 0xb00
 8009c3c:	f7f8 fdf8 	bl	8002830 <_dbg_check_unlock_from_isr>
 8009c40:	f7f9 fdd6 	bl	80037f0 <_stats_stop_measure_crit_isr>
 8009c44:	f384 8811 	msr	BASEPRI, r4
 8009c48:	9a01      	ldr	r2, [sp, #4]
 8009c4a:	f8d8 3000 	ldr.w	r3, [r8]
 8009c4e:	429a      	cmp	r2, r3
 8009c50:	d102      	bne.n	8009c58 <otg_epout_handler.constprop.7+0xc8>
 8009c52:	b002      	add	sp, #8
 8009c54:	e8bd 81f0 	ldmia.w	sp!, {r4, r5, r6, r7, r8, pc}
 8009c58:	f7f7 fb02 	bl	8001260 <__stack_chk_fail>
 8009c5c:	20002000 	.word	0x20002000
 8009c60:	20000800 	.word	0x20000800
	...

08009c70 <usb_lld_prepare_transmit>:
 8009c70:	b530      	push	{r4, r5, lr}
 8009c72:	eb00 0581 	add.w	r5, r0, r1, lsl #2
 8009c76:	4c16      	ldr	r4, [pc, #88]	; (8009cd0 <usb_lld_prepare_transmit+0x60>)
 8009c78:	68ea      	ldr	r2, [r5, #12]
 8009c7a:	6823      	ldr	r3, [r4, #0]
 8009c7c:	6952      	ldr	r2, [r2, #20]
 8009c7e:	b083      	sub	sp, #12
 8009c80:	9301      	str	r3, [sp, #4]
 8009c82:	6853      	ldr	r3, [r2, #4]
 8009c84:	6113      	str	r3, [r2, #16]
 8009c86:	b1c3      	cbz	r3, 8009cba <usb_lld_prepare_transmit+0x4a>
 8009c88:	b191      	cbz	r1, 8009cb0 <usb_lld_prepare_transmit+0x40>
 8009c8a:	68ea      	ldr	r2, [r5, #12]
 8009c8c:	6d00      	ldr	r0, [r0, #80]	; 0x50
 8009c8e:	8a15      	ldrh	r5, [r2, #16]
 8009c90:	eb00 1141 	add.w	r1, r0, r1, lsl #5
 8009c94:	1e6a      	subs	r2, r5, #1
 8009c96:	441a      	add	r2, r3
 8009c98:	fbb2 f2f5 	udiv	r2, r2, r5
 8009c9c:	ea43 43c2 	orr.w	r3, r3, r2, lsl #19
 8009ca0:	f8c1 3910 	str.w	r3, [r1, #2320]	; 0x910
 8009ca4:	9a01      	ldr	r2, [sp, #4]
 8009ca6:	6823      	ldr	r3, [r4, #0]
 8009ca8:	429a      	cmp	r2, r3
 8009caa:	d10e      	bne.n	8009cca <usb_lld_prepare_transmit+0x5a>
 8009cac:	b003      	add	sp, #12
 8009cae:	bd30      	pop	{r4, r5, pc}
 8009cb0:	2b40      	cmp	r3, #64	; 0x40
 8009cb2:	bf84      	itt	hi
 8009cb4:	2340      	movhi	r3, #64	; 0x40
 8009cb6:	6053      	strhi	r3, [r2, #4]
 8009cb8:	e7e7      	b.n	8009c8a <usb_lld_prepare_transmit+0x1a>
 8009cba:	6d03      	ldr	r3, [r0, #80]	; 0x50
 8009cbc:	eb03 1141 	add.w	r1, r3, r1, lsl #5
 8009cc0:	f44f 2300 	mov.w	r3, #524288	; 0x80000
 8009cc4:	f8c1 3910 	str.w	r3, [r1, #2320]	; 0x910
 8009cc8:	e7ec      	b.n	8009ca4 <usb_lld_prepare_transmit+0x34>
 8009cca:	f7f7 fac9 	bl	8001260 <__stack_chk_fail>
 8009cce:	bf00      	nop
 8009cd0:	20000800 	.word	0x20000800
	...

08009ce0 <otg_epin_handler.constprop.8>:
 8009ce0:	e92d 43f0 	stmdb	sp!, {r4, r5, r6, r7, r8, r9, lr}
 8009ce4:	4e3e      	ldr	r6, [pc, #248]	; (8009de0 <otg_epin_handler.constprop.8+0x100>)
 8009ce6:	f8df 8100 	ldr.w	r8, [pc, #256]	; 8009de8 <otg_epin_handler.constprop.8+0x108>
 8009cea:	6d35      	ldr	r5, [r6, #80]	; 0x50
 8009cec:	f8d8 3000 	ldr.w	r3, [r8]
 8009cf0:	b083      	sub	sp, #12
 8009cf2:	4607      	mov	r7, r0
 8009cf4:	9301      	str	r3, [sp, #4]
 8009cf6:	eb05 1340 	add.w	r3, r5, r0, lsl #5
 8009cfa:	f8d3 4908 	ldr.w	r4, [r3, #2312]	; 0x908
 8009cfe:	f8c3 4908 	str.w	r4, [r3, #2312]	; 0x908
 8009d02:	07e1      	lsls	r1, r4, #31
 8009d04:	d515      	bpl.n	8009d32 <otg_epin_handler.constprop.8+0x52>
 8009d06:	f8d5 3810 	ldr.w	r3, [r5, #2064]	; 0x810
 8009d0a:	07da      	lsls	r2, r3, #31
 8009d0c:	d511      	bpl.n	8009d32 <otg_epin_handler.constprop.8+0x52>
 8009d0e:	eb06 0380 	add.w	r3, r6, r0, lsl #2
 8009d12:	68d9      	ldr	r1, [r3, #12]
 8009d14:	694b      	ldr	r3, [r1, #20]
 8009d16:	6858      	ldr	r0, [r3, #4]
 8009d18:	691a      	ldr	r2, [r3, #16]
 8009d1a:	4290      	cmp	r0, r2
 8009d1c:	d336      	bcc.n	8009d8c <otg_epin_handler.constprop.8+0xac>
 8009d1e:	8933      	ldrh	r3, [r6, #8]
 8009d20:	2201      	movs	r2, #1
 8009d22:	40ba      	lsls	r2, r7
 8009d24:	ea23 0302 	bic.w	r3, r3, r2
 8009d28:	8133      	strh	r3, [r6, #8]
 8009d2a:	688b      	ldr	r3, [r1, #8]
 8009d2c:	4630      	mov	r0, r6
 8009d2e:	4639      	mov	r1, r7
 8009d30:	4798      	blx	r3
 8009d32:	0623      	lsls	r3, r4, #24
 8009d34:	d506      	bpl.n	8009d44 <otg_epin_handler.constprop.8+0x64>
 8009d36:	2301      	movs	r3, #1
 8009d38:	f8d5 2834 	ldr.w	r2, [r5, #2100]	; 0x834
 8009d3c:	fa03 f707 	lsl.w	r7, r3, r7
 8009d40:	4217      	tst	r7, r2
 8009d42:	d107      	bne.n	8009d54 <otg_epin_handler.constprop.8+0x74>
 8009d44:	9a01      	ldr	r2, [sp, #4]
 8009d46:	f8d8 3000 	ldr.w	r3, [r8]
 8009d4a:	429a      	cmp	r2, r3
 8009d4c:	d145      	bne.n	8009dda <otg_epin_handler.constprop.8+0xfa>
 8009d4e:	b003      	add	sp, #12
 8009d50:	e8bd 83f0 	ldmia.w	sp!, {r4, r5, r6, r7, r8, r9, pc}
 8009d54:	2320      	movs	r3, #32
 8009d56:	f383 8811 	msr	BASEPRI, r3
 8009d5a:	f7f9 fd31 	bl	80037c0 <_stats_start_measure_crit_isr>
 8009d5e:	f7f8 fd47 	bl	80027f0 <_dbg_check_lock_from_isr>
 8009d62:	f8d5 2834 	ldr.w	r2, [r5, #2100]	; 0x834
 8009d66:	6df3      	ldr	r3, [r6, #92]	; 0x5c
 8009d68:	481e      	ldr	r0, [pc, #120]	; (8009de4 <otg_epin_handler.constprop.8+0x104>)
 8009d6a:	ea22 0207 	bic.w	r2, r2, r7
 8009d6e:	f8c5 2834 	str.w	r2, [r5, #2100]	; 0x834
 8009d72:	431f      	orrs	r7, r3
 8009d74:	2100      	movs	r1, #0
 8009d76:	65f7      	str	r7, [r6, #92]	; 0x5c
 8009d78:	f7f9 fb22 	bl	80033c0 <chThdResumeI>
 8009d7c:	f7f8 fd58 	bl	8002830 <_dbg_check_unlock_from_isr>
 8009d80:	f7f9 fd36 	bl	80037f0 <_stats_stop_measure_crit_isr>
 8009d84:	2300      	movs	r3, #0
 8009d86:	f383 8811 	msr	BASEPRI, r3
 8009d8a:	e7db      	b.n	8009d44 <otg_epin_handler.constprop.8+0x64>
 8009d8c:	1a12      	subs	r2, r2, r0
 8009d8e:	f04f 0900 	mov.w	r9, #0
 8009d92:	e9c3 2901 	strd	r2, r9, [r3, #4]
 8009d96:	4639      	mov	r1, r7
 8009d98:	4630      	mov	r0, r6
 8009d9a:	f7ff ff69 	bl	8009c70 <usb_lld_prepare_transmit>
 8009d9e:	2320      	movs	r3, #32
 8009da0:	f383 8811 	msr	BASEPRI, r3
 8009da4:	f7f9 fd0c 	bl	80037c0 <_stats_start_measure_crit_isr>
 8009da8:	f7f8 fd22 	bl	80027f0 <_dbg_check_lock_from_isr>
 8009dac:	6d32      	ldr	r2, [r6, #80]	; 0x50
 8009dae:	eb02 1047 	add.w	r0, r2, r7, lsl #5
 8009db2:	2301      	movs	r3, #1
 8009db4:	f8d0 1900 	ldr.w	r1, [r0, #2304]	; 0x900
 8009db8:	f041 4104 	orr.w	r1, r1, #2214592512	; 0x84000000
 8009dbc:	f8c0 1900 	str.w	r1, [r0, #2304]	; 0x900
 8009dc0:	f8d2 1834 	ldr.w	r1, [r2, #2100]	; 0x834
 8009dc4:	40bb      	lsls	r3, r7
 8009dc6:	430b      	orrs	r3, r1
 8009dc8:	f8c2 3834 	str.w	r3, [r2, #2100]	; 0x834
 8009dcc:	f7f8 fd30 	bl	8002830 <_dbg_check_unlock_from_isr>
 8009dd0:	f7f9 fd0e 	bl	80037f0 <_stats_stop_measure_crit_isr>
 8009dd4:	f389 8811 	msr	BASEPRI, r9
 8009dd8:	e7ab      	b.n	8009d32 <otg_epin_handler.constprop.8+0x52>
 8009dda:	f7f7 fa41 	bl	8001260 <__stack_chk_fail>
 8009dde:	bf00      	nop
 8009de0:	20002000 	.word	0x20002000
 8009de4:	20002060 	.word	0x20002060
 8009de8:	20000800 	.word	0x20000800
 8009dec:	00000000 	.word	0x00000000

08009df0 <Vector14C>:
 8009df0:	b5f0      	push	{r4, r5, r6, r7, lr}
 8009df2:	4f45      	ldr	r7, [pc, #276]	; (8009f08 <Vector14C+0x118>)
 8009df4:	4d45      	ldr	r5, [pc, #276]	; (8009f0c <Vector14C+0x11c>)
 8009df6:	683b      	ldr	r3, [r7, #0]
 8009df8:	b083      	sub	sp, #12
 8009dfa:	9301      	str	r3, [sp, #4]
 8009dfc:	f7f9 fc78 	bl	80036f0 <_stats_increase_irq>
 8009e00:	f7f8 fd36 	bl	8002870 <_dbg_check_enter_isr>
 8009e04:	6d2e      	ldr	r6, [r5, #80]	; 0x50
 8009e06:	6974      	ldr	r4, [r6, #20]
 8009e08:	69b3      	ldr	r3, [r6, #24]
 8009e0a:	401c      	ands	r4, r3
 8009e0c:	04e1      	lsls	r1, r4, #19
 8009e0e:	6174      	str	r4, [r6, #20]
 8009e10:	d444      	bmi.n	8009e9c <Vector14C+0xac>
 8009e12:	04a2      	lsls	r2, r4, #18
 8009e14:	bf48      	it	mi
 8009e16:	f8d6 3808 	ldrmi.w	r3, [r6, #2056]	; 0x808
 8009e1a:	0723      	lsls	r3, r4, #28
 8009e1c:	d504      	bpl.n	8009e28 <Vector14C+0x38>
 8009e1e:	686b      	ldr	r3, [r5, #4]
 8009e20:	68db      	ldr	r3, [r3, #12]
 8009e22:	b10b      	cbz	r3, 8009e28 <Vector14C+0x38>
 8009e24:	4839      	ldr	r0, [pc, #228]	; (8009f0c <Vector14C+0x11c>)
 8009e26:	4798      	blx	r3
 8009e28:	06e5      	lsls	r5, r4, #27
 8009e2a:	d420      	bmi.n	8009e6e <Vector14C+0x7e>
 8009e2c:	0360      	lsls	r0, r4, #13
 8009e2e:	f8d6 5818 	ldr.w	r5, [r6, #2072]	; 0x818
 8009e32:	d507      	bpl.n	8009e44 <Vector14C+0x54>
 8009e34:	07e9      	lsls	r1, r5, #31
 8009e36:	d454      	bmi.n	8009ee2 <Vector14C+0xf2>
 8009e38:	07aa      	lsls	r2, r5, #30
 8009e3a:	d457      	bmi.n	8009eec <Vector14C+0xfc>
 8009e3c:	076b      	lsls	r3, r5, #29
 8009e3e:	d45a      	bmi.n	8009ef6 <Vector14C+0x106>
 8009e40:	072e      	lsls	r6, r5, #28
 8009e42:	d44a      	bmi.n	8009eda <Vector14C+0xea>
 8009e44:	0324      	lsls	r4, r4, #12
 8009e46:	d507      	bpl.n	8009e58 <Vector14C+0x68>
 8009e48:	03e8      	lsls	r0, r5, #15
 8009e4a:	d436      	bmi.n	8009eba <Vector14C+0xca>
 8009e4c:	03a9      	lsls	r1, r5, #14
 8009e4e:	d439      	bmi.n	8009ec4 <Vector14C+0xd4>
 8009e50:	036a      	lsls	r2, r5, #13
 8009e52:	d43c      	bmi.n	8009ece <Vector14C+0xde>
 8009e54:	032b      	lsls	r3, r5, #12
 8009e56:	d42c      	bmi.n	8009eb2 <Vector14C+0xc2>
 8009e58:	f7f8 fd32 	bl	80028c0 <_dbg_check_leave_isr>
 8009e5c:	9a01      	ldr	r2, [sp, #4]
 8009e5e:	683b      	ldr	r3, [r7, #0]
 8009e60:	429a      	cmp	r2, r3
 8009e62:	d14e      	bne.n	8009f02 <Vector14C+0x112>
 8009e64:	b003      	add	sp, #12
 8009e66:	e8bd 40f0 	ldmia.w	sp!, {r4, r5, r6, r7, lr}
 8009e6a:	f7fa ba39 	b.w	80042e0 <_port_irq_epilogue>
 8009e6e:	2320      	movs	r3, #32
 8009e70:	f383 8811 	msr	BASEPRI, r3
 8009e74:	f7f9 fca4 	bl	80037c0 <_stats_start_measure_crit_isr>
 8009e78:	f7f8 fcba 	bl	80027f0 <_dbg_check_lock_from_isr>
 8009e7c:	69b3      	ldr	r3, [r6, #24]
 8009e7e:	4824      	ldr	r0, [pc, #144]	; (8009f10 <Vector14C+0x120>)
 8009e80:	f023 0310 	bic.w	r3, r3, #16
 8009e84:	61b3      	str	r3, [r6, #24]
 8009e86:	2100      	movs	r1, #0
 8009e88:	f7f9 fa9a 	bl	80033c0 <chThdResumeI>
 8009e8c:	f7f8 fcd0 	bl	8002830 <_dbg_check_unlock_from_isr>
 8009e90:	f7f9 fcae 	bl	80037f0 <_stats_stop_measure_crit_isr>
 8009e94:	2300      	movs	r3, #0
 8009e96:	f383 8811 	msr	BASEPRI, r3
 8009e9a:	e7c7      	b.n	8009e2c <Vector14C+0x3c>
 8009e9c:	4628      	mov	r0, r5
 8009e9e:	f7fc fa27 	bl	80062f0 <_usb_reset>
 8009ea2:	686b      	ldr	r3, [r5, #4]
 8009ea4:	681b      	ldr	r3, [r3, #0]
 8009ea6:	2b00      	cmp	r3, #0
 8009ea8:	d0b3      	beq.n	8009e12 <Vector14C+0x22>
 8009eaa:	2100      	movs	r1, #0
 8009eac:	4628      	mov	r0, r5
 8009eae:	4798      	blx	r3
 8009eb0:	e7af      	b.n	8009e12 <Vector14C+0x22>
 8009eb2:	2003      	movs	r0, #3
 8009eb4:	f7ff fe6c 	bl	8009b90 <otg_epout_handler.constprop.7>
 8009eb8:	e7ce      	b.n	8009e58 <Vector14C+0x68>
 8009eba:	2000      	movs	r0, #0
 8009ebc:	f7ff fe68 	bl	8009b90 <otg_epout_handler.constprop.7>
 8009ec0:	03a9      	lsls	r1, r5, #14
 8009ec2:	d5c5      	bpl.n	8009e50 <Vector14C+0x60>
 8009ec4:	2001      	movs	r0, #1
 8009ec6:	f7ff fe63 	bl	8009b90 <otg_epout_handler.constprop.7>
 8009eca:	036a      	lsls	r2, r5, #13
 8009ecc:	d5c2      	bpl.n	8009e54 <Vector14C+0x64>
 8009ece:	2002      	movs	r0, #2
 8009ed0:	f7ff fe5e 	bl	8009b90 <otg_epout_handler.constprop.7>
 8009ed4:	032b      	lsls	r3, r5, #12
 8009ed6:	d5bf      	bpl.n	8009e58 <Vector14C+0x68>
 8009ed8:	e7eb      	b.n	8009eb2 <Vector14C+0xc2>
 8009eda:	2003      	movs	r0, #3
 8009edc:	f7ff ff00 	bl	8009ce0 <otg_epin_handler.constprop.8>
 8009ee0:	e7b0      	b.n	8009e44 <Vector14C+0x54>
 8009ee2:	2000      	movs	r0, #0
 8009ee4:	f7ff fefc 	bl	8009ce0 <otg_epin_handler.constprop.8>
 8009ee8:	07aa      	lsls	r2, r5, #30
 8009eea:	d5a7      	bpl.n	8009e3c <Vector14C+0x4c>
 8009eec:	2001      	movs	r0, #1
 8009eee:	f7ff fef7 	bl	8009ce0 <otg_epin_handler.constprop.8>
 8009ef2:	076b      	lsls	r3, r5, #29
 8009ef4:	d5a4      	bpl.n	8009e40 <Vector14C+0x50>
 8009ef6:	2002      	movs	r0, #2
 8009ef8:	f7ff fef2 	bl	8009ce0 <otg_epin_handler.constprop.8>
 8009efc:	072e      	lsls	r6, r5, #28
 8009efe:	d5a1      	bpl.n	8009e44 <Vector14C+0x54>
 8009f00:	e7eb      	b.n	8009eda <Vector14C+0xea>
 8009f02:	f7f7 f9ad 	bl	8001260 <__stack_chk_fail>
 8009f06:	bf00      	nop
 8009f08:	20000800 	.word	0x20000800
 8009f0c:	20002000 	.word	0x20002000
 8009f10:	20002060 	.word	0x20002060
	...

08009f20 <usb_lld_start_out>:
 8009f20:	b500      	push	{lr}
 8009f22:	4a0b      	ldr	r2, [pc, #44]	; (8009f50 <usb_lld_start_out+0x30>)
 8009f24:	6d03      	ldr	r3, [r0, #80]	; 0x50
 8009f26:	b083      	sub	sp, #12
 8009f28:	eb03 1141 	add.w	r1, r3, r1, lsl #5
 8009f2c:	6813      	ldr	r3, [r2, #0]
 8009f2e:	9301      	str	r3, [sp, #4]
 8009f30:	f8d1 3b00 	ldr.w	r3, [r1, #2816]	; 0xb00
 8009f34:	f043 6380 	orr.w	r3, r3, #67108864	; 0x4000000
 8009f38:	f8c1 3b00 	str.w	r3, [r1, #2816]	; 0xb00
 8009f3c:	9901      	ldr	r1, [sp, #4]
 8009f3e:	6813      	ldr	r3, [r2, #0]
 8009f40:	4299      	cmp	r1, r3
 8009f42:	d102      	bne.n	8009f4a <usb_lld_start_out+0x2a>
 8009f44:	b003      	add	sp, #12
 8009f46:	f85d fb04 	ldr.w	pc, [sp], #4
 8009f4a:	f7f7 f989 	bl	8001260 <__stack_chk_fail>
 8009f4e:	bf00      	nop
 8009f50:	20000800 	.word	0x20000800
	...

08009f60 <usb_lld_start_in>:
 8009f60:	b530      	push	{r4, r5, lr}
 8009f62:	4d0f      	ldr	r5, [pc, #60]	; (8009fa0 <usb_lld_start_in+0x40>)
 8009f64:	6d02      	ldr	r2, [r0, #80]	; 0x50
 8009f66:	682b      	ldr	r3, [r5, #0]
 8009f68:	b083      	sub	sp, #12
 8009f6a:	eb02 1241 	add.w	r2, r2, r1, lsl #5
 8009f6e:	9301      	str	r3, [sp, #4]
 8009f70:	f8d2 4900 	ldr.w	r4, [r2, #2304]	; 0x900
 8009f74:	f044 4404 	orr.w	r4, r4, #2214592512	; 0x84000000
 8009f78:	f8c2 4900 	str.w	r4, [r2, #2304]	; 0x900
 8009f7c:	6d02      	ldr	r2, [r0, #80]	; 0x50
 8009f7e:	2301      	movs	r3, #1
 8009f80:	f8d2 0834 	ldr.w	r0, [r2, #2100]	; 0x834
 8009f84:	fa03 f101 	lsl.w	r1, r3, r1
 8009f88:	4301      	orrs	r1, r0
 8009f8a:	f8c2 1834 	str.w	r1, [r2, #2100]	; 0x834
 8009f8e:	9a01      	ldr	r2, [sp, #4]
 8009f90:	682b      	ldr	r3, [r5, #0]
 8009f92:	429a      	cmp	r2, r3
 8009f94:	d101      	bne.n	8009f9a <usb_lld_start_in+0x3a>
 8009f96:	b003      	add	sp, #12
 8009f98:	bd30      	pop	{r4, r5, pc}
 8009f9a:	f7f7 f961 	bl	8001260 <__stack_chk_fail>
 8009f9e:	bf00      	nop
 8009fa0:	20000800 	.word	0x20000800
	...

08009fb0 <usb_lld_stall_out>:
 8009fb0:	b500      	push	{lr}
 8009fb2:	4a0b      	ldr	r2, [pc, #44]	; (8009fe0 <usb_lld_stall_out+0x30>)
 8009fb4:	6d03      	ldr	r3, [r0, #80]	; 0x50
 8009fb6:	b083      	sub	sp, #12
 8009fb8:	eb03 1141 	add.w	r1, r3, r1, lsl #5
 8009fbc:	6813      	ldr	r3, [r2, #0]
 8009fbe:	9301      	str	r3, [sp, #4]
 8009fc0:	f8d1 3b00 	ldr.w	r3, [r1, #2816]	; 0xb00
 8009fc4:	f443 1300 	orr.w	r3, r3, #2097152	; 0x200000
 8009fc8:	f8c1 3b00 	str.w	r3, [r1, #2816]	; 0xb00
 8009fcc:	9901      	ldr	r1, [sp, #4]
 8009fce:	6813      	ldr	r3, [r2, #0]
 8009fd0:	4299      	cmp	r1, r3
 8009fd2:	d102      	bne.n	8009fda <usb_lld_stall_out+0x2a>
 8009fd4:	b003      	add	sp, #12
 8009fd6:	f85d fb04 	ldr.w	pc, [sp], #4
 8009fda:	f7f7 f941 	bl	8001260 <__stack_chk_fail>
 8009fde:	bf00      	nop
 8009fe0:	20000800 	.word	0x20000800
	...

08009ff0 <usb_lld_stall_in>:
 8009ff0:	b500      	push	{lr}
 8009ff2:	4a0b      	ldr	r2, [pc, #44]	; (800a020 <usb_lld_stall_in+0x30>)
 8009ff4:	6d03      	ldr	r3, [r0, #80]	; 0x50
 8009ff6:	b083      	sub	sp, #12
 8009ff8:	eb03 1141 	add.w	r1, r3, r1, lsl #5
 8009ffc:	6813      	ldr	r3, [r2, #0]
 8009ffe:	9301      	str	r3, [sp, #4]
 800a000:	f8d1 3900 	ldr.w	r3, [r1, #2304]	; 0x900
 800a004:	f443 1300 	orr.w	r3, r3, #2097152	; 0x200000
 800a008:	f8c1 3900 	str.w	r3, [r1, #2304]	; 0x900
 800a00c:	9901      	ldr	r1, [sp, #4]
 800a00e:	6813      	ldr	r3, [r2, #0]
 800a010:	4299      	cmp	r1, r3
 800a012:	d102      	bne.n	800a01a <usb_lld_stall_in+0x2a>
 800a014:	b003      	add	sp, #12
 800a016:	f85d fb04 	ldr.w	pc, [sp], #4
 800a01a:	f7f7 f921 	bl	8001260 <__stack_chk_fail>
 800a01e:	bf00      	nop
 800a020:	20000800 	.word	0x20000800
	...

0800a030 <usb_lld_clear_out>:
 800a030:	b500      	push	{lr}
 800a032:	4a0b      	ldr	r2, [pc, #44]	; (800a060 <usb_lld_clear_out+0x30>)
 800a034:	6d03      	ldr	r3, [r0, #80]	; 0x50
 800a036:	b083      	sub	sp, #12
 800a038:	eb03 1141 	add.w	r1, r3, r1, lsl #5
 800a03c:	6813      	ldr	r3, [r2, #0]
 800a03e:	9301      	str	r3, [sp, #4]
 800a040:	f8d1 3b00 	ldr.w	r3, [r1, #2816]	; 0xb00
 800a044:	f423 1300 	bic.w	r3, r3, #2097152	; 0x200000
 800a048:	f8c1 3b00 	str.w	r3, [r1, #2816]	; 0xb00
 800a04c:	9901      	ldr	r1, [sp, #4]
 800a04e:	6813      	ldr	r3, [r2, #0]
 800a050:	4299      	cmp	r1, r3
 800a052:	d102      	bne.n	800a05a <usb_lld_clear_out+0x2a>
 800a054:	b003      	add	sp, #12
 800a056:	f85d fb04 	ldr.w	pc, [sp], #4
 800a05a:	f7f7 f901 	bl	8001260 <__stack_chk_fail>
 800a05e:	bf00      	nop
 800a060:	20000800 	.word	0x20000800
	...

0800a070 <usb_lld_clear_in>:
 800a070:	b500      	push	{lr}
 800a072:	4a0b      	ldr	r2, [pc, #44]	; (800a0a0 <usb_lld_clear_in+0x30>)
 800a074:	6d03      	ldr	r3, [r0, #80]	; 0x50
 800a076:	b083      	sub	sp, #12
 800a078:	eb03 1141 	add.w	r1, r3, r1, lsl #5
 800a07c:	6813      	ldr	r3, [r2, #0]
 800a07e:	9301      	str	r3, [sp, #4]
 800a080:	f8d1 3900 	ldr.w	r3, [r1, #2304]	; 0x900
 800a084:	f423 1300 	bic.w	r3, r3, #2097152	; 0x200000
 800a088:	f8c1 3900 	str.w	r3, [r1, #2304]	; 0x900
 800a08c:	9901      	ldr	r1, [sp, #4]
 800a08e:	6813      	ldr	r3, [r2, #0]
 800a090:	4299      	cmp	r1, r3
 800a092:	d102      	bne.n	800a09a <usb_lld_clear_in+0x2a>
 800a094:	b003      	add	sp, #12
 800a096:	f85d fb04 	ldr.w	pc, [sp], #4
 800a09a:	f7f7 f8e1 	bl	8001260 <__stack_chk_fail>
 800a09e:	bf00      	nop
 800a0a0:	20000800 	.word	0x20000800
	...

0800a0b0 <i2s_lld_init>:
 800a0b0:	b530      	push	{r4, r5, lr}
 800a0b2:	4c0e      	ldr	r4, [pc, #56]	; (800a0ec <i2s_lld_init+0x3c>)
 800a0b4:	4d0e      	ldr	r5, [pc, #56]	; (800a0f0 <i2s_lld_init+0x40>)
 800a0b6:	b083      	sub	sp, #12
 800a0b8:	682b      	ldr	r3, [r5, #0]
 800a0ba:	9301      	str	r3, [sp, #4]
 800a0bc:	4620      	mov	r0, r4
 800a0be:	f7fa fcdf 	bl	8004a80 <i2sObjectInit>
 800a0c2:	9901      	ldr	r1, [sp, #4]
 800a0c4:	4b0b      	ldr	r3, [pc, #44]	; (800a0f4 <i2s_lld_init+0x44>)
 800a0c6:	682a      	ldr	r2, [r5, #0]
 800a0c8:	480b      	ldr	r0, [pc, #44]	; (800a0f8 <i2s_lld_init+0x48>)
 800a0ca:	60a3      	str	r3, [r4, #8]
 800a0cc:	f44f 7340 	mov.w	r3, #768	; 0x300
 800a0d0:	4d0a      	ldr	r5, [pc, #40]	; (800a0fc <i2s_lld_init+0x4c>)
 800a0d2:	81a3      	strh	r3, [r4, #12]
 800a0d4:	4291      	cmp	r1, r2
 800a0d6:	f04f 0300 	mov.w	r3, #0
 800a0da:	6125      	str	r5, [r4, #16]
 800a0dc:	e9c4 3005 	strd	r3, r0, [r4, #20]
 800a0e0:	61e3      	str	r3, [r4, #28]
 800a0e2:	d101      	bne.n	800a0e8 <i2s_lld_init+0x38>
 800a0e4:	b003      	add	sp, #12
 800a0e6:	bd30      	pop	{r4, r5, pc}
 800a0e8:	f7f7 f8ba 	bl	8001260 <__stack_chk_fail>
 800a0ec:	2000227c 	.word	0x2000227c
 800a0f0:	20000800 	.word	0x20000800
 800a0f4:	40003800 	.word	0x40003800
 800a0f8:	00012d1e 	.word	0x00012d1e
 800a0fc:	0800ee94 	.word	0x0800ee94

0800a100 <spi_lld_init>:
 800a100:	b530      	push	{r4, r5, lr}
 800a102:	4d0f      	ldr	r5, [pc, #60]	; (800a140 <spi_lld_init+0x40>)
 800a104:	4c0f      	ldr	r4, [pc, #60]	; (800a144 <spi_lld_init+0x44>)
 800a106:	682a      	ldr	r2, [r5, #0]
 800a108:	4b0f      	ldr	r3, [pc, #60]	; (800a148 <spi_lld_init+0x48>)
 800a10a:	b083      	sub	sp, #12
 800a10c:	4620      	mov	r0, r4
 800a10e:	9201      	str	r2, [sp, #4]
 800a110:	f64f 72ff 	movw	r2, #65535	; 0xffff
 800a114:	801a      	strh	r2, [r3, #0]
 800a116:	f7fb ff4b 	bl	8005fb0 <spiObjectInit>
 800a11a:	4b0c      	ldr	r3, [pc, #48]	; (800a14c <spi_lld_init+0x4c>)
 800a11c:	9901      	ldr	r1, [sp, #4]
 800a11e:	682a      	ldr	r2, [r5, #0]
 800a120:	480b      	ldr	r0, [pc, #44]	; (800a150 <spi_lld_init+0x50>)
 800a122:	4d0c      	ldr	r5, [pc, #48]	; (800a154 <spi_lld_init+0x54>)
 800a124:	6225      	str	r5, [r4, #32]
 800a126:	6263      	str	r3, [r4, #36]	; 0x24
 800a128:	f103 053c 	add.w	r5, r3, #60	; 0x3c
 800a12c:	4291      	cmp	r1, r2
 800a12e:	4b0a      	ldr	r3, [pc, #40]	; (800a158 <spi_lld_init+0x58>)
 800a130:	6323      	str	r3, [r4, #48]	; 0x30
 800a132:	e9c4 500a 	strd	r5, r0, [r4, #40]	; 0x28
 800a136:	d101      	bne.n	800a13c <spi_lld_init+0x3c>
 800a138:	b003      	add	sp, #12
 800a13a:	bd30      	pop	{r4, r5, pc}
 800a13c:	f7f7 f890 	bl	8001260 <__stack_chk_fail>
 800a140:	20000800 	.word	0x20000800
 800a144:	2000229c 	.word	0x2000229c
 800a148:	200022d0 	.word	0x200022d0
 800a14c:	0800eed0 	.word	0x0800eed0
 800a150:	06010016 	.word	0x06010016
 800a154:	40013000 	.word	0x40013000
 800a158:	06010046 	.word	0x06010046
 800a15c:	00000000 	.word	0x00000000

0800a160 <gpt_lld_serve_interrupt>:
 800a160:	b510      	push	{r4, lr}
 800a162:	4b10      	ldr	r3, [pc, #64]	; (800a1a4 <gpt_lld_serve_interrupt+0x44>)
 800a164:	68c1      	ldr	r1, [r0, #12]
 800a166:	681a      	ldr	r2, [r3, #0]
 800a168:	b082      	sub	sp, #8
 800a16a:	9201      	str	r2, [sp, #4]
 800a16c:	2200      	movs	r2, #0
 800a16e:	610a      	str	r2, [r1, #16]
 800a170:	7801      	ldrb	r1, [r0, #0]
 800a172:	2904      	cmp	r1, #4
 800a174:	d10a      	bne.n	800a18c <gpt_lld_serve_interrupt+0x2c>
 800a176:	68c1      	ldr	r1, [r0, #12]
 800a178:	2402      	movs	r4, #2
 800a17a:	7004      	strb	r4, [r0, #0]
 800a17c:	600a      	str	r2, [r1, #0]
 800a17e:	68c1      	ldr	r1, [r0, #12]
 800a180:	610a      	str	r2, [r1, #16]
 800a182:	68c1      	ldr	r1, [r0, #12]
 800a184:	68ca      	ldr	r2, [r1, #12]
 800a186:	f022 02ff 	bic.w	r2, r2, #255	; 0xff
 800a18a:	60ca      	str	r2, [r1, #12]
 800a18c:	9a01      	ldr	r2, [sp, #4]
 800a18e:	681b      	ldr	r3, [r3, #0]
 800a190:	429a      	cmp	r2, r3
 800a192:	d105      	bne.n	800a1a0 <gpt_lld_serve_interrupt+0x40>
 800a194:	6843      	ldr	r3, [r0, #4]
 800a196:	685b      	ldr	r3, [r3, #4]
 800a198:	b002      	add	sp, #8
 800a19a:	e8bd 4010 	ldmia.w	sp!, {r4, lr}
 800a19e:	4718      	bx	r3
 800a1a0:	f7f7 f85e 	bl	8001260 <__stack_chk_fail>
 800a1a4:	20000800 	.word	0x20000800
	...

0800a1b0 <Vector118>:
 800a1b0:	b510      	push	{r4, lr}
 800a1b2:	4c0c      	ldr	r4, [pc, #48]	; (800a1e4 <Vector118+0x34>)
 800a1b4:	b082      	sub	sp, #8
 800a1b6:	6823      	ldr	r3, [r4, #0]
 800a1b8:	9301      	str	r3, [sp, #4]
 800a1ba:	f7f9 fa99 	bl	80036f0 <_stats_increase_irq>
 800a1be:	f7f8 fb57 	bl	8002870 <_dbg_check_enter_isr>
 800a1c2:	4809      	ldr	r0, [pc, #36]	; (800a1e8 <Vector118+0x38>)
 800a1c4:	f7ff ffcc 	bl	800a160 <gpt_lld_serve_interrupt>
 800a1c8:	f7f8 fb7a 	bl	80028c0 <_dbg_check_leave_isr>
 800a1cc:	9a01      	ldr	r2, [sp, #4]
 800a1ce:	6823      	ldr	r3, [r4, #0]
 800a1d0:	429a      	cmp	r2, r3
 800a1d2:	d104      	bne.n	800a1de <Vector118+0x2e>
 800a1d4:	b002      	add	sp, #8
 800a1d6:	e8bd 4010 	ldmia.w	sp!, {r4, lr}
 800a1da:	f7fa b881 	b.w	80042e0 <_port_irq_epilogue>
 800a1de:	f7f7 f83f 	bl	8001260 <__stack_chk_fail>
 800a1e2:	bf00      	nop
 800a1e4:	20000800 	.word	0x20000800
 800a1e8:	200022e4 	.word	0x200022e4
 800a1ec:	00000000 	.word	0x00000000

0800a1f0 <VectorA8>:
 800a1f0:	b510      	push	{r4, lr}
 800a1f2:	4c0c      	ldr	r4, [pc, #48]	; (800a224 <VectorA8+0x34>)
 800a1f4:	b082      	sub	sp, #8
 800a1f6:	6823      	ldr	r3, [r4, #0]
 800a1f8:	9301      	str	r3, [sp, #4]
 800a1fa:	f7f9 fa79 	bl	80036f0 <_stats_increase_irq>
 800a1fe:	f7f8 fb37 	bl	8002870 <_dbg_check_enter_isr>
 800a202:	4809      	ldr	r0, [pc, #36]	; (800a228 <VectorA8+0x38>)
 800a204:	f7ff ffac 	bl	800a160 <gpt_lld_serve_interrupt>
 800a208:	f7f8 fb5a 	bl	80028c0 <_dbg_check_leave_isr>
 800a20c:	9a01      	ldr	r2, [sp, #4]
 800a20e:	6823      	ldr	r3, [r4, #0]
 800a210:	429a      	cmp	r2, r3
 800a212:	d104      	bne.n	800a21e <VectorA8+0x2e>
 800a214:	b002      	add	sp, #8
 800a216:	e8bd 4010 	ldmia.w	sp!, {r4, lr}
 800a21a:	f7fa b861 	b.w	80042e0 <_port_irq_epilogue>
 800a21e:	f7f7 f81f 	bl	8001260 <__stack_chk_fail>
 800a222:	bf00      	nop
 800a224:	20000800 	.word	0x20000800
 800a228:	200022d4 	.word	0x200022d4
 800a22c:	00000000 	.word	0x00000000

0800a230 <gpt_lld_init>:
 800a230:	b510      	push	{r4, lr}
 800a232:	4b0c      	ldr	r3, [pc, #48]	; (800a264 <gpt_lld_init+0x34>)
 800a234:	4c0c      	ldr	r4, [pc, #48]	; (800a268 <gpt_lld_init+0x38>)
 800a236:	4a0d      	ldr	r2, [pc, #52]	; (800a26c <gpt_lld_init+0x3c>)
 800a238:	6821      	ldr	r1, [r4, #0]
 800a23a:	60da      	str	r2, [r3, #12]
 800a23c:	b082      	sub	sp, #8
 800a23e:	4618      	mov	r0, r3
 800a240:	9101      	str	r1, [sp, #4]
 800a242:	f7fa fa65 	bl	8004710 <gptObjectInit>
 800a246:	9a01      	ldr	r2, [sp, #4]
 800a248:	6823      	ldr	r3, [r4, #0]
 800a24a:	4809      	ldr	r0, [pc, #36]	; (800a270 <gpt_lld_init+0x40>)
 800a24c:	4909      	ldr	r1, [pc, #36]	; (800a274 <gpt_lld_init+0x44>)
 800a24e:	60c1      	str	r1, [r0, #12]
 800a250:	429a      	cmp	r2, r3
 800a252:	d104      	bne.n	800a25e <gpt_lld_init+0x2e>
 800a254:	b002      	add	sp, #8
 800a256:	e8bd 4010 	ldmia.w	sp!, {r4, lr}
 800a25a:	f7fa ba59 	b.w	8004710 <gptObjectInit>
 800a25e:	f7f6 ffff 	bl	8001260 <__stack_chk_fail>
 800a262:	bf00      	nop
 800a264:	200022e4 	.word	0x200022e4
 800a268:	20000800 	.word	0x20000800
 800a26c:	40001000 	.word	0x40001000
 800a270:	200022d4 	.word	0x200022d4
 800a274:	40014800 	.word	0x40014800
	...

0800a280 <pwm_lld_serve_interrupt>:
 800a280:	b570      	push	{r4, r5, r6, lr}
 800a282:	4e1e      	ldr	r6, [pc, #120]	; (800a2fc <pwm_lld_serve_interrupt+0x7c>)
 800a284:	6983      	ldr	r3, [r0, #24]
 800a286:	6832      	ldr	r2, [r6, #0]
 800a288:	b082      	sub	sp, #8
 800a28a:	4605      	mov	r5, r0
 800a28c:	9201      	str	r2, [sp, #4]
 800a28e:	691a      	ldr	r2, [r3, #16]
 800a290:	68dc      	ldr	r4, [r3, #12]
 800a292:	4014      	ands	r4, r2
 800a294:	b2e2      	uxtb	r2, r4
 800a296:	43d2      	mvns	r2, r2
 800a298:	611a      	str	r2, [r3, #16]
 800a29a:	07a3      	lsls	r3, r4, #30
 800a29c:	d503      	bpl.n	800a2a6 <pwm_lld_serve_interrupt+0x26>
 800a29e:	6843      	ldr	r3, [r0, #4]
 800a2a0:	691b      	ldr	r3, [r3, #16]
 800a2a2:	b103      	cbz	r3, 800a2a6 <pwm_lld_serve_interrupt+0x26>
 800a2a4:	4798      	blx	r3
 800a2a6:	0760      	lsls	r0, r4, #29
 800a2a8:	d504      	bpl.n	800a2b4 <pwm_lld_serve_interrupt+0x34>
 800a2aa:	686b      	ldr	r3, [r5, #4]
 800a2ac:	699b      	ldr	r3, [r3, #24]
 800a2ae:	b10b      	cbz	r3, 800a2b4 <pwm_lld_serve_interrupt+0x34>
 800a2b0:	4628      	mov	r0, r5
 800a2b2:	4798      	blx	r3
 800a2b4:	0721      	lsls	r1, r4, #28
 800a2b6:	d504      	bpl.n	800a2c2 <pwm_lld_serve_interrupt+0x42>
 800a2b8:	686b      	ldr	r3, [r5, #4]
 800a2ba:	6a1b      	ldr	r3, [r3, #32]
 800a2bc:	b10b      	cbz	r3, 800a2c2 <pwm_lld_serve_interrupt+0x42>
 800a2be:	4628      	mov	r0, r5
 800a2c0:	4798      	blx	r3
 800a2c2:	06e2      	lsls	r2, r4, #27
 800a2c4:	d504      	bpl.n	800a2d0 <pwm_lld_serve_interrupt+0x50>
 800a2c6:	686b      	ldr	r3, [r5, #4]
 800a2c8:	6a9b      	ldr	r3, [r3, #40]	; 0x28
 800a2ca:	b10b      	cbz	r3, 800a2d0 <pwm_lld_serve_interrupt+0x50>
 800a2cc:	4628      	mov	r0, r5
 800a2ce:	4798      	blx	r3
 800a2d0:	07e3      	lsls	r3, r4, #31
 800a2d2:	d50b      	bpl.n	800a2ec <pwm_lld_serve_interrupt+0x6c>
 800a2d4:	686b      	ldr	r3, [r5, #4]
 800a2d6:	689b      	ldr	r3, [r3, #8]
 800a2d8:	b143      	cbz	r3, 800a2ec <pwm_lld_serve_interrupt+0x6c>
 800a2da:	9901      	ldr	r1, [sp, #4]
 800a2dc:	6832      	ldr	r2, [r6, #0]
 800a2de:	4291      	cmp	r1, r2
 800a2e0:	d10a      	bne.n	800a2f8 <pwm_lld_serve_interrupt+0x78>
 800a2e2:	4628      	mov	r0, r5
 800a2e4:	b002      	add	sp, #8
 800a2e6:	e8bd 4070 	ldmia.w	sp!, {r4, r5, r6, lr}
 800a2ea:	4718      	bx	r3
 800a2ec:	9a01      	ldr	r2, [sp, #4]
 800a2ee:	6833      	ldr	r3, [r6, #0]
 800a2f0:	429a      	cmp	r2, r3
 800a2f2:	d101      	bne.n	800a2f8 <pwm_lld_serve_interrupt+0x78>
 800a2f4:	b002      	add	sp, #8
 800a2f6:	bd70      	pop	{r4, r5, r6, pc}
 800a2f8:	f7f6 ffb2 	bl	8001260 <__stack_chk_fail>
 800a2fc:	20000800 	.word	0x20000800

0800a300 <VectorB0>:
 800a300:	b510      	push	{r4, lr}
 800a302:	4c0c      	ldr	r4, [pc, #48]	; (800a334 <VectorB0+0x34>)
 800a304:	b082      	sub	sp, #8
 800a306:	6823      	ldr	r3, [r4, #0]
 800a308:	9301      	str	r3, [sp, #4]
 800a30a:	f7f9 f9f1 	bl	80036f0 <_stats_increase_irq>
 800a30e:	f7f8 faaf 	bl	8002870 <_dbg_check_enter_isr>
 800a312:	4809      	ldr	r0, [pc, #36]	; (800a338 <VectorB0+0x38>)
 800a314:	f7ff ffb4 	bl	800a280 <pwm_lld_serve_interrupt>
 800a318:	f7f8 fad2 	bl	80028c0 <_dbg_check_leave_isr>
 800a31c:	9a01      	ldr	r2, [sp, #4]
 800a31e:	6823      	ldr	r3, [r4, #0]
 800a320:	429a      	cmp	r2, r3
 800a322:	d104      	bne.n	800a32e <VectorB0+0x2e>
 800a324:	b002      	add	sp, #8
 800a326:	e8bd 4010 	ldmia.w	sp!, {r4, lr}
 800a32a:	f7f9 bfd9 	b.w	80042e0 <_port_irq_epilogue>
 800a32e:	f7f6 ff97 	bl	8001260 <__stack_chk_fail>
 800a332:	bf00      	nop
 800a334:	20000800 	.word	0x20000800
 800a338:	200022f4 	.word	0x200022f4
 800a33c:	00000000 	.word	0x00000000

0800a340 <VectorB4>:
 800a340:	b510      	push	{r4, lr}
 800a342:	4c0c      	ldr	r4, [pc, #48]	; (800a374 <VectorB4+0x34>)
 800a344:	b082      	sub	sp, #8
 800a346:	6823      	ldr	r3, [r4, #0]
 800a348:	9301      	str	r3, [sp, #4]
 800a34a:	f7f9 f9d1 	bl	80036f0 <_stats_increase_irq>
 800a34e:	f7f8 fa8f 	bl	8002870 <_dbg_check_enter_isr>
 800a352:	4809      	ldr	r0, [pc, #36]	; (800a378 <VectorB4+0x38>)
 800a354:	f7ff ff94 	bl	800a280 <pwm_lld_serve_interrupt>
 800a358:	f7f8 fab2 	bl	80028c0 <_dbg_check_leave_isr>
 800a35c:	9a01      	ldr	r2, [sp, #4]
 800a35e:	6823      	ldr	r3, [r4, #0]
 800a360:	429a      	cmp	r2, r3
 800a362:	d104      	bne.n	800a36e <VectorB4+0x2e>
 800a364:	b002      	add	sp, #8
 800a366:	e8bd 4010 	ldmia.w	sp!, {r4, lr}
 800a36a:	f7f9 bfb9 	b.w	80042e0 <_port_irq_epilogue>
 800a36e:	f7f6 ff77 	bl	8001260 <__stack_chk_fail>
 800a372:	bf00      	nop
 800a374:	20000800 	.word	0x20000800
 800a378:	20002310 	.word	0x20002310
 800a37c:	00000000 	.word	0x00000000

0800a380 <VectorB8>:
 800a380:	b510      	push	{r4, lr}
 800a382:	4c0c      	ldr	r4, [pc, #48]	; (800a3b4 <VectorB8+0x34>)
 800a384:	b082      	sub	sp, #8
 800a386:	6823      	ldr	r3, [r4, #0]
 800a388:	9301      	str	r3, [sp, #4]
 800a38a:	f7f9 f9b1 	bl	80036f0 <_stats_increase_irq>
 800a38e:	f7f8 fa6f 	bl	8002870 <_dbg_check_enter_isr>
 800a392:	4809      	ldr	r0, [pc, #36]	; (800a3b8 <VectorB8+0x38>)
 800a394:	f7ff ff74 	bl	800a280 <pwm_lld_serve_interrupt>
 800a398:	f7f8 fa92 	bl	80028c0 <_dbg_check_leave_isr>
 800a39c:	9a01      	ldr	r2, [sp, #4]
 800a39e:	6823      	ldr	r3, [r4, #0]
 800a3a0:	429a      	cmp	r2, r3
 800a3a2:	d104      	bne.n	800a3ae <VectorB8+0x2e>
 800a3a4:	b002      	add	sp, #8
 800a3a6:	e8bd 4010 	ldmia.w	sp!, {r4, lr}
 800a3aa:	f7f9 bf99 	b.w	80042e0 <_port_irq_epilogue>
 800a3ae:	f7f6 ff57 	bl	8001260 <__stack_chk_fail>
 800a3b2:	bf00      	nop
 800a3b4:	20000800 	.word	0x20000800
 800a3b8:	2000232c 	.word	0x2000232c
 800a3bc:	00000000 	.word	0x00000000

0800a3c0 <Vector108>:
 800a3c0:	b510      	push	{r4, lr}
 800a3c2:	4c0c      	ldr	r4, [pc, #48]	; (800a3f4 <Vector108+0x34>)
 800a3c4:	b082      	sub	sp, #8
 800a3c6:	6823      	ldr	r3, [r4, #0]
 800a3c8:	9301      	str	r3, [sp, #4]
 800a3ca:	f7f9 f991 	bl	80036f0 <_stats_increase_irq>
 800a3ce:	f7f8 fa4f 	bl	8002870 <_dbg_check_enter_isr>
 800a3d2:	4809      	ldr	r0, [pc, #36]	; (800a3f8 <Vector108+0x38>)
 800a3d4:	f7ff ff54 	bl	800a280 <pwm_lld_serve_interrupt>
 800a3d8:	f7f8 fa72 	bl	80028c0 <_dbg_check_leave_isr>
 800a3dc:	9a01      	ldr	r2, [sp, #4]
 800a3de:	6823      	ldr	r3, [r4, #0]
 800a3e0:	429a      	cmp	r2, r3
 800a3e2:	d104      	bne.n	800a3ee <Vector108+0x2e>
 800a3e4:	b002      	add	sp, #8
 800a3e6:	e8bd 4010 	ldmia.w	sp!, {r4, lr}
 800a3ea:	f7f9 bf79 	b.w	80042e0 <_port_irq_epilogue>
 800a3ee:	f7f6 ff37 	bl	8001260 <__stack_chk_fail>
 800a3f2:	bf00      	nop
 800a3f4:	20000800 	.word	0x20000800
 800a3f8:	20002348 	.word	0x20002348
 800a3fc:	00000000 	.word	0x00000000

0800a400 <pwm_lld_init>:
 800a400:	e92d 41f0 	stmdb	sp!, {r4, r5, r6, r7, r8, lr}
 800a404:	4d16      	ldr	r5, [pc, #88]	; (800a460 <pwm_lld_init+0x60>)
 800a406:	f8df 8074 	ldr.w	r8, [pc, #116]	; 800a47c <pwm_lld_init+0x7c>
 800a40a:	4f16      	ldr	r7, [pc, #88]	; (800a464 <pwm_lld_init+0x64>)
 800a40c:	f8d8 3000 	ldr.w	r3, [r8]
 800a410:	4e15      	ldr	r6, [pc, #84]	; (800a468 <pwm_lld_init+0x68>)
 800a412:	b082      	sub	sp, #8
 800a414:	4628      	mov	r0, r5
 800a416:	2404      	movs	r4, #4
 800a418:	9301      	str	r3, [sp, #4]
 800a41a:	f7fa fb61 	bl	8004ae0 <pwmObjectInit>
 800a41e:	f04f 4380 	mov.w	r3, #1073741824	; 0x40000000
 800a422:	61ab      	str	r3, [r5, #24]
 800a424:	4638      	mov	r0, r7
 800a426:	742c      	strb	r4, [r5, #16]
 800a428:	4d10      	ldr	r5, [pc, #64]	; (800a46c <pwm_lld_init+0x6c>)
 800a42a:	f7fa fb59 	bl	8004ae0 <pwmObjectInit>
 800a42e:	4b10      	ldr	r3, [pc, #64]	; (800a470 <pwm_lld_init+0x70>)
 800a430:	61bb      	str	r3, [r7, #24]
 800a432:	4630      	mov	r0, r6
 800a434:	743c      	strb	r4, [r7, #16]
 800a436:	f7fa fb53 	bl	8004ae0 <pwmObjectInit>
 800a43a:	4b0e      	ldr	r3, [pc, #56]	; (800a474 <pwm_lld_init+0x74>)
 800a43c:	61b3      	str	r3, [r6, #24]
 800a43e:	4628      	mov	r0, r5
 800a440:	7434      	strb	r4, [r6, #16]
 800a442:	f7fa fb4d 	bl	8004ae0 <pwmObjectInit>
 800a446:	9a01      	ldr	r2, [sp, #4]
 800a448:	f8d8 3000 	ldr.w	r3, [r8]
 800a44c:	490a      	ldr	r1, [pc, #40]	; (800a478 <pwm_lld_init+0x78>)
 800a44e:	742c      	strb	r4, [r5, #16]
 800a450:	429a      	cmp	r2, r3
 800a452:	61a9      	str	r1, [r5, #24]
 800a454:	d102      	bne.n	800a45c <pwm_lld_init+0x5c>
 800a456:	b002      	add	sp, #8
 800a458:	e8bd 81f0 	ldmia.w	sp!, {r4, r5, r6, r7, r8, pc}
 800a45c:	f7f6 ff00 	bl	8001260 <__stack_chk_fail>
 800a460:	200022f4 	.word	0x200022f4
 800a464:	20002310 	.word	0x20002310
 800a468:	2000232c 	.word	0x2000232c
 800a46c:	20002348 	.word	0x20002348
 800a470:	40000400 	.word	0x40000400
 800a474:	40000800 	.word	0x40000800
 800a478:	40000c00 	.word	0x40000c00
 800a47c:	20000800 	.word	0x20000800

0800a480 <pwm_lld_start>:
 800a480:	b570      	push	{r4, r5, r6, lr}
 800a482:	4d6b      	ldr	r5, [pc, #428]	; (800a630 <pwm_lld_start+0x1b0>)
 800a484:	7803      	ldrb	r3, [r0, #0]
 800a486:	682a      	ldr	r2, [r5, #0]
 800a488:	b082      	sub	sp, #8
 800a48a:	2b01      	cmp	r3, #1
 800a48c:	4604      	mov	r4, r0
 800a48e:	9201      	str	r2, [sp, #4]
 800a490:	d072      	beq.n	800a578 <pwm_lld_start+0xf8>
 800a492:	6982      	ldr	r2, [r0, #24]
 800a494:	2300      	movs	r3, #0
 800a496:	6013      	str	r3, [r2, #0]
 800a498:	6982      	ldr	r2, [r0, #24]
 800a49a:	6353      	str	r3, [r2, #52]	; 0x34
 800a49c:	6982      	ldr	r2, [r0, #24]
 800a49e:	6393      	str	r3, [r2, #56]	; 0x38
 800a4a0:	6982      	ldr	r2, [r0, #24]
 800a4a2:	63d3      	str	r3, [r2, #60]	; 0x3c
 800a4a4:	6982      	ldr	r2, [r0, #24]
 800a4a6:	6413      	str	r3, [r2, #64]	; 0x40
 800a4a8:	6982      	ldr	r2, [r0, #24]
 800a4aa:	6253      	str	r3, [r2, #36]	; 0x24
 800a4ac:	6863      	ldr	r3, [r4, #4]
 800a4ae:	6962      	ldr	r2, [r4, #20]
 800a4b0:	6819      	ldr	r1, [r3, #0]
 800a4b2:	fbb2 f3f1 	udiv	r3, r2, r1
 800a4b6:	1e5e      	subs	r6, r3, #1
 800a4b8:	f5b6 3f80 	cmp.w	r6, #65536	; 0x10000
 800a4bc:	d203      	bcs.n	800a4c6 <pwm_lld_start+0x46>
 800a4be:	fb03 f301 	mul.w	r3, r3, r1
 800a4c2:	429a      	cmp	r2, r3
 800a4c4:	d002      	beq.n	800a4cc <pwm_lld_start+0x4c>
 800a4c6:	485b      	ldr	r0, [pc, #364]	; (800a634 <pwm_lld_start+0x1b4>)
 800a4c8:	f7f8 f8b2 	bl	8002630 <chSysHalt>
 800a4cc:	69a3      	ldr	r3, [r4, #24]
 800a4ce:	629e      	str	r6, [r3, #40]	; 0x28
 800a4d0:	68a3      	ldr	r3, [r4, #8]
 800a4d2:	69a2      	ldr	r2, [r4, #24]
 800a4d4:	3b01      	subs	r3, #1
 800a4d6:	62d3      	str	r3, [r2, #44]	; 0x2c
 800a4d8:	6862      	ldr	r2, [r4, #4]
 800a4da:	69a3      	ldr	r3, [r4, #24]
 800a4dc:	6ad2      	ldr	r2, [r2, #44]	; 0x2c
 800a4de:	605a      	str	r2, [r3, #4]
 800a4e0:	6862      	ldr	r2, [r4, #4]
 800a4e2:	68d3      	ldr	r3, [r2, #12]
 800a4e4:	f003 030f 	and.w	r3, r3, #15
 800a4e8:	2b01      	cmp	r3, #1
 800a4ea:	d003      	beq.n	800a4f4 <pwm_lld_start+0x74>
 800a4ec:	2b02      	cmp	r3, #2
 800a4ee:	bf0c      	ite	eq
 800a4f0:	2303      	moveq	r3, #3
 800a4f2:	2300      	movne	r3, #0
 800a4f4:	6951      	ldr	r1, [r2, #20]
 800a4f6:	f001 010f 	and.w	r1, r1, #15
 800a4fa:	2901      	cmp	r1, #1
 800a4fc:	d034      	beq.n	800a568 <pwm_lld_start+0xe8>
 800a4fe:	2902      	cmp	r1, #2
 800a500:	d030      	beq.n	800a564 <pwm_lld_start+0xe4>
 800a502:	69d1      	ldr	r1, [r2, #28]
 800a504:	f001 010f 	and.w	r1, r1, #15
 800a508:	2901      	cmp	r1, #1
 800a50a:	d021      	beq.n	800a550 <pwm_lld_start+0xd0>
 800a50c:	2902      	cmp	r1, #2
 800a50e:	d01d      	beq.n	800a54c <pwm_lld_start+0xcc>
 800a510:	6a52      	ldr	r2, [r2, #36]	; 0x24
 800a512:	f002 020f 	and.w	r2, r2, #15
 800a516:	2a01      	cmp	r2, #1
 800a518:	d021      	beq.n	800a55e <pwm_lld_start+0xde>
 800a51a:	2a02      	cmp	r2, #2
 800a51c:	d027      	beq.n	800a56e <pwm_lld_start+0xee>
 800a51e:	69a2      	ldr	r2, [r4, #24]
 800a520:	6213      	str	r3, [r2, #32]
 800a522:	69a3      	ldr	r3, [r4, #24]
 800a524:	2201      	movs	r2, #1
 800a526:	615a      	str	r2, [r3, #20]
 800a528:	69a3      	ldr	r3, [r4, #24]
 800a52a:	2200      	movs	r2, #0
 800a52c:	611a      	str	r2, [r3, #16]
 800a52e:	6863      	ldr	r3, [r4, #4]
 800a530:	69a2      	ldr	r2, [r4, #24]
 800a532:	6b1b      	ldr	r3, [r3, #48]	; 0x30
 800a534:	f023 03ff 	bic.w	r3, r3, #255	; 0xff
 800a538:	60d3      	str	r3, [r2, #12]
 800a53a:	69a3      	ldr	r3, [r4, #24]
 800a53c:	2285      	movs	r2, #133	; 0x85
 800a53e:	601a      	str	r2, [r3, #0]
 800a540:	9a01      	ldr	r2, [sp, #4]
 800a542:	682b      	ldr	r3, [r5, #0]
 800a544:	429a      	cmp	r2, r3
 800a546:	d171      	bne.n	800a62c <pwm_lld_start+0x1ac>
 800a548:	b002      	add	sp, #8
 800a54a:	bd70      	pop	{r4, r5, r6, pc}
 800a54c:	f443 7300 	orr.w	r3, r3, #512	; 0x200
 800a550:	6a52      	ldr	r2, [r2, #36]	; 0x24
 800a552:	f002 020f 	and.w	r2, r2, #15
 800a556:	2a01      	cmp	r2, #1
 800a558:	f443 7380 	orr.w	r3, r3, #256	; 0x100
 800a55c:	d1dd      	bne.n	800a51a <pwm_lld_start+0x9a>
 800a55e:	f443 5380 	orr.w	r3, r3, #4096	; 0x1000
 800a562:	e7dc      	b.n	800a51e <pwm_lld_start+0x9e>
 800a564:	f043 0320 	orr.w	r3, r3, #32
 800a568:	f043 0310 	orr.w	r3, r3, #16
 800a56c:	e7c9      	b.n	800a502 <pwm_lld_start+0x82>
 800a56e:	f443 5300 	orr.w	r3, r3, #8192	; 0x2000
 800a572:	f443 5380 	orr.w	r3, r3, #4096	; 0x1000
 800a576:	e7d2      	b.n	800a51e <pwm_lld_start+0x9e>
 800a578:	4b2f      	ldr	r3, [pc, #188]	; (800a638 <pwm_lld_start+0x1b8>)
 800a57a:	4298      	cmp	r0, r3
 800a57c:	d044      	beq.n	800a608 <pwm_lld_start+0x188>
 800a57e:	4b2f      	ldr	r3, [pc, #188]	; (800a63c <pwm_lld_start+0x1bc>)
 800a580:	4298      	cmp	r0, r3
 800a582:	d02f      	beq.n	800a5e4 <pwm_lld_start+0x164>
 800a584:	4b2e      	ldr	r3, [pc, #184]	; (800a640 <pwm_lld_start+0x1c0>)
 800a586:	4298      	cmp	r0, r3
 800a588:	d01a      	beq.n	800a5c0 <pwm_lld_start+0x140>
 800a58a:	4b2e      	ldr	r3, [pc, #184]	; (800a644 <pwm_lld_start+0x1c4>)
 800a58c:	4298      	cmp	r0, r3
 800a58e:	d110      	bne.n	800a5b2 <pwm_lld_start+0x132>
 800a590:	4b2d      	ldr	r3, [pc, #180]	; (800a648 <pwm_lld_start+0x1c8>)
 800a592:	6c1a      	ldr	r2, [r3, #64]	; 0x40
 800a594:	f042 0208 	orr.w	r2, r2, #8
 800a598:	641a      	str	r2, [r3, #64]	; 0x40
 800a59a:	6a1a      	ldr	r2, [r3, #32]
 800a59c:	2000      	movs	r0, #0
 800a59e:	f042 0208 	orr.w	r2, r2, #8
 800a5a2:	621a      	str	r2, [r3, #32]
 800a5a4:	2107      	movs	r1, #7
 800a5a6:	6218      	str	r0, [r3, #32]
 800a5a8:	2032      	movs	r0, #50	; 0x32
 800a5aa:	f7fc f961 	bl	8006870 <nvicEnableVector>
 800a5ae:	4b27      	ldr	r3, [pc, #156]	; (800a64c <pwm_lld_start+0x1cc>)
 800a5b0:	6163      	str	r3, [r4, #20]
 800a5b2:	69a2      	ldr	r2, [r4, #24]
 800a5b4:	f646 0368 	movw	r3, #26728	; 0x6868
 800a5b8:	6193      	str	r3, [r2, #24]
 800a5ba:	69a2      	ldr	r2, [r4, #24]
 800a5bc:	61d3      	str	r3, [r2, #28]
 800a5be:	e775      	b.n	800a4ac <pwm_lld_start+0x2c>
 800a5c0:	4b21      	ldr	r3, [pc, #132]	; (800a648 <pwm_lld_start+0x1c8>)
 800a5c2:	6c1a      	ldr	r2, [r3, #64]	; 0x40
 800a5c4:	f042 0204 	orr.w	r2, r2, #4
 800a5c8:	641a      	str	r2, [r3, #64]	; 0x40
 800a5ca:	6a1a      	ldr	r2, [r3, #32]
 800a5cc:	2000      	movs	r0, #0
 800a5ce:	f042 0204 	orr.w	r2, r2, #4
 800a5d2:	621a      	str	r2, [r3, #32]
 800a5d4:	2107      	movs	r1, #7
 800a5d6:	6218      	str	r0, [r3, #32]
 800a5d8:	201e      	movs	r0, #30
 800a5da:	f7fc f949 	bl	8006870 <nvicEnableVector>
 800a5de:	4b1b      	ldr	r3, [pc, #108]	; (800a64c <pwm_lld_start+0x1cc>)
 800a5e0:	6163      	str	r3, [r4, #20]
 800a5e2:	e7e6      	b.n	800a5b2 <pwm_lld_start+0x132>
 800a5e4:	4b18      	ldr	r3, [pc, #96]	; (800a648 <pwm_lld_start+0x1c8>)
 800a5e6:	6c1a      	ldr	r2, [r3, #64]	; 0x40
 800a5e8:	f042 0202 	orr.w	r2, r2, #2
 800a5ec:	641a      	str	r2, [r3, #64]	; 0x40
 800a5ee:	6a1a      	ldr	r2, [r3, #32]
 800a5f0:	2000      	movs	r0, #0
 800a5f2:	f042 0202 	orr.w	r2, r2, #2
 800a5f6:	621a      	str	r2, [r3, #32]
 800a5f8:	2107      	movs	r1, #7
 800a5fa:	6218      	str	r0, [r3, #32]
 800a5fc:	201d      	movs	r0, #29
 800a5fe:	f7fc f937 	bl	8006870 <nvicEnableVector>
 800a602:	4b12      	ldr	r3, [pc, #72]	; (800a64c <pwm_lld_start+0x1cc>)
 800a604:	6163      	str	r3, [r4, #20]
 800a606:	e7d4      	b.n	800a5b2 <pwm_lld_start+0x132>
 800a608:	4b0f      	ldr	r3, [pc, #60]	; (800a648 <pwm_lld_start+0x1c8>)
 800a60a:	6c1a      	ldr	r2, [r3, #64]	; 0x40
 800a60c:	f042 0201 	orr.w	r2, r2, #1
 800a610:	641a      	str	r2, [r3, #64]	; 0x40
 800a612:	6a1a      	ldr	r2, [r3, #32]
 800a614:	2000      	movs	r0, #0
 800a616:	f042 0201 	orr.w	r2, r2, #1
 800a61a:	621a      	str	r2, [r3, #32]
 800a61c:	2107      	movs	r1, #7
 800a61e:	6218      	str	r0, [r3, #32]
 800a620:	201c      	movs	r0, #28
 800a622:	f7fc f925 	bl	8006870 <nvicEnableVector>
 800a626:	4b09      	ldr	r3, [pc, #36]	; (800a64c <pwm_lld_start+0x1cc>)
 800a628:	6163      	str	r3, [r4, #20]
 800a62a:	e7c2      	b.n	800a5b2 <pwm_lld_start+0x132>
 800a62c:	f7f6 fe18 	bl	8001260 <__stack_chk_fail>
 800a630:	20000800 	.word	0x20000800
 800a634:	0800f090 	.word	0x0800f090
 800a638:	200022f4 	.word	0x200022f4
 800a63c:	20002310 	.word	0x20002310
 800a640:	2000232c 	.word	0x2000232c
 800a644:	20002348 	.word	0x20002348
 800a648:	40023800 	.word	0x40023800
 800a64c:	0501bd00 	.word	0x0501bd00

0800a650 <pwm_lld_enable_channel>:
 800a650:	b500      	push	{lr}
 800a652:	6983      	ldr	r3, [r0, #24]
 800a654:	4808      	ldr	r0, [pc, #32]	; (800a678 <pwm_lld_enable_channel+0x28>)
 800a656:	310c      	adds	r1, #12
 800a658:	eb03 0381 	add.w	r3, r3, r1, lsl #2
 800a65c:	b083      	sub	sp, #12
 800a65e:	6801      	ldr	r1, [r0, #0]
 800a660:	9101      	str	r1, [sp, #4]
 800a662:	605a      	str	r2, [r3, #4]
 800a664:	9a01      	ldr	r2, [sp, #4]
 800a666:	6803      	ldr	r3, [r0, #0]
 800a668:	429a      	cmp	r2, r3
 800a66a:	d102      	bne.n	800a672 <pwm_lld_enable_channel+0x22>
 800a66c:	b003      	add	sp, #12
 800a66e:	f85d fb04 	ldr.w	pc, [sp], #4
 800a672:	f7f6 fdf5 	bl	8001260 <__stack_chk_fail>
 800a676:	bf00      	nop
 800a678:	20000800 	.word	0x20000800
 800a67c:	00000000 	.word	0x00000000

0800a680 <pwm_lld_disable_channel>:
 800a680:	b510      	push	{r4, lr}
 800a682:	4c0d      	ldr	r4, [pc, #52]	; (800a6b8 <pwm_lld_disable_channel+0x38>)
 800a684:	6983      	ldr	r3, [r0, #24]
 800a686:	f101 020c 	add.w	r2, r1, #12
 800a68a:	b082      	sub	sp, #8
 800a68c:	eb03 0382 	add.w	r3, r3, r2, lsl #2
 800a690:	6822      	ldr	r2, [r4, #0]
 800a692:	9201      	str	r2, [sp, #4]
 800a694:	2200      	movs	r2, #0
 800a696:	605a      	str	r2, [r3, #4]
 800a698:	6980      	ldr	r0, [r0, #24]
 800a69a:	2202      	movs	r2, #2
 800a69c:	68c3      	ldr	r3, [r0, #12]
 800a69e:	fa02 f101 	lsl.w	r1, r2, r1
 800a6a2:	ea23 0101 	bic.w	r1, r3, r1
 800a6a6:	60c1      	str	r1, [r0, #12]
 800a6a8:	9a01      	ldr	r2, [sp, #4]
 800a6aa:	6823      	ldr	r3, [r4, #0]
 800a6ac:	429a      	cmp	r2, r3
 800a6ae:	d101      	bne.n	800a6b4 <pwm_lld_disable_channel+0x34>
 800a6b0:	b002      	add	sp, #8
 800a6b2:	bd10      	pop	{r4, pc}
 800a6b4:	f7f6 fdd4 	bl	8001260 <__stack_chk_fail>
 800a6b8:	20000800 	.word	0x20000800
 800a6bc:	00000000 	.word	0x00000000

0800a6c0 <pwm_lld_enable_periodic_notification>:
 800a6c0:	b510      	push	{r4, lr}
 800a6c2:	490c      	ldr	r1, [pc, #48]	; (800a6f4 <pwm_lld_enable_periodic_notification+0x34>)
 800a6c4:	6982      	ldr	r2, [r0, #24]
 800a6c6:	680b      	ldr	r3, [r1, #0]
 800a6c8:	b082      	sub	sp, #8
 800a6ca:	9301      	str	r3, [sp, #4]
 800a6cc:	68d3      	ldr	r3, [r2, #12]
 800a6ce:	07dc      	lsls	r4, r3, #31
 800a6d0:	d407      	bmi.n	800a6e2 <pwm_lld_enable_periodic_notification+0x22>
 800a6d2:	6914      	ldr	r4, [r2, #16]
 800a6d4:	f024 0401 	bic.w	r4, r4, #1
 800a6d8:	6114      	str	r4, [r2, #16]
 800a6da:	6982      	ldr	r2, [r0, #24]
 800a6dc:	f043 0301 	orr.w	r3, r3, #1
 800a6e0:	60d3      	str	r3, [r2, #12]
 800a6e2:	9a01      	ldr	r2, [sp, #4]
 800a6e4:	680b      	ldr	r3, [r1, #0]
 800a6e6:	429a      	cmp	r2, r3
 800a6e8:	d101      	bne.n	800a6ee <pwm_lld_enable_periodic_notification+0x2e>
 800a6ea:	b002      	add	sp, #8
 800a6ec:	bd10      	pop	{r4, pc}
 800a6ee:	f7f6 fdb7 	bl	8001260 <__stack_chk_fail>
 800a6f2:	bf00      	nop
 800a6f4:	20000800 	.word	0x20000800
	...

0800a700 <pwm_lld_enable_channel_notification>:
 800a700:	b530      	push	{r4, r5, lr}
 800a702:	4c0c      	ldr	r4, [pc, #48]	; (800a734 <pwm_lld_enable_channel_notification+0x34>)
 800a704:	6985      	ldr	r5, [r0, #24]
 800a706:	6823      	ldr	r3, [r4, #0]
 800a708:	b083      	sub	sp, #12
 800a70a:	9301      	str	r3, [sp, #4]
 800a70c:	68ea      	ldr	r2, [r5, #12]
 800a70e:	2302      	movs	r3, #2
 800a710:	fa03 f101 	lsl.w	r1, r3, r1
 800a714:	4211      	tst	r1, r2
 800a716:	d104      	bne.n	800a722 <pwm_lld_enable_channel_notification+0x22>
 800a718:	430a      	orrs	r2, r1
 800a71a:	60ea      	str	r2, [r5, #12]
 800a71c:	6983      	ldr	r3, [r0, #24]
 800a71e:	43c9      	mvns	r1, r1
 800a720:	6119      	str	r1, [r3, #16]
 800a722:	9a01      	ldr	r2, [sp, #4]
 800a724:	6823      	ldr	r3, [r4, #0]
 800a726:	429a      	cmp	r2, r3
 800a728:	d101      	bne.n	800a72e <pwm_lld_enable_channel_notification+0x2e>
 800a72a:	b003      	add	sp, #12
 800a72c:	bd30      	pop	{r4, r5, pc}
 800a72e:	f7f6 fd97 	bl	8001260 <__stack_chk_fail>
 800a732:	bf00      	nop
 800a734:	20000800 	.word	0x20000800
	...

0800a740 <SysTick_Handler>:
 800a740:	b510      	push	{r4, lr}
 800a742:	4c12      	ldr	r4, [pc, #72]	; (800a78c <SysTick_Handler+0x4c>)
 800a744:	b082      	sub	sp, #8
 800a746:	6823      	ldr	r3, [r4, #0]
 800a748:	9301      	str	r3, [sp, #4]
 800a74a:	f7f8 ffd1 	bl	80036f0 <_stats_increase_irq>
 800a74e:	f7f8 f88f 	bl	8002870 <_dbg_check_enter_isr>
 800a752:	2320      	movs	r3, #32
 800a754:	f383 8811 	msr	BASEPRI, r3
 800a758:	f7f9 f832 	bl	80037c0 <_stats_start_measure_crit_isr>
 800a75c:	f7f8 f848 	bl	80027f0 <_dbg_check_lock_from_isr>
 800a760:	f7f7 ff76 	bl	8002650 <chSysTimerHandlerI>
 800a764:	f7f8 f864 	bl	8002830 <_dbg_check_unlock_from_isr>
 800a768:	f7f9 f842 	bl	80037f0 <_stats_stop_measure_crit_isr>
 800a76c:	2300      	movs	r3, #0
 800a76e:	f383 8811 	msr	BASEPRI, r3
 800a772:	f7f8 f8a5 	bl	80028c0 <_dbg_check_leave_isr>
 800a776:	9a01      	ldr	r2, [sp, #4]
 800a778:	6823      	ldr	r3, [r4, #0]
 800a77a:	429a      	cmp	r2, r3
 800a77c:	d104      	bne.n	800a788 <SysTick_Handler+0x48>
 800a77e:	b002      	add	sp, #8
 800a780:	e8bd 4010 	ldmia.w	sp!, {r4, lr}
 800a784:	f7f9 bdac 	b.w	80042e0 <_port_irq_epilogue>
 800a788:	f7f6 fd6a 	bl	8001260 <__stack_chk_fail>
 800a78c:	20000800 	.word	0x20000800

0800a790 <st_lld_init>:
 800a790:	b510      	push	{r4, lr}
 800a792:	4a0c      	ldr	r2, [pc, #48]	; (800a7c4 <st_lld_init+0x34>)
 800a794:	4b0c      	ldr	r3, [pc, #48]	; (800a7c8 <st_lld_init+0x38>)
 800a796:	6811      	ldr	r1, [r2, #0]
 800a798:	4c0c      	ldr	r4, [pc, #48]	; (800a7cc <st_lld_init+0x3c>)
 800a79a:	b082      	sub	sp, #8
 800a79c:	2000      	movs	r0, #0
 800a79e:	9101      	str	r1, [sp, #4]
 800a7a0:	2107      	movs	r1, #7
 800a7a2:	605c      	str	r4, [r3, #4]
 800a7a4:	6098      	str	r0, [r3, #8]
 800a7a6:	6019      	str	r1, [r3, #0]
 800a7a8:	9901      	ldr	r1, [sp, #4]
 800a7aa:	6813      	ldr	r3, [r2, #0]
 800a7ac:	4299      	cmp	r1, r3
 800a7ae:	d106      	bne.n	800a7be <st_lld_init+0x2e>
 800a7b0:	2108      	movs	r1, #8
 800a7b2:	200b      	movs	r0, #11
 800a7b4:	b002      	add	sp, #8
 800a7b6:	e8bd 4010 	ldmia.w	sp!, {r4, lr}
 800a7ba:	f7fc b8a1 	b.w	8006900 <nvicSetSystemHandlerPriority>
 800a7be:	f7f6 fd4f 	bl	8001260 <__stack_chk_fail>
 800a7c2:	bf00      	nop
 800a7c4:	20000800 	.word	0x20000800
 800a7c8:	e000e010 	.word	0xe000e010
 800a7cc:	0002903f 	.word	0x0002903f

0800a7d0 <notify3>:
 800a7d0:	b500      	push	{lr}
 800a7d2:	4a09      	ldr	r2, [pc, #36]	; (800a7f8 <notify3+0x28>)
 800a7d4:	4909      	ldr	r1, [pc, #36]	; (800a7fc <notify3+0x2c>)
 800a7d6:	6813      	ldr	r3, [r2, #0]
 800a7d8:	b083      	sub	sp, #12
 800a7da:	9301      	str	r3, [sp, #4]
 800a7dc:	68cb      	ldr	r3, [r1, #12]
 800a7de:	f043 0380 	orr.w	r3, r3, #128	; 0x80
 800a7e2:	60cb      	str	r3, [r1, #12]
 800a7e4:	9901      	ldr	r1, [sp, #4]
 800a7e6:	6813      	ldr	r3, [r2, #0]
 800a7e8:	4299      	cmp	r1, r3
 800a7ea:	d102      	bne.n	800a7f2 <notify3+0x22>
 800a7ec:	b003      	add	sp, #12
 800a7ee:	f85d fb04 	ldr.w	pc, [sp], #4
 800a7f2:	f7f6 fd35 	bl	8001260 <__stack_chk_fail>
 800a7f6:	bf00      	nop
 800a7f8:	20000800 	.word	0x20000800
 800a7fc:	40004800 	.word	0x40004800

0800a800 <VectorDC>:
 800a800:	e92d 47f0 	stmdb	sp!, {r4, r5, r6, r7, r8, r9, sl, lr}
 800a804:	f8df 8190 	ldr.w	r8, [pc, #400]	; 800a998 <VectorDC+0x198>
 800a808:	4f60      	ldr	r7, [pc, #384]	; (800a98c <VectorDC+0x18c>)
 800a80a:	f8d8 3000 	ldr.w	r3, [r8]
 800a80e:	b082      	sub	sp, #8
 800a810:	9301      	str	r3, [sp, #4]
 800a812:	f7f8 ff6d 	bl	80036f0 <_stats_increase_irq>
 800a816:	f7f8 f82b 	bl	8002870 <_dbg_check_enter_isr>
 800a81a:	6f7d      	ldr	r5, [r7, #116]	; 0x74
 800a81c:	f8d5 a00c 	ldr.w	sl, [r5, #12]
 800a820:	682b      	ldr	r3, [r5, #0]
 800a822:	05da      	lsls	r2, r3, #23
 800a824:	b29c      	uxth	r4, r3
 800a826:	d46e      	bmi.n	800a906 <VectorDC+0x106>
 800a828:	2320      	movs	r3, #32
 800a82a:	f383 8811 	msr	BASEPRI, r3
 800a82e:	f7f8 ffc7 	bl	80037c0 <_stats_start_measure_crit_isr>
 800a832:	f7f7 ffdd 	bl	80027f0 <_dbg_check_lock_from_isr>
 800a836:	f014 0f2f 	tst.w	r4, #47	; 0x2f
 800a83a:	d02d      	beq.n	800a898 <VectorDC+0x98>
 800a83c:	4e54      	ldr	r6, [pc, #336]	; (800a990 <VectorDC+0x190>)
 800a83e:	f1a6 0904 	sub.w	r9, r6, #4
 800a842:	e007      	b.n	800a854 <VectorDC+0x54>
 800a844:	06a0      	lsls	r0, r4, #26
 800a846:	6869      	ldr	r1, [r5, #4]
 800a848:	d41d      	bmi.n	800a886 <VectorDC+0x86>
 800a84a:	682c      	ldr	r4, [r5, #0]
 800a84c:	b2a4      	uxth	r4, r4
 800a84e:	f014 0f2f 	tst.w	r4, #47	; 0x2f
 800a852:	d021      	beq.n	800a898 <VectorDC+0x98>
 800a854:	0723      	lsls	r3, r4, #28
 800a856:	d0f5      	beq.n	800a844 <VectorDC+0x44>
 800a858:	f014 0f08 	tst.w	r4, #8
 800a85c:	bf0c      	ite	eq
 800a85e:	2100      	moveq	r1, #0
 800a860:	2180      	movne	r1, #128	; 0x80
 800a862:	07e0      	lsls	r0, r4, #31
 800a864:	bf48      	it	mi
 800a866:	f041 0120 	orrmi.w	r1, r1, #32
 800a86a:	07a2      	lsls	r2, r4, #30
 800a86c:	bf48      	it	mi
 800a86e:	f041 0140 	orrmi.w	r1, r1, #64	; 0x40
 800a872:	0763      	lsls	r3, r4, #29
 800a874:	bf48      	it	mi
 800a876:	f441 7180 	orrmi.w	r1, r1, #256	; 0x100
 800a87a:	4630      	mov	r0, r6
 800a87c:	f7f9 f9b0 	bl	8003be0 <chEvtBroadcastFlagsI>
 800a880:	06a0      	lsls	r0, r4, #26
 800a882:	6869      	ldr	r1, [r5, #4]
 800a884:	d5e1      	bpl.n	800a84a <VectorDC+0x4a>
 800a886:	b2c9      	uxtb	r1, r1
 800a888:	4648      	mov	r0, r9
 800a88a:	f7fa fff1 	bl	8005870 <sdIncomingDataI>
 800a88e:	682c      	ldr	r4, [r5, #0]
 800a890:	b2a4      	uxth	r4, r4
 800a892:	f014 0f2f 	tst.w	r4, #47	; 0x2f
 800a896:	d1dd      	bne.n	800a854 <VectorDC+0x54>
 800a898:	f7f7 ffca 	bl	8002830 <_dbg_check_unlock_from_isr>
 800a89c:	f7f8 ffa8 	bl	80037f0 <_stats_stop_measure_crit_isr>
 800a8a0:	2300      	movs	r3, #0
 800a8a2:	f383 8811 	msr	BASEPRI, r3
 800a8a6:	f01a 0f80 	tst.w	sl, #128	; 0x80
 800a8aa:	d001      	beq.n	800a8b0 <VectorDC+0xb0>
 800a8ac:	0622      	lsls	r2, r4, #24
 800a8ae:	d441      	bmi.n	800a934 <VectorDC+0x134>
 800a8b0:	0663      	lsls	r3, r4, #25
 800a8b2:	d40b      	bmi.n	800a8cc <VectorDC+0xcc>
 800a8b4:	f7f8 f804 	bl	80028c0 <_dbg_check_leave_isr>
 800a8b8:	9a01      	ldr	r2, [sp, #4]
 800a8ba:	f8d8 3000 	ldr.w	r3, [r8]
 800a8be:	429a      	cmp	r2, r3
 800a8c0:	d161      	bne.n	800a986 <VectorDC+0x186>
 800a8c2:	b002      	add	sp, #8
 800a8c4:	e8bd 47f0 	ldmia.w	sp!, {r4, r5, r6, r7, r8, r9, sl, lr}
 800a8c8:	f7f9 bd0a 	b.w	80042e0 <_port_irq_epilogue>
 800a8cc:	2320      	movs	r3, #32
 800a8ce:	f383 8811 	msr	BASEPRI, r3
 800a8d2:	f7f8 ff75 	bl	80037c0 <_stats_start_measure_crit_isr>
 800a8d6:	f7f7 ff8b 	bl	80027f0 <_dbg_check_lock_from_isr>
 800a8da:	f7f8 f819 	bl	8002910 <chDbgCheckClassI>
 800a8de:	e9d7 2311 	ldrd	r2, r3, [r7, #68]	; 0x44
 800a8e2:	429a      	cmp	r2, r3
 800a8e4:	d03b      	beq.n	800a95e <VectorDC+0x15e>
 800a8e6:	f64f 73bf 	movw	r3, #65471	; 0xffbf
 800a8ea:	ea0a 0303 	and.w	r3, sl, r3
 800a8ee:	f06f 0240 	mvn.w	r2, #64	; 0x40
 800a8f2:	60eb      	str	r3, [r5, #12]
 800a8f4:	602a      	str	r2, [r5, #0]
 800a8f6:	f7f7 ff9b 	bl	8002830 <_dbg_check_unlock_from_isr>
 800a8fa:	f7f8 ff79 	bl	80037f0 <_stats_stop_measure_crit_isr>
 800a8fe:	2300      	movs	r3, #0
 800a900:	f383 8811 	msr	BASEPRI, r3
 800a904:	e7d6      	b.n	800a8b4 <VectorDC+0xb4>
 800a906:	2320      	movs	r3, #32
 800a908:	f383 8811 	msr	BASEPRI, r3
 800a90c:	f7f8 ff58 	bl	80037c0 <_stats_start_measure_crit_isr>
 800a910:	f7f7 ff6e 	bl	80027f0 <_dbg_check_lock_from_isr>
 800a914:	1d38      	adds	r0, r7, #4
 800a916:	f44f 7100 	mov.w	r1, #512	; 0x200
 800a91a:	f7f9 f961 	bl	8003be0 <chEvtBroadcastFlagsI>
 800a91e:	f46f 7380 	mvn.w	r3, #256	; 0x100
 800a922:	602b      	str	r3, [r5, #0]
 800a924:	f7f7 ff84 	bl	8002830 <_dbg_check_unlock_from_isr>
 800a928:	f7f8 ff62 	bl	80037f0 <_stats_stop_measure_crit_isr>
 800a92c:	2300      	movs	r3, #0
 800a92e:	f383 8811 	msr	BASEPRI, r3
 800a932:	e779      	b.n	800a828 <VectorDC+0x28>
 800a934:	2320      	movs	r3, #32
 800a936:	f383 8811 	msr	BASEPRI, r3
 800a93a:	f7f8 ff41 	bl	80037c0 <_stats_start_measure_crit_isr>
 800a93e:	f7f7 ff57 	bl	80027f0 <_dbg_check_lock_from_isr>
 800a942:	4814      	ldr	r0, [pc, #80]	; (800a994 <VectorDC+0x194>)
 800a944:	f7f9 fb64 	bl	8004010 <chOQGetI>
 800a948:	2800      	cmp	r0, #0
 800a94a:	db10      	blt.n	800a96e <VectorDC+0x16e>
 800a94c:	6068      	str	r0, [r5, #4]
 800a94e:	f7f7 ff6f 	bl	8002830 <_dbg_check_unlock_from_isr>
 800a952:	f7f8 ff4d 	bl	80037f0 <_stats_stop_measure_crit_isr>
 800a956:	2300      	movs	r3, #0
 800a958:	f383 8811 	msr	BASEPRI, r3
 800a95c:	e7a8      	b.n	800a8b0 <VectorDC+0xb0>
 800a95e:	6bbb      	ldr	r3, [r7, #56]	; 0x38
 800a960:	2b00      	cmp	r3, #0
 800a962:	d0c0      	beq.n	800a8e6 <VectorDC+0xe6>
 800a964:	2110      	movs	r1, #16
 800a966:	480a      	ldr	r0, [pc, #40]	; (800a990 <VectorDC+0x190>)
 800a968:	f7f9 f93a 	bl	8003be0 <chEvtBroadcastFlagsI>
 800a96c:	e7bb      	b.n	800a8e6 <VectorDC+0xe6>
 800a96e:	2108      	movs	r1, #8
 800a970:	4807      	ldr	r0, [pc, #28]	; (800a990 <VectorDC+0x190>)
 800a972:	f7f9 f935 	bl	8003be0 <chEvtBroadcastFlagsI>
 800a976:	f64f 733f 	movw	r3, #65343	; 0xff3f
 800a97a:	ea0a 0303 	and.w	r3, sl, r3
 800a97e:	f043 0340 	orr.w	r3, r3, #64	; 0x40
 800a982:	60eb      	str	r3, [r5, #12]
 800a984:	e7e3      	b.n	800a94e <VectorDC+0x14e>
 800a986:	f7f6 fc6b 	bl	8001260 <__stack_chk_fail>
 800a98a:	bf00      	nop
 800a98c:	20002364 	.word	0x20002364
 800a990:	20002368 	.word	0x20002368
 800a994:	20002394 	.word	0x20002394
 800a998:	20000800 	.word	0x20000800
 800a99c:	00000000 	.word	0x00000000

0800a9a0 <sd_lld_init>:
 800a9a0:	b530      	push	{r4, r5, lr}
 800a9a2:	4d0a      	ldr	r5, [pc, #40]	; (800a9cc <sd_lld_init+0x2c>)
 800a9a4:	4c0a      	ldr	r4, [pc, #40]	; (800a9d0 <sd_lld_init+0x30>)
 800a9a6:	682b      	ldr	r3, [r5, #0]
 800a9a8:	4a0a      	ldr	r2, [pc, #40]	; (800a9d4 <sd_lld_init+0x34>)
 800a9aa:	b083      	sub	sp, #12
 800a9ac:	2100      	movs	r1, #0
 800a9ae:	4620      	mov	r0, r4
 800a9b0:	9301      	str	r3, [sp, #4]
 800a9b2:	f7fa fee5 	bl	8005780 <sdObjectInit>
 800a9b6:	9a01      	ldr	r2, [sp, #4]
 800a9b8:	682b      	ldr	r3, [r5, #0]
 800a9ba:	4907      	ldr	r1, [pc, #28]	; (800a9d8 <sd_lld_init+0x38>)
 800a9bc:	6761      	str	r1, [r4, #116]	; 0x74
 800a9be:	429a      	cmp	r2, r3
 800a9c0:	d101      	bne.n	800a9c6 <sd_lld_init+0x26>
 800a9c2:	b003      	add	sp, #12
 800a9c4:	bd30      	pop	{r4, r5, pc}
 800a9c6:	f7f6 fc4b 	bl	8001260 <__stack_chk_fail>
 800a9ca:	bf00      	nop
 800a9cc:	20000800 	.word	0x20000800
 800a9d0:	20002364 	.word	0x20002364
 800a9d4:	0800a7d1 	.word	0x0800a7d1
 800a9d8:	40004800 	.word	0x40004800
 800a9dc:	00000000 	.word	0x00000000

0800a9e0 <sd_lld_start>:
 800a9e0:	b570      	push	{r4, r5, r6, lr}
 800a9e2:	4e22      	ldr	r6, [pc, #136]	; (800aa6c <sd_lld_start+0x8c>)
 800a9e4:	7a03      	ldrb	r3, [r0, #8]
 800a9e6:	4c22      	ldr	r4, [pc, #136]	; (800aa70 <sd_lld_start+0x90>)
 800a9e8:	6832      	ldr	r2, [r6, #0]
 800a9ea:	b082      	sub	sp, #8
 800a9ec:	2900      	cmp	r1, #0
 800a9ee:	bf18      	it	ne
 800a9f0:	460c      	movne	r4, r1
 800a9f2:	2b01      	cmp	r3, #1
 800a9f4:	4605      	mov	r5, r0
 800a9f6:	9201      	str	r2, [sp, #4]
 800a9f8:	d028      	beq.n	800aa4c <sd_lld_start+0x6c>
 800a9fa:	6f6b      	ldr	r3, [r5, #116]	; 0x74
 800a9fc:	491d      	ldr	r1, [pc, #116]	; (800aa74 <sd_lld_start+0x94>)
 800a9fe:	6820      	ldr	r0, [r4, #0]
 800aa00:	428b      	cmp	r3, r1
 800aa02:	d01e      	beq.n	800aa42 <sd_lld_start+0x62>
 800aa04:	4a1c      	ldr	r2, [pc, #112]	; (800aa78 <sd_lld_start+0x98>)
 800aa06:	4293      	cmp	r3, r2
 800aa08:	d01b      	beq.n	800aa42 <sd_lld_start+0x62>
 800aa0a:	4a1c      	ldr	r2, [pc, #112]	; (800aa7c <sd_lld_start+0x9c>)
 800aa0c:	fbb2 f2f0 	udiv	r2, r2, r0
 800aa10:	609a      	str	r2, [r3, #8]
 800aa12:	88e2      	ldrh	r2, [r4, #6]
 800aa14:	f042 0240 	orr.w	r2, r2, #64	; 0x40
 800aa18:	611a      	str	r2, [r3, #16]
 800aa1a:	8922      	ldrh	r2, [r4, #8]
 800aa1c:	f042 0201 	orr.w	r2, r2, #1
 800aa20:	615a      	str	r2, [r3, #20]
 800aa22:	88a2      	ldrh	r2, [r4, #4]
 800aa24:	f442 5204 	orr.w	r2, r2, #8448	; 0x2100
 800aa28:	f042 022c 	orr.w	r2, r2, #44	; 0x2c
 800aa2c:	2100      	movs	r1, #0
 800aa2e:	60da      	str	r2, [r3, #12]
 800aa30:	6019      	str	r1, [r3, #0]
 800aa32:	681a      	ldr	r2, [r3, #0]
 800aa34:	685b      	ldr	r3, [r3, #4]
 800aa36:	9a01      	ldr	r2, [sp, #4]
 800aa38:	6833      	ldr	r3, [r6, #0]
 800aa3a:	429a      	cmp	r2, r3
 800aa3c:	d113      	bne.n	800aa66 <sd_lld_start+0x86>
 800aa3e:	b002      	add	sp, #8
 800aa40:	bd70      	pop	{r4, r5, r6, pc}
 800aa42:	4a0f      	ldr	r2, [pc, #60]	; (800aa80 <sd_lld_start+0xa0>)
 800aa44:	fbb2 f2f0 	udiv	r2, r2, r0
 800aa48:	609a      	str	r2, [r3, #8]
 800aa4a:	e7e2      	b.n	800aa12 <sd_lld_start+0x32>
 800aa4c:	4b0d      	ldr	r3, [pc, #52]	; (800aa84 <sd_lld_start+0xa4>)
 800aa4e:	4298      	cmp	r0, r3
 800aa50:	d1d3      	bne.n	800a9fa <sd_lld_start+0x1a>
 800aa52:	4a0d      	ldr	r2, [pc, #52]	; (800aa88 <sd_lld_start+0xa8>)
 800aa54:	6c13      	ldr	r3, [r2, #64]	; 0x40
 800aa56:	f443 2380 	orr.w	r3, r3, #262144	; 0x40000
 800aa5a:	6413      	str	r3, [r2, #64]	; 0x40
 800aa5c:	210c      	movs	r1, #12
 800aa5e:	2027      	movs	r0, #39	; 0x27
 800aa60:	f7fb ff06 	bl	8006870 <nvicEnableVector>
 800aa64:	e7c9      	b.n	800a9fa <sd_lld_start+0x1a>
 800aa66:	f7f6 fbfb 	bl	8001260 <__stack_chk_fail>
 800aa6a:	bf00      	nop
 800aa6c:	20000800 	.word	0x20000800
 800aa70:	0800f0a0 	.word	0x0800f0a0
 800aa74:	40011000 	.word	0x40011000
 800aa78:	40011400 	.word	0x40011400
 800aa7c:	0280de80 	.word	0x0280de80
 800aa80:	0501bd00 	.word	0x0501bd00
 800aa84:	20002364 	.word	0x20002364
 800aa88:	40023800 	.word	0x40023800
 800aa8c:	00000000 	.word	0x00000000

0800aa90 <__early_init>:
 800aa90:	b500      	push	{lr}
 800aa92:	4b07      	ldr	r3, [pc, #28]	; (800aab0 <__early_init+0x20>)
 800aa94:	b083      	sub	sp, #12
 800aa96:	681a      	ldr	r2, [r3, #0]
 800aa98:	9201      	str	r2, [sp, #4]
 800aa9a:	9a01      	ldr	r2, [sp, #4]
 800aa9c:	681b      	ldr	r3, [r3, #0]
 800aa9e:	429a      	cmp	r2, r3
 800aaa0:	d104      	bne.n	800aaac <__early_init+0x1c>
 800aaa2:	b003      	add	sp, #12
 800aaa4:	f85d eb04 	ldr.w	lr, [sp], #4
 800aaa8:	f7fc baea 	b.w	8007080 <stm32_clock_init>
 800aaac:	f7f6 fbd8 	bl	8001260 <__stack_chk_fail>
 800aab0:	20000800 	.word	0x20000800
	...

0800aac0 <sdc_lld_is_card_inserted>:
 800aac0:	b500      	push	{lr}
 800aac2:	4b09      	ldr	r3, [pc, #36]	; (800aae8 <sdc_lld_is_card_inserted+0x28>)
 800aac4:	4a09      	ldr	r2, [pc, #36]	; (800aaec <sdc_lld_is_card_inserted+0x2c>)
 800aac6:	6819      	ldr	r1, [r3, #0]
 800aac8:	b083      	sub	sp, #12
 800aaca:	9101      	str	r1, [sp, #4]
 800aacc:	6910      	ldr	r0, [r2, #16]
 800aace:	9a01      	ldr	r2, [sp, #4]
 800aad0:	681b      	ldr	r3, [r3, #0]
 800aad2:	429a      	cmp	r2, r3
 800aad4:	d106      	bne.n	800aae4 <sdc_lld_is_card_inserted+0x24>
 800aad6:	ea6f 10d0 	mvn.w	r0, r0, lsr #7
 800aada:	f000 0001 	and.w	r0, r0, #1
 800aade:	b003      	add	sp, #12
 800aae0:	f85d fb04 	ldr.w	pc, [sp], #4
 800aae4:	f7f6 fbbc 	bl	8001260 <__stack_chk_fail>
 800aae8:	20000800 	.word	0x20000800
 800aaec:	40021000 	.word	0x40021000

0800aaf0 <sdc_lld_is_write_protected>:
 800aaf0:	b500      	push	{lr}
 800aaf2:	4b07      	ldr	r3, [pc, #28]	; (800ab10 <sdc_lld_is_write_protected+0x20>)
 800aaf4:	b083      	sub	sp, #12
 800aaf6:	681a      	ldr	r2, [r3, #0]
 800aaf8:	9201      	str	r2, [sp, #4]
 800aafa:	9a01      	ldr	r2, [sp, #4]
 800aafc:	681b      	ldr	r3, [r3, #0]
 800aafe:	429a      	cmp	r2, r3
 800ab00:	d103      	bne.n	800ab0a <sdc_lld_is_write_protected+0x1a>
 800ab02:	2000      	movs	r0, #0
 800ab04:	b003      	add	sp, #12
 800ab06:	f85d fb04 	ldr.w	pc, [sp], #4
 800ab0a:	f7f6 fba9 	bl	8001260 <__stack_chk_fail>
 800ab0e:	bf00      	nop
 800ab10:	20000800 	.word	0x20000800
	...

0800ab20 <boardInit>:
 800ab20:	b500      	push	{lr}
 800ab22:	4b06      	ldr	r3, [pc, #24]	; (800ab3c <boardInit+0x1c>)
 800ab24:	b083      	sub	sp, #12
 800ab26:	681a      	ldr	r2, [r3, #0]
 800ab28:	9201      	str	r2, [sp, #4]
 800ab2a:	9a01      	ldr	r2, [sp, #4]
 800ab2c:	681b      	ldr	r3, [r3, #0]
 800ab2e:	429a      	cmp	r2, r3
 800ab30:	d102      	bne.n	800ab38 <boardInit+0x18>
 800ab32:	b003      	add	sp, #12
 800ab34:	f85d fb04 	ldr.w	pc, [sp], #4
 800ab38:	f7f6 fb92 	bl	8001260 <__stack_chk_fail>
 800ab3c:	20000800 	.word	0x20000800

0800ab40 <malloc>:
 800ab40:	4b02      	ldr	r3, [pc, #8]	; (800ab4c <malloc+0xc>)
 800ab42:	4601      	mov	r1, r0
 800ab44:	6818      	ldr	r0, [r3, #0]
 800ab46:	f000 b80b 	b.w	800ab60 <_malloc_r>
 800ab4a:	bf00      	nop
 800ab4c:	2000082c 	.word	0x2000082c

0800ab50 <free>:
 800ab50:	4b02      	ldr	r3, [pc, #8]	; (800ab5c <free+0xc>)
 800ab52:	4601      	mov	r1, r0
 800ab54:	6818      	ldr	r0, [r3, #0]
 800ab56:	f002 bd93 	b.w	800d680 <_free_r>
 800ab5a:	bf00      	nop
 800ab5c:	2000082c 	.word	0x2000082c

0800ab60 <_malloc_r>:
 800ab60:	e92d 4ff0 	stmdb	sp!, {r4, r5, r6, r7, r8, r9, sl, fp, lr}
 800ab64:	f101 050b 	add.w	r5, r1, #11
 800ab68:	2d16      	cmp	r5, #22
 800ab6a:	b083      	sub	sp, #12
 800ab6c:	4606      	mov	r6, r0
 800ab6e:	d823      	bhi.n	800abb8 <_malloc_r+0x58>
 800ab70:	2910      	cmp	r1, #16
 800ab72:	f200 80b9 	bhi.w	800ace8 <_malloc_r+0x188>
 800ab76:	f7f7 fc63 	bl	8002440 <__malloc_lock>
 800ab7a:	2510      	movs	r5, #16
 800ab7c:	2318      	movs	r3, #24
 800ab7e:	2002      	movs	r0, #2
 800ab80:	4fc5      	ldr	r7, [pc, #788]	; (800ae98 <_malloc_r+0x338>)
 800ab82:	443b      	add	r3, r7
 800ab84:	f1a3 0208 	sub.w	r2, r3, #8
 800ab88:	685c      	ldr	r4, [r3, #4]
 800ab8a:	4294      	cmp	r4, r2
 800ab8c:	f000 8166 	beq.w	800ae5c <_malloc_r+0x2fc>
 800ab90:	6863      	ldr	r3, [r4, #4]
 800ab92:	f023 0303 	bic.w	r3, r3, #3
 800ab96:	4423      	add	r3, r4
 800ab98:	e9d4 5102 	ldrd	r5, r1, [r4, #8]
 800ab9c:	685a      	ldr	r2, [r3, #4]
 800ab9e:	60e9      	str	r1, [r5, #12]
 800aba0:	f042 0201 	orr.w	r2, r2, #1
 800aba4:	608d      	str	r5, [r1, #8]
 800aba6:	4630      	mov	r0, r6
 800aba8:	605a      	str	r2, [r3, #4]
 800abaa:	f7f7 fc61 	bl	8002470 <__malloc_unlock>
 800abae:	3408      	adds	r4, #8
 800abb0:	4620      	mov	r0, r4
 800abb2:	b003      	add	sp, #12
 800abb4:	e8bd 8ff0 	ldmia.w	sp!, {r4, r5, r6, r7, r8, r9, sl, fp, pc}
 800abb8:	f035 0507 	bics.w	r5, r5, #7
 800abbc:	f100 8094 	bmi.w	800ace8 <_malloc_r+0x188>
 800abc0:	42a9      	cmp	r1, r5
 800abc2:	f200 8091 	bhi.w	800ace8 <_malloc_r+0x188>
 800abc6:	f7f7 fc3b 	bl	8002440 <__malloc_lock>
 800abca:	f5b5 7ffc 	cmp.w	r5, #504	; 0x1f8
 800abce:	f0c0 8183 	bcc.w	800aed8 <_malloc_r+0x378>
 800abd2:	0a6b      	lsrs	r3, r5, #9
 800abd4:	f000 808f 	beq.w	800acf6 <_malloc_r+0x196>
 800abd8:	2b04      	cmp	r3, #4
 800abda:	f200 8146 	bhi.w	800ae6a <_malloc_r+0x30a>
 800abde:	09ab      	lsrs	r3, r5, #6
 800abe0:	f103 0039 	add.w	r0, r3, #57	; 0x39
 800abe4:	f103 0c38 	add.w	ip, r3, #56	; 0x38
 800abe8:	00c3      	lsls	r3, r0, #3
 800abea:	4fab      	ldr	r7, [pc, #684]	; (800ae98 <_malloc_r+0x338>)
 800abec:	443b      	add	r3, r7
 800abee:	f1a3 0108 	sub.w	r1, r3, #8
 800abf2:	685c      	ldr	r4, [r3, #4]
 800abf4:	42a1      	cmp	r1, r4
 800abf6:	d106      	bne.n	800ac06 <_malloc_r+0xa6>
 800abf8:	e00c      	b.n	800ac14 <_malloc_r+0xb4>
 800abfa:	2a00      	cmp	r2, #0
 800abfc:	f280 811d 	bge.w	800ae3a <_malloc_r+0x2da>
 800ac00:	68e4      	ldr	r4, [r4, #12]
 800ac02:	42a1      	cmp	r1, r4
 800ac04:	d006      	beq.n	800ac14 <_malloc_r+0xb4>
 800ac06:	6863      	ldr	r3, [r4, #4]
 800ac08:	f023 0303 	bic.w	r3, r3, #3
 800ac0c:	1b5a      	subs	r2, r3, r5
 800ac0e:	2a0f      	cmp	r2, #15
 800ac10:	ddf3      	ble.n	800abfa <_malloc_r+0x9a>
 800ac12:	4660      	mov	r0, ip
 800ac14:	693c      	ldr	r4, [r7, #16]
 800ac16:	f8df c294 	ldr.w	ip, [pc, #660]	; 800aeac <_malloc_r+0x34c>
 800ac1a:	4564      	cmp	r4, ip
 800ac1c:	d071      	beq.n	800ad02 <_malloc_r+0x1a2>
 800ac1e:	6863      	ldr	r3, [r4, #4]
 800ac20:	f023 0303 	bic.w	r3, r3, #3
 800ac24:	1b5a      	subs	r2, r3, r5
 800ac26:	2a0f      	cmp	r2, #15
 800ac28:	f300 8144 	bgt.w	800aeb4 <_malloc_r+0x354>
 800ac2c:	2a00      	cmp	r2, #0
 800ac2e:	e9c7 cc04 	strd	ip, ip, [r7, #16]
 800ac32:	f280 8126 	bge.w	800ae82 <_malloc_r+0x322>
 800ac36:	f5b3 7f00 	cmp.w	r3, #512	; 0x200
 800ac3a:	f080 8169 	bcs.w	800af10 <_malloc_r+0x3b0>
 800ac3e:	08db      	lsrs	r3, r3, #3
 800ac40:	1c59      	adds	r1, r3, #1
 800ac42:	687a      	ldr	r2, [r7, #4]
 800ac44:	f857 8031 	ldr.w	r8, [r7, r1, lsl #3]
 800ac48:	f8c4 8008 	str.w	r8, [r4, #8]
 800ac4c:	f04f 0e01 	mov.w	lr, #1
 800ac50:	109b      	asrs	r3, r3, #2
 800ac52:	fa0e f303 	lsl.w	r3, lr, r3
 800ac56:	eb07 0ec1 	add.w	lr, r7, r1, lsl #3
 800ac5a:	4313      	orrs	r3, r2
 800ac5c:	f1ae 0208 	sub.w	r2, lr, #8
 800ac60:	60e2      	str	r2, [r4, #12]
 800ac62:	607b      	str	r3, [r7, #4]
 800ac64:	f847 4031 	str.w	r4, [r7, r1, lsl #3]
 800ac68:	f8c8 400c 	str.w	r4, [r8, #12]
 800ac6c:	1082      	asrs	r2, r0, #2
 800ac6e:	2401      	movs	r4, #1
 800ac70:	4094      	lsls	r4, r2
 800ac72:	429c      	cmp	r4, r3
 800ac74:	d84b      	bhi.n	800ad0e <_malloc_r+0x1ae>
 800ac76:	421c      	tst	r4, r3
 800ac78:	d106      	bne.n	800ac88 <_malloc_r+0x128>
 800ac7a:	f020 0003 	bic.w	r0, r0, #3
 800ac7e:	0064      	lsls	r4, r4, #1
 800ac80:	421c      	tst	r4, r3
 800ac82:	f100 0004 	add.w	r0, r0, #4
 800ac86:	d0fa      	beq.n	800ac7e <_malloc_r+0x11e>
 800ac88:	eb07 09c0 	add.w	r9, r7, r0, lsl #3
 800ac8c:	46ce      	mov	lr, r9
 800ac8e:	4680      	mov	r8, r0
 800ac90:	f8de 300c 	ldr.w	r3, [lr, #12]
 800ac94:	459e      	cmp	lr, r3
 800ac96:	d107      	bne.n	800aca8 <_malloc_r+0x148>
 800ac98:	e122      	b.n	800aee0 <_malloc_r+0x380>
 800ac9a:	2a00      	cmp	r2, #0
 800ac9c:	f280 8129 	bge.w	800aef2 <_malloc_r+0x392>
 800aca0:	68db      	ldr	r3, [r3, #12]
 800aca2:	459e      	cmp	lr, r3
 800aca4:	f000 811c 	beq.w	800aee0 <_malloc_r+0x380>
 800aca8:	6859      	ldr	r1, [r3, #4]
 800acaa:	f021 0103 	bic.w	r1, r1, #3
 800acae:	1b4a      	subs	r2, r1, r5
 800acb0:	2a0f      	cmp	r2, #15
 800acb2:	ddf2      	ble.n	800ac9a <_malloc_r+0x13a>
 800acb4:	e9d3 8e02 	ldrd	r8, lr, [r3, #8]
 800acb8:	195c      	adds	r4, r3, r5
 800acba:	f045 0501 	orr.w	r5, r5, #1
 800acbe:	605d      	str	r5, [r3, #4]
 800acc0:	f042 0501 	orr.w	r5, r2, #1
 800acc4:	f8c8 e00c 	str.w	lr, [r8, #12]
 800acc8:	4630      	mov	r0, r6
 800acca:	f8ce 8008 	str.w	r8, [lr, #8]
 800acce:	e9c7 4404 	strd	r4, r4, [r7, #16]
 800acd2:	e9c4 cc02 	strd	ip, ip, [r4, #8]
 800acd6:	6065      	str	r5, [r4, #4]
 800acd8:	505a      	str	r2, [r3, r1]
 800acda:	9301      	str	r3, [sp, #4]
 800acdc:	f7f7 fbc8 	bl	8002470 <__malloc_unlock>
 800ace0:	9b01      	ldr	r3, [sp, #4]
 800ace2:	f103 0408 	add.w	r4, r3, #8
 800ace6:	e763      	b.n	800abb0 <_malloc_r+0x50>
 800ace8:	2400      	movs	r4, #0
 800acea:	230c      	movs	r3, #12
 800acec:	4620      	mov	r0, r4
 800acee:	6033      	str	r3, [r6, #0]
 800acf0:	b003      	add	sp, #12
 800acf2:	e8bd 8ff0 	ldmia.w	sp!, {r4, r5, r6, r7, r8, r9, sl, fp, pc}
 800acf6:	f44f 7300 	mov.w	r3, #512	; 0x200
 800acfa:	2040      	movs	r0, #64	; 0x40
 800acfc:	f04f 0c3f 	mov.w	ip, #63	; 0x3f
 800ad00:	e773      	b.n	800abea <_malloc_r+0x8a>
 800ad02:	687b      	ldr	r3, [r7, #4]
 800ad04:	1082      	asrs	r2, r0, #2
 800ad06:	2401      	movs	r4, #1
 800ad08:	4094      	lsls	r4, r2
 800ad0a:	429c      	cmp	r4, r3
 800ad0c:	d9b3      	bls.n	800ac76 <_malloc_r+0x116>
 800ad0e:	68bc      	ldr	r4, [r7, #8]
 800ad10:	6863      	ldr	r3, [r4, #4]
 800ad12:	f023 0903 	bic.w	r9, r3, #3
 800ad16:	45a9      	cmp	r9, r5
 800ad18:	d303      	bcc.n	800ad22 <_malloc_r+0x1c2>
 800ad1a:	eba9 0305 	sub.w	r3, r9, r5
 800ad1e:	2b0f      	cmp	r3, #15
 800ad20:	dc7b      	bgt.n	800ae1a <_malloc_r+0x2ba>
 800ad22:	4b5e      	ldr	r3, [pc, #376]	; (800ae9c <_malloc_r+0x33c>)
 800ad24:	f8df a188 	ldr.w	sl, [pc, #392]	; 800aeb0 <_malloc_r+0x350>
 800ad28:	681a      	ldr	r2, [r3, #0]
 800ad2a:	f8da 3000 	ldr.w	r3, [sl]
 800ad2e:	3301      	adds	r3, #1
 800ad30:	eb05 0802 	add.w	r8, r5, r2
 800ad34:	f000 8148 	beq.w	800afc8 <_malloc_r+0x468>
 800ad38:	f508 5880 	add.w	r8, r8, #4096	; 0x1000
 800ad3c:	f108 080f 	add.w	r8, r8, #15
 800ad40:	f428 687f 	bic.w	r8, r8, #4080	; 0xff0
 800ad44:	f028 080f 	bic.w	r8, r8, #15
 800ad48:	4641      	mov	r1, r8
 800ad4a:	4630      	mov	r0, r6
 800ad4c:	f7f7 fba8 	bl	80024a0 <_sbrk_r>
 800ad50:	f1b0 3fff 	cmp.w	r0, #4294967295
 800ad54:	4683      	mov	fp, r0
 800ad56:	f000 8104 	beq.w	800af62 <_malloc_r+0x402>
 800ad5a:	eb04 0009 	add.w	r0, r4, r9
 800ad5e:	4558      	cmp	r0, fp
 800ad60:	f200 80fd 	bhi.w	800af5e <_malloc_r+0x3fe>
 800ad64:	4a4e      	ldr	r2, [pc, #312]	; (800aea0 <_malloc_r+0x340>)
 800ad66:	6813      	ldr	r3, [r2, #0]
 800ad68:	4443      	add	r3, r8
 800ad6a:	6013      	str	r3, [r2, #0]
 800ad6c:	f000 814d 	beq.w	800b00a <_malloc_r+0x4aa>
 800ad70:	f8da 1000 	ldr.w	r1, [sl]
 800ad74:	3101      	adds	r1, #1
 800ad76:	bf1b      	ittet	ne
 800ad78:	ebab 0000 	subne.w	r0, fp, r0
 800ad7c:	181b      	addne	r3, r3, r0
 800ad7e:	f8ca b000 	streq.w	fp, [sl]
 800ad82:	6013      	strne	r3, [r2, #0]
 800ad84:	f01b 0307 	ands.w	r3, fp, #7
 800ad88:	f000 8134 	beq.w	800aff4 <_malloc_r+0x494>
 800ad8c:	f1c3 0108 	rsb	r1, r3, #8
 800ad90:	f5c3 5380 	rsb	r3, r3, #4096	; 0x1000
 800ad94:	448b      	add	fp, r1
 800ad96:	3308      	adds	r3, #8
 800ad98:	44d8      	add	r8, fp
 800ad9a:	f3c8 080b 	ubfx	r8, r8, #0, #12
 800ad9e:	eba3 0808 	sub.w	r8, r3, r8
 800ada2:	4641      	mov	r1, r8
 800ada4:	4630      	mov	r0, r6
 800ada6:	9201      	str	r2, [sp, #4]
 800ada8:	f7f7 fb7a 	bl	80024a0 <_sbrk_r>
 800adac:	1c43      	adds	r3, r0, #1
 800adae:	9a01      	ldr	r2, [sp, #4]
 800adb0:	f000 8146 	beq.w	800b040 <_malloc_r+0x4e0>
 800adb4:	eba0 010b 	sub.w	r1, r0, fp
 800adb8:	4441      	add	r1, r8
 800adba:	f041 0101 	orr.w	r1, r1, #1
 800adbe:	6813      	ldr	r3, [r2, #0]
 800adc0:	f8c7 b008 	str.w	fp, [r7, #8]
 800adc4:	4443      	add	r3, r8
 800adc6:	42bc      	cmp	r4, r7
 800adc8:	f8cb 1004 	str.w	r1, [fp, #4]
 800adcc:	6013      	str	r3, [r2, #0]
 800adce:	d015      	beq.n	800adfc <_malloc_r+0x29c>
 800add0:	f1b9 0f0f 	cmp.w	r9, #15
 800add4:	f240 8130 	bls.w	800b038 <_malloc_r+0x4d8>
 800add8:	6860      	ldr	r0, [r4, #4]
 800adda:	f1a9 010c 	sub.w	r1, r9, #12
 800adde:	f021 0107 	bic.w	r1, r1, #7
 800ade2:	f000 0001 	and.w	r0, r0, #1
 800ade6:	eb04 0c01 	add.w	ip, r4, r1
 800adea:	4308      	orrs	r0, r1
 800adec:	f04f 0e05 	mov.w	lr, #5
 800adf0:	290f      	cmp	r1, #15
 800adf2:	6060      	str	r0, [r4, #4]
 800adf4:	e9cc ee01 	strd	lr, lr, [ip, #4]
 800adf8:	f200 813a 	bhi.w	800b070 <_malloc_r+0x510>
 800adfc:	4a29      	ldr	r2, [pc, #164]	; (800aea4 <_malloc_r+0x344>)
 800adfe:	482a      	ldr	r0, [pc, #168]	; (800aea8 <_malloc_r+0x348>)
 800ae00:	6811      	ldr	r1, [r2, #0]
 800ae02:	68bc      	ldr	r4, [r7, #8]
 800ae04:	428b      	cmp	r3, r1
 800ae06:	6801      	ldr	r1, [r0, #0]
 800ae08:	bf88      	it	hi
 800ae0a:	6013      	strhi	r3, [r2, #0]
 800ae0c:	6862      	ldr	r2, [r4, #4]
 800ae0e:	428b      	cmp	r3, r1
 800ae10:	f022 0203 	bic.w	r2, r2, #3
 800ae14:	bf88      	it	hi
 800ae16:	6003      	strhi	r3, [r0, #0]
 800ae18:	e0a7      	b.n	800af6a <_malloc_r+0x40a>
 800ae1a:	1962      	adds	r2, r4, r5
 800ae1c:	f043 0301 	orr.w	r3, r3, #1
 800ae20:	f045 0501 	orr.w	r5, r5, #1
 800ae24:	6065      	str	r5, [r4, #4]
 800ae26:	4630      	mov	r0, r6
 800ae28:	60ba      	str	r2, [r7, #8]
 800ae2a:	6053      	str	r3, [r2, #4]
 800ae2c:	f7f7 fb20 	bl	8002470 <__malloc_unlock>
 800ae30:	3408      	adds	r4, #8
 800ae32:	4620      	mov	r0, r4
 800ae34:	b003      	add	sp, #12
 800ae36:	e8bd 8ff0 	ldmia.w	sp!, {r4, r5, r6, r7, r8, r9, sl, fp, pc}
 800ae3a:	4423      	add	r3, r4
 800ae3c:	68e1      	ldr	r1, [r4, #12]
 800ae3e:	685a      	ldr	r2, [r3, #4]
 800ae40:	68a5      	ldr	r5, [r4, #8]
 800ae42:	f042 0201 	orr.w	r2, r2, #1
 800ae46:	60e9      	str	r1, [r5, #12]
 800ae48:	4630      	mov	r0, r6
 800ae4a:	608d      	str	r5, [r1, #8]
 800ae4c:	605a      	str	r2, [r3, #4]
 800ae4e:	f7f7 fb0f 	bl	8002470 <__malloc_unlock>
 800ae52:	3408      	adds	r4, #8
 800ae54:	4620      	mov	r0, r4
 800ae56:	b003      	add	sp, #12
 800ae58:	e8bd 8ff0 	ldmia.w	sp!, {r4, r5, r6, r7, r8, r9, sl, fp, pc}
 800ae5c:	68dc      	ldr	r4, [r3, #12]
 800ae5e:	42a3      	cmp	r3, r4
 800ae60:	bf08      	it	eq
 800ae62:	3002      	addeq	r0, #2
 800ae64:	f43f aed6 	beq.w	800ac14 <_malloc_r+0xb4>
 800ae68:	e692      	b.n	800ab90 <_malloc_r+0x30>
 800ae6a:	2b14      	cmp	r3, #20
 800ae6c:	d971      	bls.n	800af52 <_malloc_r+0x3f2>
 800ae6e:	2b54      	cmp	r3, #84	; 0x54
 800ae70:	f200 80ad 	bhi.w	800afce <_malloc_r+0x46e>
 800ae74:	0b2b      	lsrs	r3, r5, #12
 800ae76:	f103 006f 	add.w	r0, r3, #111	; 0x6f
 800ae7a:	f103 0c6e 	add.w	ip, r3, #110	; 0x6e
 800ae7e:	00c3      	lsls	r3, r0, #3
 800ae80:	e6b3      	b.n	800abea <_malloc_r+0x8a>
 800ae82:	4423      	add	r3, r4
 800ae84:	4630      	mov	r0, r6
 800ae86:	685a      	ldr	r2, [r3, #4]
 800ae88:	f042 0201 	orr.w	r2, r2, #1
 800ae8c:	605a      	str	r2, [r3, #4]
 800ae8e:	3408      	adds	r4, #8
 800ae90:	f7f7 faee 	bl	8002470 <__malloc_unlock>
 800ae94:	e68c      	b.n	800abb0 <_malloc_r+0x50>
 800ae96:	bf00      	nop
 800ae98:	20000dc4 	.word	0x20000dc4
 800ae9c:	2000240c 	.word	0x2000240c
 800aea0:	200023dc 	.word	0x200023dc
 800aea4:	20002404 	.word	0x20002404
 800aea8:	20002408 	.word	0x20002408
 800aeac:	20000dcc 	.word	0x20000dcc
 800aeb0:	200011cc 	.word	0x200011cc
 800aeb4:	1961      	adds	r1, r4, r5
 800aeb6:	f045 0e01 	orr.w	lr, r5, #1
 800aeba:	f042 0501 	orr.w	r5, r2, #1
 800aebe:	f8c4 e004 	str.w	lr, [r4, #4]
 800aec2:	4630      	mov	r0, r6
 800aec4:	e9c7 1104 	strd	r1, r1, [r7, #16]
 800aec8:	e9c1 cc02 	strd	ip, ip, [r1, #8]
 800aecc:	604d      	str	r5, [r1, #4]
 800aece:	50e2      	str	r2, [r4, r3]
 800aed0:	f7f7 face 	bl	8002470 <__malloc_unlock>
 800aed4:	3408      	adds	r4, #8
 800aed6:	e66b      	b.n	800abb0 <_malloc_r+0x50>
 800aed8:	08e8      	lsrs	r0, r5, #3
 800aeda:	f105 0308 	add.w	r3, r5, #8
 800aede:	e64f      	b.n	800ab80 <_malloc_r+0x20>
 800aee0:	f108 0801 	add.w	r8, r8, #1
 800aee4:	f018 0f03 	tst.w	r8, #3
 800aee8:	f10e 0e08 	add.w	lr, lr, #8
 800aeec:	f47f aed0 	bne.w	800ac90 <_malloc_r+0x130>
 800aef0:	e052      	b.n	800af98 <_malloc_r+0x438>
 800aef2:	4419      	add	r1, r3
 800aef4:	461c      	mov	r4, r3
 800aef6:	684a      	ldr	r2, [r1, #4]
 800aef8:	68db      	ldr	r3, [r3, #12]
 800aefa:	f854 5f08 	ldr.w	r5, [r4, #8]!
 800aefe:	f042 0201 	orr.w	r2, r2, #1
 800af02:	604a      	str	r2, [r1, #4]
 800af04:	4630      	mov	r0, r6
 800af06:	60eb      	str	r3, [r5, #12]
 800af08:	609d      	str	r5, [r3, #8]
 800af0a:	f7f7 fab1 	bl	8002470 <__malloc_unlock>
 800af0e:	e64f      	b.n	800abb0 <_malloc_r+0x50>
 800af10:	0a5a      	lsrs	r2, r3, #9
 800af12:	2a04      	cmp	r2, #4
 800af14:	d935      	bls.n	800af82 <_malloc_r+0x422>
 800af16:	2a14      	cmp	r2, #20
 800af18:	d86f      	bhi.n	800affa <_malloc_r+0x49a>
 800af1a:	f102 015c 	add.w	r1, r2, #92	; 0x5c
 800af1e:	00c9      	lsls	r1, r1, #3
 800af20:	325b      	adds	r2, #91	; 0x5b
 800af22:	eb07 0e01 	add.w	lr, r7, r1
 800af26:	5879      	ldr	r1, [r7, r1]
 800af28:	f1ae 0e08 	sub.w	lr, lr, #8
 800af2c:	458e      	cmp	lr, r1
 800af2e:	d058      	beq.n	800afe2 <_malloc_r+0x482>
 800af30:	684a      	ldr	r2, [r1, #4]
 800af32:	f022 0203 	bic.w	r2, r2, #3
 800af36:	429a      	cmp	r2, r3
 800af38:	d902      	bls.n	800af40 <_malloc_r+0x3e0>
 800af3a:	6889      	ldr	r1, [r1, #8]
 800af3c:	458e      	cmp	lr, r1
 800af3e:	d1f7      	bne.n	800af30 <_malloc_r+0x3d0>
 800af40:	f8d1 e00c 	ldr.w	lr, [r1, #12]
 800af44:	687b      	ldr	r3, [r7, #4]
 800af46:	e9c4 1e02 	strd	r1, lr, [r4, #8]
 800af4a:	f8ce 4008 	str.w	r4, [lr, #8]
 800af4e:	60cc      	str	r4, [r1, #12]
 800af50:	e68c      	b.n	800ac6c <_malloc_r+0x10c>
 800af52:	f103 005c 	add.w	r0, r3, #92	; 0x5c
 800af56:	f103 0c5b 	add.w	ip, r3, #91	; 0x5b
 800af5a:	00c3      	lsls	r3, r0, #3
 800af5c:	e645      	b.n	800abea <_malloc_r+0x8a>
 800af5e:	42bc      	cmp	r4, r7
 800af60:	d072      	beq.n	800b048 <_malloc_r+0x4e8>
 800af62:	68bc      	ldr	r4, [r7, #8]
 800af64:	6862      	ldr	r2, [r4, #4]
 800af66:	f022 0203 	bic.w	r2, r2, #3
 800af6a:	4295      	cmp	r5, r2
 800af6c:	eba2 0305 	sub.w	r3, r2, r5
 800af70:	d802      	bhi.n	800af78 <_malloc_r+0x418>
 800af72:	2b0f      	cmp	r3, #15
 800af74:	f73f af51 	bgt.w	800ae1a <_malloc_r+0x2ba>
 800af78:	4630      	mov	r0, r6
 800af7a:	f7f7 fa79 	bl	8002470 <__malloc_unlock>
 800af7e:	2400      	movs	r4, #0
 800af80:	e616      	b.n	800abb0 <_malloc_r+0x50>
 800af82:	099a      	lsrs	r2, r3, #6
 800af84:	f102 0139 	add.w	r1, r2, #57	; 0x39
 800af88:	00c9      	lsls	r1, r1, #3
 800af8a:	3238      	adds	r2, #56	; 0x38
 800af8c:	e7c9      	b.n	800af22 <_malloc_r+0x3c2>
 800af8e:	f8d9 9000 	ldr.w	r9, [r9]
 800af92:	4599      	cmp	r9, r3
 800af94:	f040 8083 	bne.w	800b09e <_malloc_r+0x53e>
 800af98:	f010 0f03 	tst.w	r0, #3
 800af9c:	f1a9 0308 	sub.w	r3, r9, #8
 800afa0:	f100 30ff 	add.w	r0, r0, #4294967295
 800afa4:	d1f3      	bne.n	800af8e <_malloc_r+0x42e>
 800afa6:	687b      	ldr	r3, [r7, #4]
 800afa8:	ea23 0304 	bic.w	r3, r3, r4
 800afac:	607b      	str	r3, [r7, #4]
 800afae:	0064      	lsls	r4, r4, #1
 800afb0:	429c      	cmp	r4, r3
 800afb2:	f63f aeac 	bhi.w	800ad0e <_malloc_r+0x1ae>
 800afb6:	b91c      	cbnz	r4, 800afc0 <_malloc_r+0x460>
 800afb8:	e6a9      	b.n	800ad0e <_malloc_r+0x1ae>
 800afba:	0064      	lsls	r4, r4, #1
 800afbc:	f108 0804 	add.w	r8, r8, #4
 800afc0:	421c      	tst	r4, r3
 800afc2:	d0fa      	beq.n	800afba <_malloc_r+0x45a>
 800afc4:	4640      	mov	r0, r8
 800afc6:	e65f      	b.n	800ac88 <_malloc_r+0x128>
 800afc8:	f108 0810 	add.w	r8, r8, #16
 800afcc:	e6bc      	b.n	800ad48 <_malloc_r+0x1e8>
 800afce:	f5b3 7faa 	cmp.w	r3, #340	; 0x154
 800afd2:	d826      	bhi.n	800b022 <_malloc_r+0x4c2>
 800afd4:	0beb      	lsrs	r3, r5, #15
 800afd6:	f103 0078 	add.w	r0, r3, #120	; 0x78
 800afda:	f103 0c77 	add.w	ip, r3, #119	; 0x77
 800afde:	00c3      	lsls	r3, r0, #3
 800afe0:	e603      	b.n	800abea <_malloc_r+0x8a>
 800afe2:	687b      	ldr	r3, [r7, #4]
 800afe4:	1092      	asrs	r2, r2, #2
 800afe6:	f04f 0801 	mov.w	r8, #1
 800afea:	fa08 f202 	lsl.w	r2, r8, r2
 800afee:	4313      	orrs	r3, r2
 800aff0:	607b      	str	r3, [r7, #4]
 800aff2:	e7a8      	b.n	800af46 <_malloc_r+0x3e6>
 800aff4:	f44f 5380 	mov.w	r3, #4096	; 0x1000
 800aff8:	e6ce      	b.n	800ad98 <_malloc_r+0x238>
 800affa:	2a54      	cmp	r2, #84	; 0x54
 800affc:	d829      	bhi.n	800b052 <_malloc_r+0x4f2>
 800affe:	0b1a      	lsrs	r2, r3, #12
 800b000:	f102 016f 	add.w	r1, r2, #111	; 0x6f
 800b004:	00c9      	lsls	r1, r1, #3
 800b006:	326e      	adds	r2, #110	; 0x6e
 800b008:	e78b      	b.n	800af22 <_malloc_r+0x3c2>
 800b00a:	f3c0 010b 	ubfx	r1, r0, #0, #12
 800b00e:	2900      	cmp	r1, #0
 800b010:	f47f aeae 	bne.w	800ad70 <_malloc_r+0x210>
 800b014:	eb09 0208 	add.w	r2, r9, r8
 800b018:	68b9      	ldr	r1, [r7, #8]
 800b01a:	f042 0201 	orr.w	r2, r2, #1
 800b01e:	604a      	str	r2, [r1, #4]
 800b020:	e6ec      	b.n	800adfc <_malloc_r+0x29c>
 800b022:	f240 5254 	movw	r2, #1364	; 0x554
 800b026:	4293      	cmp	r3, r2
 800b028:	d81c      	bhi.n	800b064 <_malloc_r+0x504>
 800b02a:	0cab      	lsrs	r3, r5, #18
 800b02c:	f103 007d 	add.w	r0, r3, #125	; 0x7d
 800b030:	f103 0c7c 	add.w	ip, r3, #124	; 0x7c
 800b034:	00c3      	lsls	r3, r0, #3
 800b036:	e5d8      	b.n	800abea <_malloc_r+0x8a>
 800b038:	2301      	movs	r3, #1
 800b03a:	f8cb 3004 	str.w	r3, [fp, #4]
 800b03e:	e79b      	b.n	800af78 <_malloc_r+0x418>
 800b040:	2101      	movs	r1, #1
 800b042:	f04f 0800 	mov.w	r8, #0
 800b046:	e6ba      	b.n	800adbe <_malloc_r+0x25e>
 800b048:	4a16      	ldr	r2, [pc, #88]	; (800b0a4 <_malloc_r+0x544>)
 800b04a:	6813      	ldr	r3, [r2, #0]
 800b04c:	4443      	add	r3, r8
 800b04e:	6013      	str	r3, [r2, #0]
 800b050:	e68e      	b.n	800ad70 <_malloc_r+0x210>
 800b052:	f5b2 7faa 	cmp.w	r2, #340	; 0x154
 800b056:	d814      	bhi.n	800b082 <_malloc_r+0x522>
 800b058:	0bda      	lsrs	r2, r3, #15
 800b05a:	f102 0178 	add.w	r1, r2, #120	; 0x78
 800b05e:	00c9      	lsls	r1, r1, #3
 800b060:	3277      	adds	r2, #119	; 0x77
 800b062:	e75e      	b.n	800af22 <_malloc_r+0x3c2>
 800b064:	f44f 737e 	mov.w	r3, #1016	; 0x3f8
 800b068:	207f      	movs	r0, #127	; 0x7f
 800b06a:	f04f 0c7e 	mov.w	ip, #126	; 0x7e
 800b06e:	e5bc      	b.n	800abea <_malloc_r+0x8a>
 800b070:	f104 0108 	add.w	r1, r4, #8
 800b074:	4630      	mov	r0, r6
 800b076:	9201      	str	r2, [sp, #4]
 800b078:	f002 fb02 	bl	800d680 <_free_r>
 800b07c:	9a01      	ldr	r2, [sp, #4]
 800b07e:	6813      	ldr	r3, [r2, #0]
 800b080:	e6bc      	b.n	800adfc <_malloc_r+0x29c>
 800b082:	f240 5154 	movw	r1, #1364	; 0x554
 800b086:	428a      	cmp	r2, r1
 800b088:	d805      	bhi.n	800b096 <_malloc_r+0x536>
 800b08a:	0c9a      	lsrs	r2, r3, #18
 800b08c:	f102 017d 	add.w	r1, r2, #125	; 0x7d
 800b090:	00c9      	lsls	r1, r1, #3
 800b092:	327c      	adds	r2, #124	; 0x7c
 800b094:	e745      	b.n	800af22 <_malloc_r+0x3c2>
 800b096:	f44f 717e 	mov.w	r1, #1016	; 0x3f8
 800b09a:	227e      	movs	r2, #126	; 0x7e
 800b09c:	e741      	b.n	800af22 <_malloc_r+0x3c2>
 800b09e:	687b      	ldr	r3, [r7, #4]
 800b0a0:	e785      	b.n	800afae <_malloc_r+0x44e>
 800b0a2:	bf00      	nop
 800b0a4:	200023dc 	.word	0x200023dc
	...

0800b0b0 <__ascii_mbtowc>:
 800b0b0:	b082      	sub	sp, #8
 800b0b2:	b149      	cbz	r1, 800b0c8 <__ascii_mbtowc+0x18>
 800b0b4:	b15a      	cbz	r2, 800b0ce <__ascii_mbtowc+0x1e>
 800b0b6:	b16b      	cbz	r3, 800b0d4 <__ascii_mbtowc+0x24>
 800b0b8:	7813      	ldrb	r3, [r2, #0]
 800b0ba:	600b      	str	r3, [r1, #0]
 800b0bc:	7812      	ldrb	r2, [r2, #0]
 800b0be:	1c10      	adds	r0, r2, #0
 800b0c0:	bf18      	it	ne
 800b0c2:	2001      	movne	r0, #1
 800b0c4:	b002      	add	sp, #8
 800b0c6:	4770      	bx	lr
 800b0c8:	a901      	add	r1, sp, #4
 800b0ca:	2a00      	cmp	r2, #0
 800b0cc:	d1f3      	bne.n	800b0b6 <__ascii_mbtowc+0x6>
 800b0ce:	4610      	mov	r0, r2
 800b0d0:	b002      	add	sp, #8
 800b0d2:	4770      	bx	lr
 800b0d4:	f06f 0001 	mvn.w	r0, #1
 800b0d8:	e7f4      	b.n	800b0c4 <__ascii_mbtowc+0x14>
 800b0da:	bf00      	nop
 800b0dc:	0000      	movs	r0, r0
	...

0800b0e0 <memset>:
 800b0e0:	b4f0      	push	{r4, r5, r6, r7}
 800b0e2:	0786      	lsls	r6, r0, #30
 800b0e4:	d043      	beq.n	800b16e <memset+0x8e>
 800b0e6:	1e54      	subs	r4, r2, #1
 800b0e8:	2a00      	cmp	r2, #0
 800b0ea:	d03e      	beq.n	800b16a <memset+0x8a>
 800b0ec:	b2ca      	uxtb	r2, r1
 800b0ee:	4603      	mov	r3, r0
 800b0f0:	e002      	b.n	800b0f8 <memset+0x18>
 800b0f2:	f114 34ff 	adds.w	r4, r4, #4294967295
 800b0f6:	d338      	bcc.n	800b16a <memset+0x8a>
 800b0f8:	f803 2b01 	strb.w	r2, [r3], #1
 800b0fc:	079d      	lsls	r5, r3, #30
 800b0fe:	d1f8      	bne.n	800b0f2 <memset+0x12>
 800b100:	2c03      	cmp	r4, #3
 800b102:	d92b      	bls.n	800b15c <memset+0x7c>
 800b104:	b2cd      	uxtb	r5, r1
 800b106:	ea45 2505 	orr.w	r5, r5, r5, lsl #8
 800b10a:	2c0f      	cmp	r4, #15
 800b10c:	ea45 4505 	orr.w	r5, r5, r5, lsl #16
 800b110:	d916      	bls.n	800b140 <memset+0x60>
 800b112:	f1a4 0710 	sub.w	r7, r4, #16
 800b116:	093f      	lsrs	r7, r7, #4
 800b118:	f103 0620 	add.w	r6, r3, #32
 800b11c:	eb06 1607 	add.w	r6, r6, r7, lsl #4
 800b120:	f103 0210 	add.w	r2, r3, #16
 800b124:	e942 5504 	strd	r5, r5, [r2, #-16]
 800b128:	e942 5502 	strd	r5, r5, [r2, #-8]
 800b12c:	3210      	adds	r2, #16
 800b12e:	42b2      	cmp	r2, r6
 800b130:	d1f8      	bne.n	800b124 <memset+0x44>
 800b132:	f004 040f 	and.w	r4, r4, #15
 800b136:	3701      	adds	r7, #1
 800b138:	2c03      	cmp	r4, #3
 800b13a:	eb03 1307 	add.w	r3, r3, r7, lsl #4
 800b13e:	d90d      	bls.n	800b15c <memset+0x7c>
 800b140:	461e      	mov	r6, r3
 800b142:	4622      	mov	r2, r4
 800b144:	3a04      	subs	r2, #4
 800b146:	2a03      	cmp	r2, #3
 800b148:	f846 5b04 	str.w	r5, [r6], #4
 800b14c:	d8fa      	bhi.n	800b144 <memset+0x64>
 800b14e:	1f22      	subs	r2, r4, #4
 800b150:	f022 0203 	bic.w	r2, r2, #3
 800b154:	3204      	adds	r2, #4
 800b156:	4413      	add	r3, r2
 800b158:	f004 0403 	and.w	r4, r4, #3
 800b15c:	b12c      	cbz	r4, 800b16a <memset+0x8a>
 800b15e:	b2c9      	uxtb	r1, r1
 800b160:	441c      	add	r4, r3
 800b162:	f803 1b01 	strb.w	r1, [r3], #1
 800b166:	429c      	cmp	r4, r3
 800b168:	d1fb      	bne.n	800b162 <memset+0x82>
 800b16a:	bcf0      	pop	{r4, r5, r6, r7}
 800b16c:	4770      	bx	lr
 800b16e:	4614      	mov	r4, r2
 800b170:	4603      	mov	r3, r0
 800b172:	e7c5      	b.n	800b100 <memset+0x20>
	...

0800b180 <snprintf>:
 800b180:	b40c      	push	{r2, r3}
 800b182:	b530      	push	{r4, r5, lr}
 800b184:	4b21      	ldr	r3, [pc, #132]	; (800b20c <snprintf+0x8c>)
 800b186:	2900      	cmp	r1, #0
 800b188:	b09d      	sub	sp, #116	; 0x74
 800b18a:	681c      	ldr	r4, [r3, #0]
 800b18c:	db38      	blt.n	800b200 <snprintf+0x80>
 800b18e:	f44f 7302 	mov.w	r3, #520	; 0x208
 800b192:	9002      	str	r0, [sp, #8]
 800b194:	9006      	str	r0, [sp, #24]
 800b196:	f8ad 3014 	strh.w	r3, [sp, #20]
 800b19a:	a821      	add	r0, sp, #132	; 0x84
 800b19c:	d019      	beq.n	800b1d2 <snprintf+0x52>
 800b19e:	3901      	subs	r1, #1
 800b1a0:	4603      	mov	r3, r0
 800b1a2:	9a20      	ldr	r2, [sp, #128]	; 0x80
 800b1a4:	9104      	str	r1, [sp, #16]
 800b1a6:	9107      	str	r1, [sp, #28]
 800b1a8:	9001      	str	r0, [sp, #4]
 800b1aa:	f64f 75ff 	movw	r5, #65535	; 0xffff
 800b1ae:	a902      	add	r1, sp, #8
 800b1b0:	4620      	mov	r0, r4
 800b1b2:	f8ad 5016 	strh.w	r5, [sp, #22]
 800b1b6:	f000 f82b 	bl	800b210 <_svfprintf_r>
 800b1ba:	1c42      	adds	r2, r0, #1
 800b1bc:	da01      	bge.n	800b1c2 <snprintf+0x42>
 800b1be:	238b      	movs	r3, #139	; 0x8b
 800b1c0:	6023      	str	r3, [r4, #0]
 800b1c2:	9b02      	ldr	r3, [sp, #8]
 800b1c4:	2200      	movs	r2, #0
 800b1c6:	701a      	strb	r2, [r3, #0]
 800b1c8:	b01d      	add	sp, #116	; 0x74
 800b1ca:	e8bd 4030 	ldmia.w	sp!, {r4, r5, lr}
 800b1ce:	b002      	add	sp, #8
 800b1d0:	4770      	bx	lr
 800b1d2:	4603      	mov	r3, r0
 800b1d4:	9104      	str	r1, [sp, #16]
 800b1d6:	9107      	str	r1, [sp, #28]
 800b1d8:	9001      	str	r0, [sp, #4]
 800b1da:	f64f 75ff 	movw	r5, #65535	; 0xffff
 800b1de:	9a20      	ldr	r2, [sp, #128]	; 0x80
 800b1e0:	f8ad 5016 	strh.w	r5, [sp, #22]
 800b1e4:	a902      	add	r1, sp, #8
 800b1e6:	4620      	mov	r0, r4
 800b1e8:	f000 f812 	bl	800b210 <_svfprintf_r>
 800b1ec:	1c43      	adds	r3, r0, #1
 800b1ee:	db04      	blt.n	800b1fa <snprintf+0x7a>
 800b1f0:	b01d      	add	sp, #116	; 0x74
 800b1f2:	e8bd 4030 	ldmia.w	sp!, {r4, r5, lr}
 800b1f6:	b002      	add	sp, #8
 800b1f8:	4770      	bx	lr
 800b1fa:	238b      	movs	r3, #139	; 0x8b
 800b1fc:	6023      	str	r3, [r4, #0]
 800b1fe:	e7f7      	b.n	800b1f0 <snprintf+0x70>
 800b200:	238b      	movs	r3, #139	; 0x8b
 800b202:	6023      	str	r3, [r4, #0]
 800b204:	f04f 30ff 	mov.w	r0, #4294967295
 800b208:	e7f2      	b.n	800b1f0 <snprintf+0x70>
 800b20a:	bf00      	nop
 800b20c:	2000082c 	.word	0x2000082c

0800b210 <_svfprintf_r>:
 800b210:	e92d 4ff0 	stmdb	sp!, {r4, r5, r6, r7, r8, r9, sl, fp, lr}
 800b214:	b0c1      	sub	sp, #260	; 0x104
 800b216:	460c      	mov	r4, r1
 800b218:	9108      	str	r1, [sp, #32]
 800b21a:	4691      	mov	r9, r2
 800b21c:	930b      	str	r3, [sp, #44]	; 0x2c
 800b21e:	9009      	str	r0, [sp, #36]	; 0x24
 800b220:	f002 fb26 	bl	800d870 <_localeconv_r>
 800b224:	6803      	ldr	r3, [r0, #0]
 800b226:	9314      	str	r3, [sp, #80]	; 0x50
 800b228:	4618      	mov	r0, r3
 800b22a:	f7f5 fe91 	bl	8000f50 <strlen>
 800b22e:	89a3      	ldrh	r3, [r4, #12]
 800b230:	9013      	str	r0, [sp, #76]	; 0x4c
 800b232:	061d      	lsls	r5, r3, #24
 800b234:	d503      	bpl.n	800b23e <_svfprintf_r+0x2e>
 800b236:	6923      	ldr	r3, [r4, #16]
 800b238:	2b00      	cmp	r3, #0
 800b23a:	f000 8718 	beq.w	800c06e <_svfprintf_r+0xe5e>
 800b23e:	ed9f 7b94 	vldr	d7, [pc, #592]	; 800b490 <_svfprintf_r+0x280>
 800b242:	2300      	movs	r3, #0
 800b244:	ed8d 7b10 	vstr	d7, [sp, #64]	; 0x40
 800b248:	e9cd 3324 	strd	r3, r3, [sp, #144]	; 0x90
 800b24c:	f10d 08c0 	add.w	r8, sp, #192	; 0xc0
 800b250:	930f      	str	r3, [sp, #60]	; 0x3c
 800b252:	9312      	str	r3, [sp, #72]	; 0x48
 800b254:	9315      	str	r3, [sp, #84]	; 0x54
 800b256:	9306      	str	r3, [sp, #24]
 800b258:	f8cd 808c 	str.w	r8, [sp, #140]	; 0x8c
 800b25c:	46c2      	mov	sl, r8
 800b25e:	46cb      	mov	fp, r9
 800b260:	f89b 3000 	ldrb.w	r3, [fp]
 800b264:	2b00      	cmp	r3, #0
 800b266:	f000 8099 	beq.w	800b39c <_svfprintf_r+0x18c>
 800b26a:	2b25      	cmp	r3, #37	; 0x25
 800b26c:	465c      	mov	r4, fp
 800b26e:	d102      	bne.n	800b276 <_svfprintf_r+0x66>
 800b270:	e01c      	b.n	800b2ac <_svfprintf_r+0x9c>
 800b272:	2b25      	cmp	r3, #37	; 0x25
 800b274:	d003      	beq.n	800b27e <_svfprintf_r+0x6e>
 800b276:	f814 3f01 	ldrb.w	r3, [r4, #1]!
 800b27a:	2b00      	cmp	r3, #0
 800b27c:	d1f9      	bne.n	800b272 <_svfprintf_r+0x62>
 800b27e:	eba4 050b 	sub.w	r5, r4, fp
 800b282:	b185      	cbz	r5, 800b2a6 <_svfprintf_r+0x96>
 800b284:	e9dd 3224 	ldrd	r3, r2, [sp, #144]	; 0x90
 800b288:	3301      	adds	r3, #1
 800b28a:	442a      	add	r2, r5
 800b28c:	2b07      	cmp	r3, #7
 800b28e:	f8ca b000 	str.w	fp, [sl]
 800b292:	f8ca 5004 	str.w	r5, [sl, #4]
 800b296:	e9cd 3224 	strd	r3, r2, [sp, #144]	; 0x90
 800b29a:	dc77      	bgt.n	800b38c <_svfprintf_r+0x17c>
 800b29c:	f10a 0a08 	add.w	sl, sl, #8
 800b2a0:	9b06      	ldr	r3, [sp, #24]
 800b2a2:	442b      	add	r3, r5
 800b2a4:	9306      	str	r3, [sp, #24]
 800b2a6:	7823      	ldrb	r3, [r4, #0]
 800b2a8:	2b00      	cmp	r3, #0
 800b2aa:	d077      	beq.n	800b39c <_svfprintf_r+0x18c>
 800b2ac:	2300      	movs	r3, #0
 800b2ae:	461a      	mov	r2, r3
 800b2b0:	f88d 306f 	strb.w	r3, [sp, #111]	; 0x6f
 800b2b4:	4619      	mov	r1, r3
 800b2b6:	9307      	str	r3, [sp, #28]
 800b2b8:	461f      	mov	r7, r3
 800b2ba:	f04f 30ff 	mov.w	r0, #4294967295
 800b2be:	7863      	ldrb	r3, [r4, #1]
 800b2c0:	9005      	str	r0, [sp, #20]
 800b2c2:	f104 0b01 	add.w	fp, r4, #1
 800b2c6:	f10b 0b01 	add.w	fp, fp, #1
 800b2ca:	4699      	mov	r9, r3
 800b2cc:	f1a9 0320 	sub.w	r3, r9, #32
 800b2d0:	2b58      	cmp	r3, #88	; 0x58
 800b2d2:	f200 8375 	bhi.w	800b9c0 <_svfprintf_r+0x7b0>
 800b2d6:	e8df f013 	tbh	[pc, r3, lsl #1]
 800b2da:	02c3      	.short	0x02c3
 800b2dc:	03730373 	.word	0x03730373
 800b2e0:	037302be 	.word	0x037302be
 800b2e4:	03730373 	.word	0x03730373
 800b2e8:	03730373 	.word	0x03730373
 800b2ec:	02b20373 	.word	0x02b20373
 800b2f0:	037302ad 	.word	0x037302ad
 800b2f4:	034c0367 	.word	0x034c0367
 800b2f8:	036c0373 	.word	0x036c0373
 800b2fc:	00b600b6 	.word	0x00b600b6
 800b300:	00b600b6 	.word	0x00b600b6
 800b304:	00b600b6 	.word	0x00b600b6
 800b308:	00b600b6 	.word	0x00b600b6
 800b30c:	037300b6 	.word	0x037300b6
 800b310:	03730373 	.word	0x03730373
 800b314:	03730373 	.word	0x03730373
 800b318:	03730373 	.word	0x03730373
 800b31c:	03730373 	.word	0x03730373
 800b320:	03370373 	.word	0x03370373
 800b324:	037302e4 	.word	0x037302e4
 800b328:	037302e4 	.word	0x037302e4
 800b32c:	03730373 	.word	0x03730373
 800b330:	02df0373 	.word	0x02df0373
 800b334:	03730373 	.word	0x03730373
 800b338:	037300a5 	.word	0x037300a5
 800b33c:	03730373 	.word	0x03730373
 800b340:	03730373 	.word	0x03730373
 800b344:	03730075 	.word	0x03730075
 800b348:	028d0373 	.word	0x028d0373
 800b34c:	03730373 	.word	0x03730373
 800b350:	03730373 	.word	0x03730373
 800b354:	03730373 	.word	0x03730373
 800b358:	03730373 	.word	0x03730373
 800b35c:	03730373 	.word	0x03730373
 800b360:	012f017c 	.word	0x012f017c
 800b364:	02e402e4 	.word	0x02e402e4
 800b368:	012a02e4 	.word	0x012a02e4
 800b36c:	0373012f 	.word	0x0373012f
 800b370:	011d0373 	.word	0x011d0373
 800b374:	01090373 	.word	0x01090373
 800b378:	00ca00a7 	.word	0x00ca00a7
 800b37c:	037300c5 	.word	0x037300c5
 800b380:	037300e1 	.word	0x037300e1
 800b384:	03730077 	.word	0x03730077
 800b388:	02cb0373 	.word	0x02cb0373
 800b38c:	aa23      	add	r2, sp, #140	; 0x8c
 800b38e:	e9dd 1008 	ldrd	r1, r0, [sp, #32]
 800b392:	f002 fda5 	bl	800dee0 <__ssprint_r>
 800b396:	b940      	cbnz	r0, 800b3aa <_svfprintf_r+0x19a>
 800b398:	46c2      	mov	sl, r8
 800b39a:	e781      	b.n	800b2a0 <_svfprintf_r+0x90>
 800b39c:	9b25      	ldr	r3, [sp, #148]	; 0x94
 800b39e:	b123      	cbz	r3, 800b3aa <_svfprintf_r+0x19a>
 800b3a0:	9809      	ldr	r0, [sp, #36]	; 0x24
 800b3a2:	9908      	ldr	r1, [sp, #32]
 800b3a4:	aa23      	add	r2, sp, #140	; 0x8c
 800b3a6:	f002 fd9b 	bl	800dee0 <__ssprint_r>
 800b3aa:	9b08      	ldr	r3, [sp, #32]
 800b3ac:	899b      	ldrh	r3, [r3, #12]
 800b3ae:	f013 0f40 	tst.w	r3, #64	; 0x40
 800b3b2:	9b06      	ldr	r3, [sp, #24]
 800b3b4:	bf18      	it	ne
 800b3b6:	f04f 33ff 	movne.w	r3, #4294967295
 800b3ba:	9306      	str	r3, [sp, #24]
 800b3bc:	9806      	ldr	r0, [sp, #24]
 800b3be:	b041      	add	sp, #260	; 0x104
 800b3c0:	e8bd 8ff0 	ldmia.w	sp!, {r4, r5, r6, r7, r8, r9, sl, fp, pc}
 800b3c4:	f047 0710 	orr.w	r7, r7, #16
 800b3c8:	06be      	lsls	r6, r7, #26
 800b3ca:	f140 8527 	bpl.w	800be1c <_svfprintf_r+0xc0c>
 800b3ce:	9d0b      	ldr	r5, [sp, #44]	; 0x2c
 800b3d0:	3507      	adds	r5, #7
 800b3d2:	f025 0307 	bic.w	r3, r5, #7
 800b3d6:	f103 0208 	add.w	r2, r3, #8
 800b3da:	e9d3 4500 	ldrd	r4, r5, [r3]
 800b3de:	920b      	str	r2, [sp, #44]	; 0x2c
 800b3e0:	2301      	movs	r3, #1
 800b3e2:	9a05      	ldr	r2, [sp, #20]
 800b3e4:	2600      	movs	r6, #0
 800b3e6:	3201      	adds	r2, #1
 800b3e8:	f88d 606f 	strb.w	r6, [sp, #111]	; 0x6f
 800b3ec:	f000 8428 	beq.w	800bc40 <_svfprintf_r+0xa30>
 800b3f0:	f027 0280 	bic.w	r2, r7, #128	; 0x80
 800b3f4:	9203      	str	r2, [sp, #12]
 800b3f6:	ea54 0205 	orrs.w	r2, r4, r5
 800b3fa:	f040 80c0 	bne.w	800b57e <_svfprintf_r+0x36e>
 800b3fe:	9a05      	ldr	r2, [sp, #20]
 800b400:	2a00      	cmp	r2, #0
 800b402:	f040 86b0 	bne.w	800c166 <_svfprintf_r+0xf56>
 800b406:	2b00      	cmp	r3, #0
 800b408:	f040 84d6 	bne.w	800bdb8 <_svfprintf_r+0xba8>
 800b40c:	f017 0301 	ands.w	r3, r7, #1
 800b410:	930a      	str	r3, [sp, #40]	; 0x28
 800b412:	f000 8548 	beq.w	800bea6 <_svfprintf_r+0xc96>
 800b416:	ab40      	add	r3, sp, #256	; 0x100
 800b418:	461a      	mov	r2, r3
 800b41a:	2330      	movs	r3, #48	; 0x30
 800b41c:	f802 3d41 	strb.w	r3, [r2, #-65]!
 800b420:	920d      	str	r2, [sp, #52]	; 0x34
 800b422:	e0cd      	b.n	800b5c0 <_svfprintf_r+0x3b0>
 800b424:	f047 0710 	orr.w	r7, r7, #16
 800b428:	f017 0320 	ands.w	r3, r7, #32
 800b42c:	f000 8500 	beq.w	800be30 <_svfprintf_r+0xc20>
 800b430:	9d0b      	ldr	r5, [sp, #44]	; 0x2c
 800b432:	3507      	adds	r5, #7
 800b434:	f025 0307 	bic.w	r3, r5, #7
 800b438:	f103 0208 	add.w	r2, r3, #8
 800b43c:	e9d3 4500 	ldrd	r4, r5, [r3]
 800b440:	920b      	str	r2, [sp, #44]	; 0x2c
 800b442:	2300      	movs	r3, #0
 800b444:	e7cd      	b.n	800b3e2 <_svfprintf_r+0x1d2>
 800b446:	f1a9 0330 	sub.w	r3, r9, #48	; 0x30
 800b44a:	2000      	movs	r0, #0
 800b44c:	f81b 9b01 	ldrb.w	r9, [fp], #1
 800b450:	eb00 0080 	add.w	r0, r0, r0, lsl #2
 800b454:	eb03 0040 	add.w	r0, r3, r0, lsl #1
 800b458:	f1a9 0330 	sub.w	r3, r9, #48	; 0x30
 800b45c:	2b09      	cmp	r3, #9
 800b45e:	d9f5      	bls.n	800b44c <_svfprintf_r+0x23c>
 800b460:	9007      	str	r0, [sp, #28]
 800b462:	e733      	b.n	800b2cc <_svfprintf_r+0xbc>
 800b464:	f047 0720 	orr.w	r7, r7, #32
 800b468:	f89b 3000 	ldrb.w	r3, [fp]
 800b46c:	e72b      	b.n	800b2c6 <_svfprintf_r+0xb6>
 800b46e:	9a0b      	ldr	r2, [sp, #44]	; 0x2c
 800b470:	4b09      	ldr	r3, [pc, #36]	; (800b498 <_svfprintf_r+0x288>)
 800b472:	6814      	ldr	r4, [r2, #0]
 800b474:	9312      	str	r3, [sp, #72]	; 0x48
 800b476:	3204      	adds	r2, #4
 800b478:	f647 0330 	movw	r3, #30768	; 0x7830
 800b47c:	f8ad 3070 	strh.w	r3, [sp, #112]	; 0x70
 800b480:	f047 0702 	orr.w	r7, r7, #2
 800b484:	920b      	str	r2, [sp, #44]	; 0x2c
 800b486:	2500      	movs	r5, #0
 800b488:	2302      	movs	r3, #2
 800b48a:	f04f 0978 	mov.w	r9, #120	; 0x78
 800b48e:	e7a8      	b.n	800b3e2 <_svfprintf_r+0x1d2>
	...
 800b498:	0800f1f4 	.word	0x0800f1f4
 800b49c:	9a0b      	ldr	r2, [sp, #44]	; 0x2c
 800b49e:	6813      	ldr	r3, [r2, #0]
 800b4a0:	930d      	str	r3, [sp, #52]	; 0x34
 800b4a2:	2400      	movs	r4, #0
 800b4a4:	f88d 406f 	strb.w	r4, [sp, #111]	; 0x6f
 800b4a8:	1d15      	adds	r5, r2, #4
 800b4aa:	2b00      	cmp	r3, #0
 800b4ac:	f000 860b 	beq.w	800c0c6 <_svfprintf_r+0xeb6>
 800b4b0:	9a05      	ldr	r2, [sp, #20]
 800b4b2:	1c53      	adds	r3, r2, #1
 800b4b4:	f000 86b3 	beq.w	800c21e <_svfprintf_r+0x100e>
 800b4b8:	4621      	mov	r1, r4
 800b4ba:	980d      	ldr	r0, [sp, #52]	; 0x34
 800b4bc:	f7f5 fdb8 	bl	8001030 <memchr>
 800b4c0:	2800      	cmp	r0, #0
 800b4c2:	f000 8794 	beq.w	800c3ee <_svfprintf_r+0x11de>
 800b4c6:	9b0d      	ldr	r3, [sp, #52]	; 0x34
 800b4c8:	9405      	str	r4, [sp, #20]
 800b4ca:	1ac3      	subs	r3, r0, r3
 800b4cc:	930a      	str	r3, [sp, #40]	; 0x28
 800b4ce:	950b      	str	r5, [sp, #44]	; 0x2c
 800b4d0:	9703      	str	r7, [sp, #12]
 800b4d2:	ea23 73e3 	bic.w	r3, r3, r3, asr #31
 800b4d6:	f89d 606f 	ldrb.w	r6, [sp, #111]	; 0x6f
 800b4da:	9304      	str	r3, [sp, #16]
 800b4dc:	940e      	str	r4, [sp, #56]	; 0x38
 800b4de:	2e00      	cmp	r6, #0
 800b4e0:	f000 8089 	beq.w	800b5f6 <_svfprintf_r+0x3e6>
 800b4e4:	9b04      	ldr	r3, [sp, #16]
 800b4e6:	3301      	adds	r3, #1
 800b4e8:	9304      	str	r3, [sp, #16]
 800b4ea:	e084      	b.n	800b5f6 <_svfprintf_r+0x3e6>
 800b4ec:	2a00      	cmp	r2, #0
 800b4ee:	f041 80a4 	bne.w	800c63a <_svfprintf_r+0x142a>
 800b4f2:	9a0b      	ldr	r2, [sp, #44]	; 0x2c
 800b4f4:	06b9      	lsls	r1, r7, #26
 800b4f6:	f852 3b04 	ldr.w	r3, [r2], #4
 800b4fa:	920b      	str	r2, [sp, #44]	; 0x2c
 800b4fc:	f100 8512 	bmi.w	800bf24 <_svfprintf_r+0xd14>
 800b500:	06fa      	lsls	r2, r7, #27
 800b502:	f100 8606 	bmi.w	800c112 <_svfprintf_r+0xf02>
 800b506:	067f      	lsls	r7, r7, #25
 800b508:	f140 8603 	bpl.w	800c112 <_svfprintf_r+0xf02>
 800b50c:	f8bd 2018 	ldrh.w	r2, [sp, #24]
 800b510:	801a      	strh	r2, [r3, #0]
 800b512:	e6a5      	b.n	800b260 <_svfprintf_r+0x50>
 800b514:	f89b 3000 	ldrb.w	r3, [fp]
 800b518:	2b6c      	cmp	r3, #108	; 0x6c
 800b51a:	bf03      	ittte	eq
 800b51c:	f89b 3001 	ldrbeq.w	r3, [fp, #1]
 800b520:	f047 0720 	orreq.w	r7, r7, #32
 800b524:	f10b 0b01 	addeq.w	fp, fp, #1
 800b528:	f047 0710 	orrne.w	r7, r7, #16
 800b52c:	e6cb      	b.n	800b2c6 <_svfprintf_r+0xb6>
 800b52e:	f047 0740 	orr.w	r7, r7, #64	; 0x40
 800b532:	f89b 3000 	ldrb.w	r3, [fp]
 800b536:	e6c6      	b.n	800b2c6 <_svfprintf_r+0xb6>
 800b538:	2a00      	cmp	r2, #0
 800b53a:	f041 8060 	bne.w	800c5fe <_svfprintf_r+0x13ee>
 800b53e:	06bc      	lsls	r4, r7, #26
 800b540:	f140 820a 	bpl.w	800b958 <_svfprintf_r+0x748>
 800b544:	9d0b      	ldr	r5, [sp, #44]	; 0x2c
 800b546:	3507      	adds	r5, #7
 800b548:	f025 0307 	bic.w	r3, r5, #7
 800b54c:	e9d3 4500 	ldrd	r4, r5, [r3]
 800b550:	f103 0208 	add.w	r2, r3, #8
 800b554:	920b      	str	r2, [sp, #44]	; 0x2c
 800b556:	2c00      	cmp	r4, #0
 800b558:	f175 0300 	sbcs.w	r3, r5, #0
 800b55c:	f2c0 84af 	blt.w	800bebe <_svfprintf_r+0xcae>
 800b560:	9b05      	ldr	r3, [sp, #20]
 800b562:	f89d 606f 	ldrb.w	r6, [sp, #111]	; 0x6f
 800b566:	3301      	adds	r3, #1
 800b568:	f000 84b4 	beq.w	800bed4 <_svfprintf_r+0xcc4>
 800b56c:	f027 0280 	bic.w	r2, r7, #128	; 0x80
 800b570:	9203      	str	r2, [sp, #12]
 800b572:	ea54 0205 	orrs.w	r2, r4, r5
 800b576:	f04f 0301 	mov.w	r3, #1
 800b57a:	f43f af40 	beq.w	800b3fe <_svfprintf_r+0x1ee>
 800b57e:	2b01      	cmp	r3, #1
 800b580:	f000 8362 	beq.w	800bc48 <_svfprintf_r+0xa38>
 800b584:	2b02      	cmp	r3, #2
 800b586:	f000 8382 	beq.w	800bc8e <_svfprintf_r+0xa7e>
 800b58a:	4641      	mov	r1, r8
 800b58c:	e000      	b.n	800b590 <_svfprintf_r+0x380>
 800b58e:	4611      	mov	r1, r2
 800b590:	08e2      	lsrs	r2, r4, #3
 800b592:	ea42 7245 	orr.w	r2, r2, r5, lsl #29
 800b596:	08e8      	lsrs	r0, r5, #3
 800b598:	f004 0307 	and.w	r3, r4, #7
 800b59c:	4605      	mov	r5, r0
 800b59e:	4614      	mov	r4, r2
 800b5a0:	3330      	adds	r3, #48	; 0x30
 800b5a2:	ea54 0005 	orrs.w	r0, r4, r5
 800b5a6:	f801 3c01 	strb.w	r3, [r1, #-1]
 800b5aa:	f101 32ff 	add.w	r2, r1, #4294967295
 800b5ae:	d1ee      	bne.n	800b58e <_svfprintf_r+0x37e>
 800b5b0:	9803      	ldr	r0, [sp, #12]
 800b5b2:	920d      	str	r2, [sp, #52]	; 0x34
 800b5b4:	07c0      	lsls	r0, r0, #31
 800b5b6:	f100 8459 	bmi.w	800be6c <_svfprintf_r+0xc5c>
 800b5ba:	eba8 0302 	sub.w	r3, r8, r2
 800b5be:	930a      	str	r3, [sp, #40]	; 0x28
 800b5c0:	9b05      	ldr	r3, [sp, #20]
 800b5c2:	9a0a      	ldr	r2, [sp, #40]	; 0x28
 800b5c4:	4293      	cmp	r3, r2
 800b5c6:	bfb8      	it	lt
 800b5c8:	4613      	movlt	r3, r2
 800b5ca:	9304      	str	r3, [sp, #16]
 800b5cc:	2300      	movs	r3, #0
 800b5ce:	930e      	str	r3, [sp, #56]	; 0x38
 800b5d0:	e785      	b.n	800b4de <_svfprintf_r+0x2ce>
 800b5d2:	990b      	ldr	r1, [sp, #44]	; 0x2c
 800b5d4:	2300      	movs	r3, #0
 800b5d6:	680a      	ldr	r2, [r1, #0]
 800b5d8:	f88d 306f 	strb.w	r3, [sp, #111]	; 0x6f
 800b5dc:	461e      	mov	r6, r3
 800b5de:	f88d 2098 	strb.w	r2, [sp, #152]	; 0x98
 800b5e2:	2301      	movs	r3, #1
 800b5e4:	1d0a      	adds	r2, r1, #4
 800b5e6:	e9cd 7303 	strd	r7, r3, [sp, #12]
 800b5ea:	e9cd 320a 	strd	r3, r2, [sp, #40]	; 0x28
 800b5ee:	ab26      	add	r3, sp, #152	; 0x98
 800b5f0:	9605      	str	r6, [sp, #20]
 800b5f2:	960e      	str	r6, [sp, #56]	; 0x38
 800b5f4:	930d      	str	r3, [sp, #52]	; 0x34
 800b5f6:	9b03      	ldr	r3, [sp, #12]
 800b5f8:	f013 0702 	ands.w	r7, r3, #2
 800b5fc:	d002      	beq.n	800b604 <_svfprintf_r+0x3f4>
 800b5fe:	9b04      	ldr	r3, [sp, #16]
 800b600:	3302      	adds	r3, #2
 800b602:	9304      	str	r3, [sp, #16]
 800b604:	9b03      	ldr	r3, [sp, #12]
 800b606:	9c25      	ldr	r4, [sp, #148]	; 0x94
 800b608:	f013 0384 	ands.w	r3, r3, #132	; 0x84
 800b60c:	930c      	str	r3, [sp, #48]	; 0x30
 800b60e:	d13f      	bne.n	800b690 <_svfprintf_r+0x480>
 800b610:	9b07      	ldr	r3, [sp, #28]
 800b612:	9a04      	ldr	r2, [sp, #16]
 800b614:	1a9d      	subs	r5, r3, r2
 800b616:	2d00      	cmp	r5, #0
 800b618:	dd3a      	ble.n	800b690 <_svfprintf_r+0x480>
 800b61a:	2d10      	cmp	r5, #16
 800b61c:	9b24      	ldr	r3, [sp, #144]	; 0x90
 800b61e:	dd29      	ble.n	800b674 <_svfprintf_r+0x464>
 800b620:	4652      	mov	r2, sl
 800b622:	4621      	mov	r1, r4
 800b624:	46aa      	mov	sl, r5
 800b626:	2610      	movs	r6, #16
 800b628:	e9dd 5408 	ldrd	r5, r4, [sp, #32]
 800b62c:	e006      	b.n	800b63c <_svfprintf_r+0x42c>
 800b62e:	f1aa 0a10 	sub.w	sl, sl, #16
 800b632:	f1ba 0f10 	cmp.w	sl, #16
 800b636:	f102 0208 	add.w	r2, r2, #8
 800b63a:	dd18      	ble.n	800b66e <_svfprintf_r+0x45e>
 800b63c:	3301      	adds	r3, #1
 800b63e:	48bb      	ldr	r0, [pc, #748]	; (800b92c <_svfprintf_r+0x71c>)
 800b640:	3110      	adds	r1, #16
 800b642:	2b07      	cmp	r3, #7
 800b644:	e9cd 3124 	strd	r3, r1, [sp, #144]	; 0x90
 800b648:	e9c2 0600 	strd	r0, r6, [r2]
 800b64c:	ddef      	ble.n	800b62e <_svfprintf_r+0x41e>
 800b64e:	aa23      	add	r2, sp, #140	; 0x8c
 800b650:	4629      	mov	r1, r5
 800b652:	4620      	mov	r0, r4
 800b654:	f002 fc44 	bl	800dee0 <__ssprint_r>
 800b658:	2800      	cmp	r0, #0
 800b65a:	f47f aea6 	bne.w	800b3aa <_svfprintf_r+0x19a>
 800b65e:	f1aa 0a10 	sub.w	sl, sl, #16
 800b662:	f1ba 0f10 	cmp.w	sl, #16
 800b666:	e9dd 3124 	ldrd	r3, r1, [sp, #144]	; 0x90
 800b66a:	4642      	mov	r2, r8
 800b66c:	dce6      	bgt.n	800b63c <_svfprintf_r+0x42c>
 800b66e:	4655      	mov	r5, sl
 800b670:	460c      	mov	r4, r1
 800b672:	4692      	mov	sl, r2
 800b674:	3301      	adds	r3, #1
 800b676:	4aad      	ldr	r2, [pc, #692]	; (800b92c <_svfprintf_r+0x71c>)
 800b678:	442c      	add	r4, r5
 800b67a:	2b07      	cmp	r3, #7
 800b67c:	e9cd 3424 	strd	r3, r4, [sp, #144]	; 0x90
 800b680:	e9ca 2500 	strd	r2, r5, [sl]
 800b684:	f300 8549 	bgt.w	800c11a <_svfprintf_r+0xf0a>
 800b688:	f89d 606f 	ldrb.w	r6, [sp, #111]	; 0x6f
 800b68c:	f10a 0a08 	add.w	sl, sl, #8
 800b690:	b176      	cbz	r6, 800b6b0 <_svfprintf_r+0x4a0>
 800b692:	9b24      	ldr	r3, [sp, #144]	; 0x90
 800b694:	3301      	adds	r3, #1
 800b696:	3401      	adds	r4, #1
 800b698:	f10d 016f 	add.w	r1, sp, #111	; 0x6f
 800b69c:	2201      	movs	r2, #1
 800b69e:	2b07      	cmp	r3, #7
 800b6a0:	e9cd 3424 	strd	r3, r4, [sp, #144]	; 0x90
 800b6a4:	e9ca 1200 	strd	r1, r2, [sl]
 800b6a8:	f300 82db 	bgt.w	800bc62 <_svfprintf_r+0xa52>
 800b6ac:	f10a 0a08 	add.w	sl, sl, #8
 800b6b0:	b16f      	cbz	r7, 800b6ce <_svfprintf_r+0x4be>
 800b6b2:	9b24      	ldr	r3, [sp, #144]	; 0x90
 800b6b4:	3301      	adds	r3, #1
 800b6b6:	3402      	adds	r4, #2
 800b6b8:	a91c      	add	r1, sp, #112	; 0x70
 800b6ba:	2202      	movs	r2, #2
 800b6bc:	2b07      	cmp	r3, #7
 800b6be:	e9cd 3424 	strd	r3, r4, [sp, #144]	; 0x90
 800b6c2:	e9ca 1200 	strd	r1, r2, [sl]
 800b6c6:	f300 82d7 	bgt.w	800bc78 <_svfprintf_r+0xa68>
 800b6ca:	f10a 0a08 	add.w	sl, sl, #8
 800b6ce:	9b0c      	ldr	r3, [sp, #48]	; 0x30
 800b6d0:	2b80      	cmp	r3, #128	; 0x80
 800b6d2:	f000 81e7 	beq.w	800baa4 <_svfprintf_r+0x894>
 800b6d6:	9b05      	ldr	r3, [sp, #20]
 800b6d8:	9a0a      	ldr	r2, [sp, #40]	; 0x28
 800b6da:	1a9d      	subs	r5, r3, r2
 800b6dc:	2d00      	cmp	r5, #0
 800b6de:	dd31      	ble.n	800b744 <_svfprintf_r+0x534>
 800b6e0:	2d10      	cmp	r5, #16
 800b6e2:	9a24      	ldr	r2, [sp, #144]	; 0x90
 800b6e4:	4f92      	ldr	r7, [pc, #584]	; (800b930 <_svfprintf_r+0x720>)
 800b6e6:	dd22      	ble.n	800b72e <_svfprintf_r+0x51e>
 800b6e8:	4653      	mov	r3, sl
 800b6ea:	4621      	mov	r1, r4
 800b6ec:	2610      	movs	r6, #16
 800b6ee:	e9dd a408 	ldrd	sl, r4, [sp, #32]
 800b6f2:	e004      	b.n	800b6fe <_svfprintf_r+0x4ee>
 800b6f4:	3d10      	subs	r5, #16
 800b6f6:	2d10      	cmp	r5, #16
 800b6f8:	f103 0308 	add.w	r3, r3, #8
 800b6fc:	dd15      	ble.n	800b72a <_svfprintf_r+0x51a>
 800b6fe:	3201      	adds	r2, #1
 800b700:	3110      	adds	r1, #16
 800b702:	2a07      	cmp	r2, #7
 800b704:	e9cd 2124 	strd	r2, r1, [sp, #144]	; 0x90
 800b708:	e9c3 7600 	strd	r7, r6, [r3]
 800b70c:	ddf2      	ble.n	800b6f4 <_svfprintf_r+0x4e4>
 800b70e:	aa23      	add	r2, sp, #140	; 0x8c
 800b710:	4651      	mov	r1, sl
 800b712:	4620      	mov	r0, r4
 800b714:	f002 fbe4 	bl	800dee0 <__ssprint_r>
 800b718:	2800      	cmp	r0, #0
 800b71a:	f47f ae46 	bne.w	800b3aa <_svfprintf_r+0x19a>
 800b71e:	3d10      	subs	r5, #16
 800b720:	2d10      	cmp	r5, #16
 800b722:	e9dd 2124 	ldrd	r2, r1, [sp, #144]	; 0x90
 800b726:	4643      	mov	r3, r8
 800b728:	dce9      	bgt.n	800b6fe <_svfprintf_r+0x4ee>
 800b72a:	469a      	mov	sl, r3
 800b72c:	460c      	mov	r4, r1
 800b72e:	3201      	adds	r2, #1
 800b730:	442c      	add	r4, r5
 800b732:	2a07      	cmp	r2, #7
 800b734:	e9cd 2424 	strd	r2, r4, [sp, #144]	; 0x90
 800b738:	e9ca 7500 	strd	r7, r5, [sl]
 800b73c:	f300 82bc 	bgt.w	800bcb8 <_svfprintf_r+0xaa8>
 800b740:	f10a 0a08 	add.w	sl, sl, #8
 800b744:	9b03      	ldr	r3, [sp, #12]
 800b746:	05df      	lsls	r7, r3, #23
 800b748:	f100 8150 	bmi.w	800b9ec <_svfprintf_r+0x7dc>
 800b74c:	9b24      	ldr	r3, [sp, #144]	; 0x90
 800b74e:	9a0d      	ldr	r2, [sp, #52]	; 0x34
 800b750:	f8ca 2000 	str.w	r2, [sl]
 800b754:	9a0a      	ldr	r2, [sp, #40]	; 0x28
 800b756:	f8ca 2004 	str.w	r2, [sl, #4]
 800b75a:	3301      	adds	r3, #1
 800b75c:	4414      	add	r4, r2
 800b75e:	2b07      	cmp	r3, #7
 800b760:	9425      	str	r4, [sp, #148]	; 0x94
 800b762:	9324      	str	r3, [sp, #144]	; 0x90
 800b764:	f300 820e 	bgt.w	800bb84 <_svfprintf_r+0x974>
 800b768:	f10a 0a08 	add.w	sl, sl, #8
 800b76c:	9b03      	ldr	r3, [sp, #12]
 800b76e:	075a      	lsls	r2, r3, #29
 800b770:	d531      	bpl.n	800b7d6 <_svfprintf_r+0x5c6>
 800b772:	9b07      	ldr	r3, [sp, #28]
 800b774:	9a04      	ldr	r2, [sp, #16]
 800b776:	1a9d      	subs	r5, r3, r2
 800b778:	2d00      	cmp	r5, #0
 800b77a:	dd2c      	ble.n	800b7d6 <_svfprintf_r+0x5c6>
 800b77c:	2d10      	cmp	r5, #16
 800b77e:	9b24      	ldr	r3, [sp, #144]	; 0x90
 800b780:	dd1f      	ble.n	800b7c2 <_svfprintf_r+0x5b2>
 800b782:	2610      	movs	r6, #16
 800b784:	e9dd 9708 	ldrd	r9, r7, [sp, #32]
 800b788:	e004      	b.n	800b794 <_svfprintf_r+0x584>
 800b78a:	3d10      	subs	r5, #16
 800b78c:	2d10      	cmp	r5, #16
 800b78e:	f10a 0a08 	add.w	sl, sl, #8
 800b792:	dd16      	ble.n	800b7c2 <_svfprintf_r+0x5b2>
 800b794:	3301      	adds	r3, #1
 800b796:	4a65      	ldr	r2, [pc, #404]	; (800b92c <_svfprintf_r+0x71c>)
 800b798:	3410      	adds	r4, #16
 800b79a:	2b07      	cmp	r3, #7
 800b79c:	e9cd 3424 	strd	r3, r4, [sp, #144]	; 0x90
 800b7a0:	e9ca 2600 	strd	r2, r6, [sl]
 800b7a4:	ddf1      	ble.n	800b78a <_svfprintf_r+0x57a>
 800b7a6:	aa23      	add	r2, sp, #140	; 0x8c
 800b7a8:	4649      	mov	r1, r9
 800b7aa:	4638      	mov	r0, r7
 800b7ac:	f002 fb98 	bl	800dee0 <__ssprint_r>
 800b7b0:	2800      	cmp	r0, #0
 800b7b2:	f47f adfa 	bne.w	800b3aa <_svfprintf_r+0x19a>
 800b7b6:	3d10      	subs	r5, #16
 800b7b8:	2d10      	cmp	r5, #16
 800b7ba:	e9dd 3424 	ldrd	r3, r4, [sp, #144]	; 0x90
 800b7be:	46c2      	mov	sl, r8
 800b7c0:	dce8      	bgt.n	800b794 <_svfprintf_r+0x584>
 800b7c2:	3301      	adds	r3, #1
 800b7c4:	4a59      	ldr	r2, [pc, #356]	; (800b92c <_svfprintf_r+0x71c>)
 800b7c6:	442c      	add	r4, r5
 800b7c8:	2b07      	cmp	r3, #7
 800b7ca:	e9cd 3424 	strd	r3, r4, [sp, #144]	; 0x90
 800b7ce:	e9ca 2500 	strd	r2, r5, [sl]
 800b7d2:	f300 835e 	bgt.w	800be92 <_svfprintf_r+0xc82>
 800b7d6:	e9dd 3206 	ldrd	r3, r2, [sp, #24]
 800b7da:	9904      	ldr	r1, [sp, #16]
 800b7dc:	428a      	cmp	r2, r1
 800b7de:	bfac      	ite	ge
 800b7e0:	189b      	addge	r3, r3, r2
 800b7e2:	185b      	addlt	r3, r3, r1
 800b7e4:	9306      	str	r3, [sp, #24]
 800b7e6:	2c00      	cmp	r4, #0
 800b7e8:	f040 8195 	bne.w	800bb16 <_svfprintf_r+0x906>
 800b7ec:	2300      	movs	r3, #0
 800b7ee:	9324      	str	r3, [sp, #144]	; 0x90
 800b7f0:	46c2      	mov	sl, r8
 800b7f2:	e535      	b.n	800b260 <_svfprintf_r+0x50>
 800b7f4:	2a00      	cmp	r2, #0
 800b7f6:	f040 8710 	bne.w	800c61a <_svfprintf_r+0x140a>
 800b7fa:	4b4e      	ldr	r3, [pc, #312]	; (800b934 <_svfprintf_r+0x724>)
 800b7fc:	9312      	str	r3, [sp, #72]	; 0x48
 800b7fe:	06b9      	lsls	r1, r7, #26
 800b800:	d53d      	bpl.n	800b87e <_svfprintf_r+0x66e>
 800b802:	9d0b      	ldr	r5, [sp, #44]	; 0x2c
 800b804:	3507      	adds	r5, #7
 800b806:	f025 0307 	bic.w	r3, r5, #7
 800b80a:	e9d3 4500 	ldrd	r4, r5, [r3]
 800b80e:	f103 0208 	add.w	r2, r3, #8
 800b812:	920b      	str	r2, [sp, #44]	; 0x2c
 800b814:	07fe      	lsls	r6, r7, #31
 800b816:	f140 80d1 	bpl.w	800b9bc <_svfprintf_r+0x7ac>
 800b81a:	ea54 0305 	orrs.w	r3, r4, r5
 800b81e:	f000 80cd 	beq.w	800b9bc <_svfprintf_r+0x7ac>
 800b822:	2330      	movs	r3, #48	; 0x30
 800b824:	f88d 3070 	strb.w	r3, [sp, #112]	; 0x70
 800b828:	f88d 9071 	strb.w	r9, [sp, #113]	; 0x71
 800b82c:	f047 0702 	orr.w	r7, r7, #2
 800b830:	2302      	movs	r3, #2
 800b832:	e5d6      	b.n	800b3e2 <_svfprintf_r+0x1d2>
 800b834:	f89b 3000 	ldrb.w	r3, [fp]
 800b838:	2201      	movs	r2, #1
 800b83a:	212b      	movs	r1, #43	; 0x2b
 800b83c:	e543      	b.n	800b2c6 <_svfprintf_r+0xb6>
 800b83e:	980b      	ldr	r0, [sp, #44]	; 0x2c
 800b840:	f89b 3000 	ldrb.w	r3, [fp]
 800b844:	6804      	ldr	r4, [r0, #0]
 800b846:	9407      	str	r4, [sp, #28]
 800b848:	2c00      	cmp	r4, #0
 800b84a:	f100 0004 	add.w	r0, r0, #4
 800b84e:	f2c0 840a 	blt.w	800c066 <_svfprintf_r+0xe56>
 800b852:	900b      	str	r0, [sp, #44]	; 0x2c
 800b854:	e537      	b.n	800b2c6 <_svfprintf_r+0xb6>
 800b856:	f047 0701 	orr.w	r7, r7, #1
 800b85a:	f89b 3000 	ldrb.w	r3, [fp]
 800b85e:	e532      	b.n	800b2c6 <_svfprintf_r+0xb6>
 800b860:	f89b 3000 	ldrb.w	r3, [fp]
 800b864:	2900      	cmp	r1, #0
 800b866:	f47f ad2e 	bne.w	800b2c6 <_svfprintf_r+0xb6>
 800b86a:	2201      	movs	r2, #1
 800b86c:	2120      	movs	r1, #32
 800b86e:	e52a      	b.n	800b2c6 <_svfprintf_r+0xb6>
 800b870:	2a00      	cmp	r2, #0
 800b872:	f040 86e6 	bne.w	800c642 <_svfprintf_r+0x1432>
 800b876:	4b30      	ldr	r3, [pc, #192]	; (800b938 <_svfprintf_r+0x728>)
 800b878:	9312      	str	r3, [sp, #72]	; 0x48
 800b87a:	06b9      	lsls	r1, r7, #26
 800b87c:	d4c1      	bmi.n	800b802 <_svfprintf_r+0x5f2>
 800b87e:	9b0b      	ldr	r3, [sp, #44]	; 0x2c
 800b880:	06fa      	lsls	r2, r7, #27
 800b882:	f853 4b04 	ldr.w	r4, [r3], #4
 800b886:	930b      	str	r3, [sp, #44]	; 0x2c
 800b888:	f100 8311 	bmi.w	800beae <_svfprintf_r+0xc9e>
 800b88c:	067b      	lsls	r3, r7, #25
 800b88e:	f140 830e 	bpl.w	800beae <_svfprintf_r+0xc9e>
 800b892:	b2a4      	uxth	r4, r4
 800b894:	2500      	movs	r5, #0
 800b896:	e7bd      	b.n	800b814 <_svfprintf_r+0x604>
 800b898:	f047 0708 	orr.w	r7, r7, #8
 800b89c:	f89b 3000 	ldrb.w	r3, [fp]
 800b8a0:	e511      	b.n	800b2c6 <_svfprintf_r+0xb6>
 800b8a2:	2a00      	cmp	r2, #0
 800b8a4:	f040 86bd 	bne.w	800c622 <_svfprintf_r+0x1412>
 800b8a8:	9d0b      	ldr	r5, [sp, #44]	; 0x2c
 800b8aa:	3507      	adds	r5, #7
 800b8ac:	f025 0507 	bic.w	r5, r5, #7
 800b8b0:	ed95 7b00 	vldr	d7, [r5]
 800b8b4:	ec52 1b17 	vmov	r1, r2, d7
 800b8b8:	f022 4300 	bic.w	r3, r2, #2147483648	; 0x80000000
 800b8bc:	9317      	str	r3, [sp, #92]	; 0x5c
 800b8be:	ed8d 7a16 	vstr	s14, [sp, #88]	; 0x58
 800b8c2:	f105 0408 	add.w	r4, r5, #8
 800b8c6:	e9dd 0116 	ldrd	r0, r1, [sp, #88]	; 0x58
 800b8ca:	f04f 32ff 	mov.w	r2, #4294967295
 800b8ce:	4b1b      	ldr	r3, [pc, #108]	; (800b93c <_svfprintf_r+0x72c>)
 800b8d0:	940b      	str	r4, [sp, #44]	; 0x2c
 800b8d2:	ed8d 7b10 	vstr	d7, [sp, #64]	; 0x40
 800b8d6:	f7f5 fc83 	bl	80011e0 <__aeabi_dcmpun>
 800b8da:	2800      	cmp	r0, #0
 800b8dc:	f040 8331 	bne.w	800bf42 <_svfprintf_r+0xd32>
 800b8e0:	f04f 32ff 	mov.w	r2, #4294967295
 800b8e4:	4b15      	ldr	r3, [pc, #84]	; (800b93c <_svfprintf_r+0x72c>)
 800b8e6:	e9dd 0116 	ldrd	r0, r1, [sp, #88]	; 0x58
 800b8ea:	f7f5 fc5b 	bl	80011a4 <__aeabi_dcmple>
 800b8ee:	2800      	cmp	r0, #0
 800b8f0:	f040 8327 	bne.w	800bf42 <_svfprintf_r+0xd32>
 800b8f4:	2200      	movs	r2, #0
 800b8f6:	2300      	movs	r3, #0
 800b8f8:	e9dd 0110 	ldrd	r0, r1, [sp, #64]	; 0x40
 800b8fc:	f7f5 fc48 	bl	8001190 <__aeabi_dcmplt>
 800b900:	2800      	cmp	r0, #0
 800b902:	f040 8525 	bne.w	800c350 <_svfprintf_r+0x1140>
 800b906:	f89d 606f 	ldrb.w	r6, [sp, #111]	; 0x6f
 800b90a:	4a0d      	ldr	r2, [pc, #52]	; (800b940 <_svfprintf_r+0x730>)
 800b90c:	4b0d      	ldr	r3, [pc, #52]	; (800b944 <_svfprintf_r+0x734>)
 800b90e:	2103      	movs	r1, #3
 800b910:	2000      	movs	r0, #0
 800b912:	f027 0480 	bic.w	r4, r7, #128	; 0x80
 800b916:	f1b9 0f47 	cmp.w	r9, #71	; 0x47
 800b91a:	bfd8      	it	le
 800b91c:	461a      	movle	r2, r3
 800b91e:	e9cd 1004 	strd	r1, r0, [sp, #16]
 800b922:	9403      	str	r4, [sp, #12]
 800b924:	920d      	str	r2, [sp, #52]	; 0x34
 800b926:	910a      	str	r1, [sp, #40]	; 0x28
 800b928:	900e      	str	r0, [sp, #56]	; 0x38
 800b92a:	e5d8      	b.n	800b4de <_svfprintf_r+0x2ce>
 800b92c:	0800f210 	.word	0x0800f210
 800b930:	0800f220 	.word	0x0800f220
 800b934:	0800f1e0 	.word	0x0800f1e0
 800b938:	0800f1f4 	.word	0x0800f1f4
 800b93c:	7fefffff 	.word	0x7fefffff
 800b940:	0800f1d4 	.word	0x0800f1d4
 800b944:	0800f1d0 	.word	0x0800f1d0
 800b948:	2a00      	cmp	r2, #0
 800b94a:	f040 866e 	bne.w	800c62a <_svfprintf_r+0x141a>
 800b94e:	f047 0710 	orr.w	r7, r7, #16
 800b952:	06bc      	lsls	r4, r7, #26
 800b954:	f53f adf6 	bmi.w	800b544 <_svfprintf_r+0x334>
 800b958:	9b0b      	ldr	r3, [sp, #44]	; 0x2c
 800b95a:	06f8      	lsls	r0, r7, #27
 800b95c:	f853 4b04 	ldr.w	r4, [r3], #4
 800b960:	930b      	str	r3, [sp, #44]	; 0x2c
 800b962:	f100 82a6 	bmi.w	800beb2 <_svfprintf_r+0xca2>
 800b966:	0679      	lsls	r1, r7, #25
 800b968:	f140 82a3 	bpl.w	800beb2 <_svfprintf_r+0xca2>
 800b96c:	b224      	sxth	r4, r4
 800b96e:	17e5      	asrs	r5, r4, #31
 800b970:	e5f1      	b.n	800b556 <_svfprintf_r+0x346>
 800b972:	f89b 9000 	ldrb.w	r9, [fp]
 800b976:	f1b9 0f2a 	cmp.w	r9, #42	; 0x2a
 800b97a:	f10b 0001 	add.w	r0, fp, #1
 800b97e:	f000 8618 	beq.w	800c5b2 <_svfprintf_r+0x13a2>
 800b982:	f1a9 0330 	sub.w	r3, r9, #48	; 0x30
 800b986:	2b09      	cmp	r3, #9
 800b988:	4683      	mov	fp, r0
 800b98a:	f200 8507 	bhi.w	800c39c <_svfprintf_r+0x118c>
 800b98e:	2000      	movs	r0, #0
 800b990:	f81b 9b01 	ldrb.w	r9, [fp], #1
 800b994:	eb00 0080 	add.w	r0, r0, r0, lsl #2
 800b998:	eb03 0040 	add.w	r0, r3, r0, lsl #1
 800b99c:	f1a9 0330 	sub.w	r3, r9, #48	; 0x30
 800b9a0:	2b09      	cmp	r3, #9
 800b9a2:	d9f5      	bls.n	800b990 <_svfprintf_r+0x780>
 800b9a4:	9005      	str	r0, [sp, #20]
 800b9a6:	e491      	b.n	800b2cc <_svfprintf_r+0xbc>
 800b9a8:	f89b 3000 	ldrb.w	r3, [fp]
 800b9ac:	f047 0704 	orr.w	r7, r7, #4
 800b9b0:	e489      	b.n	800b2c6 <_svfprintf_r+0xb6>
 800b9b2:	f047 0780 	orr.w	r7, r7, #128	; 0x80
 800b9b6:	f89b 3000 	ldrb.w	r3, [fp]
 800b9ba:	e484      	b.n	800b2c6 <_svfprintf_r+0xb6>
 800b9bc:	2302      	movs	r3, #2
 800b9be:	e510      	b.n	800b3e2 <_svfprintf_r+0x1d2>
 800b9c0:	2a00      	cmp	r2, #0
 800b9c2:	f040 8636 	bne.w	800c632 <_svfprintf_r+0x1422>
 800b9c6:	f1b9 0f00 	cmp.w	r9, #0
 800b9ca:	f43f ace7 	beq.w	800b39c <_svfprintf_r+0x18c>
 800b9ce:	2300      	movs	r3, #0
 800b9d0:	2201      	movs	r2, #1
 800b9d2:	461e      	mov	r6, r3
 800b9d4:	f88d 306f 	strb.w	r3, [sp, #111]	; 0x6f
 800b9d8:	9305      	str	r3, [sp, #20]
 800b9da:	930e      	str	r3, [sp, #56]	; 0x38
 800b9dc:	ab26      	add	r3, sp, #152	; 0x98
 800b9de:	9204      	str	r2, [sp, #16]
 800b9e0:	f88d 9098 	strb.w	r9, [sp, #152]	; 0x98
 800b9e4:	9703      	str	r7, [sp, #12]
 800b9e6:	920a      	str	r2, [sp, #40]	; 0x28
 800b9e8:	930d      	str	r3, [sp, #52]	; 0x34
 800b9ea:	e604      	b.n	800b5f6 <_svfprintf_r+0x3e6>
 800b9ec:	f1b9 0f65 	cmp.w	r9, #101	; 0x65
 800b9f0:	f340 80d3 	ble.w	800bb9a <_svfprintf_r+0x98a>
 800b9f4:	2200      	movs	r2, #0
 800b9f6:	2300      	movs	r3, #0
 800b9f8:	e9dd 0110 	ldrd	r0, r1, [sp, #64]	; 0x40
 800b9fc:	f7f5 fbbe 	bl	800117c <__aeabi_dcmpeq>
 800ba00:	2800      	cmp	r0, #0
 800ba02:	f000 8169 	beq.w	800bcd8 <_svfprintf_r+0xac8>
 800ba06:	9b24      	ldr	r3, [sp, #144]	; 0x90
 800ba08:	4ab1      	ldr	r2, [pc, #708]	; (800bcd0 <_svfprintf_r+0xac0>)
 800ba0a:	f8ca 2000 	str.w	r2, [sl]
 800ba0e:	3301      	adds	r3, #1
 800ba10:	3401      	adds	r4, #1
 800ba12:	2201      	movs	r2, #1
 800ba14:	2b07      	cmp	r3, #7
 800ba16:	e9cd 3424 	strd	r3, r4, [sp, #144]	; 0x90
 800ba1a:	f8ca 2004 	str.w	r2, [sl, #4]
 800ba1e:	f300 83ce 	bgt.w	800c1be <_svfprintf_r+0xfae>
 800ba22:	f10a 0a08 	add.w	sl, sl, #8
 800ba26:	9b1d      	ldr	r3, [sp, #116]	; 0x74
 800ba28:	9a0f      	ldr	r2, [sp, #60]	; 0x3c
 800ba2a:	9c25      	ldr	r4, [sp, #148]	; 0x94
 800ba2c:	4293      	cmp	r3, r2
 800ba2e:	f280 822b 	bge.w	800be88 <_svfprintf_r+0xc78>
 800ba32:	9b24      	ldr	r3, [sp, #144]	; 0x90
 800ba34:	9a14      	ldr	r2, [sp, #80]	; 0x50
 800ba36:	f8ca 2000 	str.w	r2, [sl]
 800ba3a:	9a13      	ldr	r2, [sp, #76]	; 0x4c
 800ba3c:	f8ca 2004 	str.w	r2, [sl, #4]
 800ba40:	3301      	adds	r3, #1
 800ba42:	4414      	add	r4, r2
 800ba44:	2b07      	cmp	r3, #7
 800ba46:	e9cd 3424 	strd	r3, r4, [sp, #144]	; 0x90
 800ba4a:	f300 8331 	bgt.w	800c0b0 <_svfprintf_r+0xea0>
 800ba4e:	f10a 0a08 	add.w	sl, sl, #8
 800ba52:	9b0f      	ldr	r3, [sp, #60]	; 0x3c
 800ba54:	1e5d      	subs	r5, r3, #1
 800ba56:	2d00      	cmp	r5, #0
 800ba58:	f77f ae88 	ble.w	800b76c <_svfprintf_r+0x55c>
 800ba5c:	2d10      	cmp	r5, #16
 800ba5e:	9a24      	ldr	r2, [sp, #144]	; 0x90
 800ba60:	4f9c      	ldr	r7, [pc, #624]	; (800bcd4 <_svfprintf_r+0xac4>)
 800ba62:	f340 8385 	ble.w	800c170 <_svfprintf_r+0xf60>
 800ba66:	4623      	mov	r3, r4
 800ba68:	2610      	movs	r6, #16
 800ba6a:	e9dd 4908 	ldrd	r4, r9, [sp, #32]
 800ba6e:	e005      	b.n	800ba7c <_svfprintf_r+0x86c>
 800ba70:	f10a 0a08 	add.w	sl, sl, #8
 800ba74:	3d10      	subs	r5, #16
 800ba76:	2d10      	cmp	r5, #16
 800ba78:	f340 8379 	ble.w	800c16e <_svfprintf_r+0xf5e>
 800ba7c:	3201      	adds	r2, #1
 800ba7e:	3310      	adds	r3, #16
 800ba80:	2a07      	cmp	r2, #7
 800ba82:	e9cd 2324 	strd	r2, r3, [sp, #144]	; 0x90
 800ba86:	e9ca 7600 	strd	r7, r6, [sl]
 800ba8a:	ddf1      	ble.n	800ba70 <_svfprintf_r+0x860>
 800ba8c:	aa23      	add	r2, sp, #140	; 0x8c
 800ba8e:	4621      	mov	r1, r4
 800ba90:	4648      	mov	r0, r9
 800ba92:	f002 fa25 	bl	800dee0 <__ssprint_r>
 800ba96:	2800      	cmp	r0, #0
 800ba98:	f47f ac87 	bne.w	800b3aa <_svfprintf_r+0x19a>
 800ba9c:	e9dd 2324 	ldrd	r2, r3, [sp, #144]	; 0x90
 800baa0:	46c2      	mov	sl, r8
 800baa2:	e7e7      	b.n	800ba74 <_svfprintf_r+0x864>
 800baa4:	9b07      	ldr	r3, [sp, #28]
 800baa6:	9a04      	ldr	r2, [sp, #16]
 800baa8:	1a9d      	subs	r5, r3, r2
 800baaa:	2d00      	cmp	r5, #0
 800baac:	f77f ae13 	ble.w	800b6d6 <_svfprintf_r+0x4c6>
 800bab0:	2d10      	cmp	r5, #16
 800bab2:	9a24      	ldr	r2, [sp, #144]	; 0x90
 800bab4:	4f87      	ldr	r7, [pc, #540]	; (800bcd4 <_svfprintf_r+0xac4>)
 800bab6:	dd22      	ble.n	800bafe <_svfprintf_r+0x8ee>
 800bab8:	4653      	mov	r3, sl
 800baba:	4621      	mov	r1, r4
 800babc:	2610      	movs	r6, #16
 800babe:	e9dd a408 	ldrd	sl, r4, [sp, #32]
 800bac2:	e004      	b.n	800bace <_svfprintf_r+0x8be>
 800bac4:	3d10      	subs	r5, #16
 800bac6:	2d10      	cmp	r5, #16
 800bac8:	f103 0308 	add.w	r3, r3, #8
 800bacc:	dd15      	ble.n	800bafa <_svfprintf_r+0x8ea>
 800bace:	3201      	adds	r2, #1
 800bad0:	3110      	adds	r1, #16
 800bad2:	2a07      	cmp	r2, #7
 800bad4:	e9cd 2124 	strd	r2, r1, [sp, #144]	; 0x90
 800bad8:	e9c3 7600 	strd	r7, r6, [r3]
 800badc:	ddf2      	ble.n	800bac4 <_svfprintf_r+0x8b4>
 800bade:	aa23      	add	r2, sp, #140	; 0x8c
 800bae0:	4651      	mov	r1, sl
 800bae2:	4620      	mov	r0, r4
 800bae4:	f002 f9fc 	bl	800dee0 <__ssprint_r>
 800bae8:	2800      	cmp	r0, #0
 800baea:	f47f ac5e 	bne.w	800b3aa <_svfprintf_r+0x19a>
 800baee:	3d10      	subs	r5, #16
 800baf0:	2d10      	cmp	r5, #16
 800baf2:	e9dd 2124 	ldrd	r2, r1, [sp, #144]	; 0x90
 800baf6:	4643      	mov	r3, r8
 800baf8:	dce9      	bgt.n	800bace <_svfprintf_r+0x8be>
 800bafa:	469a      	mov	sl, r3
 800bafc:	460c      	mov	r4, r1
 800bafe:	3201      	adds	r2, #1
 800bb00:	442c      	add	r4, r5
 800bb02:	2a07      	cmp	r2, #7
 800bb04:	e9cd 2424 	strd	r2, r4, [sp, #144]	; 0x90
 800bb08:	e9ca 7500 	strd	r7, r5, [sl]
 800bb0c:	f300 833a 	bgt.w	800c184 <_svfprintf_r+0xf74>
 800bb10:	f10a 0a08 	add.w	sl, sl, #8
 800bb14:	e5df      	b.n	800b6d6 <_svfprintf_r+0x4c6>
 800bb16:	aa23      	add	r2, sp, #140	; 0x8c
 800bb18:	e9dd 1008 	ldrd	r1, r0, [sp, #32]
 800bb1c:	f002 f9e0 	bl	800dee0 <__ssprint_r>
 800bb20:	2800      	cmp	r0, #0
 800bb22:	f43f ae63 	beq.w	800b7ec <_svfprintf_r+0x5dc>
 800bb26:	e440      	b.n	800b3aa <_svfprintf_r+0x19a>
 800bb28:	aa23      	add	r2, sp, #140	; 0x8c
 800bb2a:	e9dd 1008 	ldrd	r1, r0, [sp, #32]
 800bb2e:	f002 f9d7 	bl	800dee0 <__ssprint_r>
 800bb32:	2800      	cmp	r0, #0
 800bb34:	f47f ac39 	bne.w	800b3aa <_svfprintf_r+0x19a>
 800bb38:	9b1d      	ldr	r3, [sp, #116]	; 0x74
 800bb3a:	9c25      	ldr	r4, [sp, #148]	; 0x94
 800bb3c:	46c2      	mov	sl, r8
 800bb3e:	b91b      	cbnz	r3, 800bb48 <_svfprintf_r+0x938>
 800bb40:	9a0f      	ldr	r2, [sp, #60]	; 0x3c
 800bb42:	2a00      	cmp	r2, #0
 800bb44:	f000 8375 	beq.w	800c232 <_svfprintf_r+0x1022>
 800bb48:	9a24      	ldr	r2, [sp, #144]	; 0x90
 800bb4a:	9914      	ldr	r1, [sp, #80]	; 0x50
 800bb4c:	f8ca 1000 	str.w	r1, [sl]
 800bb50:	9913      	ldr	r1, [sp, #76]	; 0x4c
 800bb52:	f8ca 1004 	str.w	r1, [sl, #4]
 800bb56:	3201      	adds	r2, #1
 800bb58:	440c      	add	r4, r1
 800bb5a:	2a07      	cmp	r2, #7
 800bb5c:	9425      	str	r4, [sp, #148]	; 0x94
 800bb5e:	9224      	str	r2, [sp, #144]	; 0x90
 800bb60:	f300 8450 	bgt.w	800c404 <_svfprintf_r+0x11f4>
 800bb64:	f10a 0a08 	add.w	sl, sl, #8
 800bb68:	2b00      	cmp	r3, #0
 800bb6a:	f2c0 8487 	blt.w	800c47c <_svfprintf_r+0x126c>
 800bb6e:	9b0f      	ldr	r3, [sp, #60]	; 0x3c
 800bb70:	990d      	ldr	r1, [sp, #52]	; 0x34
 800bb72:	3201      	adds	r2, #1
 800bb74:	441c      	add	r4, r3
 800bb76:	2a07      	cmp	r2, #7
 800bb78:	e9cd 2424 	strd	r2, r4, [sp, #144]	; 0x90
 800bb7c:	e9ca 1300 	strd	r1, r3, [sl]
 800bb80:	f77f adf2 	ble.w	800b768 <_svfprintf_r+0x558>
 800bb84:	aa23      	add	r2, sp, #140	; 0x8c
 800bb86:	e9dd 1008 	ldrd	r1, r0, [sp, #32]
 800bb8a:	f002 f9a9 	bl	800dee0 <__ssprint_r>
 800bb8e:	2800      	cmp	r0, #0
 800bb90:	f47f ac0b 	bne.w	800b3aa <_svfprintf_r+0x19a>
 800bb94:	9c25      	ldr	r4, [sp, #148]	; 0x94
 800bb96:	46c2      	mov	sl, r8
 800bb98:	e5e8      	b.n	800b76c <_svfprintf_r+0x55c>
 800bb9a:	9a0f      	ldr	r2, [sp, #60]	; 0x3c
 800bb9c:	9b24      	ldr	r3, [sp, #144]	; 0x90
 800bb9e:	2a01      	cmp	r2, #1
 800bba0:	f104 0401 	add.w	r4, r4, #1
 800bba4:	f103 0501 	add.w	r5, r3, #1
 800bba8:	f10a 0608 	add.w	r6, sl, #8
 800bbac:	f340 814a 	ble.w	800be44 <_svfprintf_r+0xc34>
 800bbb0:	2301      	movs	r3, #1
 800bbb2:	9a0d      	ldr	r2, [sp, #52]	; 0x34
 800bbb4:	f8ca 2000 	str.w	r2, [sl]
 800bbb8:	2d07      	cmp	r5, #7
 800bbba:	e9cd 5424 	strd	r5, r4, [sp, #144]	; 0x90
 800bbbe:	f8ca 3004 	str.w	r3, [sl, #4]
 800bbc2:	f300 82b8 	bgt.w	800c136 <_svfprintf_r+0xf26>
 800bbc6:	9b13      	ldr	r3, [sp, #76]	; 0x4c
 800bbc8:	9a14      	ldr	r2, [sp, #80]	; 0x50
 800bbca:	3501      	adds	r5, #1
 800bbcc:	441c      	add	r4, r3
 800bbce:	2d07      	cmp	r5, #7
 800bbd0:	e9cd 5424 	strd	r5, r4, [sp, #144]	; 0x90
 800bbd4:	e9c6 2300 	strd	r2, r3, [r6]
 800bbd8:	f300 82b9 	bgt.w	800c14e <_svfprintf_r+0xf3e>
 800bbdc:	3608      	adds	r6, #8
 800bbde:	1c6b      	adds	r3, r5, #1
 800bbe0:	461f      	mov	r7, r3
 800bbe2:	46b9      	mov	r9, r7
 800bbe4:	9f0f      	ldr	r7, [sp, #60]	; 0x3c
 800bbe6:	930a      	str	r3, [sp, #40]	; 0x28
 800bbe8:	3f01      	subs	r7, #1
 800bbea:	2200      	movs	r2, #0
 800bbec:	2300      	movs	r3, #0
 800bbee:	e9dd 0110 	ldrd	r0, r1, [sp, #64]	; 0x40
 800bbf2:	9705      	str	r7, [sp, #20]
 800bbf4:	f106 0a08 	add.w	sl, r6, #8
 800bbf8:	f7f5 fac0 	bl	800117c <__aeabi_dcmpeq>
 800bbfc:	2800      	cmp	r0, #0
 800bbfe:	f040 80e1 	bne.w	800bdc4 <_svfprintf_r+0xbb4>
 800bc02:	9b0d      	ldr	r3, [sp, #52]	; 0x34
 800bc04:	6077      	str	r7, [r6, #4]
 800bc06:	3301      	adds	r3, #1
 800bc08:	443c      	add	r4, r7
 800bc0a:	f1b9 0f07 	cmp.w	r9, #7
 800bc0e:	6033      	str	r3, [r6, #0]
 800bc10:	9425      	str	r4, [sp, #148]	; 0x94
 800bc12:	f8cd 9090 	str.w	r9, [sp, #144]	; 0x90
 800bc16:	f300 823b 	bgt.w	800c090 <_svfprintf_r+0xe80>
 800bc1a:	f106 0310 	add.w	r3, r6, #16
 800bc1e:	f105 0902 	add.w	r9, r5, #2
 800bc22:	4656      	mov	r6, sl
 800bc24:	469a      	mov	sl, r3
 800bc26:	9a15      	ldr	r2, [sp, #84]	; 0x54
 800bc28:	6072      	str	r2, [r6, #4]
 800bc2a:	4414      	add	r4, r2
 800bc2c:	ab1f      	add	r3, sp, #124	; 0x7c
 800bc2e:	f1b9 0f07 	cmp.w	r9, #7
 800bc32:	9425      	str	r4, [sp, #148]	; 0x94
 800bc34:	f8cd 9090 	str.w	r9, [sp, #144]	; 0x90
 800bc38:	6033      	str	r3, [r6, #0]
 800bc3a:	f77f ad97 	ble.w	800b76c <_svfprintf_r+0x55c>
 800bc3e:	e7a1      	b.n	800bb84 <_svfprintf_r+0x974>
 800bc40:	2b01      	cmp	r3, #1
 800bc42:	9703      	str	r7, [sp, #12]
 800bc44:	f47f ac9e 	bne.w	800b584 <_svfprintf_r+0x374>
 800bc48:	2d00      	cmp	r5, #0
 800bc4a:	bf08      	it	eq
 800bc4c:	2c0a      	cmpeq	r4, #10
 800bc4e:	f080 8147 	bcs.w	800bee0 <_svfprintf_r+0xcd0>
 800bc52:	ab40      	add	r3, sp, #256	; 0x100
 800bc54:	3430      	adds	r4, #48	; 0x30
 800bc56:	f803 4d41 	strb.w	r4, [r3, #-65]!
 800bc5a:	930d      	str	r3, [sp, #52]	; 0x34
 800bc5c:	2301      	movs	r3, #1
 800bc5e:	930a      	str	r3, [sp, #40]	; 0x28
 800bc60:	e4ae      	b.n	800b5c0 <_svfprintf_r+0x3b0>
 800bc62:	aa23      	add	r2, sp, #140	; 0x8c
 800bc64:	e9dd 1008 	ldrd	r1, r0, [sp, #32]
 800bc68:	f002 f93a 	bl	800dee0 <__ssprint_r>
 800bc6c:	2800      	cmp	r0, #0
 800bc6e:	f47f ab9c 	bne.w	800b3aa <_svfprintf_r+0x19a>
 800bc72:	9c25      	ldr	r4, [sp, #148]	; 0x94
 800bc74:	46c2      	mov	sl, r8
 800bc76:	e51b      	b.n	800b6b0 <_svfprintf_r+0x4a0>
 800bc78:	aa23      	add	r2, sp, #140	; 0x8c
 800bc7a:	e9dd 1008 	ldrd	r1, r0, [sp, #32]
 800bc7e:	f002 f92f 	bl	800dee0 <__ssprint_r>
 800bc82:	2800      	cmp	r0, #0
 800bc84:	f47f ab91 	bne.w	800b3aa <_svfprintf_r+0x19a>
 800bc88:	9c25      	ldr	r4, [sp, #148]	; 0x94
 800bc8a:	46c2      	mov	sl, r8
 800bc8c:	e51f      	b.n	800b6ce <_svfprintf_r+0x4be>
 800bc8e:	9f12      	ldr	r7, [sp, #72]	; 0x48
 800bc90:	4642      	mov	r2, r8
 800bc92:	0923      	lsrs	r3, r4, #4
 800bc94:	f004 000f 	and.w	r0, r4, #15
 800bc98:	ea43 7305 	orr.w	r3, r3, r5, lsl #28
 800bc9c:	0929      	lsrs	r1, r5, #4
 800bc9e:	461c      	mov	r4, r3
 800bca0:	460d      	mov	r5, r1
 800bca2:	5c3b      	ldrb	r3, [r7, r0]
 800bca4:	f802 3d01 	strb.w	r3, [r2, #-1]!
 800bca8:	ea54 0305 	orrs.w	r3, r4, r5
 800bcac:	d1f1      	bne.n	800bc92 <_svfprintf_r+0xa82>
 800bcae:	eba8 0302 	sub.w	r3, r8, r2
 800bcb2:	920d      	str	r2, [sp, #52]	; 0x34
 800bcb4:	930a      	str	r3, [sp, #40]	; 0x28
 800bcb6:	e483      	b.n	800b5c0 <_svfprintf_r+0x3b0>
 800bcb8:	aa23      	add	r2, sp, #140	; 0x8c
 800bcba:	e9dd 1008 	ldrd	r1, r0, [sp, #32]
 800bcbe:	f002 f90f 	bl	800dee0 <__ssprint_r>
 800bcc2:	2800      	cmp	r0, #0
 800bcc4:	f47f ab71 	bne.w	800b3aa <_svfprintf_r+0x19a>
 800bcc8:	9c25      	ldr	r4, [sp, #148]	; 0x94
 800bcca:	46c2      	mov	sl, r8
 800bccc:	e53a      	b.n	800b744 <_svfprintf_r+0x534>
 800bcce:	bf00      	nop
 800bcd0:	0800e894 	.word	0x0800e894
 800bcd4:	0800f220 	.word	0x0800f220
 800bcd8:	9b1d      	ldr	r3, [sp, #116]	; 0x74
 800bcda:	2b00      	cmp	r3, #0
 800bcdc:	f340 825e 	ble.w	800c19c <_svfprintf_r+0xf8c>
 800bce0:	e9dd 320e 	ldrd	r3, r2, [sp, #56]	; 0x38
 800bce4:	4293      	cmp	r3, r2
 800bce6:	bfa8      	it	ge
 800bce8:	4613      	movge	r3, r2
 800bcea:	2b00      	cmp	r3, #0
 800bcec:	461d      	mov	r5, r3
 800bcee:	dd0e      	ble.n	800bd0e <_svfprintf_r+0xafe>
 800bcf0:	9b24      	ldr	r3, [sp, #144]	; 0x90
 800bcf2:	9a0d      	ldr	r2, [sp, #52]	; 0x34
 800bcf4:	f8ca 2000 	str.w	r2, [sl]
 800bcf8:	3301      	adds	r3, #1
 800bcfa:	442c      	add	r4, r5
 800bcfc:	2b07      	cmp	r3, #7
 800bcfe:	9425      	str	r4, [sp, #148]	; 0x94
 800bd00:	f8ca 5004 	str.w	r5, [sl, #4]
 800bd04:	9324      	str	r3, [sp, #144]	; 0x90
 800bd06:	f300 8318 	bgt.w	800c33a <_svfprintf_r+0x112a>
 800bd0a:	f10a 0a08 	add.w	sl, sl, #8
 800bd0e:	9b0e      	ldr	r3, [sp, #56]	; 0x38
 800bd10:	2d00      	cmp	r5, #0
 800bd12:	bfa8      	it	ge
 800bd14:	1b5b      	subge	r3, r3, r5
 800bd16:	2b00      	cmp	r3, #0
 800bd18:	461d      	mov	r5, r3
 800bd1a:	f300 8180 	bgt.w	800c01e <_svfprintf_r+0xe0e>
 800bd1e:	9b1d      	ldr	r3, [sp, #116]	; 0x74
 800bd20:	9a0f      	ldr	r2, [sp, #60]	; 0x3c
 800bd22:	4293      	cmp	r3, r2
 800bd24:	f2c0 81e4 	blt.w	800c0f0 <_svfprintf_r+0xee0>
 800bd28:	9a03      	ldr	r2, [sp, #12]
 800bd2a:	07d0      	lsls	r0, r2, #31
 800bd2c:	f100 81e0 	bmi.w	800c0f0 <_svfprintf_r+0xee0>
 800bd30:	9a0f      	ldr	r2, [sp, #60]	; 0x3c
 800bd32:	980e      	ldr	r0, [sp, #56]	; 0x38
 800bd34:	1ad3      	subs	r3, r2, r3
 800bd36:	1a15      	subs	r5, r2, r0
 800bd38:	429d      	cmp	r5, r3
 800bd3a:	bfa8      	it	ge
 800bd3c:	461d      	movge	r5, r3
 800bd3e:	2d00      	cmp	r5, #0
 800bd40:	dd0f      	ble.n	800bd62 <_svfprintf_r+0xb52>
 800bd42:	9a24      	ldr	r2, [sp, #144]	; 0x90
 800bd44:	990d      	ldr	r1, [sp, #52]	; 0x34
 800bd46:	f8ca 5004 	str.w	r5, [sl, #4]
 800bd4a:	3201      	adds	r2, #1
 800bd4c:	4401      	add	r1, r0
 800bd4e:	442c      	add	r4, r5
 800bd50:	2a07      	cmp	r2, #7
 800bd52:	f8ca 1000 	str.w	r1, [sl]
 800bd56:	e9cd 2424 	strd	r2, r4, [sp, #144]	; 0x90
 800bd5a:	f300 8323 	bgt.w	800c3a4 <_svfprintf_r+0x1194>
 800bd5e:	f10a 0a08 	add.w	sl, sl, #8
 800bd62:	2d00      	cmp	r5, #0
 800bd64:	bfac      	ite	ge
 800bd66:	1b5d      	subge	r5, r3, r5
 800bd68:	461d      	movlt	r5, r3
 800bd6a:	2d00      	cmp	r5, #0
 800bd6c:	f77f acfe 	ble.w	800b76c <_svfprintf_r+0x55c>
 800bd70:	2d10      	cmp	r5, #16
 800bd72:	9a24      	ldr	r2, [sp, #144]	; 0x90
 800bd74:	4fc5      	ldr	r7, [pc, #788]	; (800c08c <_svfprintf_r+0xe7c>)
 800bd76:	f340 81fb 	ble.w	800c170 <_svfprintf_r+0xf60>
 800bd7a:	4623      	mov	r3, r4
 800bd7c:	2610      	movs	r6, #16
 800bd7e:	e9dd 4908 	ldrd	r4, r9, [sp, #32]
 800bd82:	e005      	b.n	800bd90 <_svfprintf_r+0xb80>
 800bd84:	f10a 0a08 	add.w	sl, sl, #8
 800bd88:	3d10      	subs	r5, #16
 800bd8a:	2d10      	cmp	r5, #16
 800bd8c:	f340 81ef 	ble.w	800c16e <_svfprintf_r+0xf5e>
 800bd90:	3201      	adds	r2, #1
 800bd92:	3310      	adds	r3, #16
 800bd94:	2a07      	cmp	r2, #7
 800bd96:	e9cd 2324 	strd	r2, r3, [sp, #144]	; 0x90
 800bd9a:	e9ca 7600 	strd	r7, r6, [sl]
 800bd9e:	ddf1      	ble.n	800bd84 <_svfprintf_r+0xb74>
 800bda0:	aa23      	add	r2, sp, #140	; 0x8c
 800bda2:	4621      	mov	r1, r4
 800bda4:	4648      	mov	r0, r9
 800bda6:	f002 f89b 	bl	800dee0 <__ssprint_r>
 800bdaa:	2800      	cmp	r0, #0
 800bdac:	f47f aafd 	bne.w	800b3aa <_svfprintf_r+0x19a>
 800bdb0:	e9dd 2324 	ldrd	r2, r3, [sp, #144]	; 0x90
 800bdb4:	46c2      	mov	sl, r8
 800bdb6:	e7e7      	b.n	800bd88 <_svfprintf_r+0xb78>
 800bdb8:	9b05      	ldr	r3, [sp, #20]
 800bdba:	930a      	str	r3, [sp, #40]	; 0x28
 800bdbc:	f8cd 8034 	str.w	r8, [sp, #52]	; 0x34
 800bdc0:	f7ff bbfe 	b.w	800b5c0 <_svfprintf_r+0x3b0>
 800bdc4:	9a05      	ldr	r2, [sp, #20]
 800bdc6:	2a00      	cmp	r2, #0
 800bdc8:	f77f af2d 	ble.w	800bc26 <_svfprintf_r+0xa16>
 800bdcc:	2a10      	cmp	r2, #16
 800bdce:	4faf      	ldr	r7, [pc, #700]	; (800c08c <_svfprintf_r+0xe7c>)
 800bdd0:	f340 83ea 	ble.w	800c5a8 <_svfprintf_r+0x1398>
 800bdd4:	4633      	mov	r3, r6
 800bdd6:	4692      	mov	sl, r2
 800bdd8:	f04f 0910 	mov.w	r9, #16
 800bddc:	4622      	mov	r2, r4
 800bdde:	9d0a      	ldr	r5, [sp, #40]	; 0x28
 800bde0:	e9dd 6408 	ldrd	r6, r4, [sp, #32]
 800bde4:	e007      	b.n	800bdf6 <_svfprintf_r+0xbe6>
 800bde6:	3308      	adds	r3, #8
 800bde8:	f1aa 0a10 	sub.w	sl, sl, #16
 800bdec:	f1ba 0f10 	cmp.w	sl, #16
 800bdf0:	f340 81ef 	ble.w	800c1d2 <_svfprintf_r+0xfc2>
 800bdf4:	3501      	adds	r5, #1
 800bdf6:	3210      	adds	r2, #16
 800bdf8:	2d07      	cmp	r5, #7
 800bdfa:	e9cd 5224 	strd	r5, r2, [sp, #144]	; 0x90
 800bdfe:	e9c3 7900 	strd	r7, r9, [r3]
 800be02:	ddf0      	ble.n	800bde6 <_svfprintf_r+0xbd6>
 800be04:	aa23      	add	r2, sp, #140	; 0x8c
 800be06:	4631      	mov	r1, r6
 800be08:	4620      	mov	r0, r4
 800be0a:	f002 f869 	bl	800dee0 <__ssprint_r>
 800be0e:	2800      	cmp	r0, #0
 800be10:	f47f aacb 	bne.w	800b3aa <_svfprintf_r+0x19a>
 800be14:	e9dd 5224 	ldrd	r5, r2, [sp, #144]	; 0x90
 800be18:	4643      	mov	r3, r8
 800be1a:	e7e5      	b.n	800bde8 <_svfprintf_r+0xbd8>
 800be1c:	9b0b      	ldr	r3, [sp, #44]	; 0x2c
 800be1e:	06fd      	lsls	r5, r7, #27
 800be20:	f853 4b04 	ldr.w	r4, [r3], #4
 800be24:	930b      	str	r3, [sp, #44]	; 0x2c
 800be26:	d576      	bpl.n	800bf16 <_svfprintf_r+0xd06>
 800be28:	2500      	movs	r5, #0
 800be2a:	2301      	movs	r3, #1
 800be2c:	f7ff bad9 	b.w	800b3e2 <_svfprintf_r+0x1d2>
 800be30:	9a0b      	ldr	r2, [sp, #44]	; 0x2c
 800be32:	f852 4b04 	ldr.w	r4, [r2], #4
 800be36:	920b      	str	r2, [sp, #44]	; 0x2c
 800be38:	f017 0210 	ands.w	r2, r7, #16
 800be3c:	d079      	beq.n	800bf32 <_svfprintf_r+0xd22>
 800be3e:	2500      	movs	r5, #0
 800be40:	f7ff bacf 	b.w	800b3e2 <_svfprintf_r+0x1d2>
 800be44:	9a03      	ldr	r2, [sp, #12]
 800be46:	07d1      	lsls	r1, r2, #31
 800be48:	f53f aeb2 	bmi.w	800bbb0 <_svfprintf_r+0x9a0>
 800be4c:	2201      	movs	r2, #1
 800be4e:	990d      	ldr	r1, [sp, #52]	; 0x34
 800be50:	f8ca 1000 	str.w	r1, [sl]
 800be54:	2d07      	cmp	r5, #7
 800be56:	e9cd 5424 	strd	r5, r4, [sp, #144]	; 0x90
 800be5a:	f8ca 2004 	str.w	r2, [sl, #4]
 800be5e:	f300 8117 	bgt.w	800c090 <_svfprintf_r+0xe80>
 800be62:	f103 0902 	add.w	r9, r3, #2
 800be66:	f10a 0a10 	add.w	sl, sl, #16
 800be6a:	e6dc      	b.n	800bc26 <_svfprintf_r+0xa16>
 800be6c:	2b30      	cmp	r3, #48	; 0x30
 800be6e:	f000 8139 	beq.w	800c0e4 <_svfprintf_r+0xed4>
 800be72:	9a0d      	ldr	r2, [sp, #52]	; 0x34
 800be74:	3902      	subs	r1, #2
 800be76:	2330      	movs	r3, #48	; 0x30
 800be78:	f802 3c01 	strb.w	r3, [r2, #-1]
 800be7c:	eba8 0301 	sub.w	r3, r8, r1
 800be80:	930a      	str	r3, [sp, #40]	; 0x28
 800be82:	910d      	str	r1, [sp, #52]	; 0x34
 800be84:	f7ff bb9c 	b.w	800b5c0 <_svfprintf_r+0x3b0>
 800be88:	9b03      	ldr	r3, [sp, #12]
 800be8a:	07de      	lsls	r6, r3, #31
 800be8c:	f53f add1 	bmi.w	800ba32 <_svfprintf_r+0x822>
 800be90:	e46c      	b.n	800b76c <_svfprintf_r+0x55c>
 800be92:	aa23      	add	r2, sp, #140	; 0x8c
 800be94:	e9dd 1008 	ldrd	r1, r0, [sp, #32]
 800be98:	f002 f822 	bl	800dee0 <__ssprint_r>
 800be9c:	2800      	cmp	r0, #0
 800be9e:	f47f aa84 	bne.w	800b3aa <_svfprintf_r+0x19a>
 800bea2:	9c25      	ldr	r4, [sp, #148]	; 0x94
 800bea4:	e497      	b.n	800b7d6 <_svfprintf_r+0x5c6>
 800bea6:	f8cd 8034 	str.w	r8, [sp, #52]	; 0x34
 800beaa:	f7ff bb89 	b.w	800b5c0 <_svfprintf_r+0x3b0>
 800beae:	2500      	movs	r5, #0
 800beb0:	e4b0      	b.n	800b814 <_svfprintf_r+0x604>
 800beb2:	17e5      	asrs	r5, r4, #31
 800beb4:	2c00      	cmp	r4, #0
 800beb6:	f175 0300 	sbcs.w	r3, r5, #0
 800beba:	f6bf ab51 	bge.w	800b560 <_svfprintf_r+0x350>
 800bebe:	9b05      	ldr	r3, [sp, #20]
 800bec0:	4264      	negs	r4, r4
 800bec2:	f04f 062d 	mov.w	r6, #45	; 0x2d
 800bec6:	eb65 0545 	sbc.w	r5, r5, r5, lsl #1
 800beca:	3301      	adds	r3, #1
 800becc:	f88d 606f 	strb.w	r6, [sp, #111]	; 0x6f
 800bed0:	f47f ab4c 	bne.w	800b56c <_svfprintf_r+0x35c>
 800bed4:	2d00      	cmp	r5, #0
 800bed6:	bf08      	it	eq
 800bed8:	2c0a      	cmpeq	r4, #10
 800beda:	9703      	str	r7, [sp, #12]
 800bedc:	f4ff aeb9 	bcc.w	800bc52 <_svfprintf_r+0xa42>
 800bee0:	4647      	mov	r7, r8
 800bee2:	4620      	mov	r0, r4
 800bee4:	4629      	mov	r1, r5
 800bee6:	220a      	movs	r2, #10
 800bee8:	2300      	movs	r3, #0
 800beea:	f7f4 fe09 	bl	8000b00 <__aeabi_uldivmod>
 800beee:	3230      	adds	r2, #48	; 0x30
 800bef0:	f807 2d01 	strb.w	r2, [r7, #-1]!
 800bef4:	4620      	mov	r0, r4
 800bef6:	4629      	mov	r1, r5
 800bef8:	2300      	movs	r3, #0
 800befa:	220a      	movs	r2, #10
 800befc:	f7f4 fe00 	bl	8000b00 <__aeabi_uldivmod>
 800bf00:	4604      	mov	r4, r0
 800bf02:	460d      	mov	r5, r1
 800bf04:	ea54 0305 	orrs.w	r3, r4, r5
 800bf08:	d1eb      	bne.n	800bee2 <_svfprintf_r+0xcd2>
 800bf0a:	eba8 0307 	sub.w	r3, r8, r7
 800bf0e:	970d      	str	r7, [sp, #52]	; 0x34
 800bf10:	930a      	str	r3, [sp, #40]	; 0x28
 800bf12:	f7ff bb55 	b.w	800b5c0 <_svfprintf_r+0x3b0>
 800bf16:	0678      	lsls	r0, r7, #25
 800bf18:	bf48      	it	mi
 800bf1a:	b2a4      	uxthmi	r4, r4
 800bf1c:	2500      	movs	r5, #0
 800bf1e:	2301      	movs	r3, #1
 800bf20:	f7ff ba5f 	b.w	800b3e2 <_svfprintf_r+0x1d2>
 800bf24:	9a06      	ldr	r2, [sp, #24]
 800bf26:	4610      	mov	r0, r2
 800bf28:	17d1      	asrs	r1, r2, #31
 800bf2a:	e9c3 0100 	strd	r0, r1, [r3]
 800bf2e:	f7ff b997 	b.w	800b260 <_svfprintf_r+0x50>
 800bf32:	f017 0340 	ands.w	r3, r7, #64	; 0x40
 800bf36:	bf1c      	itt	ne
 800bf38:	4613      	movne	r3, r2
 800bf3a:	b2a4      	uxthne	r4, r4
 800bf3c:	2500      	movs	r5, #0
 800bf3e:	f7ff ba50 	b.w	800b3e2 <_svfprintf_r+0x1d2>
 800bf42:	e9dd 0110 	ldrd	r0, r1, [sp, #64]	; 0x40
 800bf46:	4602      	mov	r2, r0
 800bf48:	460b      	mov	r3, r1
 800bf4a:	f7f5 f949 	bl	80011e0 <__aeabi_dcmpun>
 800bf4e:	2800      	cmp	r0, #0
 800bf50:	f040 8303 	bne.w	800c55a <_svfprintf_r+0x134a>
 800bf54:	9b05      	ldr	r3, [sp, #20]
 800bf56:	1c5a      	adds	r2, r3, #1
 800bf58:	f029 0620 	bic.w	r6, r9, #32
 800bf5c:	f000 8244 	beq.w	800c3e8 <_svfprintf_r+0x11d8>
 800bf60:	2e47      	cmp	r6, #71	; 0x47
 800bf62:	f000 816b 	beq.w	800c23c <_svfprintf_r+0x102c>
 800bf66:	9b11      	ldr	r3, [sp, #68]	; 0x44
 800bf68:	f447 7280 	orr.w	r2, r7, #256	; 0x100
 800bf6c:	2b00      	cmp	r3, #0
 800bf6e:	9203      	str	r2, [sp, #12]
 800bf70:	f2c0 820b 	blt.w	800c38a <_svfprintf_r+0x117a>
 800bf74:	ed9d 7b10 	vldr	d7, [sp, #64]	; 0x40
 800bf78:	ed8d 7b18 	vstr	d7, [sp, #96]	; 0x60
 800bf7c:	2300      	movs	r3, #0
 800bf7e:	930c      	str	r3, [sp, #48]	; 0x30
 800bf80:	f1b9 0f66 	cmp.w	r9, #102	; 0x66
 800bf84:	f000 8220 	beq.w	800c3c8 <_svfprintf_r+0x11b8>
 800bf88:	f1b9 0f46 	cmp.w	r9, #70	; 0x46
 800bf8c:	f000 825c 	beq.w	800c448 <_svfprintf_r+0x1238>
 800bf90:	2e45      	cmp	r6, #69	; 0x45
 800bf92:	f000 8158 	beq.w	800c246 <_svfprintf_r+0x1036>
 800bf96:	aa21      	add	r2, sp, #132	; 0x84
 800bf98:	ab1e      	add	r3, sp, #120	; 0x78
 800bf9a:	e9cd 3200 	strd	r3, r2, [sp]
 800bf9e:	2102      	movs	r1, #2
 800bfa0:	ab1d      	add	r3, sp, #116	; 0x74
 800bfa2:	9a05      	ldr	r2, [sp, #20]
 800bfa4:	9809      	ldr	r0, [sp, #36]	; 0x24
 800bfa6:	ed9d 0b18 	vldr	d0, [sp, #96]	; 0x60
 800bfaa:	f000 fc01 	bl	800c7b0 <_dtoa_r>
 800bfae:	f1b9 0f67 	cmp.w	r9, #103	; 0x67
 800bfb2:	900d      	str	r0, [sp, #52]	; 0x34
 800bfb4:	f040 832f 	bne.w	800c616 <_svfprintf_r+0x1406>
 800bfb8:	07fb      	lsls	r3, r7, #31
 800bfba:	f140 8169 	bpl.w	800c290 <_svfprintf_r+0x1080>
 800bfbe:	9b0d      	ldr	r3, [sp, #52]	; 0x34
 800bfc0:	9a05      	ldr	r2, [sp, #20]
 800bfc2:	189c      	adds	r4, r3, r2
 800bfc4:	2200      	movs	r2, #0
 800bfc6:	2300      	movs	r3, #0
 800bfc8:	e9dd 0118 	ldrd	r0, r1, [sp, #96]	; 0x60
 800bfcc:	f7f5 f8d6 	bl	800117c <__aeabi_dcmpeq>
 800bfd0:	2800      	cmp	r0, #0
 800bfd2:	f000 81ce 	beq.w	800c372 <_svfprintf_r+0x1162>
 800bfd6:	4623      	mov	r3, r4
 800bfd8:	9a0d      	ldr	r2, [sp, #52]	; 0x34
 800bfda:	1a9b      	subs	r3, r3, r2
 800bfdc:	930f      	str	r3, [sp, #60]	; 0x3c
 800bfde:	2e47      	cmp	r6, #71	; 0x47
 800bfe0:	9b1d      	ldr	r3, [sp, #116]	; 0x74
 800bfe2:	930e      	str	r3, [sp, #56]	; 0x38
 800bfe4:	f000 815d 	beq.w	800c2a2 <_svfprintf_r+0x1092>
 800bfe8:	f1b9 0f66 	cmp.w	r9, #102	; 0x66
 800bfec:	f040 8161 	bne.w	800c2b2 <_svfprintf_r+0x10a2>
 800bff0:	9b0e      	ldr	r3, [sp, #56]	; 0x38
 800bff2:	2b00      	cmp	r3, #0
 800bff4:	9b05      	ldr	r3, [sp, #20]
 800bff6:	f340 82d0 	ble.w	800c59a <_svfprintf_r+0x138a>
 800bffa:	2b00      	cmp	r3, #0
 800bffc:	f040 82b9 	bne.w	800c572 <_svfprintf_r+0x1362>
 800c000:	07fd      	lsls	r5, r7, #31
 800c002:	f100 82b6 	bmi.w	800c572 <_svfprintf_r+0x1362>
 800c006:	9b0e      	ldr	r3, [sp, #56]	; 0x38
 800c008:	9304      	str	r3, [sp, #16]
 800c00a:	930a      	str	r3, [sp, #40]	; 0x28
 800c00c:	9b0c      	ldr	r3, [sp, #48]	; 0x30
 800c00e:	2b00      	cmp	r3, #0
 800c010:	f040 817a 	bne.w	800c308 <_svfprintf_r+0x10f8>
 800c014:	9305      	str	r3, [sp, #20]
 800c016:	f89d 606f 	ldrb.w	r6, [sp, #111]	; 0x6f
 800c01a:	f7ff ba60 	b.w	800b4de <_svfprintf_r+0x2ce>
 800c01e:	2b10      	cmp	r3, #16
 800c020:	9a24      	ldr	r2, [sp, #144]	; 0x90
 800c022:	4f1a      	ldr	r7, [pc, #104]	; (800c08c <_svfprintf_r+0xe7c>)
 800c024:	f340 80ef 	ble.w	800c206 <_svfprintf_r+0xff6>
 800c028:	4623      	mov	r3, r4
 800c02a:	2610      	movs	r6, #16
 800c02c:	e9dd 4908 	ldrd	r4, r9, [sp, #32]
 800c030:	e005      	b.n	800c03e <_svfprintf_r+0xe2e>
 800c032:	f10a 0a08 	add.w	sl, sl, #8
 800c036:	3d10      	subs	r5, #16
 800c038:	2d10      	cmp	r5, #16
 800c03a:	f340 80e3 	ble.w	800c204 <_svfprintf_r+0xff4>
 800c03e:	3201      	adds	r2, #1
 800c040:	3310      	adds	r3, #16
 800c042:	2a07      	cmp	r2, #7
 800c044:	e9cd 2324 	strd	r2, r3, [sp, #144]	; 0x90
 800c048:	e9ca 7600 	strd	r7, r6, [sl]
 800c04c:	ddf1      	ble.n	800c032 <_svfprintf_r+0xe22>
 800c04e:	aa23      	add	r2, sp, #140	; 0x8c
 800c050:	4621      	mov	r1, r4
 800c052:	4648      	mov	r0, r9
 800c054:	f001 ff44 	bl	800dee0 <__ssprint_r>
 800c058:	2800      	cmp	r0, #0
 800c05a:	f47f a9a6 	bne.w	800b3aa <_svfprintf_r+0x19a>
 800c05e:	e9dd 2324 	ldrd	r2, r3, [sp, #144]	; 0x90
 800c062:	46c2      	mov	sl, r8
 800c064:	e7e7      	b.n	800c036 <_svfprintf_r+0xe26>
 800c066:	4264      	negs	r4, r4
 800c068:	9407      	str	r4, [sp, #28]
 800c06a:	900b      	str	r0, [sp, #44]	; 0x2c
 800c06c:	e49e      	b.n	800b9ac <_svfprintf_r+0x79c>
 800c06e:	2140      	movs	r1, #64	; 0x40
 800c070:	9809      	ldr	r0, [sp, #36]	; 0x24
 800c072:	f7fe fd75 	bl	800ab60 <_malloc_r>
 800c076:	9b08      	ldr	r3, [sp, #32]
 800c078:	6018      	str	r0, [r3, #0]
 800c07a:	6118      	str	r0, [r3, #16]
 800c07c:	2800      	cmp	r0, #0
 800c07e:	f000 82c2 	beq.w	800c606 <_svfprintf_r+0x13f6>
 800c082:	9a08      	ldr	r2, [sp, #32]
 800c084:	2340      	movs	r3, #64	; 0x40
 800c086:	6153      	str	r3, [r2, #20]
 800c088:	f7ff b8d9 	b.w	800b23e <_svfprintf_r+0x2e>
 800c08c:	0800f220 	.word	0x0800f220
 800c090:	aa23      	add	r2, sp, #140	; 0x8c
 800c092:	e9dd 1008 	ldrd	r1, r0, [sp, #32]
 800c096:	f001 ff23 	bl	800dee0 <__ssprint_r>
 800c09a:	2800      	cmp	r0, #0
 800c09c:	f47f a985 	bne.w	800b3aa <_svfprintf_r+0x19a>
 800c0a0:	e9dd 3424 	ldrd	r3, r4, [sp, #144]	; 0x90
 800c0a4:	f10d 0ac8 	add.w	sl, sp, #200	; 0xc8
 800c0a8:	f103 0901 	add.w	r9, r3, #1
 800c0ac:	4646      	mov	r6, r8
 800c0ae:	e5ba      	b.n	800bc26 <_svfprintf_r+0xa16>
 800c0b0:	aa23      	add	r2, sp, #140	; 0x8c
 800c0b2:	e9dd 1008 	ldrd	r1, r0, [sp, #32]
 800c0b6:	f001 ff13 	bl	800dee0 <__ssprint_r>
 800c0ba:	2800      	cmp	r0, #0
 800c0bc:	f47f a975 	bne.w	800b3aa <_svfprintf_r+0x19a>
 800c0c0:	9c25      	ldr	r4, [sp, #148]	; 0x94
 800c0c2:	46c2      	mov	sl, r8
 800c0c4:	e4c5      	b.n	800ba52 <_svfprintf_r+0x842>
 800c0c6:	9b05      	ldr	r3, [sp, #20]
 800c0c8:	9e0d      	ldr	r6, [sp, #52]	; 0x34
 800c0ca:	9605      	str	r6, [sp, #20]
 800c0cc:	2b06      	cmp	r3, #6
 800c0ce:	bf28      	it	cs
 800c0d0:	2306      	movcs	r3, #6
 800c0d2:	9304      	str	r3, [sp, #16]
 800c0d4:	930a      	str	r3, [sp, #40]	; 0x28
 800c0d6:	4bba      	ldr	r3, [pc, #744]	; (800c3c0 <_svfprintf_r+0x11b0>)
 800c0d8:	950b      	str	r5, [sp, #44]	; 0x2c
 800c0da:	9703      	str	r7, [sp, #12]
 800c0dc:	960e      	str	r6, [sp, #56]	; 0x38
 800c0de:	930d      	str	r3, [sp, #52]	; 0x34
 800c0e0:	f7ff b9fd 	b.w	800b4de <_svfprintf_r+0x2ce>
 800c0e4:	9b0d      	ldr	r3, [sp, #52]	; 0x34
 800c0e6:	eba8 0303 	sub.w	r3, r8, r3
 800c0ea:	930a      	str	r3, [sp, #40]	; 0x28
 800c0ec:	f7ff ba68 	b.w	800b5c0 <_svfprintf_r+0x3b0>
 800c0f0:	9a24      	ldr	r2, [sp, #144]	; 0x90
 800c0f2:	9914      	ldr	r1, [sp, #80]	; 0x50
 800c0f4:	f8ca 1000 	str.w	r1, [sl]
 800c0f8:	9913      	ldr	r1, [sp, #76]	; 0x4c
 800c0fa:	f8ca 1004 	str.w	r1, [sl, #4]
 800c0fe:	3201      	adds	r2, #1
 800c100:	440c      	add	r4, r1
 800c102:	2a07      	cmp	r2, #7
 800c104:	9425      	str	r4, [sp, #148]	; 0x94
 800c106:	9224      	str	r2, [sp, #144]	; 0x90
 800c108:	f300 8127 	bgt.w	800c35a <_svfprintf_r+0x114a>
 800c10c:	f10a 0a08 	add.w	sl, sl, #8
 800c110:	e60e      	b.n	800bd30 <_svfprintf_r+0xb20>
 800c112:	9a06      	ldr	r2, [sp, #24]
 800c114:	601a      	str	r2, [r3, #0]
 800c116:	f7ff b8a3 	b.w	800b260 <_svfprintf_r+0x50>
 800c11a:	aa23      	add	r2, sp, #140	; 0x8c
 800c11c:	e9dd 1008 	ldrd	r1, r0, [sp, #32]
 800c120:	f001 fede 	bl	800dee0 <__ssprint_r>
 800c124:	2800      	cmp	r0, #0
 800c126:	f47f a940 	bne.w	800b3aa <_svfprintf_r+0x19a>
 800c12a:	f89d 606f 	ldrb.w	r6, [sp, #111]	; 0x6f
 800c12e:	9c25      	ldr	r4, [sp, #148]	; 0x94
 800c130:	46c2      	mov	sl, r8
 800c132:	f7ff baad 	b.w	800b690 <_svfprintf_r+0x480>
 800c136:	aa23      	add	r2, sp, #140	; 0x8c
 800c138:	e9dd 1008 	ldrd	r1, r0, [sp, #32]
 800c13c:	f001 fed0 	bl	800dee0 <__ssprint_r>
 800c140:	2800      	cmp	r0, #0
 800c142:	f47f a932 	bne.w	800b3aa <_svfprintf_r+0x19a>
 800c146:	e9dd 5424 	ldrd	r5, r4, [sp, #144]	; 0x90
 800c14a:	4646      	mov	r6, r8
 800c14c:	e53b      	b.n	800bbc6 <_svfprintf_r+0x9b6>
 800c14e:	aa23      	add	r2, sp, #140	; 0x8c
 800c150:	e9dd 1008 	ldrd	r1, r0, [sp, #32]
 800c154:	f001 fec4 	bl	800dee0 <__ssprint_r>
 800c158:	2800      	cmp	r0, #0
 800c15a:	f47f a926 	bne.w	800b3aa <_svfprintf_r+0x19a>
 800c15e:	e9dd 5424 	ldrd	r5, r4, [sp, #144]	; 0x90
 800c162:	4646      	mov	r6, r8
 800c164:	e53b      	b.n	800bbde <_svfprintf_r+0x9ce>
 800c166:	2b01      	cmp	r3, #1
 800c168:	f47f aa0c 	bne.w	800b584 <_svfprintf_r+0x374>
 800c16c:	e571      	b.n	800bc52 <_svfprintf_r+0xa42>
 800c16e:	461c      	mov	r4, r3
 800c170:	3201      	adds	r2, #1
 800c172:	442c      	add	r4, r5
 800c174:	2a07      	cmp	r2, #7
 800c176:	e9cd 2424 	strd	r2, r4, [sp, #144]	; 0x90
 800c17a:	e9ca 7500 	strd	r7, r5, [sl]
 800c17e:	f77f aaf3 	ble.w	800b768 <_svfprintf_r+0x558>
 800c182:	e4ff      	b.n	800bb84 <_svfprintf_r+0x974>
 800c184:	aa23      	add	r2, sp, #140	; 0x8c
 800c186:	e9dd 1008 	ldrd	r1, r0, [sp, #32]
 800c18a:	f001 fea9 	bl	800dee0 <__ssprint_r>
 800c18e:	2800      	cmp	r0, #0
 800c190:	f47f a90b 	bne.w	800b3aa <_svfprintf_r+0x19a>
 800c194:	9c25      	ldr	r4, [sp, #148]	; 0x94
 800c196:	46c2      	mov	sl, r8
 800c198:	f7ff ba9d 	b.w	800b6d6 <_svfprintf_r+0x4c6>
 800c19c:	9a24      	ldr	r2, [sp, #144]	; 0x90
 800c19e:	4989      	ldr	r1, [pc, #548]	; (800c3c4 <_svfprintf_r+0x11b4>)
 800c1a0:	f8ca 1000 	str.w	r1, [sl]
 800c1a4:	3201      	adds	r2, #1
 800c1a6:	3401      	adds	r4, #1
 800c1a8:	2101      	movs	r1, #1
 800c1aa:	2a07      	cmp	r2, #7
 800c1ac:	e9cd 2424 	strd	r2, r4, [sp, #144]	; 0x90
 800c1b0:	f8ca 1004 	str.w	r1, [sl, #4]
 800c1b4:	f73f acb8 	bgt.w	800bb28 <_svfprintf_r+0x918>
 800c1b8:	f10a 0a08 	add.w	sl, sl, #8
 800c1bc:	e4bf      	b.n	800bb3e <_svfprintf_r+0x92e>
 800c1be:	aa23      	add	r2, sp, #140	; 0x8c
 800c1c0:	e9dd 1008 	ldrd	r1, r0, [sp, #32]
 800c1c4:	f001 fe8c 	bl	800dee0 <__ssprint_r>
 800c1c8:	2800      	cmp	r0, #0
 800c1ca:	f47f a8ee 	bne.w	800b3aa <_svfprintf_r+0x19a>
 800c1ce:	46c2      	mov	sl, r8
 800c1d0:	e429      	b.n	800ba26 <_svfprintf_r+0x816>
 800c1d2:	4614      	mov	r4, r2
 800c1d4:	461e      	mov	r6, r3
 800c1d6:	f8cd a014 	str.w	sl, [sp, #20]
 800c1da:	f105 0901 	add.w	r9, r5, #1
 800c1de:	f103 0208 	add.w	r2, r3, #8
 800c1e2:	9b05      	ldr	r3, [sp, #20]
 800c1e4:	f8cd 9090 	str.w	r9, [sp, #144]	; 0x90
 800c1e8:	441c      	add	r4, r3
 800c1ea:	f1b9 0f07 	cmp.w	r9, #7
 800c1ee:	9425      	str	r4, [sp, #148]	; 0x94
 800c1f0:	e9c6 7300 	strd	r7, r3, [r6]
 800c1f4:	f73f af4c 	bgt.w	800c090 <_svfprintf_r+0xe80>
 800c1f8:	f109 0901 	add.w	r9, r9, #1
 800c1fc:	f102 0a08 	add.w	sl, r2, #8
 800c200:	4616      	mov	r6, r2
 800c202:	e510      	b.n	800bc26 <_svfprintf_r+0xa16>
 800c204:	461c      	mov	r4, r3
 800c206:	3201      	adds	r2, #1
 800c208:	442c      	add	r4, r5
 800c20a:	2a07      	cmp	r2, #7
 800c20c:	e9cd 2424 	strd	r2, r4, [sp, #144]	; 0x90
 800c210:	e9ca 7500 	strd	r7, r5, [sl]
 800c214:	f300 8127 	bgt.w	800c466 <_svfprintf_r+0x1256>
 800c218:	f10a 0a08 	add.w	sl, sl, #8
 800c21c:	e57f      	b.n	800bd1e <_svfprintf_r+0xb0e>
 800c21e:	980d      	ldr	r0, [sp, #52]	; 0x34
 800c220:	9405      	str	r4, [sp, #20]
 800c222:	f7f4 fe95 	bl	8000f50 <strlen>
 800c226:	9703      	str	r7, [sp, #12]
 800c228:	e9cd 050a 	strd	r0, r5, [sp, #40]	; 0x28
 800c22c:	4603      	mov	r3, r0
 800c22e:	f7ff b950 	b.w	800b4d2 <_svfprintf_r+0x2c2>
 800c232:	9a03      	ldr	r2, [sp, #12]
 800c234:	07d5      	lsls	r5, r2, #31
 800c236:	f57f aa99 	bpl.w	800b76c <_svfprintf_r+0x55c>
 800c23a:	e485      	b.n	800bb48 <_svfprintf_r+0x938>
 800c23c:	2b00      	cmp	r3, #0
 800c23e:	bf08      	it	eq
 800c240:	2301      	moveq	r3, #1
 800c242:	9305      	str	r3, [sp, #20]
 800c244:	e68f      	b.n	800bf66 <_svfprintf_r+0xd56>
 800c246:	9b05      	ldr	r3, [sp, #20]
 800c248:	9809      	ldr	r0, [sp, #36]	; 0x24
 800c24a:	1c5d      	adds	r5, r3, #1
 800c24c:	a921      	add	r1, sp, #132	; 0x84
 800c24e:	ab1e      	add	r3, sp, #120	; 0x78
 800c250:	e9cd 3100 	strd	r3, r1, [sp]
 800c254:	462a      	mov	r2, r5
 800c256:	ab1d      	add	r3, sp, #116	; 0x74
 800c258:	2102      	movs	r1, #2
 800c25a:	ed9d 0b18 	vldr	d0, [sp, #96]	; 0x60
 800c25e:	f000 faa7 	bl	800c7b0 <_dtoa_r>
 800c262:	900d      	str	r0, [sp, #52]	; 0x34
 800c264:	f1b9 0f47 	cmp.w	r9, #71	; 0x47
 800c268:	f040 81c3 	bne.w	800c5f2 <_svfprintf_r+0x13e2>
 800c26c:	07fb      	lsls	r3, r7, #31
 800c26e:	f140 81b9 	bpl.w	800c5e4 <_svfprintf_r+0x13d4>
 800c272:	9b0d      	ldr	r3, [sp, #52]	; 0x34
 800c274:	f1b9 0f46 	cmp.w	r9, #70	; 0x46
 800c278:	eb03 0405 	add.w	r4, r3, r5
 800c27c:	f47f aea2 	bne.w	800bfc4 <_svfprintf_r+0xdb4>
 800c280:	9b0d      	ldr	r3, [sp, #52]	; 0x34
 800c282:	781b      	ldrb	r3, [r3, #0]
 800c284:	2b30      	cmp	r3, #48	; 0x30
 800c286:	f000 815a 	beq.w	800c53e <_svfprintf_r+0x132e>
 800c28a:	9d1d      	ldr	r5, [sp, #116]	; 0x74
 800c28c:	442c      	add	r4, r5
 800c28e:	e699      	b.n	800bfc4 <_svfprintf_r+0xdb4>
 800c290:	9a1d      	ldr	r2, [sp, #116]	; 0x74
 800c292:	9b21      	ldr	r3, [sp, #132]	; 0x84
 800c294:	920e      	str	r2, [sp, #56]	; 0x38
 800c296:	9a0d      	ldr	r2, [sp, #52]	; 0x34
 800c298:	2e47      	cmp	r6, #71	; 0x47
 800c29a:	eba3 0302 	sub.w	r3, r3, r2
 800c29e:	930f      	str	r3, [sp, #60]	; 0x3c
 800c2a0:	d107      	bne.n	800c2b2 <_svfprintf_r+0x10a2>
 800c2a2:	9b0e      	ldr	r3, [sp, #56]	; 0x38
 800c2a4:	1cda      	adds	r2, r3, #3
 800c2a6:	db02      	blt.n	800c2ae <_svfprintf_r+0x109e>
 800c2a8:	9a05      	ldr	r2, [sp, #20]
 800c2aa:	429a      	cmp	r2, r3
 800c2ac:	da33      	bge.n	800c316 <_svfprintf_r+0x1106>
 800c2ae:	f1a9 0902 	sub.w	r9, r9, #2
 800c2b2:	9b0e      	ldr	r3, [sp, #56]	; 0x38
 800c2b4:	f88d 907c 	strb.w	r9, [sp, #124]	; 0x7c
 800c2b8:	3b01      	subs	r3, #1
 800c2ba:	2b00      	cmp	r3, #0
 800c2bc:	931d      	str	r3, [sp, #116]	; 0x74
 800c2be:	bfbd      	ittte	lt
 800c2c0:	9b0e      	ldrlt	r3, [sp, #56]	; 0x38
 800c2c2:	f1c3 0301 	rsblt	r3, r3, #1
 800c2c6:	222d      	movlt	r2, #45	; 0x2d
 800c2c8:	222b      	movge	r2, #43	; 0x2b
 800c2ca:	2b09      	cmp	r3, #9
 800c2cc:	f88d 207d 	strb.w	r2, [sp, #125]	; 0x7d
 800c2d0:	f300 8101 	bgt.w	800c4d6 <_svfprintf_r+0x12c6>
 800c2d4:	3330      	adds	r3, #48	; 0x30
 800c2d6:	2230      	movs	r2, #48	; 0x30
 800c2d8:	f88d 307f 	strb.w	r3, [sp, #127]	; 0x7f
 800c2dc:	f88d 207e 	strb.w	r2, [sp, #126]	; 0x7e
 800c2e0:	ab20      	add	r3, sp, #128	; 0x80
 800c2e2:	aa1f      	add	r2, sp, #124	; 0x7c
 800c2e4:	1a9b      	subs	r3, r3, r2
 800c2e6:	9a0f      	ldr	r2, [sp, #60]	; 0x3c
 800c2e8:	9315      	str	r3, [sp, #84]	; 0x54
 800c2ea:	2a01      	cmp	r2, #1
 800c2ec:	4413      	add	r3, r2
 800c2ee:	930a      	str	r3, [sp, #40]	; 0x28
 800c2f0:	f340 8149 	ble.w	800c586 <_svfprintf_r+0x1376>
 800c2f4:	9b0a      	ldr	r3, [sp, #40]	; 0x28
 800c2f6:	9a13      	ldr	r2, [sp, #76]	; 0x4c
 800c2f8:	4413      	add	r3, r2
 800c2fa:	930a      	str	r3, [sp, #40]	; 0x28
 800c2fc:	ea23 73e3 	bic.w	r3, r3, r3, asr #31
 800c300:	9304      	str	r3, [sp, #16]
 800c302:	2300      	movs	r3, #0
 800c304:	930e      	str	r3, [sp, #56]	; 0x38
 800c306:	e681      	b.n	800c00c <_svfprintf_r+0xdfc>
 800c308:	262d      	movs	r6, #45	; 0x2d
 800c30a:	2300      	movs	r3, #0
 800c30c:	f88d 606f 	strb.w	r6, [sp, #111]	; 0x6f
 800c310:	9305      	str	r3, [sp, #20]
 800c312:	f7ff b8e7 	b.w	800b4e4 <_svfprintf_r+0x2d4>
 800c316:	e9dd 310e 	ldrd	r3, r1, [sp, #56]	; 0x38
 800c31a:	428b      	cmp	r3, r1
 800c31c:	f2c0 8080 	blt.w	800c420 <_svfprintf_r+0x1210>
 800c320:	07f8      	lsls	r0, r7, #31
 800c322:	f140 8105 	bpl.w	800c530 <_svfprintf_r+0x1320>
 800c326:	9b0e      	ldr	r3, [sp, #56]	; 0x38
 800c328:	9a13      	ldr	r2, [sp, #76]	; 0x4c
 800c32a:	4413      	add	r3, r2
 800c32c:	930a      	str	r3, [sp, #40]	; 0x28
 800c32e:	ea23 73e3 	bic.w	r3, r3, r3, asr #31
 800c332:	9304      	str	r3, [sp, #16]
 800c334:	f04f 0967 	mov.w	r9, #103	; 0x67
 800c338:	e668      	b.n	800c00c <_svfprintf_r+0xdfc>
 800c33a:	aa23      	add	r2, sp, #140	; 0x8c
 800c33c:	e9dd 1008 	ldrd	r1, r0, [sp, #32]
 800c340:	f001 fdce 	bl	800dee0 <__ssprint_r>
 800c344:	2800      	cmp	r0, #0
 800c346:	f47f a830 	bne.w	800b3aa <_svfprintf_r+0x19a>
 800c34a:	9c25      	ldr	r4, [sp, #148]	; 0x94
 800c34c:	46c2      	mov	sl, r8
 800c34e:	e4de      	b.n	800bd0e <_svfprintf_r+0xafe>
 800c350:	262d      	movs	r6, #45	; 0x2d
 800c352:	f88d 606f 	strb.w	r6, [sp, #111]	; 0x6f
 800c356:	f7ff bad8 	b.w	800b90a <_svfprintf_r+0x6fa>
 800c35a:	aa23      	add	r2, sp, #140	; 0x8c
 800c35c:	e9dd 1008 	ldrd	r1, r0, [sp, #32]
 800c360:	f001 fdbe 	bl	800dee0 <__ssprint_r>
 800c364:	2800      	cmp	r0, #0
 800c366:	f47f a820 	bne.w	800b3aa <_svfprintf_r+0x19a>
 800c36a:	9b1d      	ldr	r3, [sp, #116]	; 0x74
 800c36c:	9c25      	ldr	r4, [sp, #148]	; 0x94
 800c36e:	46c2      	mov	sl, r8
 800c370:	e4de      	b.n	800bd30 <_svfprintf_r+0xb20>
 800c372:	9b21      	ldr	r3, [sp, #132]	; 0x84
 800c374:	42a3      	cmp	r3, r4
 800c376:	f4bf ae2f 	bcs.w	800bfd8 <_svfprintf_r+0xdc8>
 800c37a:	2130      	movs	r1, #48	; 0x30
 800c37c:	1c5a      	adds	r2, r3, #1
 800c37e:	9221      	str	r2, [sp, #132]	; 0x84
 800c380:	7019      	strb	r1, [r3, #0]
 800c382:	9b21      	ldr	r3, [sp, #132]	; 0x84
 800c384:	429c      	cmp	r4, r3
 800c386:	d8f9      	bhi.n	800c37c <_svfprintf_r+0x116c>
 800c388:	e626      	b.n	800bfd8 <_svfprintf_r+0xdc8>
 800c38a:	e9dd 1210 	ldrd	r1, r2, [sp, #64]	; 0x40
 800c38e:	f102 4300 	add.w	r3, r2, #2147483648	; 0x80000000
 800c392:	9319      	str	r3, [sp, #100]	; 0x64
 800c394:	232d      	movs	r3, #45	; 0x2d
 800c396:	9118      	str	r1, [sp, #96]	; 0x60
 800c398:	930c      	str	r3, [sp, #48]	; 0x30
 800c39a:	e5f1      	b.n	800bf80 <_svfprintf_r+0xd70>
 800c39c:	2300      	movs	r3, #0
 800c39e:	9305      	str	r3, [sp, #20]
 800c3a0:	f7fe bf94 	b.w	800b2cc <_svfprintf_r+0xbc>
 800c3a4:	aa23      	add	r2, sp, #140	; 0x8c
 800c3a6:	e9dd 1008 	ldrd	r1, r0, [sp, #32]
 800c3aa:	f001 fd99 	bl	800dee0 <__ssprint_r>
 800c3ae:	2800      	cmp	r0, #0
 800c3b0:	f47e affb 	bne.w	800b3aa <_svfprintf_r+0x19a>
 800c3b4:	9b1d      	ldr	r3, [sp, #116]	; 0x74
 800c3b6:	9a0f      	ldr	r2, [sp, #60]	; 0x3c
 800c3b8:	9c25      	ldr	r4, [sp, #148]	; 0x94
 800c3ba:	1ad3      	subs	r3, r2, r3
 800c3bc:	46c2      	mov	sl, r8
 800c3be:	e4d0      	b.n	800bd62 <_svfprintf_r+0xb52>
 800c3c0:	0800f208 	.word	0x0800f208
 800c3c4:	0800e894 	.word	0x0800e894
 800c3c8:	9d05      	ldr	r5, [sp, #20]
 800c3ca:	9809      	ldr	r0, [sp, #36]	; 0x24
 800c3cc:	aa21      	add	r2, sp, #132	; 0x84
 800c3ce:	ab1e      	add	r3, sp, #120	; 0x78
 800c3d0:	e9cd 3200 	strd	r3, r2, [sp]
 800c3d4:	2103      	movs	r1, #3
 800c3d6:	ab1d      	add	r3, sp, #116	; 0x74
 800c3d8:	462a      	mov	r2, r5
 800c3da:	ed9d 0b18 	vldr	d0, [sp, #96]	; 0x60
 800c3de:	f000 f9e7 	bl	800c7b0 <_dtoa_r>
 800c3e2:	900d      	str	r0, [sp, #52]	; 0x34
 800c3e4:	1944      	adds	r4, r0, r5
 800c3e6:	e74b      	b.n	800c280 <_svfprintf_r+0x1070>
 800c3e8:	2306      	movs	r3, #6
 800c3ea:	9305      	str	r3, [sp, #20]
 800c3ec:	e5bb      	b.n	800bf66 <_svfprintf_r+0xd56>
 800c3ee:	9b05      	ldr	r3, [sp, #20]
 800c3f0:	9304      	str	r3, [sp, #16]
 800c3f2:	930a      	str	r3, [sp, #40]	; 0x28
 800c3f4:	9005      	str	r0, [sp, #20]
 800c3f6:	950b      	str	r5, [sp, #44]	; 0x2c
 800c3f8:	9703      	str	r7, [sp, #12]
 800c3fa:	900e      	str	r0, [sp, #56]	; 0x38
 800c3fc:	f89d 606f 	ldrb.w	r6, [sp, #111]	; 0x6f
 800c400:	f7ff b86d 	b.w	800b4de <_svfprintf_r+0x2ce>
 800c404:	aa23      	add	r2, sp, #140	; 0x8c
 800c406:	e9dd 1008 	ldrd	r1, r0, [sp, #32]
 800c40a:	f001 fd69 	bl	800dee0 <__ssprint_r>
 800c40e:	2800      	cmp	r0, #0
 800c410:	f47e afcb 	bne.w	800b3aa <_svfprintf_r+0x19a>
 800c414:	9b1d      	ldr	r3, [sp, #116]	; 0x74
 800c416:	e9dd 2424 	ldrd	r2, r4, [sp, #144]	; 0x90
 800c41a:	46c2      	mov	sl, r8
 800c41c:	f7ff bba4 	b.w	800bb68 <_svfprintf_r+0x958>
 800c420:	9a13      	ldr	r2, [sp, #76]	; 0x4c
 800c422:	9b0f      	ldr	r3, [sp, #60]	; 0x3c
 800c424:	4413      	add	r3, r2
 800c426:	9a0e      	ldr	r2, [sp, #56]	; 0x38
 800c428:	930a      	str	r3, [sp, #40]	; 0x28
 800c42a:	2a00      	cmp	r2, #0
 800c42c:	dc06      	bgt.n	800c43c <_svfprintf_r+0x122c>
 800c42e:	9b0e      	ldr	r3, [sp, #56]	; 0x38
 800c430:	9a0a      	ldr	r2, [sp, #40]	; 0x28
 800c432:	f1c3 0301 	rsb	r3, r3, #1
 800c436:	441a      	add	r2, r3
 800c438:	4613      	mov	r3, r2
 800c43a:	920a      	str	r2, [sp, #40]	; 0x28
 800c43c:	ea23 73e3 	bic.w	r3, r3, r3, asr #31
 800c440:	9304      	str	r3, [sp, #16]
 800c442:	f04f 0967 	mov.w	r9, #103	; 0x67
 800c446:	e5e1      	b.n	800c00c <_svfprintf_r+0xdfc>
 800c448:	9d05      	ldr	r5, [sp, #20]
 800c44a:	9809      	ldr	r0, [sp, #36]	; 0x24
 800c44c:	aa21      	add	r2, sp, #132	; 0x84
 800c44e:	ab1e      	add	r3, sp, #120	; 0x78
 800c450:	e9cd 3200 	strd	r3, r2, [sp]
 800c454:	2103      	movs	r1, #3
 800c456:	ab1d      	add	r3, sp, #116	; 0x74
 800c458:	462a      	mov	r2, r5
 800c45a:	ed9d 0b18 	vldr	d0, [sp, #96]	; 0x60
 800c45e:	f000 f9a7 	bl	800c7b0 <_dtoa_r>
 800c462:	900d      	str	r0, [sp, #52]	; 0x34
 800c464:	e705      	b.n	800c272 <_svfprintf_r+0x1062>
 800c466:	aa23      	add	r2, sp, #140	; 0x8c
 800c468:	e9dd 1008 	ldrd	r1, r0, [sp, #32]
 800c46c:	f001 fd38 	bl	800dee0 <__ssprint_r>
 800c470:	2800      	cmp	r0, #0
 800c472:	f47e af9a 	bne.w	800b3aa <_svfprintf_r+0x19a>
 800c476:	9c25      	ldr	r4, [sp, #148]	; 0x94
 800c478:	46c2      	mov	sl, r8
 800c47a:	e450      	b.n	800bd1e <_svfprintf_r+0xb0e>
 800c47c:	425d      	negs	r5, r3
 800c47e:	3310      	adds	r3, #16
 800c480:	4f72      	ldr	r7, [pc, #456]	; (800c64c <_svfprintf_r+0x143c>)
 800c482:	da1c      	bge.n	800c4be <_svfprintf_r+0x12ae>
 800c484:	2610      	movs	r6, #16
 800c486:	f8dd 9024 	ldr.w	r9, [sp, #36]	; 0x24
 800c48a:	e004      	b.n	800c496 <_svfprintf_r+0x1286>
 800c48c:	f10a 0a08 	add.w	sl, sl, #8
 800c490:	3d10      	subs	r5, #16
 800c492:	2d10      	cmp	r5, #16
 800c494:	dd13      	ble.n	800c4be <_svfprintf_r+0x12ae>
 800c496:	3201      	adds	r2, #1
 800c498:	3410      	adds	r4, #16
 800c49a:	2a07      	cmp	r2, #7
 800c49c:	e9cd 2424 	strd	r2, r4, [sp, #144]	; 0x90
 800c4a0:	e9ca 7600 	strd	r7, r6, [sl]
 800c4a4:	ddf2      	ble.n	800c48c <_svfprintf_r+0x127c>
 800c4a6:	aa23      	add	r2, sp, #140	; 0x8c
 800c4a8:	9908      	ldr	r1, [sp, #32]
 800c4aa:	4648      	mov	r0, r9
 800c4ac:	f001 fd18 	bl	800dee0 <__ssprint_r>
 800c4b0:	2800      	cmp	r0, #0
 800c4b2:	f47e af7a 	bne.w	800b3aa <_svfprintf_r+0x19a>
 800c4b6:	e9dd 2424 	ldrd	r2, r4, [sp, #144]	; 0x90
 800c4ba:	46c2      	mov	sl, r8
 800c4bc:	e7e8      	b.n	800c490 <_svfprintf_r+0x1280>
 800c4be:	3201      	adds	r2, #1
 800c4c0:	442c      	add	r4, r5
 800c4c2:	2a07      	cmp	r2, #7
 800c4c4:	e9cd 2424 	strd	r2, r4, [sp, #144]	; 0x90
 800c4c8:	e9ca 7500 	strd	r7, r5, [sl]
 800c4cc:	dc7d      	bgt.n	800c5ca <_svfprintf_r+0x13ba>
 800c4ce:	f10a 0a08 	add.w	sl, sl, #8
 800c4d2:	f7ff bb4c 	b.w	800bb6e <_svfprintf_r+0x95e>
 800c4d6:	f10d 048b 	add.w	r4, sp, #139	; 0x8b
 800c4da:	4620      	mov	r0, r4
 800c4dc:	4d5c      	ldr	r5, [pc, #368]	; (800c650 <_svfprintf_r+0x1440>)
 800c4de:	e000      	b.n	800c4e2 <_svfprintf_r+0x12d2>
 800c4e0:	4610      	mov	r0, r2
 800c4e2:	fba5 1203 	umull	r1, r2, r5, r3
 800c4e6:	08d2      	lsrs	r2, r2, #3
 800c4e8:	eb02 0182 	add.w	r1, r2, r2, lsl #2
 800c4ec:	eba3 0341 	sub.w	r3, r3, r1, lsl #1
 800c4f0:	f103 0130 	add.w	r1, r3, #48	; 0x30
 800c4f4:	4613      	mov	r3, r2
 800c4f6:	2b09      	cmp	r3, #9
 800c4f8:	f800 1c01 	strb.w	r1, [r0, #-1]
 800c4fc:	f100 32ff 	add.w	r2, r0, #4294967295
 800c500:	dcee      	bgt.n	800c4e0 <_svfprintf_r+0x12d0>
 800c502:	3330      	adds	r3, #48	; 0x30
 800c504:	3802      	subs	r0, #2
 800c506:	b2d9      	uxtb	r1, r3
 800c508:	4284      	cmp	r4, r0
 800c50a:	f802 1c01 	strb.w	r1, [r2, #-1]
 800c50e:	d973      	bls.n	800c5f8 <_svfprintf_r+0x13e8>
 800c510:	f10d 007e 	add.w	r0, sp, #126	; 0x7e
 800c514:	4613      	mov	r3, r2
 800c516:	e001      	b.n	800c51c <_svfprintf_r+0x130c>
 800c518:	f813 1b01 	ldrb.w	r1, [r3], #1
 800c51c:	f800 1b01 	strb.w	r1, [r0], #1
 800c520:	429c      	cmp	r4, r3
 800c522:	d1f9      	bne.n	800c518 <_svfprintf_r+0x1308>
 800c524:	ab23      	add	r3, sp, #140	; 0x8c
 800c526:	1a9b      	subs	r3, r3, r2
 800c528:	f10d 027e 	add.w	r2, sp, #126	; 0x7e
 800c52c:	4413      	add	r3, r2
 800c52e:	e6d8      	b.n	800c2e2 <_svfprintf_r+0x10d2>
 800c530:	ea23 72e3 	bic.w	r2, r3, r3, asr #31
 800c534:	9204      	str	r2, [sp, #16]
 800c536:	930a      	str	r3, [sp, #40]	; 0x28
 800c538:	f04f 0967 	mov.w	r9, #103	; 0x67
 800c53c:	e566      	b.n	800c00c <_svfprintf_r+0xdfc>
 800c53e:	2200      	movs	r2, #0
 800c540:	2300      	movs	r3, #0
 800c542:	e9dd 0118 	ldrd	r0, r1, [sp, #96]	; 0x60
 800c546:	f7f4 fe19 	bl	800117c <__aeabi_dcmpeq>
 800c54a:	2800      	cmp	r0, #0
 800c54c:	f47f ae9d 	bne.w	800c28a <_svfprintf_r+0x107a>
 800c550:	f1c5 0501 	rsb	r5, r5, #1
 800c554:	951d      	str	r5, [sp, #116]	; 0x74
 800c556:	442c      	add	r4, r5
 800c558:	e534      	b.n	800bfc4 <_svfprintf_r+0xdb4>
 800c55a:	9b11      	ldr	r3, [sp, #68]	; 0x44
 800c55c:	4a3d      	ldr	r2, [pc, #244]	; (800c654 <_svfprintf_r+0x1444>)
 800c55e:	2b00      	cmp	r3, #0
 800c560:	bfb6      	itet	lt
 800c562:	262d      	movlt	r6, #45	; 0x2d
 800c564:	f89d 606f 	ldrbge.w	r6, [sp, #111]	; 0x6f
 800c568:	f88d 606f 	strblt.w	r6, [sp, #111]	; 0x6f
 800c56c:	4b3a      	ldr	r3, [pc, #232]	; (800c658 <_svfprintf_r+0x1448>)
 800c56e:	f7ff b9ce 	b.w	800b90e <_svfprintf_r+0x6fe>
 800c572:	9b0e      	ldr	r3, [sp, #56]	; 0x38
 800c574:	9a13      	ldr	r2, [sp, #76]	; 0x4c
 800c576:	4413      	add	r3, r2
 800c578:	9a05      	ldr	r2, [sp, #20]
 800c57a:	441a      	add	r2, r3
 800c57c:	ea22 73e2 	bic.w	r3, r2, r2, asr #31
 800c580:	920a      	str	r2, [sp, #40]	; 0x28
 800c582:	9304      	str	r3, [sp, #16]
 800c584:	e542      	b.n	800c00c <_svfprintf_r+0xdfc>
 800c586:	f017 0301 	ands.w	r3, r7, #1
 800c58a:	930e      	str	r3, [sp, #56]	; 0x38
 800c58c:	f47f aeb2 	bne.w	800c2f4 <_svfprintf_r+0x10e4>
 800c590:	9b0a      	ldr	r3, [sp, #40]	; 0x28
 800c592:	ea23 73e3 	bic.w	r3, r3, r3, asr #31
 800c596:	9304      	str	r3, [sp, #16]
 800c598:	e538      	b.n	800c00c <_svfprintf_r+0xdfc>
 800c59a:	b93b      	cbnz	r3, 800c5ac <_svfprintf_r+0x139c>
 800c59c:	07fc      	lsls	r4, r7, #31
 800c59e:	d405      	bmi.n	800c5ac <_svfprintf_r+0x139c>
 800c5a0:	2301      	movs	r3, #1
 800c5a2:	9304      	str	r3, [sp, #16]
 800c5a4:	930a      	str	r3, [sp, #40]	; 0x28
 800c5a6:	e531      	b.n	800c00c <_svfprintf_r+0xdfc>
 800c5a8:	4652      	mov	r2, sl
 800c5aa:	e61a      	b.n	800c1e2 <_svfprintf_r+0xfd2>
 800c5ac:	9b13      	ldr	r3, [sp, #76]	; 0x4c
 800c5ae:	3301      	adds	r3, #1
 800c5b0:	e7e2      	b.n	800c578 <_svfprintf_r+0x1368>
 800c5b2:	9d0b      	ldr	r5, [sp, #44]	; 0x2c
 800c5b4:	f89b 3001 	ldrb.w	r3, [fp, #1]
 800c5b8:	682c      	ldr	r4, [r5, #0]
 800c5ba:	4683      	mov	fp, r0
 800c5bc:	ea44 74e4 	orr.w	r4, r4, r4, asr #31
 800c5c0:	1d28      	adds	r0, r5, #4
 800c5c2:	9405      	str	r4, [sp, #20]
 800c5c4:	900b      	str	r0, [sp, #44]	; 0x2c
 800c5c6:	f7fe be7e 	b.w	800b2c6 <_svfprintf_r+0xb6>
 800c5ca:	aa23      	add	r2, sp, #140	; 0x8c
 800c5cc:	e9dd 1008 	ldrd	r1, r0, [sp, #32]
 800c5d0:	f001 fc86 	bl	800dee0 <__ssprint_r>
 800c5d4:	2800      	cmp	r0, #0
 800c5d6:	f47e aee8 	bne.w	800b3aa <_svfprintf_r+0x19a>
 800c5da:	e9dd 2424 	ldrd	r2, r4, [sp, #144]	; 0x90
 800c5de:	46c2      	mov	sl, r8
 800c5e0:	f7ff bac5 	b.w	800bb6e <_svfprintf_r+0x95e>
 800c5e4:	9a1d      	ldr	r2, [sp, #116]	; 0x74
 800c5e6:	9b21      	ldr	r3, [sp, #132]	; 0x84
 800c5e8:	920e      	str	r2, [sp, #56]	; 0x38
 800c5ea:	9a0d      	ldr	r2, [sp, #52]	; 0x34
 800c5ec:	1a9b      	subs	r3, r3, r2
 800c5ee:	930f      	str	r3, [sp, #60]	; 0x3c
 800c5f0:	e657      	b.n	800c2a2 <_svfprintf_r+0x1092>
 800c5f2:	9b0d      	ldr	r3, [sp, #52]	; 0x34
 800c5f4:	195c      	adds	r4, r3, r5
 800c5f6:	e4e5      	b.n	800bfc4 <_svfprintf_r+0xdb4>
 800c5f8:	f10d 037e 	add.w	r3, sp, #126	; 0x7e
 800c5fc:	e671      	b.n	800c2e2 <_svfprintf_r+0x10d2>
 800c5fe:	f88d 106f 	strb.w	r1, [sp, #111]	; 0x6f
 800c602:	f7fe bf9c 	b.w	800b53e <_svfprintf_r+0x32e>
 800c606:	9a09      	ldr	r2, [sp, #36]	; 0x24
 800c608:	230c      	movs	r3, #12
 800c60a:	6013      	str	r3, [r2, #0]
 800c60c:	f04f 33ff 	mov.w	r3, #4294967295
 800c610:	9306      	str	r3, [sp, #24]
 800c612:	f7fe bed3 	b.w	800b3bc <_svfprintf_r+0x1ac>
 800c616:	9d05      	ldr	r5, [sp, #20]
 800c618:	e624      	b.n	800c264 <_svfprintf_r+0x1054>
 800c61a:	f88d 106f 	strb.w	r1, [sp, #111]	; 0x6f
 800c61e:	f7ff b8ec 	b.w	800b7fa <_svfprintf_r+0x5ea>
 800c622:	f88d 106f 	strb.w	r1, [sp, #111]	; 0x6f
 800c626:	f7ff b93f 	b.w	800b8a8 <_svfprintf_r+0x698>
 800c62a:	f88d 106f 	strb.w	r1, [sp, #111]	; 0x6f
 800c62e:	f7ff b98e 	b.w	800b94e <_svfprintf_r+0x73e>
 800c632:	f88d 106f 	strb.w	r1, [sp, #111]	; 0x6f
 800c636:	f7ff b9c6 	b.w	800b9c6 <_svfprintf_r+0x7b6>
 800c63a:	f88d 106f 	strb.w	r1, [sp, #111]	; 0x6f
 800c63e:	f7fe bf58 	b.w	800b4f2 <_svfprintf_r+0x2e2>
 800c642:	f88d 106f 	strb.w	r1, [sp, #111]	; 0x6f
 800c646:	f7ff b916 	b.w	800b876 <_svfprintf_r+0x666>
 800c64a:	bf00      	nop
 800c64c:	0800f220 	.word	0x0800f220
 800c650:	cccccccd 	.word	0xcccccccd
 800c654:	0800f1dc 	.word	0x0800f1dc
 800c658:	0800f1d8 	.word	0x0800f1d8
 800c65c:	00000000 	.word	0x00000000

0800c660 <__ascii_wctomb>:
 800c660:	b121      	cbz	r1, 800c66c <__ascii_wctomb+0xc>
 800c662:	2aff      	cmp	r2, #255	; 0xff
 800c664:	d804      	bhi.n	800c670 <__ascii_wctomb+0x10>
 800c666:	700a      	strb	r2, [r1, #0]
 800c668:	2001      	movs	r0, #1
 800c66a:	4770      	bx	lr
 800c66c:	4608      	mov	r0, r1
 800c66e:	4770      	bx	lr
 800c670:	238a      	movs	r3, #138	; 0x8a
 800c672:	6003      	str	r3, [r0, #0]
 800c674:	f04f 30ff 	mov.w	r0, #4294967295
 800c678:	4770      	bx	lr
 800c67a:	bf00      	nop
 800c67c:	0000      	movs	r0, r0
	...

0800c680 <quorem>:
 800c680:	e92d 4ff0 	stmdb	sp!, {r4, r5, r6, r7, r8, r9, sl, fp, lr}
 800c684:	6903      	ldr	r3, [r0, #16]
 800c686:	690f      	ldr	r7, [r1, #16]
 800c688:	42bb      	cmp	r3, r7
 800c68a:	b083      	sub	sp, #12
 800c68c:	f2c0 8086 	blt.w	800c79c <quorem+0x11c>
 800c690:	3f01      	subs	r7, #1
 800c692:	f101 0914 	add.w	r9, r1, #20
 800c696:	f100 0a14 	add.w	sl, r0, #20
 800c69a:	f859 2027 	ldr.w	r2, [r9, r7, lsl #2]
 800c69e:	f85a 3027 	ldr.w	r3, [sl, r7, lsl #2]
 800c6a2:	00bc      	lsls	r4, r7, #2
 800c6a4:	3201      	adds	r2, #1
 800c6a6:	fbb3 f8f2 	udiv	r8, r3, r2
 800c6aa:	eb0a 0304 	add.w	r3, sl, r4
 800c6ae:	9400      	str	r4, [sp, #0]
 800c6b0:	eb09 0b04 	add.w	fp, r9, r4
 800c6b4:	9301      	str	r3, [sp, #4]
 800c6b6:	f1b8 0f00 	cmp.w	r8, #0
 800c6ba:	d038      	beq.n	800c72e <quorem+0xae>
 800c6bc:	2500      	movs	r5, #0
 800c6be:	462e      	mov	r6, r5
 800c6c0:	46ce      	mov	lr, r9
 800c6c2:	46d4      	mov	ip, sl
 800c6c4:	f85e 4b04 	ldr.w	r4, [lr], #4
 800c6c8:	f8dc 3000 	ldr.w	r3, [ip]
 800c6cc:	b2a2      	uxth	r2, r4
 800c6ce:	fb08 5502 	mla	r5, r8, r2, r5
 800c6d2:	0c22      	lsrs	r2, r4, #16
 800c6d4:	0c2c      	lsrs	r4, r5, #16
 800c6d6:	fb08 4202 	mla	r2, r8, r2, r4
 800c6da:	b2ad      	uxth	r5, r5
 800c6dc:	1b75      	subs	r5, r6, r5
 800c6de:	b296      	uxth	r6, r2
 800c6e0:	ebc6 4613 	rsb	r6, r6, r3, lsr #16
 800c6e4:	fa15 f383 	uxtah	r3, r5, r3
 800c6e8:	eb06 4623 	add.w	r6, r6, r3, asr #16
 800c6ec:	b29b      	uxth	r3, r3
 800c6ee:	ea43 4306 	orr.w	r3, r3, r6, lsl #16
 800c6f2:	45f3      	cmp	fp, lr
 800c6f4:	ea4f 4512 	mov.w	r5, r2, lsr #16
 800c6f8:	f84c 3b04 	str.w	r3, [ip], #4
 800c6fc:	ea4f 4626 	mov.w	r6, r6, asr #16
 800c700:	d2e0      	bcs.n	800c6c4 <quorem+0x44>
 800c702:	9b00      	ldr	r3, [sp, #0]
 800c704:	f85a 3003 	ldr.w	r3, [sl, r3]
 800c708:	b98b      	cbnz	r3, 800c72e <quorem+0xae>
 800c70a:	9a01      	ldr	r2, [sp, #4]
 800c70c:	1f13      	subs	r3, r2, #4
 800c70e:	459a      	cmp	sl, r3
 800c710:	d20c      	bcs.n	800c72c <quorem+0xac>
 800c712:	f852 3c04 	ldr.w	r3, [r2, #-4]
 800c716:	b94b      	cbnz	r3, 800c72c <quorem+0xac>
 800c718:	f1a2 0308 	sub.w	r3, r2, #8
 800c71c:	e002      	b.n	800c724 <quorem+0xa4>
 800c71e:	681a      	ldr	r2, [r3, #0]
 800c720:	3b04      	subs	r3, #4
 800c722:	b91a      	cbnz	r2, 800c72c <quorem+0xac>
 800c724:	459a      	cmp	sl, r3
 800c726:	f107 37ff 	add.w	r7, r7, #4294967295
 800c72a:	d3f8      	bcc.n	800c71e <quorem+0x9e>
 800c72c:	6107      	str	r7, [r0, #16]
 800c72e:	4604      	mov	r4, r0
 800c730:	f001 fad6 	bl	800dce0 <__mcmp>
 800c734:	2800      	cmp	r0, #0
 800c736:	db2d      	blt.n	800c794 <quorem+0x114>
 800c738:	f108 0801 	add.w	r8, r8, #1
 800c73c:	4655      	mov	r5, sl
 800c73e:	2300      	movs	r3, #0
 800c740:	f859 1b04 	ldr.w	r1, [r9], #4
 800c744:	6828      	ldr	r0, [r5, #0]
 800c746:	b28a      	uxth	r2, r1
 800c748:	1a9a      	subs	r2, r3, r2
 800c74a:	0c0b      	lsrs	r3, r1, #16
 800c74c:	fa12 f280 	uxtah	r2, r2, r0
 800c750:	ebc3 4310 	rsb	r3, r3, r0, lsr #16
 800c754:	eb03 4322 	add.w	r3, r3, r2, asr #16
 800c758:	b292      	uxth	r2, r2
 800c75a:	ea42 4203 	orr.w	r2, r2, r3, lsl #16
 800c75e:	45cb      	cmp	fp, r9
 800c760:	f845 2b04 	str.w	r2, [r5], #4
 800c764:	ea4f 4323 	mov.w	r3, r3, asr #16
 800c768:	d2ea      	bcs.n	800c740 <quorem+0xc0>
 800c76a:	f85a 2027 	ldr.w	r2, [sl, r7, lsl #2]
 800c76e:	eb0a 0387 	add.w	r3, sl, r7, lsl #2
 800c772:	b97a      	cbnz	r2, 800c794 <quorem+0x114>
 800c774:	1f1a      	subs	r2, r3, #4
 800c776:	4592      	cmp	sl, r2
 800c778:	d20b      	bcs.n	800c792 <quorem+0x112>
 800c77a:	f853 2c04 	ldr.w	r2, [r3, #-4]
 800c77e:	b942      	cbnz	r2, 800c792 <quorem+0x112>
 800c780:	3b08      	subs	r3, #8
 800c782:	e002      	b.n	800c78a <quorem+0x10a>
 800c784:	681a      	ldr	r2, [r3, #0]
 800c786:	3b04      	subs	r3, #4
 800c788:	b91a      	cbnz	r2, 800c792 <quorem+0x112>
 800c78a:	459a      	cmp	sl, r3
 800c78c:	f107 37ff 	add.w	r7, r7, #4294967295
 800c790:	d3f8      	bcc.n	800c784 <quorem+0x104>
 800c792:	6127      	str	r7, [r4, #16]
 800c794:	4640      	mov	r0, r8
 800c796:	b003      	add	sp, #12
 800c798:	e8bd 8ff0 	ldmia.w	sp!, {r4, r5, r6, r7, r8, r9, sl, fp, pc}
 800c79c:	2000      	movs	r0, #0
 800c79e:	b003      	add	sp, #12
 800c7a0:	e8bd 8ff0 	ldmia.w	sp!, {r4, r5, r6, r7, r8, r9, sl, fp, pc}
	...

0800c7b0 <_dtoa_r>:
 800c7b0:	e92d 4ff0 	stmdb	sp!, {r4, r5, r6, r7, r8, r9, sl, fp, lr}
 800c7b4:	ec55 4b10 	vmov	r4, r5, d0
 800c7b8:	b09b      	sub	sp, #108	; 0x6c
 800c7ba:	6c06      	ldr	r6, [r0, #64]	; 0x40
 800c7bc:	9102      	str	r1, [sp, #8]
 800c7be:	4681      	mov	r9, r0
 800c7c0:	9207      	str	r2, [sp, #28]
 800c7c2:	9305      	str	r3, [sp, #20]
 800c7c4:	e9cd 4500 	strd	r4, r5, [sp]
 800c7c8:	b156      	cbz	r6, 800c7e0 <_dtoa_r+0x30>
 800c7ca:	6c42      	ldr	r2, [r0, #68]	; 0x44
 800c7cc:	6072      	str	r2, [r6, #4]
 800c7ce:	2301      	movs	r3, #1
 800c7d0:	4093      	lsls	r3, r2
 800c7d2:	60b3      	str	r3, [r6, #8]
 800c7d4:	4631      	mov	r1, r6
 800c7d6:	f001 f883 	bl	800d8e0 <_Bfree>
 800c7da:	2300      	movs	r3, #0
 800c7dc:	f8c9 3040 	str.w	r3, [r9, #64]	; 0x40
 800c7e0:	f1b5 0800 	subs.w	r8, r5, #0
 800c7e4:	9a24      	ldr	r2, [sp, #144]	; 0x90
 800c7e6:	bfb4      	ite	lt
 800c7e8:	2301      	movlt	r3, #1
 800c7ea:	2300      	movge	r3, #0
 800c7ec:	6013      	str	r3, [r2, #0]
 800c7ee:	4b76      	ldr	r3, [pc, #472]	; (800c9c8 <_dtoa_r+0x218>)
 800c7f0:	bfbc      	itt	lt
 800c7f2:	f028 4800 	biclt.w	r8, r8, #2147483648	; 0x80000000
 800c7f6:	f8cd 8004 	strlt.w	r8, [sp, #4]
 800c7fa:	ea33 0308 	bics.w	r3, r3, r8
 800c7fe:	f000 80a6 	beq.w	800c94e <_dtoa_r+0x19e>
 800c802:	e9dd 6700 	ldrd	r6, r7, [sp]
 800c806:	2200      	movs	r2, #0
 800c808:	2300      	movs	r3, #0
 800c80a:	4630      	mov	r0, r6
 800c80c:	4639      	mov	r1, r7
 800c80e:	f7f4 fcb5 	bl	800117c <__aeabi_dcmpeq>
 800c812:	4605      	mov	r5, r0
 800c814:	b178      	cbz	r0, 800c836 <_dtoa_r+0x86>
 800c816:	9a05      	ldr	r2, [sp, #20]
 800c818:	2301      	movs	r3, #1
 800c81a:	6013      	str	r3, [r2, #0]
 800c81c:	9b25      	ldr	r3, [sp, #148]	; 0x94
 800c81e:	2b00      	cmp	r3, #0
 800c820:	f000 80c0 	beq.w	800c9a4 <_dtoa_r+0x1f4>
 800c824:	4b69      	ldr	r3, [pc, #420]	; (800c9cc <_dtoa_r+0x21c>)
 800c826:	9a25      	ldr	r2, [sp, #148]	; 0x94
 800c828:	f103 3bff 	add.w	fp, r3, #4294967295
 800c82c:	6013      	str	r3, [r2, #0]
 800c82e:	4658      	mov	r0, fp
 800c830:	b01b      	add	sp, #108	; 0x6c
 800c832:	e8bd 8ff0 	ldmia.w	sp!, {r4, r5, r6, r7, r8, r9, sl, fp, pc}
 800c836:	aa18      	add	r2, sp, #96	; 0x60
 800c838:	a919      	add	r1, sp, #100	; 0x64
 800c83a:	ec47 6b10 	vmov	d0, r6, r7
 800c83e:	4648      	mov	r0, r9
 800c840:	f001 fae6 	bl	800de10 <__d2b>
 800c844:	ea5f 5418 	movs.w	r4, r8, lsr #20
 800c848:	4682      	mov	sl, r0
 800c84a:	f040 80a0 	bne.w	800c98e <_dtoa_r+0x1de>
 800c84e:	e9dd 5418 	ldrd	r5, r4, [sp, #96]	; 0x60
 800c852:	442c      	add	r4, r5
 800c854:	f204 4332 	addw	r3, r4, #1074	; 0x432
 800c858:	2b20      	cmp	r3, #32
 800c85a:	f340 842e 	ble.w	800d0ba <_dtoa_r+0x90a>
 800c85e:	f1c3 0340 	rsb	r3, r3, #64	; 0x40
 800c862:	fa08 f803 	lsl.w	r8, r8, r3
 800c866:	9b00      	ldr	r3, [sp, #0]
 800c868:	f204 4012 	addw	r0, r4, #1042	; 0x412
 800c86c:	fa23 f000 	lsr.w	r0, r3, r0
 800c870:	ea48 0000 	orr.w	r0, r8, r0
 800c874:	f7f3 fe86 	bl	8000584 <__aeabi_ui2d>
 800c878:	2301      	movs	r3, #1
 800c87a:	4606      	mov	r6, r0
 800c87c:	3c01      	subs	r4, #1
 800c87e:	f1a1 77f8 	sub.w	r7, r1, #32505856	; 0x1f00000
 800c882:	930f      	str	r3, [sp, #60]	; 0x3c
 800c884:	4630      	mov	r0, r6
 800c886:	4639      	mov	r1, r7
 800c888:	2200      	movs	r2, #0
 800c88a:	4b51      	ldr	r3, [pc, #324]	; (800c9d0 <_dtoa_r+0x220>)
 800c88c:	f7f3 fd3c 	bl	8000308 <__aeabi_dsub>
 800c890:	a347      	add	r3, pc, #284	; (adr r3, 800c9b0 <_dtoa_r+0x200>)
 800c892:	e9d3 2300 	ldrd	r2, r3, [r3]
 800c896:	f7f3 fef3 	bl	8000680 <__aeabi_dmul>
 800c89a:	a347      	add	r3, pc, #284	; (adr r3, 800c9b8 <_dtoa_r+0x208>)
 800c89c:	e9d3 2300 	ldrd	r2, r3, [r3]
 800c8a0:	f7f3 fd34 	bl	800030c <__adddf3>
 800c8a4:	4606      	mov	r6, r0
 800c8a6:	4620      	mov	r0, r4
 800c8a8:	460f      	mov	r7, r1
 800c8aa:	f7f3 fe7b 	bl	80005a4 <__aeabi_i2d>
 800c8ae:	a344      	add	r3, pc, #272	; (adr r3, 800c9c0 <_dtoa_r+0x210>)
 800c8b0:	e9d3 2300 	ldrd	r2, r3, [r3]
 800c8b4:	f7f3 fee4 	bl	8000680 <__aeabi_dmul>
 800c8b8:	4602      	mov	r2, r0
 800c8ba:	460b      	mov	r3, r1
 800c8bc:	4630      	mov	r0, r6
 800c8be:	4639      	mov	r1, r7
 800c8c0:	f7f3 fd24 	bl	800030c <__adddf3>
 800c8c4:	4606      	mov	r6, r0
 800c8c6:	460f      	mov	r7, r1
 800c8c8:	f7f4 f8f2 	bl	8000ab0 <__aeabi_d2iz>
 800c8cc:	2200      	movs	r2, #0
 800c8ce:	9006      	str	r0, [sp, #24]
 800c8d0:	2300      	movs	r3, #0
 800c8d2:	4630      	mov	r0, r6
 800c8d4:	4639      	mov	r1, r7
 800c8d6:	f7f4 fc5b 	bl	8001190 <__aeabi_dcmplt>
 800c8da:	2800      	cmp	r0, #0
 800c8dc:	f040 8273 	bne.w	800cdc6 <_dtoa_r+0x616>
 800c8e0:	9e06      	ldr	r6, [sp, #24]
 800c8e2:	2e16      	cmp	r6, #22
 800c8e4:	f200 825d 	bhi.w	800cda2 <_dtoa_r+0x5f2>
 800c8e8:	4b3a      	ldr	r3, [pc, #232]	; (800c9d4 <_dtoa_r+0x224>)
 800c8ea:	eb03 03c6 	add.w	r3, r3, r6, lsl #3
 800c8ee:	e9d3 0100 	ldrd	r0, r1, [r3]
 800c8f2:	e9dd 2300 	ldrd	r2, r3, [sp]
 800c8f6:	f7f4 fc69 	bl	80011cc <__aeabi_dcmpgt>
 800c8fa:	2800      	cmp	r0, #0
 800c8fc:	f000 83d9 	beq.w	800d0b2 <_dtoa_r+0x902>
 800c900:	1e73      	subs	r3, r6, #1
 800c902:	9306      	str	r3, [sp, #24]
 800c904:	2300      	movs	r3, #0
 800c906:	930d      	str	r3, [sp, #52]	; 0x34
 800c908:	1b2c      	subs	r4, r5, r4
 800c90a:	f1b4 0801 	subs.w	r8, r4, #1
 800c90e:	f100 8254 	bmi.w	800cdba <_dtoa_r+0x60a>
 800c912:	2300      	movs	r3, #0
 800c914:	9308      	str	r3, [sp, #32]
 800c916:	9b06      	ldr	r3, [sp, #24]
 800c918:	2b00      	cmp	r3, #0
 800c91a:	f2c0 8245 	blt.w	800cda8 <_dtoa_r+0x5f8>
 800c91e:	4498      	add	r8, r3
 800c920:	930c      	str	r3, [sp, #48]	; 0x30
 800c922:	2300      	movs	r3, #0
 800c924:	930b      	str	r3, [sp, #44]	; 0x2c
 800c926:	9b02      	ldr	r3, [sp, #8]
 800c928:	2b09      	cmp	r3, #9
 800c92a:	d85b      	bhi.n	800c9e4 <_dtoa_r+0x234>
 800c92c:	2b05      	cmp	r3, #5
 800c92e:	f340 83c2 	ble.w	800d0b6 <_dtoa_r+0x906>
 800c932:	3b04      	subs	r3, #4
 800c934:	9302      	str	r3, [sp, #8]
 800c936:	2500      	movs	r5, #0
 800c938:	9b02      	ldr	r3, [sp, #8]
 800c93a:	3b02      	subs	r3, #2
 800c93c:	2b03      	cmp	r3, #3
 800c93e:	f200 849a 	bhi.w	800d276 <_dtoa_r+0xac6>
 800c942:	e8df f013 	tbh	[pc, r3, lsl #1]
 800c946:	03e1      	.short	0x03e1
 800c948:	03ea03c1 	.word	0x03ea03c1
 800c94c:	04f7      	.short	0x04f7
 800c94e:	9a05      	ldr	r2, [sp, #20]
 800c950:	f242 730f 	movw	r3, #9999	; 0x270f
 800c954:	6013      	str	r3, [r2, #0]
 800c956:	9b00      	ldr	r3, [sp, #0]
 800c958:	b983      	cbnz	r3, 800c97c <_dtoa_r+0x1cc>
 800c95a:	f3c8 0313 	ubfx	r3, r8, #0, #20
 800c95e:	b96b      	cbnz	r3, 800c97c <_dtoa_r+0x1cc>
 800c960:	9b25      	ldr	r3, [sp, #148]	; 0x94
 800c962:	f8df b074 	ldr.w	fp, [pc, #116]	; 800c9d8 <_dtoa_r+0x228>
 800c966:	2b00      	cmp	r3, #0
 800c968:	f43f af61 	beq.w	800c82e <_dtoa_r+0x7e>
 800c96c:	f10b 0308 	add.w	r3, fp, #8
 800c970:	9a25      	ldr	r2, [sp, #148]	; 0x94
 800c972:	4658      	mov	r0, fp
 800c974:	6013      	str	r3, [r2, #0]
 800c976:	b01b      	add	sp, #108	; 0x6c
 800c978:	e8bd 8ff0 	ldmia.w	sp!, {r4, r5, r6, r7, r8, r9, sl, fp, pc}
 800c97c:	9b25      	ldr	r3, [sp, #148]	; 0x94
 800c97e:	f8df b05c 	ldr.w	fp, [pc, #92]	; 800c9dc <_dtoa_r+0x22c>
 800c982:	2b00      	cmp	r3, #0
 800c984:	f43f af53 	beq.w	800c82e <_dtoa_r+0x7e>
 800c988:	f10b 0303 	add.w	r3, fp, #3
 800c98c:	e7f0      	b.n	800c970 <_dtoa_r+0x1c0>
 800c98e:	f3c7 0313 	ubfx	r3, r7, #0, #20
 800c992:	f043 577f 	orr.w	r7, r3, #1069547520	; 0x3fc00000
 800c996:	950f      	str	r5, [sp, #60]	; 0x3c
 800c998:	f2a4 34ff 	subw	r4, r4, #1023	; 0x3ff
 800c99c:	f447 1740 	orr.w	r7, r7, #3145728	; 0x300000
 800c9a0:	9d18      	ldr	r5, [sp, #96]	; 0x60
 800c9a2:	e76f      	b.n	800c884 <_dtoa_r+0xd4>
 800c9a4:	f8df b038 	ldr.w	fp, [pc, #56]	; 800c9e0 <_dtoa_r+0x230>
 800c9a8:	4658      	mov	r0, fp
 800c9aa:	b01b      	add	sp, #108	; 0x6c
 800c9ac:	e8bd 8ff0 	ldmia.w	sp!, {r4, r5, r6, r7, r8, r9, sl, fp, pc}
 800c9b0:	636f4361 	.word	0x636f4361
 800c9b4:	3fd287a7 	.word	0x3fd287a7
 800c9b8:	8b60c8b3 	.word	0x8b60c8b3
 800c9bc:	3fc68a28 	.word	0x3fc68a28
 800c9c0:	509f79fb 	.word	0x509f79fb
 800c9c4:	3fd34413 	.word	0x3fd34413
 800c9c8:	7ff00000 	.word	0x7ff00000
 800c9cc:	0800e895 	.word	0x0800e895
 800c9d0:	3ff80000 	.word	0x3ff80000
 800c9d4:	0800f380 	.word	0x0800f380
 800c9d8:	0800f340 	.word	0x0800f340
 800c9dc:	0800f34c 	.word	0x0800f34c
 800c9e0:	0800e894 	.word	0x0800e894
 800c9e4:	f04f 34ff 	mov.w	r4, #4294967295
 800c9e8:	2501      	movs	r5, #1
 800c9ea:	e9cd 4509 	strd	r4, r5, [sp, #36]	; 0x24
 800c9ee:	2300      	movs	r3, #0
 800c9f0:	9302      	str	r3, [sp, #8]
 800c9f2:	9307      	str	r3, [sp, #28]
 800c9f4:	2100      	movs	r1, #0
 800c9f6:	f8c9 1044 	str.w	r1, [r9, #68]	; 0x44
 800c9fa:	940e      	str	r4, [sp, #56]	; 0x38
 800c9fc:	4648      	mov	r0, r9
 800c9fe:	f000 ff47 	bl	800d890 <_Balloc>
 800ca02:	2c0e      	cmp	r4, #14
 800ca04:	4683      	mov	fp, r0
 800ca06:	f8c9 0040 	str.w	r0, [r9, #64]	; 0x40
 800ca0a:	f200 80fb 	bhi.w	800cc04 <_dtoa_r+0x454>
 800ca0e:	2d00      	cmp	r5, #0
 800ca10:	f000 80f8 	beq.w	800cc04 <_dtoa_r+0x454>
 800ca14:	ed9d 7b00 	vldr	d7, [sp]
 800ca18:	9906      	ldr	r1, [sp, #24]
 800ca1a:	2900      	cmp	r1, #0
 800ca1c:	ed8d 7b10 	vstr	d7, [sp, #64]	; 0x40
 800ca20:	f340 83e7 	ble.w	800d1f2 <_dtoa_r+0xa42>
 800ca24:	4b9d      	ldr	r3, [pc, #628]	; (800cc9c <_dtoa_r+0x4ec>)
 800ca26:	f001 020f 	and.w	r2, r1, #15
 800ca2a:	eb03 03c2 	add.w	r3, r3, r2, lsl #3
 800ca2e:	ed93 7b00 	vldr	d7, [r3]
 800ca32:	110c      	asrs	r4, r1, #4
 800ca34:	06e2      	lsls	r2, r4, #27
 800ca36:	ed8d 7b00 	vstr	d7, [sp]
 800ca3a:	f140 84a1 	bpl.w	800d380 <_dtoa_r+0xbd0>
 800ca3e:	4b98      	ldr	r3, [pc, #608]	; (800cca0 <_dtoa_r+0x4f0>)
 800ca40:	e9dd 0110 	ldrd	r0, r1, [sp, #64]	; 0x40
 800ca44:	e9d3 2308 	ldrd	r2, r3, [r3, #32]
 800ca48:	f7f3 ff44 	bl	80008d4 <__aeabi_ddiv>
 800ca4c:	e9cd 0112 	strd	r0, r1, [sp, #72]	; 0x48
 800ca50:	f004 040f 	and.w	r4, r4, #15
 800ca54:	2603      	movs	r6, #3
 800ca56:	b17c      	cbz	r4, 800ca78 <_dtoa_r+0x2c8>
 800ca58:	e9dd 0100 	ldrd	r0, r1, [sp]
 800ca5c:	4d90      	ldr	r5, [pc, #576]	; (800cca0 <_dtoa_r+0x4f0>)
 800ca5e:	07e3      	lsls	r3, r4, #31
 800ca60:	d504      	bpl.n	800ca6c <_dtoa_r+0x2bc>
 800ca62:	e9d5 2300 	ldrd	r2, r3, [r5]
 800ca66:	f7f3 fe0b 	bl	8000680 <__aeabi_dmul>
 800ca6a:	3601      	adds	r6, #1
 800ca6c:	1064      	asrs	r4, r4, #1
 800ca6e:	f105 0508 	add.w	r5, r5, #8
 800ca72:	d1f4      	bne.n	800ca5e <_dtoa_r+0x2ae>
 800ca74:	e9cd 0100 	strd	r0, r1, [sp]
 800ca78:	e9dd 2300 	ldrd	r2, r3, [sp]
 800ca7c:	e9dd 0112 	ldrd	r0, r1, [sp, #72]	; 0x48
 800ca80:	f7f3 ff28 	bl	80008d4 <__aeabi_ddiv>
 800ca84:	e9cd 0100 	strd	r0, r1, [sp]
 800ca88:	9b0d      	ldr	r3, [sp, #52]	; 0x34
 800ca8a:	b143      	cbz	r3, 800ca9e <_dtoa_r+0x2ee>
 800ca8c:	2200      	movs	r2, #0
 800ca8e:	4b85      	ldr	r3, [pc, #532]	; (800cca4 <_dtoa_r+0x4f4>)
 800ca90:	e9dd 0100 	ldrd	r0, r1, [sp]
 800ca94:	f7f4 fb7c 	bl	8001190 <__aeabi_dcmplt>
 800ca98:	2800      	cmp	r0, #0
 800ca9a:	f040 8503 	bne.w	800d4a4 <_dtoa_r+0xcf4>
 800ca9e:	4630      	mov	r0, r6
 800caa0:	f7f3 fd80 	bl	80005a4 <__aeabi_i2d>
 800caa4:	e9dd 2300 	ldrd	r2, r3, [sp]
 800caa8:	f7f3 fdea 	bl	8000680 <__aeabi_dmul>
 800caac:	4b7e      	ldr	r3, [pc, #504]	; (800cca8 <_dtoa_r+0x4f8>)
 800caae:	2200      	movs	r2, #0
 800cab0:	f7f3 fc2c 	bl	800030c <__adddf3>
 800cab4:	9b09      	ldr	r3, [sp, #36]	; 0x24
 800cab6:	4606      	mov	r6, r0
 800cab8:	f1a1 7750 	sub.w	r7, r1, #54525952	; 0x3400000
 800cabc:	2b00      	cmp	r3, #0
 800cabe:	f000 841e 	beq.w	800d2fe <_dtoa_r+0xb4e>
 800cac2:	9b06      	ldr	r3, [sp, #24]
 800cac4:	9316      	str	r3, [sp, #88]	; 0x58
 800cac6:	9b09      	ldr	r3, [sp, #36]	; 0x24
 800cac8:	9312      	str	r3, [sp, #72]	; 0x48
 800caca:	e9dd 0100 	ldrd	r0, r1, [sp]
 800cace:	f7f3 ffef 	bl	8000ab0 <__aeabi_d2iz>
 800cad2:	9a12      	ldr	r2, [sp, #72]	; 0x48
 800cad4:	4b71      	ldr	r3, [pc, #452]	; (800cc9c <_dtoa_r+0x4ec>)
 800cad6:	eb03 03c2 	add.w	r3, r3, r2, lsl #3
 800cada:	ed13 7b02 	vldr	d7, [r3, #-8]
 800cade:	f100 0530 	add.w	r5, r0, #48	; 0x30
 800cae2:	ed8d 7b14 	vstr	d7, [sp, #80]	; 0x50
 800cae6:	f7f3 fd5d 	bl	80005a4 <__aeabi_i2d>
 800caea:	460b      	mov	r3, r1
 800caec:	4602      	mov	r2, r0
 800caee:	e9dd 0100 	ldrd	r0, r1, [sp]
 800caf2:	e9cd 6700 	strd	r6, r7, [sp]
 800caf6:	f7f3 fc07 	bl	8000308 <__aeabi_dsub>
 800cafa:	9b0a      	ldr	r3, [sp, #40]	; 0x28
 800cafc:	b2ed      	uxtb	r5, r5
 800cafe:	4606      	mov	r6, r0
 800cb00:	460f      	mov	r7, r1
 800cb02:	f10b 0401 	add.w	r4, fp, #1
 800cb06:	2b00      	cmp	r3, #0
 800cb08:	f000 845b 	beq.w	800d3c2 <_dtoa_r+0xc12>
 800cb0c:	e9dd 2314 	ldrd	r2, r3, [sp, #80]	; 0x50
 800cb10:	2000      	movs	r0, #0
 800cb12:	4966      	ldr	r1, [pc, #408]	; (800ccac <_dtoa_r+0x4fc>)
 800cb14:	f7f3 fede 	bl	80008d4 <__aeabi_ddiv>
 800cb18:	e9dd 2300 	ldrd	r2, r3, [sp]
 800cb1c:	f7f3 fbf4 	bl	8000308 <__aeabi_dsub>
 800cb20:	f88b 5000 	strb.w	r5, [fp]
 800cb24:	4632      	mov	r2, r6
 800cb26:	463b      	mov	r3, r7
 800cb28:	e9cd 0100 	strd	r0, r1, [sp]
 800cb2c:	f7f4 fb4e 	bl	80011cc <__aeabi_dcmpgt>
 800cb30:	2800      	cmp	r0, #0
 800cb32:	f040 8506 	bne.w	800d542 <_dtoa_r+0xd92>
 800cb36:	4632      	mov	r2, r6
 800cb38:	463b      	mov	r3, r7
 800cb3a:	2000      	movs	r0, #0
 800cb3c:	4959      	ldr	r1, [pc, #356]	; (800cca4 <_dtoa_r+0x4f4>)
 800cb3e:	f7f3 fbe3 	bl	8000308 <__aeabi_dsub>
 800cb42:	4602      	mov	r2, r0
 800cb44:	460b      	mov	r3, r1
 800cb46:	e9dd 0100 	ldrd	r0, r1, [sp]
 800cb4a:	f7f4 fb3f 	bl	80011cc <__aeabi_dcmpgt>
 800cb4e:	2800      	cmp	r0, #0
 800cb50:	f040 84ff 	bne.w	800d552 <_dtoa_r+0xda2>
 800cb54:	9a12      	ldr	r2, [sp, #72]	; 0x48
 800cb56:	2a01      	cmp	r2, #1
 800cb58:	d050      	beq.n	800cbfc <_dtoa_r+0x44c>
 800cb5a:	445a      	add	r2, fp
 800cb5c:	f8cd 805c 	str.w	r8, [sp, #92]	; 0x5c
 800cb60:	f8cd a048 	str.w	sl, [sp, #72]	; 0x48
 800cb64:	f8cd b050 	str.w	fp, [sp, #80]	; 0x50
 800cb68:	4692      	mov	sl, r2
 800cb6a:	46cb      	mov	fp, r9
 800cb6c:	e9dd 8900 	ldrd	r8, r9, [sp]
 800cb70:	e00c      	b.n	800cb8c <_dtoa_r+0x3dc>
 800cb72:	2000      	movs	r0, #0
 800cb74:	494b      	ldr	r1, [pc, #300]	; (800cca4 <_dtoa_r+0x4f4>)
 800cb76:	f7f3 fbc7 	bl	8000308 <__aeabi_dsub>
 800cb7a:	4642      	mov	r2, r8
 800cb7c:	464b      	mov	r3, r9
 800cb7e:	f7f4 fb07 	bl	8001190 <__aeabi_dcmplt>
 800cb82:	2800      	cmp	r0, #0
 800cb84:	f040 84e0 	bne.w	800d548 <_dtoa_r+0xd98>
 800cb88:	4554      	cmp	r4, sl
 800cb8a:	d030      	beq.n	800cbee <_dtoa_r+0x43e>
 800cb8c:	4640      	mov	r0, r8
 800cb8e:	4649      	mov	r1, r9
 800cb90:	2200      	movs	r2, #0
 800cb92:	4b47      	ldr	r3, [pc, #284]	; (800ccb0 <_dtoa_r+0x500>)
 800cb94:	f7f3 fd74 	bl	8000680 <__aeabi_dmul>
 800cb98:	2200      	movs	r2, #0
 800cb9a:	4b45      	ldr	r3, [pc, #276]	; (800ccb0 <_dtoa_r+0x500>)
 800cb9c:	4680      	mov	r8, r0
 800cb9e:	4689      	mov	r9, r1
 800cba0:	4630      	mov	r0, r6
 800cba2:	4639      	mov	r1, r7
 800cba4:	f7f3 fd6c 	bl	8000680 <__aeabi_dmul>
 800cba8:	460f      	mov	r7, r1
 800cbaa:	4606      	mov	r6, r0
 800cbac:	f7f3 ff80 	bl	8000ab0 <__aeabi_d2iz>
 800cbb0:	4605      	mov	r5, r0
 800cbb2:	f7f3 fcf7 	bl	80005a4 <__aeabi_i2d>
 800cbb6:	4602      	mov	r2, r0
 800cbb8:	460b      	mov	r3, r1
 800cbba:	4630      	mov	r0, r6
 800cbbc:	4639      	mov	r1, r7
 800cbbe:	f7f3 fba3 	bl	8000308 <__aeabi_dsub>
 800cbc2:	3530      	adds	r5, #48	; 0x30
 800cbc4:	b2ed      	uxtb	r5, r5
 800cbc6:	4642      	mov	r2, r8
 800cbc8:	464b      	mov	r3, r9
 800cbca:	f804 5b01 	strb.w	r5, [r4], #1
 800cbce:	4606      	mov	r6, r0
 800cbd0:	460f      	mov	r7, r1
 800cbd2:	f7f4 fadd 	bl	8001190 <__aeabi_dcmplt>
 800cbd6:	4632      	mov	r2, r6
 800cbd8:	463b      	mov	r3, r7
 800cbda:	2800      	cmp	r0, #0
 800cbdc:	d0c9      	beq.n	800cb72 <_dtoa_r+0x3c2>
 800cbde:	9b16      	ldr	r3, [sp, #88]	; 0x58
 800cbe0:	f8dd a048 	ldr.w	sl, [sp, #72]	; 0x48
 800cbe4:	9306      	str	r3, [sp, #24]
 800cbe6:	46d9      	mov	r9, fp
 800cbe8:	f8dd b050 	ldr.w	fp, [sp, #80]	; 0x50
 800cbec:	e238      	b.n	800d060 <_dtoa_r+0x8b0>
 800cbee:	46d9      	mov	r9, fp
 800cbf0:	f8dd 805c 	ldr.w	r8, [sp, #92]	; 0x5c
 800cbf4:	f8dd a048 	ldr.w	sl, [sp, #72]	; 0x48
 800cbf8:	f8dd b050 	ldr.w	fp, [sp, #80]	; 0x50
 800cbfc:	e9dd 3410 	ldrd	r3, r4, [sp, #64]	; 0x40
 800cc00:	e9cd 3400 	strd	r3, r4, [sp]
 800cc04:	9b19      	ldr	r3, [sp, #100]	; 0x64
 800cc06:	2b00      	cmp	r3, #0
 800cc08:	f2c0 80ae 	blt.w	800cd68 <_dtoa_r+0x5b8>
 800cc0c:	9a06      	ldr	r2, [sp, #24]
 800cc0e:	2a0e      	cmp	r2, #14
 800cc10:	f300 80aa 	bgt.w	800cd68 <_dtoa_r+0x5b8>
 800cc14:	4b21      	ldr	r3, [pc, #132]	; (800cc9c <_dtoa_r+0x4ec>)
 800cc16:	eb03 03c2 	add.w	r3, r3, r2, lsl #3
 800cc1a:	ed93 7b00 	vldr	d7, [r3]
 800cc1e:	9b07      	ldr	r3, [sp, #28]
 800cc20:	2b00      	cmp	r3, #0
 800cc22:	ed8d 7b02 	vstr	d7, [sp, #8]
 800cc26:	f2c0 82c0 	blt.w	800d1aa <_dtoa_r+0x9fa>
 800cc2a:	e9dd 6700 	ldrd	r6, r7, [sp]
 800cc2e:	e9dd 2302 	ldrd	r2, r3, [sp, #8]
 800cc32:	4630      	mov	r0, r6
 800cc34:	4639      	mov	r1, r7
 800cc36:	f7f3 fe4d 	bl	80008d4 <__aeabi_ddiv>
 800cc3a:	f7f3 ff39 	bl	8000ab0 <__aeabi_d2iz>
 800cc3e:	4605      	mov	r5, r0
 800cc40:	f7f3 fcb0 	bl	80005a4 <__aeabi_i2d>
 800cc44:	e9dd 2302 	ldrd	r2, r3, [sp, #8]
 800cc48:	f7f3 fd1a 	bl	8000680 <__aeabi_dmul>
 800cc4c:	460b      	mov	r3, r1
 800cc4e:	4602      	mov	r2, r0
 800cc50:	4639      	mov	r1, r7
 800cc52:	4630      	mov	r0, r6
 800cc54:	f7f3 fb58 	bl	8000308 <__aeabi_dsub>
 800cc58:	f105 0330 	add.w	r3, r5, #48	; 0x30
 800cc5c:	f88b 3000 	strb.w	r3, [fp]
 800cc60:	9b09      	ldr	r3, [sp, #36]	; 0x24
 800cc62:	2b01      	cmp	r3, #1
 800cc64:	4606      	mov	r6, r0
 800cc66:	460f      	mov	r7, r1
 800cc68:	f10b 0401 	add.w	r4, fp, #1
 800cc6c:	d053      	beq.n	800cd16 <_dtoa_r+0x566>
 800cc6e:	2200      	movs	r2, #0
 800cc70:	4b0f      	ldr	r3, [pc, #60]	; (800ccb0 <_dtoa_r+0x500>)
 800cc72:	f7f3 fd05 	bl	8000680 <__aeabi_dmul>
 800cc76:	2200      	movs	r2, #0
 800cc78:	2300      	movs	r3, #0
 800cc7a:	4606      	mov	r6, r0
 800cc7c:	460f      	mov	r7, r1
 800cc7e:	f7f4 fa7d 	bl	800117c <__aeabi_dcmpeq>
 800cc82:	2800      	cmp	r0, #0
 800cc84:	f040 81ec 	bne.w	800d060 <_dtoa_r+0x8b0>
 800cc88:	f8cd a000 	str.w	sl, [sp]
 800cc8c:	f8cd 901c 	str.w	r9, [sp, #28]
 800cc90:	f8dd 8024 	ldr.w	r8, [sp, #36]	; 0x24
 800cc94:	e9dd 9a02 	ldrd	r9, sl, [sp, #8]
 800cc98:	e017      	b.n	800ccca <_dtoa_r+0x51a>
 800cc9a:	bf00      	nop
 800cc9c:	0800f380 	.word	0x0800f380
 800cca0:	0800f350 	.word	0x0800f350
 800cca4:	3ff00000 	.word	0x3ff00000
 800cca8:	401c0000 	.word	0x401c0000
 800ccac:	3fe00000 	.word	0x3fe00000
 800ccb0:	40240000 	.word	0x40240000
 800ccb4:	f7f3 fce4 	bl	8000680 <__aeabi_dmul>
 800ccb8:	2200      	movs	r2, #0
 800ccba:	2300      	movs	r3, #0
 800ccbc:	4606      	mov	r6, r0
 800ccbe:	460f      	mov	r7, r1
 800ccc0:	f7f4 fa5c 	bl	800117c <__aeabi_dcmpeq>
 800ccc4:	2800      	cmp	r0, #0
 800ccc6:	f040 833f 	bne.w	800d348 <_dtoa_r+0xb98>
 800ccca:	464a      	mov	r2, r9
 800cccc:	4653      	mov	r3, sl
 800ccce:	4630      	mov	r0, r6
 800ccd0:	4639      	mov	r1, r7
 800ccd2:	f7f3 fdff 	bl	80008d4 <__aeabi_ddiv>
 800ccd6:	f7f3 feeb 	bl	8000ab0 <__aeabi_d2iz>
 800ccda:	4605      	mov	r5, r0
 800ccdc:	f7f3 fc62 	bl	80005a4 <__aeabi_i2d>
 800cce0:	464a      	mov	r2, r9
 800cce2:	4653      	mov	r3, sl
 800cce4:	f7f3 fccc 	bl	8000680 <__aeabi_dmul>
 800cce8:	4602      	mov	r2, r0
 800ccea:	460b      	mov	r3, r1
 800ccec:	4630      	mov	r0, r6
 800ccee:	4639      	mov	r1, r7
 800ccf0:	f7f3 fb0a 	bl	8000308 <__aeabi_dsub>
 800ccf4:	f105 0c30 	add.w	ip, r5, #48	; 0x30
 800ccf8:	f804 cb01 	strb.w	ip, [r4], #1
 800ccfc:	eba4 0c0b 	sub.w	ip, r4, fp
 800cd00:	45e0      	cmp	r8, ip
 800cd02:	4606      	mov	r6, r0
 800cd04:	460f      	mov	r7, r1
 800cd06:	f04f 0200 	mov.w	r2, #0
 800cd0a:	4bc2      	ldr	r3, [pc, #776]	; (800d014 <_dtoa_r+0x864>)
 800cd0c:	d1d2      	bne.n	800ccb4 <_dtoa_r+0x504>
 800cd0e:	f8dd a000 	ldr.w	sl, [sp]
 800cd12:	f8dd 901c 	ldr.w	r9, [sp, #28]
 800cd16:	4632      	mov	r2, r6
 800cd18:	463b      	mov	r3, r7
 800cd1a:	4630      	mov	r0, r6
 800cd1c:	4639      	mov	r1, r7
 800cd1e:	f7f3 faf5 	bl	800030c <__adddf3>
 800cd22:	e9dd 2302 	ldrd	r2, r3, [sp, #8]
 800cd26:	4606      	mov	r6, r0
 800cd28:	460f      	mov	r7, r1
 800cd2a:	f7f4 fa4f 	bl	80011cc <__aeabi_dcmpgt>
 800cd2e:	b958      	cbnz	r0, 800cd48 <_dtoa_r+0x598>
 800cd30:	e9dd 2302 	ldrd	r2, r3, [sp, #8]
 800cd34:	4630      	mov	r0, r6
 800cd36:	4639      	mov	r1, r7
 800cd38:	f7f4 fa20 	bl	800117c <__aeabi_dcmpeq>
 800cd3c:	2800      	cmp	r0, #0
 800cd3e:	f000 818f 	beq.w	800d060 <_dtoa_r+0x8b0>
 800cd42:	07e9      	lsls	r1, r5, #31
 800cd44:	f140 818c 	bpl.w	800d060 <_dtoa_r+0x8b0>
 800cd48:	f814 5c01 	ldrb.w	r5, [r4, #-1]
 800cd4c:	e005      	b.n	800cd5a <_dtoa_r+0x5aa>
 800cd4e:	459b      	cmp	fp, r3
 800cd50:	f000 8376 	beq.w	800d440 <_dtoa_r+0xc90>
 800cd54:	f813 5c01 	ldrb.w	r5, [r3, #-1]
 800cd58:	461c      	mov	r4, r3
 800cd5a:	2d39      	cmp	r5, #57	; 0x39
 800cd5c:	f104 33ff 	add.w	r3, r4, #4294967295
 800cd60:	d0f5      	beq.n	800cd4e <_dtoa_r+0x59e>
 800cd62:	3501      	adds	r5, #1
 800cd64:	701d      	strb	r5, [r3, #0]
 800cd66:	e17b      	b.n	800d060 <_dtoa_r+0x8b0>
 800cd68:	9a0a      	ldr	r2, [sp, #40]	; 0x28
 800cd6a:	2a00      	cmp	r2, #0
 800cd6c:	d03b      	beq.n	800cde6 <_dtoa_r+0x636>
 800cd6e:	9a02      	ldr	r2, [sp, #8]
 800cd70:	2a01      	cmp	r2, #1
 800cd72:	f340 820d 	ble.w	800d190 <_dtoa_r+0x9e0>
 800cd76:	9b09      	ldr	r3, [sp, #36]	; 0x24
 800cd78:	1e5f      	subs	r7, r3, #1
 800cd7a:	9b0b      	ldr	r3, [sp, #44]	; 0x2c
 800cd7c:	42bb      	cmp	r3, r7
 800cd7e:	f2c0 82e8 	blt.w	800d352 <_dtoa_r+0xba2>
 800cd82:	1bdf      	subs	r7, r3, r7
 800cd84:	9b09      	ldr	r3, [sp, #36]	; 0x24
 800cd86:	2b00      	cmp	r3, #0
 800cd88:	f2c0 830e 	blt.w	800d3a8 <_dtoa_r+0xbf8>
 800cd8c:	9a08      	ldr	r2, [sp, #32]
 800cd8e:	4614      	mov	r4, r2
 800cd90:	441a      	add	r2, r3
 800cd92:	4498      	add	r8, r3
 800cd94:	9208      	str	r2, [sp, #32]
 800cd96:	2101      	movs	r1, #1
 800cd98:	4648      	mov	r0, r9
 800cd9a:	f000 fe41 	bl	800da20 <__i2b>
 800cd9e:	4605      	mov	r5, r0
 800cda0:	e024      	b.n	800cdec <_dtoa_r+0x63c>
 800cda2:	2301      	movs	r3, #1
 800cda4:	930d      	str	r3, [sp, #52]	; 0x34
 800cda6:	e5af      	b.n	800c908 <_dtoa_r+0x158>
 800cda8:	9a08      	ldr	r2, [sp, #32]
 800cdaa:	9b06      	ldr	r3, [sp, #24]
 800cdac:	1ad2      	subs	r2, r2, r3
 800cdae:	425b      	negs	r3, r3
 800cdb0:	930b      	str	r3, [sp, #44]	; 0x2c
 800cdb2:	2300      	movs	r3, #0
 800cdb4:	9208      	str	r2, [sp, #32]
 800cdb6:	930c      	str	r3, [sp, #48]	; 0x30
 800cdb8:	e5b5      	b.n	800c926 <_dtoa_r+0x176>
 800cdba:	f1c4 0301 	rsb	r3, r4, #1
 800cdbe:	9308      	str	r3, [sp, #32]
 800cdc0:	f04f 0800 	mov.w	r8, #0
 800cdc4:	e5a7      	b.n	800c916 <_dtoa_r+0x166>
 800cdc6:	f8dd 8018 	ldr.w	r8, [sp, #24]
 800cdca:	4640      	mov	r0, r8
 800cdcc:	f7f3 fbea 	bl	80005a4 <__aeabi_i2d>
 800cdd0:	4632      	mov	r2, r6
 800cdd2:	463b      	mov	r3, r7
 800cdd4:	f7f4 f9d2 	bl	800117c <__aeabi_dcmpeq>
 800cdd8:	2800      	cmp	r0, #0
 800cdda:	f47f ad81 	bne.w	800c8e0 <_dtoa_r+0x130>
 800cdde:	f108 33ff 	add.w	r3, r8, #4294967295
 800cde2:	9306      	str	r3, [sp, #24]
 800cde4:	e57c      	b.n	800c8e0 <_dtoa_r+0x130>
 800cde6:	9f0b      	ldr	r7, [sp, #44]	; 0x2c
 800cde8:	9c08      	ldr	r4, [sp, #32]
 800cdea:	9d0a      	ldr	r5, [sp, #40]	; 0x28
 800cdec:	2c00      	cmp	r4, #0
 800cdee:	dd0c      	ble.n	800ce0a <_dtoa_r+0x65a>
 800cdf0:	f1b8 0f00 	cmp.w	r8, #0
 800cdf4:	dd09      	ble.n	800ce0a <_dtoa_r+0x65a>
 800cdf6:	4544      	cmp	r4, r8
 800cdf8:	9a08      	ldr	r2, [sp, #32]
 800cdfa:	4623      	mov	r3, r4
 800cdfc:	bfa8      	it	ge
 800cdfe:	4643      	movge	r3, r8
 800ce00:	1ad2      	subs	r2, r2, r3
 800ce02:	9208      	str	r2, [sp, #32]
 800ce04:	1ae4      	subs	r4, r4, r3
 800ce06:	eba8 0803 	sub.w	r8, r8, r3
 800ce0a:	9b0b      	ldr	r3, [sp, #44]	; 0x2c
 800ce0c:	b16b      	cbz	r3, 800ce2a <_dtoa_r+0x67a>
 800ce0e:	9a0a      	ldr	r2, [sp, #40]	; 0x28
 800ce10:	2a00      	cmp	r2, #0
 800ce12:	f000 8292 	beq.w	800d33a <_dtoa_r+0xb8a>
 800ce16:	1bde      	subs	r6, r3, r7
 800ce18:	2f00      	cmp	r7, #0
 800ce1a:	f040 819d 	bne.w	800d158 <_dtoa_r+0x9a8>
 800ce1e:	4651      	mov	r1, sl
 800ce20:	4632      	mov	r2, r6
 800ce22:	4648      	mov	r0, r9
 800ce24:	f000 feb4 	bl	800db90 <__pow5mult>
 800ce28:	4682      	mov	sl, r0
 800ce2a:	2101      	movs	r1, #1
 800ce2c:	4648      	mov	r0, r9
 800ce2e:	f000 fdf7 	bl	800da20 <__i2b>
 800ce32:	9a0c      	ldr	r2, [sp, #48]	; 0x30
 800ce34:	4606      	mov	r6, r0
 800ce36:	2a00      	cmp	r2, #0
 800ce38:	f040 8127 	bne.w	800d08a <_dtoa_r+0x8da>
 800ce3c:	9b02      	ldr	r3, [sp, #8]
 800ce3e:	2b01      	cmp	r3, #1
 800ce40:	f340 816e 	ble.w	800d120 <_dtoa_r+0x970>
 800ce44:	2001      	movs	r0, #1
 800ce46:	4440      	add	r0, r8
 800ce48:	f010 001f 	ands.w	r0, r0, #31
 800ce4c:	f000 811b 	beq.w	800d086 <_dtoa_r+0x8d6>
 800ce50:	f1c0 0320 	rsb	r3, r0, #32
 800ce54:	2b04      	cmp	r3, #4
 800ce56:	f340 83b0 	ble.w	800d5ba <_dtoa_r+0xe0a>
 800ce5a:	f1c0 001c 	rsb	r0, r0, #28
 800ce5e:	9b08      	ldr	r3, [sp, #32]
 800ce60:	4403      	add	r3, r0
 800ce62:	9308      	str	r3, [sp, #32]
 800ce64:	4404      	add	r4, r0
 800ce66:	4480      	add	r8, r0
 800ce68:	9b08      	ldr	r3, [sp, #32]
 800ce6a:	2b00      	cmp	r3, #0
 800ce6c:	dd05      	ble.n	800ce7a <_dtoa_r+0x6ca>
 800ce6e:	4651      	mov	r1, sl
 800ce70:	461a      	mov	r2, r3
 800ce72:	4648      	mov	r0, r9
 800ce74:	f000 fedc 	bl	800dc30 <__lshift>
 800ce78:	4682      	mov	sl, r0
 800ce7a:	f1b8 0f00 	cmp.w	r8, #0
 800ce7e:	dd05      	ble.n	800ce8c <_dtoa_r+0x6dc>
 800ce80:	4631      	mov	r1, r6
 800ce82:	4642      	mov	r2, r8
 800ce84:	4648      	mov	r0, r9
 800ce86:	f000 fed3 	bl	800dc30 <__lshift>
 800ce8a:	4606      	mov	r6, r0
 800ce8c:	9b0d      	ldr	r3, [sp, #52]	; 0x34
 800ce8e:	2b00      	cmp	r3, #0
 800ce90:	d178      	bne.n	800cf84 <_dtoa_r+0x7d4>
 800ce92:	9b09      	ldr	r3, [sp, #36]	; 0x24
 800ce94:	2b00      	cmp	r3, #0
 800ce96:	f340 820b 	ble.w	800d2b0 <_dtoa_r+0xb00>
 800ce9a:	9b0a      	ldr	r3, [sp, #40]	; 0x28
 800ce9c:	2b00      	cmp	r3, #0
 800ce9e:	f000 808a 	beq.w	800cfb6 <_dtoa_r+0x806>
 800cea2:	2c00      	cmp	r4, #0
 800cea4:	f300 816d 	bgt.w	800d182 <_dtoa_r+0x9d2>
 800cea8:	9b0c      	ldr	r3, [sp, #48]	; 0x30
 800ceaa:	2b00      	cmp	r3, #0
 800ceac:	f040 81cf 	bne.w	800d24e <_dtoa_r+0xa9e>
 800ceb0:	46a8      	mov	r8, r5
 800ceb2:	9a00      	ldr	r2, [sp, #0]
 800ceb4:	f8cd b02c 	str.w	fp, [sp, #44]	; 0x2c
 800ceb8:	f002 0201 	and.w	r2, r2, #1
 800cebc:	920a      	str	r2, [sp, #40]	; 0x28
 800cebe:	9a09      	ldr	r2, [sp, #36]	; 0x24
 800cec0:	f10b 33ff 	add.w	r3, fp, #4294967295
 800cec4:	441a      	add	r2, r3
 800cec6:	465f      	mov	r7, fp
 800cec8:	9209      	str	r2, [sp, #36]	; 0x24
 800ceca:	46b3      	mov	fp, r6
 800cecc:	4659      	mov	r1, fp
 800cece:	4650      	mov	r0, sl
 800ced0:	f7ff fbd6 	bl	800c680 <quorem>
 800ced4:	4629      	mov	r1, r5
 800ced6:	4604      	mov	r4, r0
 800ced8:	4650      	mov	r0, sl
 800ceda:	f000 ff01 	bl	800dce0 <__mcmp>
 800cede:	4659      	mov	r1, fp
 800cee0:	4606      	mov	r6, r0
 800cee2:	4642      	mov	r2, r8
 800cee4:	4648      	mov	r0, r9
 800cee6:	f000 ff1b 	bl	800dd20 <__mdiff>
 800ceea:	f104 0330 	add.w	r3, r4, #48	; 0x30
 800ceee:	9300      	str	r3, [sp, #0]
 800cef0:	68c3      	ldr	r3, [r0, #12]
 800cef2:	4601      	mov	r1, r0
 800cef4:	2b00      	cmp	r3, #0
 800cef6:	f040 81d6 	bne.w	800d2a6 <_dtoa_r+0xaf6>
 800cefa:	9008      	str	r0, [sp, #32]
 800cefc:	4650      	mov	r0, sl
 800cefe:	f000 feef 	bl	800dce0 <__mcmp>
 800cf02:	9a08      	ldr	r2, [sp, #32]
 800cf04:	9007      	str	r0, [sp, #28]
 800cf06:	4611      	mov	r1, r2
 800cf08:	4648      	mov	r0, r9
 800cf0a:	f000 fce9 	bl	800d8e0 <_Bfree>
 800cf0e:	9b07      	ldr	r3, [sp, #28]
 800cf10:	b933      	cbnz	r3, 800cf20 <_dtoa_r+0x770>
 800cf12:	9a02      	ldr	r2, [sp, #8]
 800cf14:	b922      	cbnz	r2, 800cf20 <_dtoa_r+0x770>
 800cf16:	9b0a      	ldr	r3, [sp, #40]	; 0x28
 800cf18:	2b00      	cmp	r3, #0
 800cf1a:	f000 831d 	beq.w	800d558 <_dtoa_r+0xda8>
 800cf1e:	9b02      	ldr	r3, [sp, #8]
 800cf20:	2e00      	cmp	r6, #0
 800cf22:	f2c0 821e 	blt.w	800d362 <_dtoa_r+0xbb2>
 800cf26:	d105      	bne.n	800cf34 <_dtoa_r+0x784>
 800cf28:	9a02      	ldr	r2, [sp, #8]
 800cf2a:	b91a      	cbnz	r2, 800cf34 <_dtoa_r+0x784>
 800cf2c:	9a0a      	ldr	r2, [sp, #40]	; 0x28
 800cf2e:	2a00      	cmp	r2, #0
 800cf30:	f000 8217 	beq.w	800d362 <_dtoa_r+0xbb2>
 800cf34:	2b00      	cmp	r3, #0
 800cf36:	f107 0401 	add.w	r4, r7, #1
 800cf3a:	f300 8228 	bgt.w	800d38e <_dtoa_r+0xbde>
 800cf3e:	f89d 3000 	ldrb.w	r3, [sp]
 800cf42:	703b      	strb	r3, [r7, #0]
 800cf44:	9b09      	ldr	r3, [sp, #36]	; 0x24
 800cf46:	42bb      	cmp	r3, r7
 800cf48:	f000 8232 	beq.w	800d3b0 <_dtoa_r+0xc00>
 800cf4c:	4651      	mov	r1, sl
 800cf4e:	2300      	movs	r3, #0
 800cf50:	220a      	movs	r2, #10
 800cf52:	4648      	mov	r0, r9
 800cf54:	f000 fcd4 	bl	800d900 <__multadd>
 800cf58:	4545      	cmp	r5, r8
 800cf5a:	4682      	mov	sl, r0
 800cf5c:	4629      	mov	r1, r5
 800cf5e:	f04f 0300 	mov.w	r3, #0
 800cf62:	f04f 020a 	mov.w	r2, #10
 800cf66:	4648      	mov	r0, r9
 800cf68:	f000 8197 	beq.w	800d29a <_dtoa_r+0xaea>
 800cf6c:	f000 fcc8 	bl	800d900 <__multadd>
 800cf70:	4641      	mov	r1, r8
 800cf72:	4605      	mov	r5, r0
 800cf74:	2300      	movs	r3, #0
 800cf76:	220a      	movs	r2, #10
 800cf78:	4648      	mov	r0, r9
 800cf7a:	f000 fcc1 	bl	800d900 <__multadd>
 800cf7e:	4627      	mov	r7, r4
 800cf80:	4680      	mov	r8, r0
 800cf82:	e7a3      	b.n	800cecc <_dtoa_r+0x71c>
 800cf84:	4631      	mov	r1, r6
 800cf86:	4650      	mov	r0, sl
 800cf88:	f000 feaa 	bl	800dce0 <__mcmp>
 800cf8c:	2800      	cmp	r0, #0
 800cf8e:	da80      	bge.n	800ce92 <_dtoa_r+0x6e2>
 800cf90:	9f06      	ldr	r7, [sp, #24]
 800cf92:	4651      	mov	r1, sl
 800cf94:	2300      	movs	r3, #0
 800cf96:	220a      	movs	r2, #10
 800cf98:	4648      	mov	r0, r9
 800cf9a:	3f01      	subs	r7, #1
 800cf9c:	9706      	str	r7, [sp, #24]
 800cf9e:	f000 fcaf 	bl	800d900 <__multadd>
 800cfa2:	9b0a      	ldr	r3, [sp, #40]	; 0x28
 800cfa4:	4682      	mov	sl, r0
 800cfa6:	2b00      	cmp	r3, #0
 800cfa8:	f040 82ee 	bne.w	800d588 <_dtoa_r+0xdd8>
 800cfac:	9b0e      	ldr	r3, [sp, #56]	; 0x38
 800cfae:	2b00      	cmp	r3, #0
 800cfb0:	f340 82f6 	ble.w	800d5a0 <_dtoa_r+0xdf0>
 800cfb4:	9309      	str	r3, [sp, #36]	; 0x24
 800cfb6:	465c      	mov	r4, fp
 800cfb8:	f8dd 8024 	ldr.w	r8, [sp, #36]	; 0x24
 800cfbc:	e002      	b.n	800cfc4 <_dtoa_r+0x814>
 800cfbe:	f000 fc9f 	bl	800d900 <__multadd>
 800cfc2:	4682      	mov	sl, r0
 800cfc4:	4631      	mov	r1, r6
 800cfc6:	4650      	mov	r0, sl
 800cfc8:	f7ff fb5a 	bl	800c680 <quorem>
 800cfcc:	f100 0730 	add.w	r7, r0, #48	; 0x30
 800cfd0:	f804 7b01 	strb.w	r7, [r4], #1
 800cfd4:	eba4 030b 	sub.w	r3, r4, fp
 800cfd8:	4598      	cmp	r8, r3
 800cfda:	f04f 020a 	mov.w	r2, #10
 800cfde:	f04f 0300 	mov.w	r3, #0
 800cfe2:	4651      	mov	r1, sl
 800cfe4:	4648      	mov	r0, r9
 800cfe6:	dcea      	bgt.n	800cfbe <_dtoa_r+0x80e>
 800cfe8:	2300      	movs	r3, #0
 800cfea:	9700      	str	r7, [sp, #0]
 800cfec:	9302      	str	r3, [sp, #8]
 800cfee:	4651      	mov	r1, sl
 800cff0:	2201      	movs	r2, #1
 800cff2:	4648      	mov	r0, r9
 800cff4:	f000 fe1c 	bl	800dc30 <__lshift>
 800cff8:	4631      	mov	r1, r6
 800cffa:	4682      	mov	sl, r0
 800cffc:	f000 fe70 	bl	800dce0 <__mcmp>
 800d000:	2800      	cmp	r0, #0
 800d002:	f814 2c01 	ldrb.w	r2, [r4, #-1]
 800d006:	dc15      	bgt.n	800d034 <_dtoa_r+0x884>
 800d008:	d109      	bne.n	800d01e <_dtoa_r+0x86e>
 800d00a:	9b00      	ldr	r3, [sp, #0]
 800d00c:	07db      	lsls	r3, r3, #31
 800d00e:	d411      	bmi.n	800d034 <_dtoa_r+0x884>
 800d010:	e005      	b.n	800d01e <_dtoa_r+0x86e>
 800d012:	bf00      	nop
 800d014:	40240000 	.word	0x40240000
 800d018:	f814 2c02 	ldrb.w	r2, [r4, #-2]
 800d01c:	461c      	mov	r4, r3
 800d01e:	2a30      	cmp	r2, #48	; 0x30
 800d020:	f104 33ff 	add.w	r3, r4, #4294967295
 800d024:	d0f8      	beq.n	800d018 <_dtoa_r+0x868>
 800d026:	e00b      	b.n	800d040 <_dtoa_r+0x890>
 800d028:	459b      	cmp	fp, r3
 800d02a:	f000 814e 	beq.w	800d2ca <_dtoa_r+0xb1a>
 800d02e:	f813 2c01 	ldrb.w	r2, [r3, #-1]
 800d032:	461c      	mov	r4, r3
 800d034:	2a39      	cmp	r2, #57	; 0x39
 800d036:	f104 33ff 	add.w	r3, r4, #4294967295
 800d03a:	d0f5      	beq.n	800d028 <_dtoa_r+0x878>
 800d03c:	3201      	adds	r2, #1
 800d03e:	701a      	strb	r2, [r3, #0]
 800d040:	4631      	mov	r1, r6
 800d042:	4648      	mov	r0, r9
 800d044:	f000 fc4c 	bl	800d8e0 <_Bfree>
 800d048:	b155      	cbz	r5, 800d060 <_dtoa_r+0x8b0>
 800d04a:	9902      	ldr	r1, [sp, #8]
 800d04c:	b121      	cbz	r1, 800d058 <_dtoa_r+0x8a8>
 800d04e:	42a9      	cmp	r1, r5
 800d050:	d002      	beq.n	800d058 <_dtoa_r+0x8a8>
 800d052:	4648      	mov	r0, r9
 800d054:	f000 fc44 	bl	800d8e0 <_Bfree>
 800d058:	4629      	mov	r1, r5
 800d05a:	4648      	mov	r0, r9
 800d05c:	f000 fc40 	bl	800d8e0 <_Bfree>
 800d060:	4651      	mov	r1, sl
 800d062:	4648      	mov	r0, r9
 800d064:	f000 fc3c 	bl	800d8e0 <_Bfree>
 800d068:	2200      	movs	r2, #0
 800d06a:	9b06      	ldr	r3, [sp, #24]
 800d06c:	7022      	strb	r2, [r4, #0]
 800d06e:	9a05      	ldr	r2, [sp, #20]
 800d070:	3301      	adds	r3, #1
 800d072:	6013      	str	r3, [r2, #0]
 800d074:	9b25      	ldr	r3, [sp, #148]	; 0x94
 800d076:	2b00      	cmp	r3, #0
 800d078:	f43f abd9 	beq.w	800c82e <_dtoa_r+0x7e>
 800d07c:	4658      	mov	r0, fp
 800d07e:	601c      	str	r4, [r3, #0]
 800d080:	b01b      	add	sp, #108	; 0x6c
 800d082:	e8bd 8ff0 	ldmia.w	sp!, {r4, r5, r6, r7, r8, r9, sl, fp, pc}
 800d086:	201c      	movs	r0, #28
 800d088:	e6e9      	b.n	800ce5e <_dtoa_r+0x6ae>
 800d08a:	4601      	mov	r1, r0
 800d08c:	4648      	mov	r0, r9
 800d08e:	f000 fd7f 	bl	800db90 <__pow5mult>
 800d092:	9b02      	ldr	r3, [sp, #8]
 800d094:	2b01      	cmp	r3, #1
 800d096:	4606      	mov	r6, r0
 800d098:	f340 80d4 	ble.w	800d244 <_dtoa_r+0xa94>
 800d09c:	2300      	movs	r3, #0
 800d09e:	930c      	str	r3, [sp, #48]	; 0x30
 800d0a0:	6933      	ldr	r3, [r6, #16]
 800d0a2:	eb06 0383 	add.w	r3, r6, r3, lsl #2
 800d0a6:	6918      	ldr	r0, [r3, #16]
 800d0a8:	f000 fc6a 	bl	800d980 <__hi0bits>
 800d0ac:	f1c0 0020 	rsb	r0, r0, #32
 800d0b0:	e6c9      	b.n	800ce46 <_dtoa_r+0x696>
 800d0b2:	900d      	str	r0, [sp, #52]	; 0x34
 800d0b4:	e428      	b.n	800c908 <_dtoa_r+0x158>
 800d0b6:	2501      	movs	r5, #1
 800d0b8:	e43e      	b.n	800c938 <_dtoa_r+0x188>
 800d0ba:	f1c3 0820 	rsb	r8, r3, #32
 800d0be:	9b00      	ldr	r3, [sp, #0]
 800d0c0:	fa03 f008 	lsl.w	r0, r3, r8
 800d0c4:	f7ff bbd6 	b.w	800c874 <_dtoa_r+0xc4>
 800d0c8:	2300      	movs	r3, #0
 800d0ca:	930a      	str	r3, [sp, #40]	; 0x28
 800d0cc:	e9dd 3206 	ldrd	r3, r2, [sp, #24]
 800d0d0:	4413      	add	r3, r2
 800d0d2:	930e      	str	r3, [sp, #56]	; 0x38
 800d0d4:	3301      	adds	r3, #1
 800d0d6:	2b01      	cmp	r3, #1
 800d0d8:	461e      	mov	r6, r3
 800d0da:	9309      	str	r3, [sp, #36]	; 0x24
 800d0dc:	bfb8      	it	lt
 800d0de:	2601      	movlt	r6, #1
 800d0e0:	2100      	movs	r1, #0
 800d0e2:	2e17      	cmp	r6, #23
 800d0e4:	f8c9 1044 	str.w	r1, [r9, #68]	; 0x44
 800d0e8:	9c09      	ldr	r4, [sp, #36]	; 0x24
 800d0ea:	f77f ac87 	ble.w	800c9fc <_dtoa_r+0x24c>
 800d0ee:	2201      	movs	r2, #1
 800d0f0:	2304      	movs	r3, #4
 800d0f2:	005b      	lsls	r3, r3, #1
 800d0f4:	f103 0014 	add.w	r0, r3, #20
 800d0f8:	42b0      	cmp	r0, r6
 800d0fa:	4611      	mov	r1, r2
 800d0fc:	f102 0201 	add.w	r2, r2, #1
 800d100:	d9f7      	bls.n	800d0f2 <_dtoa_r+0x942>
 800d102:	f8c9 1044 	str.w	r1, [r9, #68]	; 0x44
 800d106:	e479      	b.n	800c9fc <_dtoa_r+0x24c>
 800d108:	2300      	movs	r3, #0
 800d10a:	930a      	str	r3, [sp, #40]	; 0x28
 800d10c:	9e07      	ldr	r6, [sp, #28]
 800d10e:	2e00      	cmp	r6, #0
 800d110:	f340 80e2 	ble.w	800d2d8 <_dtoa_r+0xb28>
 800d114:	960e      	str	r6, [sp, #56]	; 0x38
 800d116:	9609      	str	r6, [sp, #36]	; 0x24
 800d118:	e7e2      	b.n	800d0e0 <_dtoa_r+0x930>
 800d11a:	2301      	movs	r3, #1
 800d11c:	930a      	str	r3, [sp, #40]	; 0x28
 800d11e:	e7f5      	b.n	800d10c <_dtoa_r+0x95c>
 800d120:	9b00      	ldr	r3, [sp, #0]
 800d122:	2b00      	cmp	r3, #0
 800d124:	f47f ae8e 	bne.w	800ce44 <_dtoa_r+0x694>
 800d128:	e9dd 1200 	ldrd	r1, r2, [sp]
 800d12c:	f3c2 0313 	ubfx	r3, r2, #0, #20
 800d130:	2b00      	cmp	r3, #0
 800d132:	f040 8193 	bne.w	800d45c <_dtoa_r+0xcac>
 800d136:	f022 4300 	bic.w	r3, r2, #2147483648	; 0x80000000
 800d13a:	0d1b      	lsrs	r3, r3, #20
 800d13c:	051b      	lsls	r3, r3, #20
 800d13e:	b12b      	cbz	r3, 800d14c <_dtoa_r+0x99c>
 800d140:	9b08      	ldr	r3, [sp, #32]
 800d142:	3301      	adds	r3, #1
 800d144:	9308      	str	r3, [sp, #32]
 800d146:	f108 0801 	add.w	r8, r8, #1
 800d14a:	2301      	movs	r3, #1
 800d14c:	9a0c      	ldr	r2, [sp, #48]	; 0x30
 800d14e:	930c      	str	r3, [sp, #48]	; 0x30
 800d150:	2a00      	cmp	r2, #0
 800d152:	f43f ae77 	beq.w	800ce44 <_dtoa_r+0x694>
 800d156:	e7a3      	b.n	800d0a0 <_dtoa_r+0x8f0>
 800d158:	463a      	mov	r2, r7
 800d15a:	4629      	mov	r1, r5
 800d15c:	4648      	mov	r0, r9
 800d15e:	f000 fd17 	bl	800db90 <__pow5mult>
 800d162:	4652      	mov	r2, sl
 800d164:	4601      	mov	r1, r0
 800d166:	4605      	mov	r5, r0
 800d168:	4648      	mov	r0, r9
 800d16a:	f000 fc69 	bl	800da40 <__multiply>
 800d16e:	4651      	mov	r1, sl
 800d170:	4607      	mov	r7, r0
 800d172:	4648      	mov	r0, r9
 800d174:	f000 fbb4 	bl	800d8e0 <_Bfree>
 800d178:	46ba      	mov	sl, r7
 800d17a:	2e00      	cmp	r6, #0
 800d17c:	f43f ae55 	beq.w	800ce2a <_dtoa_r+0x67a>
 800d180:	e64d      	b.n	800ce1e <_dtoa_r+0x66e>
 800d182:	4629      	mov	r1, r5
 800d184:	4622      	mov	r2, r4
 800d186:	4648      	mov	r0, r9
 800d188:	f000 fd52 	bl	800dc30 <__lshift>
 800d18c:	4605      	mov	r5, r0
 800d18e:	e68b      	b.n	800cea8 <_dtoa_r+0x6f8>
 800d190:	9a0f      	ldr	r2, [sp, #60]	; 0x3c
 800d192:	2a00      	cmp	r2, #0
 800d194:	f000 815e 	beq.w	800d454 <_dtoa_r+0xca4>
 800d198:	f203 4333 	addw	r3, r3, #1075	; 0x433
 800d19c:	9a08      	ldr	r2, [sp, #32]
 800d19e:	9f0b      	ldr	r7, [sp, #44]	; 0x2c
 800d1a0:	4614      	mov	r4, r2
 800d1a2:	441a      	add	r2, r3
 800d1a4:	4498      	add	r8, r3
 800d1a6:	9208      	str	r2, [sp, #32]
 800d1a8:	e5f5      	b.n	800cd96 <_dtoa_r+0x5e6>
 800d1aa:	9b09      	ldr	r3, [sp, #36]	; 0x24
 800d1ac:	2b00      	cmp	r3, #0
 800d1ae:	f73f ad3c 	bgt.w	800cc2a <_dtoa_r+0x47a>
 800d1b2:	f040 80bc 	bne.w	800d32e <_dtoa_r+0xb7e>
 800d1b6:	ec51 0b17 	vmov	r0, r1, d7
 800d1ba:	2200      	movs	r2, #0
 800d1bc:	4bb3      	ldr	r3, [pc, #716]	; (800d48c <_dtoa_r+0xcdc>)
 800d1be:	f7f3 fa5f 	bl	8000680 <__aeabi_dmul>
 800d1c2:	e9dd 2300 	ldrd	r2, r3, [sp]
 800d1c6:	f7f3 fff7 	bl	80011b8 <__aeabi_dcmpge>
 800d1ca:	9e09      	ldr	r6, [sp, #36]	; 0x24
 800d1cc:	4635      	mov	r5, r6
 800d1ce:	2800      	cmp	r0, #0
 800d1d0:	d176      	bne.n	800d2c0 <_dtoa_r+0xb10>
 800d1d2:	9a06      	ldr	r2, [sp, #24]
 800d1d4:	2331      	movs	r3, #49	; 0x31
 800d1d6:	3201      	adds	r2, #1
 800d1d8:	9206      	str	r2, [sp, #24]
 800d1da:	f88b 3000 	strb.w	r3, [fp]
 800d1de:	f10b 0401 	add.w	r4, fp, #1
 800d1e2:	4631      	mov	r1, r6
 800d1e4:	4648      	mov	r0, r9
 800d1e6:	f000 fb7b 	bl	800d8e0 <_Bfree>
 800d1ea:	2d00      	cmp	r5, #0
 800d1ec:	f47f af34 	bne.w	800d058 <_dtoa_r+0x8a8>
 800d1f0:	e736      	b.n	800d060 <_dtoa_r+0x8b0>
 800d1f2:	f000 8143 	beq.w	800d47c <_dtoa_r+0xccc>
 800d1f6:	9b06      	ldr	r3, [sp, #24]
 800d1f8:	425c      	negs	r4, r3
 800d1fa:	4ba5      	ldr	r3, [pc, #660]	; (800d490 <_dtoa_r+0xce0>)
 800d1fc:	f004 020f 	and.w	r2, r4, #15
 800d200:	eb03 03c2 	add.w	r3, r3, r2, lsl #3
 800d204:	e9d3 2300 	ldrd	r2, r3, [r3]
 800d208:	e9dd 0110 	ldrd	r0, r1, [sp, #64]	; 0x40
 800d20c:	f7f3 fa38 	bl	8000680 <__aeabi_dmul>
 800d210:	1124      	asrs	r4, r4, #4
 800d212:	e9cd 0100 	strd	r0, r1, [sp]
 800d216:	f000 81c8 	beq.w	800d5aa <_dtoa_r+0xdfa>
 800d21a:	4d9e      	ldr	r5, [pc, #632]	; (800d494 <_dtoa_r+0xce4>)
 800d21c:	2300      	movs	r3, #0
 800d21e:	2602      	movs	r6, #2
 800d220:	07e7      	lsls	r7, r4, #31
 800d222:	d505      	bpl.n	800d230 <_dtoa_r+0xa80>
 800d224:	e9d5 2300 	ldrd	r2, r3, [r5]
 800d228:	f7f3 fa2a 	bl	8000680 <__aeabi_dmul>
 800d22c:	3601      	adds	r6, #1
 800d22e:	2301      	movs	r3, #1
 800d230:	1064      	asrs	r4, r4, #1
 800d232:	f105 0508 	add.w	r5, r5, #8
 800d236:	d1f3      	bne.n	800d220 <_dtoa_r+0xa70>
 800d238:	2b00      	cmp	r3, #0
 800d23a:	f43f ac25 	beq.w	800ca88 <_dtoa_r+0x2d8>
 800d23e:	e9cd 0100 	strd	r0, r1, [sp]
 800d242:	e421      	b.n	800ca88 <_dtoa_r+0x2d8>
 800d244:	9b00      	ldr	r3, [sp, #0]
 800d246:	2b00      	cmp	r3, #0
 800d248:	f43f af6e 	beq.w	800d128 <_dtoa_r+0x978>
 800d24c:	e726      	b.n	800d09c <_dtoa_r+0x8ec>
 800d24e:	6869      	ldr	r1, [r5, #4]
 800d250:	4648      	mov	r0, r9
 800d252:	f000 fb1d 	bl	800d890 <_Balloc>
 800d256:	692b      	ldr	r3, [r5, #16]
 800d258:	3302      	adds	r3, #2
 800d25a:	009a      	lsls	r2, r3, #2
 800d25c:	4604      	mov	r4, r0
 800d25e:	f105 010c 	add.w	r1, r5, #12
 800d262:	300c      	adds	r0, #12
 800d264:	f7f3 fdd4 	bl	8000e10 <memcpy>
 800d268:	4621      	mov	r1, r4
 800d26a:	2201      	movs	r2, #1
 800d26c:	4648      	mov	r0, r9
 800d26e:	f000 fcdf 	bl	800dc30 <__lshift>
 800d272:	4680      	mov	r8, r0
 800d274:	e61d      	b.n	800ceb2 <_dtoa_r+0x702>
 800d276:	2400      	movs	r4, #0
 800d278:	f8c9 4044 	str.w	r4, [r9, #68]	; 0x44
 800d27c:	4621      	mov	r1, r4
 800d27e:	4648      	mov	r0, r9
 800d280:	f000 fb06 	bl	800d890 <_Balloc>
 800d284:	f04f 33ff 	mov.w	r3, #4294967295
 800d288:	930e      	str	r3, [sp, #56]	; 0x38
 800d28a:	9309      	str	r3, [sp, #36]	; 0x24
 800d28c:	2301      	movs	r3, #1
 800d28e:	4683      	mov	fp, r0
 800d290:	9407      	str	r4, [sp, #28]
 800d292:	f8c9 0040 	str.w	r0, [r9, #64]	; 0x40
 800d296:	930a      	str	r3, [sp, #40]	; 0x28
 800d298:	e4b4      	b.n	800cc04 <_dtoa_r+0x454>
 800d29a:	f000 fb31 	bl	800d900 <__multadd>
 800d29e:	4627      	mov	r7, r4
 800d2a0:	4605      	mov	r5, r0
 800d2a2:	4680      	mov	r8, r0
 800d2a4:	e612      	b.n	800cecc <_dtoa_r+0x71c>
 800d2a6:	4648      	mov	r0, r9
 800d2a8:	f000 fb1a 	bl	800d8e0 <_Bfree>
 800d2ac:	2301      	movs	r3, #1
 800d2ae:	e637      	b.n	800cf20 <_dtoa_r+0x770>
 800d2b0:	9b02      	ldr	r3, [sp, #8]
 800d2b2:	2b02      	cmp	r3, #2
 800d2b4:	f77f adf1 	ble.w	800ce9a <_dtoa_r+0x6ea>
 800d2b8:	9b09      	ldr	r3, [sp, #36]	; 0x24
 800d2ba:	2b00      	cmp	r3, #0
 800d2bc:	f000 80d0 	beq.w	800d460 <_dtoa_r+0xcb0>
 800d2c0:	9b07      	ldr	r3, [sp, #28]
 800d2c2:	43db      	mvns	r3, r3
 800d2c4:	9306      	str	r3, [sp, #24]
 800d2c6:	465c      	mov	r4, fp
 800d2c8:	e78b      	b.n	800d1e2 <_dtoa_r+0xa32>
 800d2ca:	9a06      	ldr	r2, [sp, #24]
 800d2cc:	2331      	movs	r3, #49	; 0x31
 800d2ce:	3201      	adds	r2, #1
 800d2d0:	9206      	str	r2, [sp, #24]
 800d2d2:	f88b 3000 	strb.w	r3, [fp]
 800d2d6:	e6b3      	b.n	800d040 <_dtoa_r+0x890>
 800d2d8:	2401      	movs	r4, #1
 800d2da:	9409      	str	r4, [sp, #36]	; 0x24
 800d2dc:	9407      	str	r4, [sp, #28]
 800d2de:	f7ff bb89 	b.w	800c9f4 <_dtoa_r+0x244>
 800d2e2:	4630      	mov	r0, r6
 800d2e4:	f7f3 f95e 	bl	80005a4 <__aeabi_i2d>
 800d2e8:	e9dd 2300 	ldrd	r2, r3, [sp]
 800d2ec:	f7f3 f9c8 	bl	8000680 <__aeabi_dmul>
 800d2f0:	2200      	movs	r2, #0
 800d2f2:	4b69      	ldr	r3, [pc, #420]	; (800d498 <_dtoa_r+0xce8>)
 800d2f4:	f7f3 f80a 	bl	800030c <__adddf3>
 800d2f8:	4606      	mov	r6, r0
 800d2fa:	f1a1 7750 	sub.w	r7, r1, #54525952	; 0x3400000
 800d2fe:	2200      	movs	r2, #0
 800d300:	4b62      	ldr	r3, [pc, #392]	; (800d48c <_dtoa_r+0xcdc>)
 800d302:	e9dd 0100 	ldrd	r0, r1, [sp]
 800d306:	f7f2 ffff 	bl	8000308 <__aeabi_dsub>
 800d30a:	4632      	mov	r2, r6
 800d30c:	463b      	mov	r3, r7
 800d30e:	4604      	mov	r4, r0
 800d310:	460d      	mov	r5, r1
 800d312:	f7f3 ff5b 	bl	80011cc <__aeabi_dcmpgt>
 800d316:	2800      	cmp	r0, #0
 800d318:	d150      	bne.n	800d3bc <_dtoa_r+0xc0c>
 800d31a:	4632      	mov	r2, r6
 800d31c:	f107 4300 	add.w	r3, r7, #2147483648	; 0x80000000
 800d320:	4620      	mov	r0, r4
 800d322:	4629      	mov	r1, r5
 800d324:	f7f3 ff34 	bl	8001190 <__aeabi_dcmplt>
 800d328:	2800      	cmp	r0, #0
 800d32a:	f43f ac67 	beq.w	800cbfc <_dtoa_r+0x44c>
 800d32e:	2600      	movs	r6, #0
 800d330:	4635      	mov	r5, r6
 800d332:	e7c5      	b.n	800d2c0 <_dtoa_r+0xb10>
 800d334:	2301      	movs	r3, #1
 800d336:	930a      	str	r3, [sp, #40]	; 0x28
 800d338:	e6c8      	b.n	800d0cc <_dtoa_r+0x91c>
 800d33a:	4651      	mov	r1, sl
 800d33c:	9a0b      	ldr	r2, [sp, #44]	; 0x2c
 800d33e:	4648      	mov	r0, r9
 800d340:	f000 fc26 	bl	800db90 <__pow5mult>
 800d344:	4682      	mov	sl, r0
 800d346:	e570      	b.n	800ce2a <_dtoa_r+0x67a>
 800d348:	f8dd a000 	ldr.w	sl, [sp]
 800d34c:	f8dd 901c 	ldr.w	r9, [sp, #28]
 800d350:	e686      	b.n	800d060 <_dtoa_r+0x8b0>
 800d352:	9b0b      	ldr	r3, [sp, #44]	; 0x2c
 800d354:	9a0c      	ldr	r2, [sp, #48]	; 0x30
 800d356:	1afb      	subs	r3, r7, r3
 800d358:	441a      	add	r2, r3
 800d35a:	e9cd 720b 	strd	r7, r2, [sp, #44]	; 0x2c
 800d35e:	2700      	movs	r7, #0
 800d360:	e510      	b.n	800cd84 <_dtoa_r+0x5d4>
 800d362:	2b00      	cmp	r3, #0
 800d364:	9402      	str	r4, [sp, #8]
 800d366:	465e      	mov	r6, fp
 800d368:	f107 0401 	add.w	r4, r7, #1
 800d36c:	f8dd b02c 	ldr.w	fp, [sp, #44]	; 0x2c
 800d370:	f300 80bc 	bgt.w	800d4ec <_dtoa_r+0xd3c>
 800d374:	f89d 3000 	ldrb.w	r3, [sp]
 800d378:	9502      	str	r5, [sp, #8]
 800d37a:	703b      	strb	r3, [r7, #0]
 800d37c:	4645      	mov	r5, r8
 800d37e:	e65f      	b.n	800d040 <_dtoa_r+0x890>
 800d380:	ed9d 7b10 	vldr	d7, [sp, #64]	; 0x40
 800d384:	2602      	movs	r6, #2
 800d386:	ed8d 7b12 	vstr	d7, [sp, #72]	; 0x48
 800d38a:	f7ff bb64 	b.w	800ca56 <_dtoa_r+0x2a6>
 800d38e:	9b00      	ldr	r3, [sp, #0]
 800d390:	2b39      	cmp	r3, #57	; 0x39
 800d392:	465e      	mov	r6, fp
 800d394:	f8dd b02c 	ldr.w	fp, [sp, #44]	; 0x2c
 800d398:	f000 80ba 	beq.w	800d510 <_dtoa_r+0xd60>
 800d39c:	9b00      	ldr	r3, [sp, #0]
 800d39e:	9502      	str	r5, [sp, #8]
 800d3a0:	3301      	adds	r3, #1
 800d3a2:	703b      	strb	r3, [r7, #0]
 800d3a4:	4645      	mov	r5, r8
 800d3a6:	e64b      	b.n	800d040 <_dtoa_r+0x890>
 800d3a8:	e9dd 3208 	ldrd	r3, r2, [sp, #32]
 800d3ac:	1a9c      	subs	r4, r3, r2
 800d3ae:	e4f2      	b.n	800cd96 <_dtoa_r+0x5e6>
 800d3b0:	465e      	mov	r6, fp
 800d3b2:	9502      	str	r5, [sp, #8]
 800d3b4:	f8dd b02c 	ldr.w	fp, [sp, #44]	; 0x2c
 800d3b8:	4645      	mov	r5, r8
 800d3ba:	e618      	b.n	800cfee <_dtoa_r+0x83e>
 800d3bc:	2600      	movs	r6, #0
 800d3be:	4635      	mov	r5, r6
 800d3c0:	e707      	b.n	800d1d2 <_dtoa_r+0xa22>
 800d3c2:	e9dd 2314 	ldrd	r2, r3, [sp, #80]	; 0x50
 800d3c6:	e9dd 0100 	ldrd	r0, r1, [sp]
 800d3ca:	f7f3 f959 	bl	8000680 <__aeabi_dmul>
 800d3ce:	9b12      	ldr	r3, [sp, #72]	; 0x48
 800d3d0:	f88b 5000 	strb.w	r5, [fp]
 800d3d4:	2b01      	cmp	r3, #1
 800d3d6:	e9cd 0100 	strd	r0, r1, [sp]
 800d3da:	d020      	beq.n	800d41e <_dtoa_r+0xc6e>
 800d3dc:	9b12      	ldr	r3, [sp, #72]	; 0x48
 800d3de:	f8cd 8048 	str.w	r8, [sp, #72]	; 0x48
 800d3e2:	445b      	add	r3, fp
 800d3e4:	4698      	mov	r8, r3
 800d3e6:	2200      	movs	r2, #0
 800d3e8:	4b2c      	ldr	r3, [pc, #176]	; (800d49c <_dtoa_r+0xcec>)
 800d3ea:	4630      	mov	r0, r6
 800d3ec:	4639      	mov	r1, r7
 800d3ee:	f7f3 f947 	bl	8000680 <__aeabi_dmul>
 800d3f2:	460f      	mov	r7, r1
 800d3f4:	4606      	mov	r6, r0
 800d3f6:	f7f3 fb5b 	bl	8000ab0 <__aeabi_d2iz>
 800d3fa:	4605      	mov	r5, r0
 800d3fc:	f7f3 f8d2 	bl	80005a4 <__aeabi_i2d>
 800d400:	3530      	adds	r5, #48	; 0x30
 800d402:	4602      	mov	r2, r0
 800d404:	460b      	mov	r3, r1
 800d406:	4630      	mov	r0, r6
 800d408:	4639      	mov	r1, r7
 800d40a:	f7f2 ff7d 	bl	8000308 <__aeabi_dsub>
 800d40e:	f804 5b01 	strb.w	r5, [r4], #1
 800d412:	4544      	cmp	r4, r8
 800d414:	4606      	mov	r6, r0
 800d416:	460f      	mov	r7, r1
 800d418:	d1e5      	bne.n	800d3e6 <_dtoa_r+0xc36>
 800d41a:	f8dd 8048 	ldr.w	r8, [sp, #72]	; 0x48
 800d41e:	4b20      	ldr	r3, [pc, #128]	; (800d4a0 <_dtoa_r+0xcf0>)
 800d420:	2200      	movs	r2, #0
 800d422:	e9dd 0100 	ldrd	r0, r1, [sp]
 800d426:	f7f2 ff71 	bl	800030c <__adddf3>
 800d42a:	4632      	mov	r2, r6
 800d42c:	463b      	mov	r3, r7
 800d42e:	f7f3 feaf 	bl	8001190 <__aeabi_dcmplt>
 800d432:	2800      	cmp	r0, #0
 800d434:	d071      	beq.n	800d51a <_dtoa_r+0xd6a>
 800d436:	9b16      	ldr	r3, [sp, #88]	; 0x58
 800d438:	9306      	str	r3, [sp, #24]
 800d43a:	f814 5c01 	ldrb.w	r5, [r4, #-1]
 800d43e:	e48c      	b.n	800cd5a <_dtoa_r+0x5aa>
 800d440:	2330      	movs	r3, #48	; 0x30
 800d442:	f88b 3000 	strb.w	r3, [fp]
 800d446:	9b06      	ldr	r3, [sp, #24]
 800d448:	f814 5c01 	ldrb.w	r5, [r4, #-1]
 800d44c:	3301      	adds	r3, #1
 800d44e:	9306      	str	r3, [sp, #24]
 800d450:	465b      	mov	r3, fp
 800d452:	e486      	b.n	800cd62 <_dtoa_r+0x5b2>
 800d454:	9b18      	ldr	r3, [sp, #96]	; 0x60
 800d456:	f1c3 0336 	rsb	r3, r3, #54	; 0x36
 800d45a:	e69f      	b.n	800d19c <_dtoa_r+0x9ec>
 800d45c:	2300      	movs	r3, #0
 800d45e:	e675      	b.n	800d14c <_dtoa_r+0x99c>
 800d460:	4631      	mov	r1, r6
 800d462:	2205      	movs	r2, #5
 800d464:	4648      	mov	r0, r9
 800d466:	f000 fa4b 	bl	800d900 <__multadd>
 800d46a:	4601      	mov	r1, r0
 800d46c:	4606      	mov	r6, r0
 800d46e:	4650      	mov	r0, sl
 800d470:	f000 fc36 	bl	800dce0 <__mcmp>
 800d474:	2800      	cmp	r0, #0
 800d476:	f73f aeac 	bgt.w	800d1d2 <_dtoa_r+0xa22>
 800d47a:	e721      	b.n	800d2c0 <_dtoa_r+0xb10>
 800d47c:	ed9d 7b10 	vldr	d7, [sp, #64]	; 0x40
 800d480:	2602      	movs	r6, #2
 800d482:	ed8d 7b00 	vstr	d7, [sp]
 800d486:	f7ff baff 	b.w	800ca88 <_dtoa_r+0x2d8>
 800d48a:	bf00      	nop
 800d48c:	40140000 	.word	0x40140000
 800d490:	0800f380 	.word	0x0800f380
 800d494:	0800f350 	.word	0x0800f350
 800d498:	401c0000 	.word	0x401c0000
 800d49c:	40240000 	.word	0x40240000
 800d4a0:	3fe00000 	.word	0x3fe00000
 800d4a4:	9b09      	ldr	r3, [sp, #36]	; 0x24
 800d4a6:	2b00      	cmp	r3, #0
 800d4a8:	f43f af1b 	beq.w	800d2e2 <_dtoa_r+0xb32>
 800d4ac:	9c0e      	ldr	r4, [sp, #56]	; 0x38
 800d4ae:	2c00      	cmp	r4, #0
 800d4b0:	f77f aba4 	ble.w	800cbfc <_dtoa_r+0x44c>
 800d4b4:	2200      	movs	r2, #0
 800d4b6:	4b45      	ldr	r3, [pc, #276]	; (800d5cc <_dtoa_r+0xe1c>)
 800d4b8:	e9dd 0100 	ldrd	r0, r1, [sp]
 800d4bc:	f7f3 f8e0 	bl	8000680 <__aeabi_dmul>
 800d4c0:	e9cd 0100 	strd	r0, r1, [sp]
 800d4c4:	1c70      	adds	r0, r6, #1
 800d4c6:	f7f3 f86d 	bl	80005a4 <__aeabi_i2d>
 800d4ca:	e9dd 2300 	ldrd	r2, r3, [sp]
 800d4ce:	f7f3 f8d7 	bl	8000680 <__aeabi_dmul>
 800d4d2:	4b3f      	ldr	r3, [pc, #252]	; (800d5d0 <_dtoa_r+0xe20>)
 800d4d4:	2200      	movs	r2, #0
 800d4d6:	f7f2 ff19 	bl	800030c <__adddf3>
 800d4da:	9b06      	ldr	r3, [sp, #24]
 800d4dc:	9412      	str	r4, [sp, #72]	; 0x48
 800d4de:	3b01      	subs	r3, #1
 800d4e0:	4606      	mov	r6, r0
 800d4e2:	f1a1 7750 	sub.w	r7, r1, #54525952	; 0x3400000
 800d4e6:	9316      	str	r3, [sp, #88]	; 0x58
 800d4e8:	f7ff baef 	b.w	800caca <_dtoa_r+0x31a>
 800d4ec:	4651      	mov	r1, sl
 800d4ee:	2201      	movs	r2, #1
 800d4f0:	4648      	mov	r0, r9
 800d4f2:	f000 fb9d 	bl	800dc30 <__lshift>
 800d4f6:	4631      	mov	r1, r6
 800d4f8:	4682      	mov	sl, r0
 800d4fa:	f000 fbf1 	bl	800dce0 <__mcmp>
 800d4fe:	2800      	cmp	r0, #0
 800d500:	dd3b      	ble.n	800d57a <_dtoa_r+0xdca>
 800d502:	9b00      	ldr	r3, [sp, #0]
 800d504:	2b39      	cmp	r3, #57	; 0x39
 800d506:	d003      	beq.n	800d510 <_dtoa_r+0xd60>
 800d508:	9b02      	ldr	r3, [sp, #8]
 800d50a:	3331      	adds	r3, #49	; 0x31
 800d50c:	9300      	str	r3, [sp, #0]
 800d50e:	e731      	b.n	800d374 <_dtoa_r+0xbc4>
 800d510:	2239      	movs	r2, #57	; 0x39
 800d512:	9502      	str	r5, [sp, #8]
 800d514:	703a      	strb	r2, [r7, #0]
 800d516:	4645      	mov	r5, r8
 800d518:	e58c      	b.n	800d034 <_dtoa_r+0x884>
 800d51a:	e9dd 2300 	ldrd	r2, r3, [sp]
 800d51e:	2000      	movs	r0, #0
 800d520:	492c      	ldr	r1, [pc, #176]	; (800d5d4 <_dtoa_r+0xe24>)
 800d522:	f7f2 fef1 	bl	8000308 <__aeabi_dsub>
 800d526:	4632      	mov	r2, r6
 800d528:	463b      	mov	r3, r7
 800d52a:	f7f3 fe4f 	bl	80011cc <__aeabi_dcmpgt>
 800d52e:	b910      	cbnz	r0, 800d536 <_dtoa_r+0xd86>
 800d530:	f7ff bb64 	b.w	800cbfc <_dtoa_r+0x44c>
 800d534:	4614      	mov	r4, r2
 800d536:	f814 3c01 	ldrb.w	r3, [r4, #-1]
 800d53a:	2b30      	cmp	r3, #48	; 0x30
 800d53c:	f104 32ff 	add.w	r2, r4, #4294967295
 800d540:	d0f8      	beq.n	800d534 <_dtoa_r+0xd84>
 800d542:	9b16      	ldr	r3, [sp, #88]	; 0x58
 800d544:	9306      	str	r3, [sp, #24]
 800d546:	e58b      	b.n	800d060 <_dtoa_r+0x8b0>
 800d548:	46d9      	mov	r9, fp
 800d54a:	f8dd a048 	ldr.w	sl, [sp, #72]	; 0x48
 800d54e:	f8dd b050 	ldr.w	fp, [sp, #80]	; 0x50
 800d552:	9b16      	ldr	r3, [sp, #88]	; 0x58
 800d554:	9306      	str	r3, [sp, #24]
 800d556:	e400      	b.n	800cd5a <_dtoa_r+0x5aa>
 800d558:	9b00      	ldr	r3, [sp, #0]
 800d55a:	2b39      	cmp	r3, #57	; 0x39
 800d55c:	4621      	mov	r1, r4
 800d55e:	4632      	mov	r2, r6
 800d560:	f107 0401 	add.w	r4, r7, #1
 800d564:	465e      	mov	r6, fp
 800d566:	f8dd b02c 	ldr.w	fp, [sp, #44]	; 0x2c
 800d56a:	d0d1      	beq.n	800d510 <_dtoa_r+0xd60>
 800d56c:	2a00      	cmp	r2, #0
 800d56e:	f77f af01 	ble.w	800d374 <_dtoa_r+0xbc4>
 800d572:	460b      	mov	r3, r1
 800d574:	3331      	adds	r3, #49	; 0x31
 800d576:	9300      	str	r3, [sp, #0]
 800d578:	e6fc      	b.n	800d374 <_dtoa_r+0xbc4>
 800d57a:	f47f aefb 	bne.w	800d374 <_dtoa_r+0xbc4>
 800d57e:	9b00      	ldr	r3, [sp, #0]
 800d580:	07da      	lsls	r2, r3, #31
 800d582:	f57f aef7 	bpl.w	800d374 <_dtoa_r+0xbc4>
 800d586:	e7bc      	b.n	800d502 <_dtoa_r+0xd52>
 800d588:	4629      	mov	r1, r5
 800d58a:	2300      	movs	r3, #0
 800d58c:	220a      	movs	r2, #10
 800d58e:	4648      	mov	r0, r9
 800d590:	f000 f9b6 	bl	800d900 <__multadd>
 800d594:	9b0e      	ldr	r3, [sp, #56]	; 0x38
 800d596:	2b00      	cmp	r3, #0
 800d598:	4605      	mov	r5, r0
 800d59a:	dd09      	ble.n	800d5b0 <_dtoa_r+0xe00>
 800d59c:	9309      	str	r3, [sp, #36]	; 0x24
 800d59e:	e480      	b.n	800cea2 <_dtoa_r+0x6f2>
 800d5a0:	9b02      	ldr	r3, [sp, #8]
 800d5a2:	2b02      	cmp	r3, #2
 800d5a4:	dc0e      	bgt.n	800d5c4 <_dtoa_r+0xe14>
 800d5a6:	9b0e      	ldr	r3, [sp, #56]	; 0x38
 800d5a8:	e504      	b.n	800cfb4 <_dtoa_r+0x804>
 800d5aa:	2602      	movs	r6, #2
 800d5ac:	f7ff ba6c 	b.w	800ca88 <_dtoa_r+0x2d8>
 800d5b0:	9b02      	ldr	r3, [sp, #8]
 800d5b2:	2b02      	cmp	r3, #2
 800d5b4:	dc06      	bgt.n	800d5c4 <_dtoa_r+0xe14>
 800d5b6:	9b0e      	ldr	r3, [sp, #56]	; 0x38
 800d5b8:	e7f0      	b.n	800d59c <_dtoa_r+0xdec>
 800d5ba:	f43f ac55 	beq.w	800ce68 <_dtoa_r+0x6b8>
 800d5be:	f1c0 003c 	rsb	r0, r0, #60	; 0x3c
 800d5c2:	e44c      	b.n	800ce5e <_dtoa_r+0x6ae>
 800d5c4:	9b0e      	ldr	r3, [sp, #56]	; 0x38
 800d5c6:	9309      	str	r3, [sp, #36]	; 0x24
 800d5c8:	e676      	b.n	800d2b8 <_dtoa_r+0xb08>
 800d5ca:	bf00      	nop
 800d5cc:	40240000 	.word	0x40240000
 800d5d0:	401c0000 	.word	0x401c0000
 800d5d4:	3fe00000 	.word	0x3fe00000
	...

0800d5e0 <_malloc_trim_r>:
 800d5e0:	b5f8      	push	{r3, r4, r5, r6, r7, lr}
 800d5e2:	4f24      	ldr	r7, [pc, #144]	; (800d674 <_malloc_trim_r+0x94>)
 800d5e4:	460c      	mov	r4, r1
 800d5e6:	4606      	mov	r6, r0
 800d5e8:	f7f4 ff2a 	bl	8002440 <__malloc_lock>
 800d5ec:	68bb      	ldr	r3, [r7, #8]
 800d5ee:	685d      	ldr	r5, [r3, #4]
 800d5f0:	f5c4 617e 	rsb	r1, r4, #4064	; 0xfe0
 800d5f4:	310f      	adds	r1, #15
 800d5f6:	f025 0503 	bic.w	r5, r5, #3
 800d5fa:	4429      	add	r1, r5
 800d5fc:	f421 617f 	bic.w	r1, r1, #4080	; 0xff0
 800d600:	f021 010f 	bic.w	r1, r1, #15
 800d604:	f5a1 5480 	sub.w	r4, r1, #4096	; 0x1000
 800d608:	f5b4 5f80 	cmp.w	r4, #4096	; 0x1000
 800d60c:	db07      	blt.n	800d61e <_malloc_trim_r+0x3e>
 800d60e:	2100      	movs	r1, #0
 800d610:	4630      	mov	r0, r6
 800d612:	f7f4 ff45 	bl	80024a0 <_sbrk_r>
 800d616:	68bb      	ldr	r3, [r7, #8]
 800d618:	442b      	add	r3, r5
 800d61a:	4298      	cmp	r0, r3
 800d61c:	d004      	beq.n	800d628 <_malloc_trim_r+0x48>
 800d61e:	4630      	mov	r0, r6
 800d620:	f7f4 ff26 	bl	8002470 <__malloc_unlock>
 800d624:	2000      	movs	r0, #0
 800d626:	bdf8      	pop	{r3, r4, r5, r6, r7, pc}
 800d628:	4261      	negs	r1, r4
 800d62a:	4630      	mov	r0, r6
 800d62c:	f7f4 ff38 	bl	80024a0 <_sbrk_r>
 800d630:	3001      	adds	r0, #1
 800d632:	d00d      	beq.n	800d650 <_malloc_trim_r+0x70>
 800d634:	4b10      	ldr	r3, [pc, #64]	; (800d678 <_malloc_trim_r+0x98>)
 800d636:	68ba      	ldr	r2, [r7, #8]
 800d638:	6819      	ldr	r1, [r3, #0]
 800d63a:	1b2d      	subs	r5, r5, r4
 800d63c:	f045 0501 	orr.w	r5, r5, #1
 800d640:	4630      	mov	r0, r6
 800d642:	1b09      	subs	r1, r1, r4
 800d644:	6055      	str	r5, [r2, #4]
 800d646:	6019      	str	r1, [r3, #0]
 800d648:	f7f4 ff12 	bl	8002470 <__malloc_unlock>
 800d64c:	2001      	movs	r0, #1
 800d64e:	bdf8      	pop	{r3, r4, r5, r6, r7, pc}
 800d650:	2100      	movs	r1, #0
 800d652:	4630      	mov	r0, r6
 800d654:	f7f4 ff24 	bl	80024a0 <_sbrk_r>
 800d658:	68ba      	ldr	r2, [r7, #8]
 800d65a:	1a83      	subs	r3, r0, r2
 800d65c:	2b0f      	cmp	r3, #15
 800d65e:	ddde      	ble.n	800d61e <_malloc_trim_r+0x3e>
 800d660:	4c06      	ldr	r4, [pc, #24]	; (800d67c <_malloc_trim_r+0x9c>)
 800d662:	4905      	ldr	r1, [pc, #20]	; (800d678 <_malloc_trim_r+0x98>)
 800d664:	6824      	ldr	r4, [r4, #0]
 800d666:	f043 0301 	orr.w	r3, r3, #1
 800d66a:	1b00      	subs	r0, r0, r4
 800d66c:	6053      	str	r3, [r2, #4]
 800d66e:	6008      	str	r0, [r1, #0]
 800d670:	e7d5      	b.n	800d61e <_malloc_trim_r+0x3e>
 800d672:	bf00      	nop
 800d674:	20000dc4 	.word	0x20000dc4
 800d678:	200023dc 	.word	0x200023dc
 800d67c:	200011cc 	.word	0x200011cc

0800d680 <_free_r>:
 800d680:	2900      	cmp	r1, #0
 800d682:	d053      	beq.n	800d72c <_free_r+0xac>
 800d684:	b5f8      	push	{r3, r4, r5, r6, r7, lr}
 800d686:	460c      	mov	r4, r1
 800d688:	4606      	mov	r6, r0
 800d68a:	f7f4 fed9 	bl	8002440 <__malloc_lock>
 800d68e:	f854 cc04 	ldr.w	ip, [r4, #-4]
 800d692:	4f71      	ldr	r7, [pc, #452]	; (800d858 <_free_r+0x1d8>)
 800d694:	f02c 0101 	bic.w	r1, ip, #1
 800d698:	f1a4 0508 	sub.w	r5, r4, #8
 800d69c:	186b      	adds	r3, r5, r1
 800d69e:	68b8      	ldr	r0, [r7, #8]
 800d6a0:	685a      	ldr	r2, [r3, #4]
 800d6a2:	4298      	cmp	r0, r3
 800d6a4:	f022 0203 	bic.w	r2, r2, #3
 800d6a8:	d053      	beq.n	800d752 <_free_r+0xd2>
 800d6aa:	f01c 0f01 	tst.w	ip, #1
 800d6ae:	605a      	str	r2, [r3, #4]
 800d6b0:	eb03 0002 	add.w	r0, r3, r2
 800d6b4:	d13b      	bne.n	800d72e <_free_r+0xae>
 800d6b6:	f854 cc08 	ldr.w	ip, [r4, #-8]
 800d6ba:	6840      	ldr	r0, [r0, #4]
 800d6bc:	eba5 050c 	sub.w	r5, r5, ip
 800d6c0:	f107 0e08 	add.w	lr, r7, #8
 800d6c4:	68ac      	ldr	r4, [r5, #8]
 800d6c6:	4574      	cmp	r4, lr
 800d6c8:	4461      	add	r1, ip
 800d6ca:	f000 0001 	and.w	r0, r0, #1
 800d6ce:	d075      	beq.n	800d7bc <_free_r+0x13c>
 800d6d0:	f8d5 c00c 	ldr.w	ip, [r5, #12]
 800d6d4:	f8c4 c00c 	str.w	ip, [r4, #12]
 800d6d8:	f8cc 4008 	str.w	r4, [ip, #8]
 800d6dc:	b360      	cbz	r0, 800d738 <_free_r+0xb8>
 800d6de:	f041 0301 	orr.w	r3, r1, #1
 800d6e2:	606b      	str	r3, [r5, #4]
 800d6e4:	5069      	str	r1, [r5, r1]
 800d6e6:	f5b1 7f00 	cmp.w	r1, #512	; 0x200
 800d6ea:	d350      	bcc.n	800d78e <_free_r+0x10e>
 800d6ec:	0a4b      	lsrs	r3, r1, #9
 800d6ee:	2b04      	cmp	r3, #4
 800d6f0:	d870      	bhi.n	800d7d4 <_free_r+0x154>
 800d6f2:	098b      	lsrs	r3, r1, #6
 800d6f4:	f103 0439 	add.w	r4, r3, #57	; 0x39
 800d6f8:	00e4      	lsls	r4, r4, #3
 800d6fa:	f103 0238 	add.w	r2, r3, #56	; 0x38
 800d6fe:	1938      	adds	r0, r7, r4
 800d700:	593b      	ldr	r3, [r7, r4]
 800d702:	3808      	subs	r0, #8
 800d704:	4298      	cmp	r0, r3
 800d706:	d078      	beq.n	800d7fa <_free_r+0x17a>
 800d708:	685a      	ldr	r2, [r3, #4]
 800d70a:	f022 0203 	bic.w	r2, r2, #3
 800d70e:	428a      	cmp	r2, r1
 800d710:	d971      	bls.n	800d7f6 <_free_r+0x176>
 800d712:	689b      	ldr	r3, [r3, #8]
 800d714:	4298      	cmp	r0, r3
 800d716:	d1f7      	bne.n	800d708 <_free_r+0x88>
 800d718:	68c3      	ldr	r3, [r0, #12]
 800d71a:	e9c5 0302 	strd	r0, r3, [r5, #8]
 800d71e:	609d      	str	r5, [r3, #8]
 800d720:	60c5      	str	r5, [r0, #12]
 800d722:	4630      	mov	r0, r6
 800d724:	e8bd 40f8 	ldmia.w	sp!, {r3, r4, r5, r6, r7, lr}
 800d728:	f7f4 bea2 	b.w	8002470 <__malloc_unlock>
 800d72c:	4770      	bx	lr
 800d72e:	6840      	ldr	r0, [r0, #4]
 800d730:	f000 0001 	and.w	r0, r0, #1
 800d734:	2800      	cmp	r0, #0
 800d736:	d1d2      	bne.n	800d6de <_free_r+0x5e>
 800d738:	6898      	ldr	r0, [r3, #8]
 800d73a:	4c48      	ldr	r4, [pc, #288]	; (800d85c <_free_r+0x1dc>)
 800d73c:	4411      	add	r1, r2
 800d73e:	42a0      	cmp	r0, r4
 800d740:	f041 0201 	orr.w	r2, r1, #1
 800d744:	d062      	beq.n	800d80c <_free_r+0x18c>
 800d746:	68db      	ldr	r3, [r3, #12]
 800d748:	60c3      	str	r3, [r0, #12]
 800d74a:	6098      	str	r0, [r3, #8]
 800d74c:	606a      	str	r2, [r5, #4]
 800d74e:	5069      	str	r1, [r5, r1]
 800d750:	e7c9      	b.n	800d6e6 <_free_r+0x66>
 800d752:	f01c 0f01 	tst.w	ip, #1
 800d756:	440a      	add	r2, r1
 800d758:	d107      	bne.n	800d76a <_free_r+0xea>
 800d75a:	f854 3c08 	ldr.w	r3, [r4, #-8]
 800d75e:	1aed      	subs	r5, r5, r3
 800d760:	441a      	add	r2, r3
 800d762:	e9d5 1302 	ldrd	r1, r3, [r5, #8]
 800d766:	60cb      	str	r3, [r1, #12]
 800d768:	6099      	str	r1, [r3, #8]
 800d76a:	4b3d      	ldr	r3, [pc, #244]	; (800d860 <_free_r+0x1e0>)
 800d76c:	681b      	ldr	r3, [r3, #0]
 800d76e:	f042 0101 	orr.w	r1, r2, #1
 800d772:	4293      	cmp	r3, r2
 800d774:	6069      	str	r1, [r5, #4]
 800d776:	60bd      	str	r5, [r7, #8]
 800d778:	d804      	bhi.n	800d784 <_free_r+0x104>
 800d77a:	4b3a      	ldr	r3, [pc, #232]	; (800d864 <_free_r+0x1e4>)
 800d77c:	4630      	mov	r0, r6
 800d77e:	6819      	ldr	r1, [r3, #0]
 800d780:	f7ff ff2e 	bl	800d5e0 <_malloc_trim_r>
 800d784:	4630      	mov	r0, r6
 800d786:	e8bd 40f8 	ldmia.w	sp!, {r3, r4, r5, r6, r7, lr}
 800d78a:	f7f4 be71 	b.w	8002470 <__malloc_unlock>
 800d78e:	08c9      	lsrs	r1, r1, #3
 800d790:	6878      	ldr	r0, [r7, #4]
 800d792:	1c4a      	adds	r2, r1, #1
 800d794:	2301      	movs	r3, #1
 800d796:	1089      	asrs	r1, r1, #2
 800d798:	408b      	lsls	r3, r1
 800d79a:	4303      	orrs	r3, r0
 800d79c:	eb07 01c2 	add.w	r1, r7, r2, lsl #3
 800d7a0:	f857 0032 	ldr.w	r0, [r7, r2, lsl #3]
 800d7a4:	607b      	str	r3, [r7, #4]
 800d7a6:	3908      	subs	r1, #8
 800d7a8:	e9c5 0102 	strd	r0, r1, [r5, #8]
 800d7ac:	f847 5032 	str.w	r5, [r7, r2, lsl #3]
 800d7b0:	60c5      	str	r5, [r0, #12]
 800d7b2:	4630      	mov	r0, r6
 800d7b4:	e8bd 40f8 	ldmia.w	sp!, {r3, r4, r5, r6, r7, lr}
 800d7b8:	f7f4 be5a 	b.w	8002470 <__malloc_unlock>
 800d7bc:	2800      	cmp	r0, #0
 800d7be:	d145      	bne.n	800d84c <_free_r+0x1cc>
 800d7c0:	440a      	add	r2, r1
 800d7c2:	e9d3 1302 	ldrd	r1, r3, [r3, #8]
 800d7c6:	f042 0001 	orr.w	r0, r2, #1
 800d7ca:	60cb      	str	r3, [r1, #12]
 800d7cc:	6099      	str	r1, [r3, #8]
 800d7ce:	6068      	str	r0, [r5, #4]
 800d7d0:	50aa      	str	r2, [r5, r2]
 800d7d2:	e7d7      	b.n	800d784 <_free_r+0x104>
 800d7d4:	2b14      	cmp	r3, #20
 800d7d6:	d908      	bls.n	800d7ea <_free_r+0x16a>
 800d7d8:	2b54      	cmp	r3, #84	; 0x54
 800d7da:	d81e      	bhi.n	800d81a <_free_r+0x19a>
 800d7dc:	0b0b      	lsrs	r3, r1, #12
 800d7de:	f103 046f 	add.w	r4, r3, #111	; 0x6f
 800d7e2:	00e4      	lsls	r4, r4, #3
 800d7e4:	f103 026e 	add.w	r2, r3, #110	; 0x6e
 800d7e8:	e789      	b.n	800d6fe <_free_r+0x7e>
 800d7ea:	f103 045c 	add.w	r4, r3, #92	; 0x5c
 800d7ee:	00e4      	lsls	r4, r4, #3
 800d7f0:	f103 025b 	add.w	r2, r3, #91	; 0x5b
 800d7f4:	e783      	b.n	800d6fe <_free_r+0x7e>
 800d7f6:	4618      	mov	r0, r3
 800d7f8:	e78e      	b.n	800d718 <_free_r+0x98>
 800d7fa:	1093      	asrs	r3, r2, #2
 800d7fc:	6879      	ldr	r1, [r7, #4]
 800d7fe:	2201      	movs	r2, #1
 800d800:	fa02 f303 	lsl.w	r3, r2, r3
 800d804:	430b      	orrs	r3, r1
 800d806:	607b      	str	r3, [r7, #4]
 800d808:	4603      	mov	r3, r0
 800d80a:	e786      	b.n	800d71a <_free_r+0x9a>
 800d80c:	e9c7 5504 	strd	r5, r5, [r7, #16]
 800d810:	e9c5 0002 	strd	r0, r0, [r5, #8]
 800d814:	606a      	str	r2, [r5, #4]
 800d816:	5069      	str	r1, [r5, r1]
 800d818:	e7b4      	b.n	800d784 <_free_r+0x104>
 800d81a:	f5b3 7faa 	cmp.w	r3, #340	; 0x154
 800d81e:	d806      	bhi.n	800d82e <_free_r+0x1ae>
 800d820:	0bcb      	lsrs	r3, r1, #15
 800d822:	f103 0478 	add.w	r4, r3, #120	; 0x78
 800d826:	00e4      	lsls	r4, r4, #3
 800d828:	f103 0277 	add.w	r2, r3, #119	; 0x77
 800d82c:	e767      	b.n	800d6fe <_free_r+0x7e>
 800d82e:	f240 5254 	movw	r2, #1364	; 0x554
 800d832:	4293      	cmp	r3, r2
 800d834:	d806      	bhi.n	800d844 <_free_r+0x1c4>
 800d836:	0c8b      	lsrs	r3, r1, #18
 800d838:	f103 047d 	add.w	r4, r3, #125	; 0x7d
 800d83c:	00e4      	lsls	r4, r4, #3
 800d83e:	f103 027c 	add.w	r2, r3, #124	; 0x7c
 800d842:	e75c      	b.n	800d6fe <_free_r+0x7e>
 800d844:	f44f 747e 	mov.w	r4, #1016	; 0x3f8
 800d848:	227e      	movs	r2, #126	; 0x7e
 800d84a:	e758      	b.n	800d6fe <_free_r+0x7e>
 800d84c:	f041 0201 	orr.w	r2, r1, #1
 800d850:	606a      	str	r2, [r5, #4]
 800d852:	6019      	str	r1, [r3, #0]
 800d854:	e796      	b.n	800d784 <_free_r+0x104>
 800d856:	bf00      	nop
 800d858:	20000dc4 	.word	0x20000dc4
 800d85c:	20000dcc 	.word	0x20000dcc
 800d860:	200011d0 	.word	0x200011d0
 800d864:	2000240c 	.word	0x2000240c
	...

0800d870 <_localeconv_r>:
 800d870:	4a04      	ldr	r2, [pc, #16]	; (800d884 <_localeconv_r+0x14>)
 800d872:	4b05      	ldr	r3, [pc, #20]	; (800d888 <_localeconv_r+0x18>)
 800d874:	6812      	ldr	r2, [r2, #0]
 800d876:	6b50      	ldr	r0, [r2, #52]	; 0x34
 800d878:	2800      	cmp	r0, #0
 800d87a:	bf08      	it	eq
 800d87c:	4618      	moveq	r0, r3
 800d87e:	30f0      	adds	r0, #240	; 0xf0
 800d880:	4770      	bx	lr
 800d882:	bf00      	nop
 800d884:	2000082c 	.word	0x2000082c
 800d888:	20000c58 	.word	0x20000c58
 800d88c:	00000000 	.word	0x00000000

0800d890 <_Balloc>:
 800d890:	6cc3      	ldr	r3, [r0, #76]	; 0x4c
 800d892:	b570      	push	{r4, r5, r6, lr}
 800d894:	4605      	mov	r5, r0
 800d896:	460c      	mov	r4, r1
 800d898:	b14b      	cbz	r3, 800d8ae <_Balloc+0x1e>
 800d89a:	f853 0024 	ldr.w	r0, [r3, r4, lsl #2]
 800d89e:	b180      	cbz	r0, 800d8c2 <_Balloc+0x32>
 800d8a0:	6802      	ldr	r2, [r0, #0]
 800d8a2:	f843 2024 	str.w	r2, [r3, r4, lsl #2]
 800d8a6:	2300      	movs	r3, #0
 800d8a8:	e9c0 3303 	strd	r3, r3, [r0, #12]
 800d8ac:	bd70      	pop	{r4, r5, r6, pc}
 800d8ae:	2221      	movs	r2, #33	; 0x21
 800d8b0:	2104      	movs	r1, #4
 800d8b2:	f000 fb95 	bl	800dfe0 <_calloc_r>
 800d8b6:	4603      	mov	r3, r0
 800d8b8:	64e8      	str	r0, [r5, #76]	; 0x4c
 800d8ba:	2800      	cmp	r0, #0
 800d8bc:	d1ed      	bne.n	800d89a <_Balloc+0xa>
 800d8be:	2000      	movs	r0, #0
 800d8c0:	bd70      	pop	{r4, r5, r6, pc}
 800d8c2:	2101      	movs	r1, #1
 800d8c4:	fa01 f604 	lsl.w	r6, r1, r4
 800d8c8:	1d72      	adds	r2, r6, #5
 800d8ca:	4628      	mov	r0, r5
 800d8cc:	0092      	lsls	r2, r2, #2
 800d8ce:	f000 fb87 	bl	800dfe0 <_calloc_r>
 800d8d2:	2800      	cmp	r0, #0
 800d8d4:	d0f3      	beq.n	800d8be <_Balloc+0x2e>
 800d8d6:	e9c0 4601 	strd	r4, r6, [r0, #4]
 800d8da:	e7e4      	b.n	800d8a6 <_Balloc+0x16>
 800d8dc:	0000      	movs	r0, r0
	...

0800d8e0 <_Bfree>:
 800d8e0:	b131      	cbz	r1, 800d8f0 <_Bfree+0x10>
 800d8e2:	6cc3      	ldr	r3, [r0, #76]	; 0x4c
 800d8e4:	684a      	ldr	r2, [r1, #4]
 800d8e6:	f853 0022 	ldr.w	r0, [r3, r2, lsl #2]
 800d8ea:	6008      	str	r0, [r1, #0]
 800d8ec:	f843 1022 	str.w	r1, [r3, r2, lsl #2]
 800d8f0:	4770      	bx	lr
 800d8f2:	bf00      	nop
	...

0800d900 <__multadd>:
 800d900:	b5f0      	push	{r4, r5, r6, r7, lr}
 800d902:	690c      	ldr	r4, [r1, #16]
 800d904:	b083      	sub	sp, #12
 800d906:	460d      	mov	r5, r1
 800d908:	4606      	mov	r6, r0
 800d90a:	f101 0c14 	add.w	ip, r1, #20
 800d90e:	2700      	movs	r7, #0
 800d910:	f8dc 0000 	ldr.w	r0, [ip]
 800d914:	b281      	uxth	r1, r0
 800d916:	fb02 3301 	mla	r3, r2, r1, r3
 800d91a:	0c01      	lsrs	r1, r0, #16
 800d91c:	0c18      	lsrs	r0, r3, #16
 800d91e:	fb02 0101 	mla	r1, r2, r1, r0
 800d922:	b29b      	uxth	r3, r3
 800d924:	3701      	adds	r7, #1
 800d926:	eb03 4301 	add.w	r3, r3, r1, lsl #16
 800d92a:	42bc      	cmp	r4, r7
 800d92c:	f84c 3b04 	str.w	r3, [ip], #4
 800d930:	ea4f 4311 	mov.w	r3, r1, lsr #16
 800d934:	dcec      	bgt.n	800d910 <__multadd+0x10>
 800d936:	b13b      	cbz	r3, 800d948 <__multadd+0x48>
 800d938:	68aa      	ldr	r2, [r5, #8]
 800d93a:	42a2      	cmp	r2, r4
 800d93c:	dd07      	ble.n	800d94e <__multadd+0x4e>
 800d93e:	eb05 0284 	add.w	r2, r5, r4, lsl #2
 800d942:	3401      	adds	r4, #1
 800d944:	6153      	str	r3, [r2, #20]
 800d946:	612c      	str	r4, [r5, #16]
 800d948:	4628      	mov	r0, r5
 800d94a:	b003      	add	sp, #12
 800d94c:	bdf0      	pop	{r4, r5, r6, r7, pc}
 800d94e:	6869      	ldr	r1, [r5, #4]
 800d950:	9301      	str	r3, [sp, #4]
 800d952:	3101      	adds	r1, #1
 800d954:	4630      	mov	r0, r6
 800d956:	f7ff ff9b 	bl	800d890 <_Balloc>
 800d95a:	692a      	ldr	r2, [r5, #16]
 800d95c:	3202      	adds	r2, #2
 800d95e:	f105 010c 	add.w	r1, r5, #12
 800d962:	4607      	mov	r7, r0
 800d964:	0092      	lsls	r2, r2, #2
 800d966:	300c      	adds	r0, #12
 800d968:	f7f3 fa52 	bl	8000e10 <memcpy>
 800d96c:	6cf2      	ldr	r2, [r6, #76]	; 0x4c
 800d96e:	6869      	ldr	r1, [r5, #4]
 800d970:	9b01      	ldr	r3, [sp, #4]
 800d972:	f852 0021 	ldr.w	r0, [r2, r1, lsl #2]
 800d976:	6028      	str	r0, [r5, #0]
 800d978:	f842 5021 	str.w	r5, [r2, r1, lsl #2]
 800d97c:	463d      	mov	r5, r7
 800d97e:	e7de      	b.n	800d93e <__multadd+0x3e>

0800d980 <__hi0bits>:
 800d980:	0c02      	lsrs	r2, r0, #16
 800d982:	0412      	lsls	r2, r2, #16
 800d984:	4603      	mov	r3, r0
 800d986:	b9c2      	cbnz	r2, 800d9ba <__hi0bits+0x3a>
 800d988:	0403      	lsls	r3, r0, #16
 800d98a:	2010      	movs	r0, #16
 800d98c:	f013 4f7f 	tst.w	r3, #4278190080	; 0xff000000
 800d990:	bf04      	itt	eq
 800d992:	021b      	lsleq	r3, r3, #8
 800d994:	3008      	addeq	r0, #8
 800d996:	f013 4f70 	tst.w	r3, #4026531840	; 0xf0000000
 800d99a:	bf04      	itt	eq
 800d99c:	011b      	lsleq	r3, r3, #4
 800d99e:	3004      	addeq	r0, #4
 800d9a0:	f013 4f40 	tst.w	r3, #3221225472	; 0xc0000000
 800d9a4:	bf04      	itt	eq
 800d9a6:	009b      	lsleq	r3, r3, #2
 800d9a8:	3002      	addeq	r0, #2
 800d9aa:	2b00      	cmp	r3, #0
 800d9ac:	db04      	blt.n	800d9b8 <__hi0bits+0x38>
 800d9ae:	005b      	lsls	r3, r3, #1
 800d9b0:	d501      	bpl.n	800d9b6 <__hi0bits+0x36>
 800d9b2:	3001      	adds	r0, #1
 800d9b4:	4770      	bx	lr
 800d9b6:	2020      	movs	r0, #32
 800d9b8:	4770      	bx	lr
 800d9ba:	2000      	movs	r0, #0
 800d9bc:	e7e6      	b.n	800d98c <__hi0bits+0xc>
 800d9be:	bf00      	nop

0800d9c0 <__lo0bits>:
 800d9c0:	6803      	ldr	r3, [r0, #0]
 800d9c2:	f013 0207 	ands.w	r2, r3, #7
 800d9c6:	4601      	mov	r1, r0
 800d9c8:	d007      	beq.n	800d9da <__lo0bits+0x1a>
 800d9ca:	07da      	lsls	r2, r3, #31
 800d9cc:	d41f      	bmi.n	800da0e <__lo0bits+0x4e>
 800d9ce:	0798      	lsls	r0, r3, #30
 800d9d0:	d51f      	bpl.n	800da12 <__lo0bits+0x52>
 800d9d2:	085b      	lsrs	r3, r3, #1
 800d9d4:	600b      	str	r3, [r1, #0]
 800d9d6:	2001      	movs	r0, #1
 800d9d8:	4770      	bx	lr
 800d9da:	b298      	uxth	r0, r3
 800d9dc:	b1a0      	cbz	r0, 800da08 <__lo0bits+0x48>
 800d9de:	4610      	mov	r0, r2
 800d9e0:	f013 0fff 	tst.w	r3, #255	; 0xff
 800d9e4:	bf04      	itt	eq
 800d9e6:	0a1b      	lsreq	r3, r3, #8
 800d9e8:	3008      	addeq	r0, #8
 800d9ea:	071a      	lsls	r2, r3, #28
 800d9ec:	bf04      	itt	eq
 800d9ee:	091b      	lsreq	r3, r3, #4
 800d9f0:	3004      	addeq	r0, #4
 800d9f2:	079a      	lsls	r2, r3, #30
 800d9f4:	bf04      	itt	eq
 800d9f6:	089b      	lsreq	r3, r3, #2
 800d9f8:	3002      	addeq	r0, #2
 800d9fa:	07da      	lsls	r2, r3, #31
 800d9fc:	d402      	bmi.n	800da04 <__lo0bits+0x44>
 800d9fe:	085b      	lsrs	r3, r3, #1
 800da00:	d00b      	beq.n	800da1a <__lo0bits+0x5a>
 800da02:	3001      	adds	r0, #1
 800da04:	600b      	str	r3, [r1, #0]
 800da06:	4770      	bx	lr
 800da08:	0c1b      	lsrs	r3, r3, #16
 800da0a:	2010      	movs	r0, #16
 800da0c:	e7e8      	b.n	800d9e0 <__lo0bits+0x20>
 800da0e:	2000      	movs	r0, #0
 800da10:	4770      	bx	lr
 800da12:	089b      	lsrs	r3, r3, #2
 800da14:	600b      	str	r3, [r1, #0]
 800da16:	2002      	movs	r0, #2
 800da18:	4770      	bx	lr
 800da1a:	2020      	movs	r0, #32
 800da1c:	4770      	bx	lr
 800da1e:	bf00      	nop

0800da20 <__i2b>:
 800da20:	b510      	push	{r4, lr}
 800da22:	460c      	mov	r4, r1
 800da24:	2101      	movs	r1, #1
 800da26:	f7ff ff33 	bl	800d890 <_Balloc>
 800da2a:	2201      	movs	r2, #1
 800da2c:	e9c0 2404 	strd	r2, r4, [r0, #16]
 800da30:	bd10      	pop	{r4, pc}
 800da32:	bf00      	nop
	...

0800da40 <__multiply>:
 800da40:	e92d 4ff0 	stmdb	sp!, {r4, r5, r6, r7, r8, r9, sl, fp, lr}
 800da44:	690e      	ldr	r6, [r1, #16]
 800da46:	6914      	ldr	r4, [r2, #16]
 800da48:	42a6      	cmp	r6, r4
 800da4a:	b083      	sub	sp, #12
 800da4c:	460f      	mov	r7, r1
 800da4e:	4615      	mov	r5, r2
 800da50:	da04      	bge.n	800da5c <__multiply+0x1c>
 800da52:	4632      	mov	r2, r6
 800da54:	462f      	mov	r7, r5
 800da56:	4626      	mov	r6, r4
 800da58:	460d      	mov	r5, r1
 800da5a:	4614      	mov	r4, r2
 800da5c:	e9d7 1301 	ldrd	r1, r3, [r7, #4]
 800da60:	eb06 0804 	add.w	r8, r6, r4
 800da64:	4543      	cmp	r3, r8
 800da66:	bfb8      	it	lt
 800da68:	3101      	addlt	r1, #1
 800da6a:	f7ff ff11 	bl	800d890 <_Balloc>
 800da6e:	f100 0914 	add.w	r9, r0, #20
 800da72:	eb09 0e88 	add.w	lr, r9, r8, lsl #2
 800da76:	45f1      	cmp	r9, lr
 800da78:	9000      	str	r0, [sp, #0]
 800da7a:	d205      	bcs.n	800da88 <__multiply+0x48>
 800da7c:	464b      	mov	r3, r9
 800da7e:	2200      	movs	r2, #0
 800da80:	f843 2b04 	str.w	r2, [r3], #4
 800da84:	459e      	cmp	lr, r3
 800da86:	d8fb      	bhi.n	800da80 <__multiply+0x40>
 800da88:	f105 0a14 	add.w	sl, r5, #20
 800da8c:	eb0a 0484 	add.w	r4, sl, r4, lsl #2
 800da90:	f107 0314 	add.w	r3, r7, #20
 800da94:	45a2      	cmp	sl, r4
 800da96:	eb03 0c86 	add.w	ip, r3, r6, lsl #2
 800da9a:	d261      	bcs.n	800db60 <__multiply+0x120>
 800da9c:	1b64      	subs	r4, r4, r5
 800da9e:	3c15      	subs	r4, #21
 800daa0:	f024 0403 	bic.w	r4, r4, #3
 800daa4:	f8cd e004 	str.w	lr, [sp, #4]
 800daa8:	44a2      	add	sl, r4
 800daaa:	f105 0210 	add.w	r2, r5, #16
 800daae:	469e      	mov	lr, r3
 800dab0:	e005      	b.n	800dabe <__multiply+0x7e>
 800dab2:	0c2d      	lsrs	r5, r5, #16
 800dab4:	d12b      	bne.n	800db0e <__multiply+0xce>
 800dab6:	4592      	cmp	sl, r2
 800dab8:	f109 0904 	add.w	r9, r9, #4
 800dabc:	d04e      	beq.n	800db5c <__multiply+0x11c>
 800dabe:	f852 5f04 	ldr.w	r5, [r2, #4]!
 800dac2:	fa1f fb85 	uxth.w	fp, r5
 800dac6:	f1bb 0f00 	cmp.w	fp, #0
 800daca:	d0f2      	beq.n	800dab2 <__multiply+0x72>
 800dacc:	4677      	mov	r7, lr
 800dace:	464e      	mov	r6, r9
 800dad0:	2000      	movs	r0, #0
 800dad2:	e000      	b.n	800dad6 <__multiply+0x96>
 800dad4:	4626      	mov	r6, r4
 800dad6:	f857 1b04 	ldr.w	r1, [r7], #4
 800dada:	6834      	ldr	r4, [r6, #0]
 800dadc:	b28b      	uxth	r3, r1
 800dade:	b2a5      	uxth	r5, r4
 800dae0:	0c09      	lsrs	r1, r1, #16
 800dae2:	0c24      	lsrs	r4, r4, #16
 800dae4:	fb0b 5303 	mla	r3, fp, r3, r5
 800dae8:	4403      	add	r3, r0
 800daea:	fb0b 4001 	mla	r0, fp, r1, r4
 800daee:	eb00 4013 	add.w	r0, r0, r3, lsr #16
 800daf2:	4634      	mov	r4, r6
 800daf4:	b29b      	uxth	r3, r3
 800daf6:	ea43 4300 	orr.w	r3, r3, r0, lsl #16
 800dafa:	45bc      	cmp	ip, r7
 800dafc:	ea4f 4010 	mov.w	r0, r0, lsr #16
 800db00:	f844 3b04 	str.w	r3, [r4], #4
 800db04:	d8e6      	bhi.n	800dad4 <__multiply+0x94>
 800db06:	6070      	str	r0, [r6, #4]
 800db08:	6815      	ldr	r5, [r2, #0]
 800db0a:	0c2d      	lsrs	r5, r5, #16
 800db0c:	d0d3      	beq.n	800dab6 <__multiply+0x76>
 800db0e:	f8d9 3000 	ldr.w	r3, [r9]
 800db12:	4676      	mov	r6, lr
 800db14:	4618      	mov	r0, r3
 800db16:	46cb      	mov	fp, r9
 800db18:	2100      	movs	r1, #0
 800db1a:	e000      	b.n	800db1e <__multiply+0xde>
 800db1c:	46a3      	mov	fp, r4
 800db1e:	8834      	ldrh	r4, [r6, #0]
 800db20:	0c00      	lsrs	r0, r0, #16
 800db22:	fb05 0004 	mla	r0, r5, r4, r0
 800db26:	4401      	add	r1, r0
 800db28:	b29b      	uxth	r3, r3
 800db2a:	465c      	mov	r4, fp
 800db2c:	ea43 4301 	orr.w	r3, r3, r1, lsl #16
 800db30:	f844 3b04 	str.w	r3, [r4], #4
 800db34:	f856 3b04 	ldr.w	r3, [r6], #4
 800db38:	f8db 0004 	ldr.w	r0, [fp, #4]
 800db3c:	0c1b      	lsrs	r3, r3, #16
 800db3e:	b287      	uxth	r7, r0
 800db40:	fb05 7303 	mla	r3, r5, r3, r7
 800db44:	eb03 4311 	add.w	r3, r3, r1, lsr #16
 800db48:	45b4      	cmp	ip, r6
 800db4a:	ea4f 4113 	mov.w	r1, r3, lsr #16
 800db4e:	d8e5      	bhi.n	800db1c <__multiply+0xdc>
 800db50:	4592      	cmp	sl, r2
 800db52:	f8cb 3004 	str.w	r3, [fp, #4]
 800db56:	f109 0904 	add.w	r9, r9, #4
 800db5a:	d1b0      	bne.n	800dabe <__multiply+0x7e>
 800db5c:	f8dd e004 	ldr.w	lr, [sp, #4]
 800db60:	f1b8 0f00 	cmp.w	r8, #0
 800db64:	dd0b      	ble.n	800db7e <__multiply+0x13e>
 800db66:	f85e 3c04 	ldr.w	r3, [lr, #-4]
 800db6a:	f1ae 0e04 	sub.w	lr, lr, #4
 800db6e:	b11b      	cbz	r3, 800db78 <__multiply+0x138>
 800db70:	e005      	b.n	800db7e <__multiply+0x13e>
 800db72:	f85e 3d04 	ldr.w	r3, [lr, #-4]!
 800db76:	b913      	cbnz	r3, 800db7e <__multiply+0x13e>
 800db78:	f1b8 0801 	subs.w	r8, r8, #1
 800db7c:	d1f9      	bne.n	800db72 <__multiply+0x132>
 800db7e:	9800      	ldr	r0, [sp, #0]
 800db80:	f8c0 8010 	str.w	r8, [r0, #16]
 800db84:	b003      	add	sp, #12
 800db86:	e8bd 8ff0 	ldmia.w	sp!, {r4, r5, r6, r7, r8, r9, sl, fp, pc}
 800db8a:	bf00      	nop
 800db8c:	0000      	movs	r0, r0
	...

0800db90 <__pow5mult>:
 800db90:	f012 0303 	ands.w	r3, r2, #3
 800db94:	e92d 41f0 	stmdb	sp!, {r4, r5, r6, r7, r8, lr}
 800db98:	4614      	mov	r4, r2
 800db9a:	4607      	mov	r7, r0
 800db9c:	d12e      	bne.n	800dbfc <__pow5mult+0x6c>
 800db9e:	460d      	mov	r5, r1
 800dba0:	10a4      	asrs	r4, r4, #2
 800dba2:	d01c      	beq.n	800dbde <__pow5mult+0x4e>
 800dba4:	6cbe      	ldr	r6, [r7, #72]	; 0x48
 800dba6:	b396      	cbz	r6, 800dc0e <__pow5mult+0x7e>
 800dba8:	07e3      	lsls	r3, r4, #31
 800dbaa:	f04f 0800 	mov.w	r8, #0
 800dbae:	d406      	bmi.n	800dbbe <__pow5mult+0x2e>
 800dbb0:	1064      	asrs	r4, r4, #1
 800dbb2:	d014      	beq.n	800dbde <__pow5mult+0x4e>
 800dbb4:	6830      	ldr	r0, [r6, #0]
 800dbb6:	b1a8      	cbz	r0, 800dbe4 <__pow5mult+0x54>
 800dbb8:	4606      	mov	r6, r0
 800dbba:	07e3      	lsls	r3, r4, #31
 800dbbc:	d5f8      	bpl.n	800dbb0 <__pow5mult+0x20>
 800dbbe:	4632      	mov	r2, r6
 800dbc0:	4629      	mov	r1, r5
 800dbc2:	4638      	mov	r0, r7
 800dbc4:	f7ff ff3c 	bl	800da40 <__multiply>
 800dbc8:	b1b5      	cbz	r5, 800dbf8 <__pow5mult+0x68>
 800dbca:	686a      	ldr	r2, [r5, #4]
 800dbcc:	6cfb      	ldr	r3, [r7, #76]	; 0x4c
 800dbce:	1064      	asrs	r4, r4, #1
 800dbd0:	f853 1022 	ldr.w	r1, [r3, r2, lsl #2]
 800dbd4:	6029      	str	r1, [r5, #0]
 800dbd6:	f843 5022 	str.w	r5, [r3, r2, lsl #2]
 800dbda:	4605      	mov	r5, r0
 800dbdc:	d1ea      	bne.n	800dbb4 <__pow5mult+0x24>
 800dbde:	4628      	mov	r0, r5
 800dbe0:	e8bd 81f0 	ldmia.w	sp!, {r4, r5, r6, r7, r8, pc}
 800dbe4:	4632      	mov	r2, r6
 800dbe6:	4631      	mov	r1, r6
 800dbe8:	4638      	mov	r0, r7
 800dbea:	f7ff ff29 	bl	800da40 <__multiply>
 800dbee:	6030      	str	r0, [r6, #0]
 800dbf0:	f8c0 8000 	str.w	r8, [r0]
 800dbf4:	4606      	mov	r6, r0
 800dbf6:	e7e0      	b.n	800dbba <__pow5mult+0x2a>
 800dbf8:	4605      	mov	r5, r0
 800dbfa:	e7d9      	b.n	800dbb0 <__pow5mult+0x20>
 800dbfc:	3b01      	subs	r3, #1
 800dbfe:	4a0b      	ldr	r2, [pc, #44]	; (800dc2c <__pow5mult+0x9c>)
 800dc00:	f852 2023 	ldr.w	r2, [r2, r3, lsl #2]
 800dc04:	2300      	movs	r3, #0
 800dc06:	f7ff fe7b 	bl	800d900 <__multadd>
 800dc0a:	4605      	mov	r5, r0
 800dc0c:	e7c8      	b.n	800dba0 <__pow5mult+0x10>
 800dc0e:	2101      	movs	r1, #1
 800dc10:	4638      	mov	r0, r7
 800dc12:	f7ff fe3d 	bl	800d890 <_Balloc>
 800dc16:	f240 2371 	movw	r3, #625	; 0x271
 800dc1a:	6143      	str	r3, [r0, #20]
 800dc1c:	2201      	movs	r2, #1
 800dc1e:	2300      	movs	r3, #0
 800dc20:	6102      	str	r2, [r0, #16]
 800dc22:	4606      	mov	r6, r0
 800dc24:	64b8      	str	r0, [r7, #72]	; 0x48
 800dc26:	6003      	str	r3, [r0, #0]
 800dc28:	e7be      	b.n	800dba8 <__pow5mult+0x18>
 800dc2a:	bf00      	nop
 800dc2c:	0800f450 	.word	0x0800f450

0800dc30 <__lshift>:
 800dc30:	e92d 47f0 	stmdb	sp!, {r4, r5, r6, r7, r8, r9, sl, lr}
 800dc34:	4691      	mov	r9, r2
 800dc36:	690a      	ldr	r2, [r1, #16]
 800dc38:	460e      	mov	r6, r1
 800dc3a:	ea4f 1469 	mov.w	r4, r9, asr #5
 800dc3e:	e9d1 1301 	ldrd	r1, r3, [r1, #4]
 800dc42:	eb04 0802 	add.w	r8, r4, r2
 800dc46:	f108 0501 	add.w	r5, r8, #1
 800dc4a:	429d      	cmp	r5, r3
 800dc4c:	4607      	mov	r7, r0
 800dc4e:	dd04      	ble.n	800dc5a <__lshift+0x2a>
 800dc50:	005b      	lsls	r3, r3, #1
 800dc52:	429d      	cmp	r5, r3
 800dc54:	f101 0101 	add.w	r1, r1, #1
 800dc58:	dcfa      	bgt.n	800dc50 <__lshift+0x20>
 800dc5a:	4638      	mov	r0, r7
 800dc5c:	f7ff fe18 	bl	800d890 <_Balloc>
 800dc60:	2c00      	cmp	r4, #0
 800dc62:	f100 0314 	add.w	r3, r0, #20
 800dc66:	dd37      	ble.n	800dcd8 <__lshift+0xa8>
 800dc68:	eb03 0184 	add.w	r1, r3, r4, lsl #2
 800dc6c:	2200      	movs	r2, #0
 800dc6e:	f843 2b04 	str.w	r2, [r3], #4
 800dc72:	428b      	cmp	r3, r1
 800dc74:	d1fb      	bne.n	800dc6e <__lshift+0x3e>
 800dc76:	6934      	ldr	r4, [r6, #16]
 800dc78:	f106 0314 	add.w	r3, r6, #20
 800dc7c:	f019 091f 	ands.w	r9, r9, #31
 800dc80:	eb03 0c84 	add.w	ip, r3, r4, lsl #2
 800dc84:	d020      	beq.n	800dcc8 <__lshift+0x98>
 800dc86:	f1c9 0e20 	rsb	lr, r9, #32
 800dc8a:	2200      	movs	r2, #0
 800dc8c:	e000      	b.n	800dc90 <__lshift+0x60>
 800dc8e:	4651      	mov	r1, sl
 800dc90:	681c      	ldr	r4, [r3, #0]
 800dc92:	468a      	mov	sl, r1
 800dc94:	fa04 f409 	lsl.w	r4, r4, r9
 800dc98:	4314      	orrs	r4, r2
 800dc9a:	f84a 4b04 	str.w	r4, [sl], #4
 800dc9e:	f853 2b04 	ldr.w	r2, [r3], #4
 800dca2:	4563      	cmp	r3, ip
 800dca4:	fa22 f20e 	lsr.w	r2, r2, lr
 800dca8:	d3f1      	bcc.n	800dc8e <__lshift+0x5e>
 800dcaa:	604a      	str	r2, [r1, #4]
 800dcac:	b10a      	cbz	r2, 800dcb2 <__lshift+0x82>
 800dcae:	f108 0502 	add.w	r5, r8, #2
 800dcb2:	6cfb      	ldr	r3, [r7, #76]	; 0x4c
 800dcb4:	6872      	ldr	r2, [r6, #4]
 800dcb6:	3d01      	subs	r5, #1
 800dcb8:	f853 1022 	ldr.w	r1, [r3, r2, lsl #2]
 800dcbc:	6105      	str	r5, [r0, #16]
 800dcbe:	6031      	str	r1, [r6, #0]
 800dcc0:	f843 6022 	str.w	r6, [r3, r2, lsl #2]
 800dcc4:	e8bd 87f0 	ldmia.w	sp!, {r4, r5, r6, r7, r8, r9, sl, pc}
 800dcc8:	3904      	subs	r1, #4
 800dcca:	f853 2b04 	ldr.w	r2, [r3], #4
 800dcce:	f841 2f04 	str.w	r2, [r1, #4]!
 800dcd2:	459c      	cmp	ip, r3
 800dcd4:	d8f9      	bhi.n	800dcca <__lshift+0x9a>
 800dcd6:	e7ec      	b.n	800dcb2 <__lshift+0x82>
 800dcd8:	4619      	mov	r1, r3
 800dcda:	e7cc      	b.n	800dc76 <__lshift+0x46>
 800dcdc:	0000      	movs	r0, r0
	...

0800dce0 <__mcmp>:
 800dce0:	b430      	push	{r4, r5}
 800dce2:	690b      	ldr	r3, [r1, #16]
 800dce4:	4605      	mov	r5, r0
 800dce6:	6900      	ldr	r0, [r0, #16]
 800dce8:	1ac0      	subs	r0, r0, r3
 800dcea:	d10f      	bne.n	800dd0c <__mcmp+0x2c>
 800dcec:	009b      	lsls	r3, r3, #2
 800dcee:	3514      	adds	r5, #20
 800dcf0:	3114      	adds	r1, #20
 800dcf2:	4419      	add	r1, r3
 800dcf4:	442b      	add	r3, r5
 800dcf6:	e001      	b.n	800dcfc <__mcmp+0x1c>
 800dcf8:	429d      	cmp	r5, r3
 800dcfa:	d207      	bcs.n	800dd0c <__mcmp+0x2c>
 800dcfc:	f853 4d04 	ldr.w	r4, [r3, #-4]!
 800dd00:	f851 2d04 	ldr.w	r2, [r1, #-4]!
 800dd04:	4294      	cmp	r4, r2
 800dd06:	d0f7      	beq.n	800dcf8 <__mcmp+0x18>
 800dd08:	d302      	bcc.n	800dd10 <__mcmp+0x30>
 800dd0a:	2001      	movs	r0, #1
 800dd0c:	bc30      	pop	{r4, r5}
 800dd0e:	4770      	bx	lr
 800dd10:	f04f 30ff 	mov.w	r0, #4294967295
 800dd14:	e7fa      	b.n	800dd0c <__mcmp+0x2c>
 800dd16:	bf00      	nop
	...

0800dd20 <__mdiff>:
 800dd20:	e92d 41f0 	stmdb	sp!, {r4, r5, r6, r7, r8, lr}
 800dd24:	6913      	ldr	r3, [r2, #16]
 800dd26:	690d      	ldr	r5, [r1, #16]
 800dd28:	1aed      	subs	r5, r5, r3
 800dd2a:	2d00      	cmp	r5, #0
 800dd2c:	460e      	mov	r6, r1
 800dd2e:	4690      	mov	r8, r2
 800dd30:	f101 0414 	add.w	r4, r1, #20
 800dd34:	f102 0714 	add.w	r7, r2, #20
 800dd38:	d114      	bne.n	800dd64 <__mdiff+0x44>
 800dd3a:	009b      	lsls	r3, r3, #2
 800dd3c:	18e2      	adds	r2, r4, r3
 800dd3e:	443b      	add	r3, r7
 800dd40:	e001      	b.n	800dd46 <__mdiff+0x26>
 800dd42:	42a2      	cmp	r2, r4
 800dd44:	d959      	bls.n	800ddfa <__mdiff+0xda>
 800dd46:	f852 cd04 	ldr.w	ip, [r2, #-4]!
 800dd4a:	f853 1d04 	ldr.w	r1, [r3, #-4]!
 800dd4e:	458c      	cmp	ip, r1
 800dd50:	d0f7      	beq.n	800dd42 <__mdiff+0x22>
 800dd52:	d209      	bcs.n	800dd68 <__mdiff+0x48>
 800dd54:	4622      	mov	r2, r4
 800dd56:	4633      	mov	r3, r6
 800dd58:	463c      	mov	r4, r7
 800dd5a:	4646      	mov	r6, r8
 800dd5c:	4617      	mov	r7, r2
 800dd5e:	4698      	mov	r8, r3
 800dd60:	2501      	movs	r5, #1
 800dd62:	e001      	b.n	800dd68 <__mdiff+0x48>
 800dd64:	dbf6      	blt.n	800dd54 <__mdiff+0x34>
 800dd66:	2500      	movs	r5, #0
 800dd68:	6871      	ldr	r1, [r6, #4]
 800dd6a:	f7ff fd91 	bl	800d890 <_Balloc>
 800dd6e:	f8d8 3010 	ldr.w	r3, [r8, #16]
 800dd72:	6936      	ldr	r6, [r6, #16]
 800dd74:	60c5      	str	r5, [r0, #12]
 800dd76:	eb07 0e83 	add.w	lr, r7, r3, lsl #2
 800dd7a:	46bc      	mov	ip, r7
 800dd7c:	f100 0514 	add.w	r5, r0, #20
 800dd80:	eb04 0786 	add.w	r7, r4, r6, lsl #2
 800dd84:	2300      	movs	r3, #0
 800dd86:	f85c 1b04 	ldr.w	r1, [ip], #4
 800dd8a:	f854 8b04 	ldr.w	r8, [r4], #4
 800dd8e:	b28a      	uxth	r2, r1
 800dd90:	fa13 f388 	uxtah	r3, r3, r8
 800dd94:	0c09      	lsrs	r1, r1, #16
 800dd96:	1a9a      	subs	r2, r3, r2
 800dd98:	ebc1 4318 	rsb	r3, r1, r8, lsr #16
 800dd9c:	eb03 4322 	add.w	r3, r3, r2, asr #16
 800dda0:	b292      	uxth	r2, r2
 800dda2:	ea42 4203 	orr.w	r2, r2, r3, lsl #16
 800dda6:	45e6      	cmp	lr, ip
 800dda8:	f845 2b04 	str.w	r2, [r5], #4
 800ddac:	ea4f 4323 	mov.w	r3, r3, asr #16
 800ddb0:	d8e9      	bhi.n	800dd86 <__mdiff+0x66>
 800ddb2:	42a7      	cmp	r7, r4
 800ddb4:	d917      	bls.n	800dde6 <__mdiff+0xc6>
 800ddb6:	46ae      	mov	lr, r5
 800ddb8:	46a4      	mov	ip, r4
 800ddba:	f85c 2b04 	ldr.w	r2, [ip], #4
 800ddbe:	fa13 f382 	uxtah	r3, r3, r2
 800ddc2:	1419      	asrs	r1, r3, #16
 800ddc4:	eb01 4112 	add.w	r1, r1, r2, lsr #16
 800ddc8:	b29b      	uxth	r3, r3
 800ddca:	ea43 4201 	orr.w	r2, r3, r1, lsl #16
 800ddce:	4567      	cmp	r7, ip
 800ddd0:	f84e 2b04 	str.w	r2, [lr], #4
 800ddd4:	ea4f 4321 	mov.w	r3, r1, asr #16
 800ddd8:	d8ef      	bhi.n	800ddba <__mdiff+0x9a>
 800ddda:	43e4      	mvns	r4, r4
 800dddc:	4427      	add	r7, r4
 800ddde:	f027 0703 	bic.w	r7, r7, #3
 800dde2:	3704      	adds	r7, #4
 800dde4:	443d      	add	r5, r7
 800dde6:	3d04      	subs	r5, #4
 800dde8:	b922      	cbnz	r2, 800ddf4 <__mdiff+0xd4>
 800ddea:	f855 3d04 	ldr.w	r3, [r5, #-4]!
 800ddee:	3e01      	subs	r6, #1
 800ddf0:	2b00      	cmp	r3, #0
 800ddf2:	d0fa      	beq.n	800ddea <__mdiff+0xca>
 800ddf4:	6106      	str	r6, [r0, #16]
 800ddf6:	e8bd 81f0 	ldmia.w	sp!, {r4, r5, r6, r7, r8, pc}
 800ddfa:	2100      	movs	r1, #0
 800ddfc:	f7ff fd48 	bl	800d890 <_Balloc>
 800de00:	2201      	movs	r2, #1
 800de02:	2300      	movs	r3, #0
 800de04:	e9c0 2304 	strd	r2, r3, [r0, #16]
 800de08:	e8bd 81f0 	ldmia.w	sp!, {r4, r5, r6, r7, r8, pc}
 800de0c:	0000      	movs	r0, r0
	...

0800de10 <__d2b>:
 800de10:	e92d 43f0 	stmdb	sp!, {r4, r5, r6, r7, r8, r9, lr}
 800de14:	460f      	mov	r7, r1
 800de16:	b083      	sub	sp, #12
 800de18:	2101      	movs	r1, #1
 800de1a:	ec55 4b10 	vmov	r4, r5, d0
 800de1e:	4616      	mov	r6, r2
 800de20:	f7ff fd36 	bl	800d890 <_Balloc>
 800de24:	f3c5 580a 	ubfx	r8, r5, #20, #11
 800de28:	4681      	mov	r9, r0
 800de2a:	f3c5 0313 	ubfx	r3, r5, #0, #20
 800de2e:	f1b8 0f00 	cmp.w	r8, #0
 800de32:	d001      	beq.n	800de38 <__d2b+0x28>
 800de34:	f443 1380 	orr.w	r3, r3, #1048576	; 0x100000
 800de38:	2c00      	cmp	r4, #0
 800de3a:	9301      	str	r3, [sp, #4]
 800de3c:	d024      	beq.n	800de88 <__d2b+0x78>
 800de3e:	a802      	add	r0, sp, #8
 800de40:	f840 4d08 	str.w	r4, [r0, #-8]!
 800de44:	f7ff fdbc 	bl	800d9c0 <__lo0bits>
 800de48:	2800      	cmp	r0, #0
 800de4a:	d136      	bne.n	800deba <__d2b+0xaa>
 800de4c:	e9dd 2300 	ldrd	r2, r3, [sp]
 800de50:	f8c9 2014 	str.w	r2, [r9, #20]
 800de54:	2b00      	cmp	r3, #0
 800de56:	bf0c      	ite	eq
 800de58:	2101      	moveq	r1, #1
 800de5a:	2102      	movne	r1, #2
 800de5c:	f8c9 3018 	str.w	r3, [r9, #24]
 800de60:	f8c9 1010 	str.w	r1, [r9, #16]
 800de64:	f1b8 0f00 	cmp.w	r8, #0
 800de68:	d11b      	bne.n	800dea2 <__d2b+0x92>
 800de6a:	eb09 0381 	add.w	r3, r9, r1, lsl #2
 800de6e:	f2a0 4032 	subw	r0, r0, #1074	; 0x432
 800de72:	6038      	str	r0, [r7, #0]
 800de74:	6918      	ldr	r0, [r3, #16]
 800de76:	f7ff fd83 	bl	800d980 <__hi0bits>
 800de7a:	ebc0 1041 	rsb	r0, r0, r1, lsl #5
 800de7e:	6030      	str	r0, [r6, #0]
 800de80:	4648      	mov	r0, r9
 800de82:	b003      	add	sp, #12
 800de84:	e8bd 83f0 	ldmia.w	sp!, {r4, r5, r6, r7, r8, r9, pc}
 800de88:	a801      	add	r0, sp, #4
 800de8a:	f7ff fd99 	bl	800d9c0 <__lo0bits>
 800de8e:	9b01      	ldr	r3, [sp, #4]
 800de90:	f8c9 3014 	str.w	r3, [r9, #20]
 800de94:	2101      	movs	r1, #1
 800de96:	3020      	adds	r0, #32
 800de98:	f8c9 1010 	str.w	r1, [r9, #16]
 800de9c:	f1b8 0f00 	cmp.w	r8, #0
 800dea0:	d0e3      	beq.n	800de6a <__d2b+0x5a>
 800dea2:	f2a8 4833 	subw	r8, r8, #1075	; 0x433
 800dea6:	eb08 0300 	add.w	r3, r8, r0
 800deaa:	f1c0 0035 	rsb	r0, r0, #53	; 0x35
 800deae:	603b      	str	r3, [r7, #0]
 800deb0:	6030      	str	r0, [r6, #0]
 800deb2:	4648      	mov	r0, r9
 800deb4:	b003      	add	sp, #12
 800deb6:	e8bd 83f0 	ldmia.w	sp!, {r4, r5, r6, r7, r8, r9, pc}
 800deba:	e9dd 1300 	ldrd	r1, r3, [sp]
 800debe:	f1c0 0220 	rsb	r2, r0, #32
 800dec2:	fa03 f202 	lsl.w	r2, r3, r2
 800dec6:	430a      	orrs	r2, r1
 800dec8:	40c3      	lsrs	r3, r0
 800deca:	9301      	str	r3, [sp, #4]
 800decc:	f8c9 2014 	str.w	r2, [r9, #20]
 800ded0:	e7c0      	b.n	800de54 <__d2b+0x44>
 800ded2:	bf00      	nop
	...

0800dee0 <__ssprint_r>:
 800dee0:	e92d 4ff0 	stmdb	sp!, {r4, r5, r6, r7, r8, r9, sl, fp, lr}
 800dee4:	6893      	ldr	r3, [r2, #8]
 800dee6:	b083      	sub	sp, #12
 800dee8:	4690      	mov	r8, r2
 800deea:	2b00      	cmp	r3, #0
 800deec:	d06c      	beq.n	800dfc8 <__ssprint_r+0xe8>
 800deee:	6817      	ldr	r7, [r2, #0]
 800def0:	688d      	ldr	r5, [r1, #8]
 800def2:	4682      	mov	sl, r0
 800def4:	460c      	mov	r4, r1
 800def6:	6808      	ldr	r0, [r1, #0]
 800def8:	3708      	adds	r7, #8
 800defa:	e042      	b.n	800df82 <__ssprint_r+0xa2>
 800defc:	89a3      	ldrh	r3, [r4, #12]
 800defe:	f413 6f90 	tst.w	r3, #1152	; 0x480
 800df02:	d02d      	beq.n	800df60 <__ssprint_r+0x80>
 800df04:	e9d4 1504 	ldrd	r1, r5, [r4, #16]
 800df08:	eb05 0545 	add.w	r5, r5, r5, lsl #1
 800df0c:	eba0 0b01 	sub.w	fp, r0, r1
 800df10:	eb05 75d5 	add.w	r5, r5, r5, lsr #31
 800df14:	1c70      	adds	r0, r6, #1
 800df16:	106d      	asrs	r5, r5, #1
 800df18:	4458      	add	r0, fp
 800df1a:	42a8      	cmp	r0, r5
 800df1c:	462a      	mov	r2, r5
 800df1e:	bf84      	itt	hi
 800df20:	4605      	movhi	r5, r0
 800df22:	462a      	movhi	r2, r5
 800df24:	055b      	lsls	r3, r3, #21
 800df26:	d536      	bpl.n	800df96 <__ssprint_r+0xb6>
 800df28:	4611      	mov	r1, r2
 800df2a:	4650      	mov	r0, sl
 800df2c:	f7fc fe18 	bl	800ab60 <_malloc_r>
 800df30:	2800      	cmp	r0, #0
 800df32:	d03a      	beq.n	800dfaa <__ssprint_r+0xca>
 800df34:	465a      	mov	r2, fp
 800df36:	6921      	ldr	r1, [r4, #16]
 800df38:	9001      	str	r0, [sp, #4]
 800df3a:	f7f2 ff69 	bl	8000e10 <memcpy>
 800df3e:	89a2      	ldrh	r2, [r4, #12]
 800df40:	9b01      	ldr	r3, [sp, #4]
 800df42:	f422 6290 	bic.w	r2, r2, #1152	; 0x480
 800df46:	f042 0280 	orr.w	r2, r2, #128	; 0x80
 800df4a:	81a2      	strh	r2, [r4, #12]
 800df4c:	eba5 020b 	sub.w	r2, r5, fp
 800df50:	eb03 000b 	add.w	r0, r3, fp
 800df54:	6165      	str	r5, [r4, #20]
 800df56:	6123      	str	r3, [r4, #16]
 800df58:	6020      	str	r0, [r4, #0]
 800df5a:	60a2      	str	r2, [r4, #8]
 800df5c:	4635      	mov	r5, r6
 800df5e:	46b3      	mov	fp, r6
 800df60:	465a      	mov	r2, fp
 800df62:	4649      	mov	r1, r9
 800df64:	f000 f874 	bl	800e050 <memmove>
 800df68:	f8d8 3008 	ldr.w	r3, [r8, #8]
 800df6c:	68a2      	ldr	r2, [r4, #8]
 800df6e:	6820      	ldr	r0, [r4, #0]
 800df70:	1b55      	subs	r5, r2, r5
 800df72:	4458      	add	r0, fp
 800df74:	1b9e      	subs	r6, r3, r6
 800df76:	60a5      	str	r5, [r4, #8]
 800df78:	6020      	str	r0, [r4, #0]
 800df7a:	f8c8 6008 	str.w	r6, [r8, #8]
 800df7e:	b31e      	cbz	r6, 800dfc8 <__ssprint_r+0xe8>
 800df80:	3708      	adds	r7, #8
 800df82:	e957 9602 	ldrd	r9, r6, [r7, #-8]
 800df86:	46ab      	mov	fp, r5
 800df88:	2e00      	cmp	r6, #0
 800df8a:	d0f9      	beq.n	800df80 <__ssprint_r+0xa0>
 800df8c:	42ae      	cmp	r6, r5
 800df8e:	d2b5      	bcs.n	800defc <__ssprint_r+0x1c>
 800df90:	4635      	mov	r5, r6
 800df92:	46b3      	mov	fp, r6
 800df94:	e7e4      	b.n	800df60 <__ssprint_r+0x80>
 800df96:	4650      	mov	r0, sl
 800df98:	f000 f8c2 	bl	800e120 <_realloc_r>
 800df9c:	4603      	mov	r3, r0
 800df9e:	2800      	cmp	r0, #0
 800dfa0:	d1d4      	bne.n	800df4c <__ssprint_r+0x6c>
 800dfa2:	6921      	ldr	r1, [r4, #16]
 800dfa4:	4650      	mov	r0, sl
 800dfa6:	f7ff fb6b 	bl	800d680 <_free_r>
 800dfaa:	230c      	movs	r3, #12
 800dfac:	f8ca 3000 	str.w	r3, [sl]
 800dfb0:	89a3      	ldrh	r3, [r4, #12]
 800dfb2:	2200      	movs	r2, #0
 800dfb4:	f043 0340 	orr.w	r3, r3, #64	; 0x40
 800dfb8:	f04f 30ff 	mov.w	r0, #4294967295
 800dfbc:	81a3      	strh	r3, [r4, #12]
 800dfbe:	e9c8 2201 	strd	r2, r2, [r8, #4]
 800dfc2:	b003      	add	sp, #12
 800dfc4:	e8bd 8ff0 	ldmia.w	sp!, {r4, r5, r6, r7, r8, r9, sl, fp, pc}
 800dfc8:	2000      	movs	r0, #0
 800dfca:	f8c8 0004 	str.w	r0, [r8, #4]
 800dfce:	b003      	add	sp, #12
 800dfd0:	e8bd 8ff0 	ldmia.w	sp!, {r4, r5, r6, r7, r8, r9, sl, fp, pc}
	...

0800dfe0 <_calloc_r>:
 800dfe0:	b510      	push	{r4, lr}
 800dfe2:	fb02 f101 	mul.w	r1, r2, r1
 800dfe6:	f7fc fdbb 	bl	800ab60 <_malloc_r>
 800dfea:	4604      	mov	r4, r0
 800dfec:	b1d8      	cbz	r0, 800e026 <_calloc_r+0x46>
 800dfee:	f850 2c04 	ldr.w	r2, [r0, #-4]
 800dff2:	f022 0203 	bic.w	r2, r2, #3
 800dff6:	3a04      	subs	r2, #4
 800dff8:	2a24      	cmp	r2, #36	; 0x24
 800dffa:	d81d      	bhi.n	800e038 <_calloc_r+0x58>
 800dffc:	2a13      	cmp	r2, #19
 800dffe:	d914      	bls.n	800e02a <_calloc_r+0x4a>
 800e000:	2300      	movs	r3, #0
 800e002:	2a1b      	cmp	r2, #27
 800e004:	e9c0 3300 	strd	r3, r3, [r0]
 800e008:	d91b      	bls.n	800e042 <_calloc_r+0x62>
 800e00a:	2a24      	cmp	r2, #36	; 0x24
 800e00c:	e9c0 3302 	strd	r3, r3, [r0, #8]
 800e010:	bf0a      	itet	eq
 800e012:	e9c0 3304 	strdeq	r3, r3, [r0, #16]
 800e016:	f100 0210 	addne.w	r2, r0, #16
 800e01a:	f100 0218 	addeq.w	r2, r0, #24
 800e01e:	2300      	movs	r3, #0
 800e020:	e9c2 3300 	strd	r3, r3, [r2]
 800e024:	6093      	str	r3, [r2, #8]
 800e026:	4620      	mov	r0, r4
 800e028:	bd10      	pop	{r4, pc}
 800e02a:	4602      	mov	r2, r0
 800e02c:	2300      	movs	r3, #0
 800e02e:	e9c2 3300 	strd	r3, r3, [r2]
 800e032:	6093      	str	r3, [r2, #8]
 800e034:	4620      	mov	r0, r4
 800e036:	bd10      	pop	{r4, pc}
 800e038:	2100      	movs	r1, #0
 800e03a:	f7fd f851 	bl	800b0e0 <memset>
 800e03e:	4620      	mov	r0, r4
 800e040:	bd10      	pop	{r4, pc}
 800e042:	f100 0208 	add.w	r2, r0, #8
 800e046:	e7f1      	b.n	800e02c <_calloc_r+0x4c>
	...

0800e050 <memmove>:
 800e050:	4288      	cmp	r0, r1
 800e052:	b4f0      	push	{r4, r5, r6, r7}
 800e054:	d90d      	bls.n	800e072 <memmove+0x22>
 800e056:	188b      	adds	r3, r1, r2
 800e058:	4283      	cmp	r3, r0
 800e05a:	d90a      	bls.n	800e072 <memmove+0x22>
 800e05c:	1884      	adds	r4, r0, r2
 800e05e:	b132      	cbz	r2, 800e06e <memmove+0x1e>
 800e060:	4622      	mov	r2, r4
 800e062:	f813 4d01 	ldrb.w	r4, [r3, #-1]!
 800e066:	f802 4d01 	strb.w	r4, [r2, #-1]!
 800e06a:	4299      	cmp	r1, r3
 800e06c:	d1f9      	bne.n	800e062 <memmove+0x12>
 800e06e:	bcf0      	pop	{r4, r5, r6, r7}
 800e070:	4770      	bx	lr
 800e072:	2a0f      	cmp	r2, #15
 800e074:	d949      	bls.n	800e10a <memmove+0xba>
 800e076:	ea40 0301 	orr.w	r3, r0, r1
 800e07a:	079b      	lsls	r3, r3, #30
 800e07c:	d147      	bne.n	800e10e <memmove+0xbe>
 800e07e:	f1a2 0310 	sub.w	r3, r2, #16
 800e082:	091b      	lsrs	r3, r3, #4
 800e084:	f101 0720 	add.w	r7, r1, #32
 800e088:	eb07 1703 	add.w	r7, r7, r3, lsl #4
 800e08c:	f101 0410 	add.w	r4, r1, #16
 800e090:	f100 0510 	add.w	r5, r0, #16
 800e094:	f854 6c10 	ldr.w	r6, [r4, #-16]
 800e098:	f845 6c10 	str.w	r6, [r5, #-16]
 800e09c:	f854 6c0c 	ldr.w	r6, [r4, #-12]
 800e0a0:	f845 6c0c 	str.w	r6, [r5, #-12]
 800e0a4:	f854 6c08 	ldr.w	r6, [r4, #-8]
 800e0a8:	f845 6c08 	str.w	r6, [r5, #-8]
 800e0ac:	f854 6c04 	ldr.w	r6, [r4, #-4]
 800e0b0:	f845 6c04 	str.w	r6, [r5, #-4]
 800e0b4:	3410      	adds	r4, #16
 800e0b6:	42bc      	cmp	r4, r7
 800e0b8:	f105 0510 	add.w	r5, r5, #16
 800e0bc:	d1ea      	bne.n	800e094 <memmove+0x44>
 800e0be:	3301      	adds	r3, #1
 800e0c0:	f002 050f 	and.w	r5, r2, #15
 800e0c4:	011b      	lsls	r3, r3, #4
 800e0c6:	2d03      	cmp	r5, #3
 800e0c8:	4419      	add	r1, r3
 800e0ca:	4403      	add	r3, r0
 800e0cc:	d921      	bls.n	800e112 <memmove+0xc2>
 800e0ce:	1f1f      	subs	r7, r3, #4
 800e0d0:	460e      	mov	r6, r1
 800e0d2:	462c      	mov	r4, r5
 800e0d4:	3c04      	subs	r4, #4
 800e0d6:	f856 cb04 	ldr.w	ip, [r6], #4
 800e0da:	f847 cf04 	str.w	ip, [r7, #4]!
 800e0de:	2c03      	cmp	r4, #3
 800e0e0:	d8f8      	bhi.n	800e0d4 <memmove+0x84>
 800e0e2:	1f2c      	subs	r4, r5, #4
 800e0e4:	f024 0403 	bic.w	r4, r4, #3
 800e0e8:	3404      	adds	r4, #4
 800e0ea:	4423      	add	r3, r4
 800e0ec:	4421      	add	r1, r4
 800e0ee:	f002 0203 	and.w	r2, r2, #3
 800e0f2:	2a00      	cmp	r2, #0
 800e0f4:	d0bb      	beq.n	800e06e <memmove+0x1e>
 800e0f6:	3b01      	subs	r3, #1
 800e0f8:	440a      	add	r2, r1
 800e0fa:	f811 4b01 	ldrb.w	r4, [r1], #1
 800e0fe:	f803 4f01 	strb.w	r4, [r3, #1]!
 800e102:	4291      	cmp	r1, r2
 800e104:	d1f9      	bne.n	800e0fa <memmove+0xaa>
 800e106:	bcf0      	pop	{r4, r5, r6, r7}
 800e108:	4770      	bx	lr
 800e10a:	4603      	mov	r3, r0
 800e10c:	e7f1      	b.n	800e0f2 <memmove+0xa2>
 800e10e:	4603      	mov	r3, r0
 800e110:	e7f1      	b.n	800e0f6 <memmove+0xa6>
 800e112:	462a      	mov	r2, r5
 800e114:	e7ed      	b.n	800e0f2 <memmove+0xa2>
 800e116:	bf00      	nop
	...

0800e120 <_realloc_r>:
 800e120:	e92d 4ff0 	stmdb	sp!, {r4, r5, r6, r7, r8, r9, sl, fp, lr}
 800e124:	4692      	mov	sl, r2
 800e126:	b083      	sub	sp, #12
 800e128:	2900      	cmp	r1, #0
 800e12a:	f000 80a1 	beq.w	800e270 <_realloc_r+0x150>
 800e12e:	460d      	mov	r5, r1
 800e130:	4680      	mov	r8, r0
 800e132:	f10a 040b 	add.w	r4, sl, #11
 800e136:	f7f4 f983 	bl	8002440 <__malloc_lock>
 800e13a:	f855 2c04 	ldr.w	r2, [r5, #-4]
 800e13e:	2c16      	cmp	r4, #22
 800e140:	f022 0603 	bic.w	r6, r2, #3
 800e144:	f1a5 0708 	sub.w	r7, r5, #8
 800e148:	d83e      	bhi.n	800e1c8 <_realloc_r+0xa8>
 800e14a:	2410      	movs	r4, #16
 800e14c:	4621      	mov	r1, r4
 800e14e:	45a2      	cmp	sl, r4
 800e150:	d83f      	bhi.n	800e1d2 <_realloc_r+0xb2>
 800e152:	428e      	cmp	r6, r1
 800e154:	eb07 0906 	add.w	r9, r7, r6
 800e158:	da74      	bge.n	800e244 <_realloc_r+0x124>
 800e15a:	4bc7      	ldr	r3, [pc, #796]	; (800e478 <_realloc_r+0x358>)
 800e15c:	6898      	ldr	r0, [r3, #8]
 800e15e:	4548      	cmp	r0, r9
 800e160:	f000 80aa 	beq.w	800e2b8 <_realloc_r+0x198>
 800e164:	f8d9 0004 	ldr.w	r0, [r9, #4]
 800e168:	f020 0301 	bic.w	r3, r0, #1
 800e16c:	444b      	add	r3, r9
 800e16e:	685b      	ldr	r3, [r3, #4]
 800e170:	07db      	lsls	r3, r3, #31
 800e172:	f140 8083 	bpl.w	800e27c <_realloc_r+0x15c>
 800e176:	07d2      	lsls	r2, r2, #31
 800e178:	d534      	bpl.n	800e1e4 <_realloc_r+0xc4>
 800e17a:	4651      	mov	r1, sl
 800e17c:	4640      	mov	r0, r8
 800e17e:	f7fc fcef 	bl	800ab60 <_malloc_r>
 800e182:	4682      	mov	sl, r0
 800e184:	b1e0      	cbz	r0, 800e1c0 <_realloc_r+0xa0>
 800e186:	f855 3c04 	ldr.w	r3, [r5, #-4]
 800e18a:	f023 0301 	bic.w	r3, r3, #1
 800e18e:	443b      	add	r3, r7
 800e190:	f1a0 0208 	sub.w	r2, r0, #8
 800e194:	4293      	cmp	r3, r2
 800e196:	f000 80f9 	beq.w	800e38c <_realloc_r+0x26c>
 800e19a:	1f32      	subs	r2, r6, #4
 800e19c:	2a24      	cmp	r2, #36	; 0x24
 800e19e:	f200 8107 	bhi.w	800e3b0 <_realloc_r+0x290>
 800e1a2:	2a13      	cmp	r2, #19
 800e1a4:	6829      	ldr	r1, [r5, #0]
 800e1a6:	f200 80e6 	bhi.w	800e376 <_realloc_r+0x256>
 800e1aa:	4603      	mov	r3, r0
 800e1ac:	462a      	mov	r2, r5
 800e1ae:	6019      	str	r1, [r3, #0]
 800e1b0:	6851      	ldr	r1, [r2, #4]
 800e1b2:	6059      	str	r1, [r3, #4]
 800e1b4:	6892      	ldr	r2, [r2, #8]
 800e1b6:	609a      	str	r2, [r3, #8]
 800e1b8:	4629      	mov	r1, r5
 800e1ba:	4640      	mov	r0, r8
 800e1bc:	f7ff fa60 	bl	800d680 <_free_r>
 800e1c0:	4640      	mov	r0, r8
 800e1c2:	f7f4 f955 	bl	8002470 <__malloc_unlock>
 800e1c6:	e04f      	b.n	800e268 <_realloc_r+0x148>
 800e1c8:	f024 0407 	bic.w	r4, r4, #7
 800e1cc:	2c00      	cmp	r4, #0
 800e1ce:	4621      	mov	r1, r4
 800e1d0:	dabd      	bge.n	800e14e <_realloc_r+0x2e>
 800e1d2:	f04f 0a00 	mov.w	sl, #0
 800e1d6:	230c      	movs	r3, #12
 800e1d8:	4650      	mov	r0, sl
 800e1da:	f8c8 3000 	str.w	r3, [r8]
 800e1de:	b003      	add	sp, #12
 800e1e0:	e8bd 8ff0 	ldmia.w	sp!, {r4, r5, r6, r7, r8, r9, sl, fp, pc}
 800e1e4:	f855 3c08 	ldr.w	r3, [r5, #-8]
 800e1e8:	eba7 0b03 	sub.w	fp, r7, r3
 800e1ec:	f8db 2004 	ldr.w	r2, [fp, #4]
 800e1f0:	f022 0203 	bic.w	r2, r2, #3
 800e1f4:	18b3      	adds	r3, r6, r2
 800e1f6:	428b      	cmp	r3, r1
 800e1f8:	dbbf      	blt.n	800e17a <_realloc_r+0x5a>
 800e1fa:	46da      	mov	sl, fp
 800e1fc:	f8db 100c 	ldr.w	r1, [fp, #12]
 800e200:	f85a 0f08 	ldr.w	r0, [sl, #8]!
 800e204:	1f32      	subs	r2, r6, #4
 800e206:	2a24      	cmp	r2, #36	; 0x24
 800e208:	60c1      	str	r1, [r0, #12]
 800e20a:	eb0b 0903 	add.w	r9, fp, r3
 800e20e:	6088      	str	r0, [r1, #8]
 800e210:	f200 80c6 	bhi.w	800e3a0 <_realloc_r+0x280>
 800e214:	2a13      	cmp	r2, #19
 800e216:	6829      	ldr	r1, [r5, #0]
 800e218:	f240 80c0 	bls.w	800e39c <_realloc_r+0x27c>
 800e21c:	f8cb 1008 	str.w	r1, [fp, #8]
 800e220:	6869      	ldr	r1, [r5, #4]
 800e222:	f8cb 100c 	str.w	r1, [fp, #12]
 800e226:	2a1b      	cmp	r2, #27
 800e228:	68a9      	ldr	r1, [r5, #8]
 800e22a:	f200 80d8 	bhi.w	800e3de <_realloc_r+0x2be>
 800e22e:	f10b 0210 	add.w	r2, fp, #16
 800e232:	3508      	adds	r5, #8
 800e234:	6011      	str	r1, [r2, #0]
 800e236:	6869      	ldr	r1, [r5, #4]
 800e238:	6051      	str	r1, [r2, #4]
 800e23a:	68a9      	ldr	r1, [r5, #8]
 800e23c:	6091      	str	r1, [r2, #8]
 800e23e:	461e      	mov	r6, r3
 800e240:	465f      	mov	r7, fp
 800e242:	4655      	mov	r5, sl
 800e244:	687b      	ldr	r3, [r7, #4]
 800e246:	1b32      	subs	r2, r6, r4
 800e248:	2a0f      	cmp	r2, #15
 800e24a:	f003 0301 	and.w	r3, r3, #1
 800e24e:	d822      	bhi.n	800e296 <_realloc_r+0x176>
 800e250:	4333      	orrs	r3, r6
 800e252:	607b      	str	r3, [r7, #4]
 800e254:	f8d9 3004 	ldr.w	r3, [r9, #4]
 800e258:	f043 0301 	orr.w	r3, r3, #1
 800e25c:	f8c9 3004 	str.w	r3, [r9, #4]
 800e260:	4640      	mov	r0, r8
 800e262:	f7f4 f905 	bl	8002470 <__malloc_unlock>
 800e266:	46aa      	mov	sl, r5
 800e268:	4650      	mov	r0, sl
 800e26a:	b003      	add	sp, #12
 800e26c:	e8bd 8ff0 	ldmia.w	sp!, {r4, r5, r6, r7, r8, r9, sl, fp, pc}
 800e270:	4611      	mov	r1, r2
 800e272:	b003      	add	sp, #12
 800e274:	e8bd 4ff0 	ldmia.w	sp!, {r4, r5, r6, r7, r8, r9, sl, fp, lr}
 800e278:	f7fc bc72 	b.w	800ab60 <_malloc_r>
 800e27c:	f020 0003 	bic.w	r0, r0, #3
 800e280:	1833      	adds	r3, r6, r0
 800e282:	428b      	cmp	r3, r1
 800e284:	db61      	blt.n	800e34a <_realloc_r+0x22a>
 800e286:	e9d9 1202 	ldrd	r1, r2, [r9, #8]
 800e28a:	461e      	mov	r6, r3
 800e28c:	60ca      	str	r2, [r1, #12]
 800e28e:	eb07 0903 	add.w	r9, r7, r3
 800e292:	6091      	str	r1, [r2, #8]
 800e294:	e7d6      	b.n	800e244 <_realloc_r+0x124>
 800e296:	1939      	adds	r1, r7, r4
 800e298:	4323      	orrs	r3, r4
 800e29a:	f042 0201 	orr.w	r2, r2, #1
 800e29e:	607b      	str	r3, [r7, #4]
 800e2a0:	604a      	str	r2, [r1, #4]
 800e2a2:	f8d9 3004 	ldr.w	r3, [r9, #4]
 800e2a6:	f043 0301 	orr.w	r3, r3, #1
 800e2aa:	3108      	adds	r1, #8
 800e2ac:	f8c9 3004 	str.w	r3, [r9, #4]
 800e2b0:	4640      	mov	r0, r8
 800e2b2:	f7ff f9e5 	bl	800d680 <_free_r>
 800e2b6:	e7d3      	b.n	800e260 <_realloc_r+0x140>
 800e2b8:	6840      	ldr	r0, [r0, #4]
 800e2ba:	f020 0903 	bic.w	r9, r0, #3
 800e2be:	44b1      	add	r9, r6
 800e2c0:	f104 0010 	add.w	r0, r4, #16
 800e2c4:	4581      	cmp	r9, r0
 800e2c6:	da77      	bge.n	800e3b8 <_realloc_r+0x298>
 800e2c8:	07d2      	lsls	r2, r2, #31
 800e2ca:	f53f af56 	bmi.w	800e17a <_realloc_r+0x5a>
 800e2ce:	f855 2c08 	ldr.w	r2, [r5, #-8]
 800e2d2:	eba7 0b02 	sub.w	fp, r7, r2
 800e2d6:	f8db 2004 	ldr.w	r2, [fp, #4]
 800e2da:	f022 0203 	bic.w	r2, r2, #3
 800e2de:	4491      	add	r9, r2
 800e2e0:	4548      	cmp	r0, r9
 800e2e2:	dc87      	bgt.n	800e1f4 <_realloc_r+0xd4>
 800e2e4:	46da      	mov	sl, fp
 800e2e6:	f8db 100c 	ldr.w	r1, [fp, #12]
 800e2ea:	f85a 0f08 	ldr.w	r0, [sl, #8]!
 800e2ee:	1f32      	subs	r2, r6, #4
 800e2f0:	2a24      	cmp	r2, #36	; 0x24
 800e2f2:	60c1      	str	r1, [r0, #12]
 800e2f4:	6088      	str	r0, [r1, #8]
 800e2f6:	f200 80a1 	bhi.w	800e43c <_realloc_r+0x31c>
 800e2fa:	2a13      	cmp	r2, #19
 800e2fc:	6829      	ldr	r1, [r5, #0]
 800e2fe:	f240 809b 	bls.w	800e438 <_realloc_r+0x318>
 800e302:	f8cb 1008 	str.w	r1, [fp, #8]
 800e306:	6869      	ldr	r1, [r5, #4]
 800e308:	f8cb 100c 	str.w	r1, [fp, #12]
 800e30c:	2a1b      	cmp	r2, #27
 800e30e:	68a9      	ldr	r1, [r5, #8]
 800e310:	f200 809b 	bhi.w	800e44a <_realloc_r+0x32a>
 800e314:	f10b 0210 	add.w	r2, fp, #16
 800e318:	3508      	adds	r5, #8
 800e31a:	6011      	str	r1, [r2, #0]
 800e31c:	6869      	ldr	r1, [r5, #4]
 800e31e:	6051      	str	r1, [r2, #4]
 800e320:	68a9      	ldr	r1, [r5, #8]
 800e322:	6091      	str	r1, [r2, #8]
 800e324:	eb0b 0104 	add.w	r1, fp, r4
 800e328:	eba9 0204 	sub.w	r2, r9, r4
 800e32c:	f042 0201 	orr.w	r2, r2, #1
 800e330:	6099      	str	r1, [r3, #8]
 800e332:	604a      	str	r2, [r1, #4]
 800e334:	f8db 3004 	ldr.w	r3, [fp, #4]
 800e338:	f003 0301 	and.w	r3, r3, #1
 800e33c:	431c      	orrs	r4, r3
 800e33e:	4640      	mov	r0, r8
 800e340:	f8cb 4004 	str.w	r4, [fp, #4]
 800e344:	f7f4 f894 	bl	8002470 <__malloc_unlock>
 800e348:	e78e      	b.n	800e268 <_realloc_r+0x148>
 800e34a:	07d3      	lsls	r3, r2, #31
 800e34c:	f53f af15 	bmi.w	800e17a <_realloc_r+0x5a>
 800e350:	f855 3c08 	ldr.w	r3, [r5, #-8]
 800e354:	eba7 0b03 	sub.w	fp, r7, r3
 800e358:	f8db 2004 	ldr.w	r2, [fp, #4]
 800e35c:	f022 0203 	bic.w	r2, r2, #3
 800e360:	4410      	add	r0, r2
 800e362:	1983      	adds	r3, r0, r6
 800e364:	428b      	cmp	r3, r1
 800e366:	f6ff af45 	blt.w	800e1f4 <_realloc_r+0xd4>
 800e36a:	e9d9 1202 	ldrd	r1, r2, [r9, #8]
 800e36e:	46da      	mov	sl, fp
 800e370:	60ca      	str	r2, [r1, #12]
 800e372:	6091      	str	r1, [r2, #8]
 800e374:	e742      	b.n	800e1fc <_realloc_r+0xdc>
 800e376:	6001      	str	r1, [r0, #0]
 800e378:	686b      	ldr	r3, [r5, #4]
 800e37a:	6043      	str	r3, [r0, #4]
 800e37c:	2a1b      	cmp	r2, #27
 800e37e:	d83a      	bhi.n	800e3f6 <_realloc_r+0x2d6>
 800e380:	f105 0208 	add.w	r2, r5, #8
 800e384:	f100 0308 	add.w	r3, r0, #8
 800e388:	68a9      	ldr	r1, [r5, #8]
 800e38a:	e710      	b.n	800e1ae <_realloc_r+0x8e>
 800e38c:	f850 3c04 	ldr.w	r3, [r0, #-4]
 800e390:	f023 0303 	bic.w	r3, r3, #3
 800e394:	441e      	add	r6, r3
 800e396:	eb07 0906 	add.w	r9, r7, r6
 800e39a:	e753      	b.n	800e244 <_realloc_r+0x124>
 800e39c:	4652      	mov	r2, sl
 800e39e:	e749      	b.n	800e234 <_realloc_r+0x114>
 800e3a0:	4629      	mov	r1, r5
 800e3a2:	4650      	mov	r0, sl
 800e3a4:	461e      	mov	r6, r3
 800e3a6:	465f      	mov	r7, fp
 800e3a8:	f7ff fe52 	bl	800e050 <memmove>
 800e3ac:	4655      	mov	r5, sl
 800e3ae:	e749      	b.n	800e244 <_realloc_r+0x124>
 800e3b0:	4629      	mov	r1, r5
 800e3b2:	f7ff fe4d 	bl	800e050 <memmove>
 800e3b6:	e6ff      	b.n	800e1b8 <_realloc_r+0x98>
 800e3b8:	4427      	add	r7, r4
 800e3ba:	eba9 0904 	sub.w	r9, r9, r4
 800e3be:	f049 0201 	orr.w	r2, r9, #1
 800e3c2:	609f      	str	r7, [r3, #8]
 800e3c4:	607a      	str	r2, [r7, #4]
 800e3c6:	f855 3c04 	ldr.w	r3, [r5, #-4]
 800e3ca:	f003 0301 	and.w	r3, r3, #1
 800e3ce:	431c      	orrs	r4, r3
 800e3d0:	4640      	mov	r0, r8
 800e3d2:	f845 4c04 	str.w	r4, [r5, #-4]
 800e3d6:	f7f4 f84b 	bl	8002470 <__malloc_unlock>
 800e3da:	46aa      	mov	sl, r5
 800e3dc:	e744      	b.n	800e268 <_realloc_r+0x148>
 800e3de:	f8cb 1010 	str.w	r1, [fp, #16]
 800e3e2:	68e9      	ldr	r1, [r5, #12]
 800e3e4:	f8cb 1014 	str.w	r1, [fp, #20]
 800e3e8:	2a24      	cmp	r2, #36	; 0x24
 800e3ea:	d010      	beq.n	800e40e <_realloc_r+0x2ee>
 800e3ec:	6929      	ldr	r1, [r5, #16]
 800e3ee:	f10b 0218 	add.w	r2, fp, #24
 800e3f2:	3510      	adds	r5, #16
 800e3f4:	e71e      	b.n	800e234 <_realloc_r+0x114>
 800e3f6:	68ab      	ldr	r3, [r5, #8]
 800e3f8:	6083      	str	r3, [r0, #8]
 800e3fa:	68eb      	ldr	r3, [r5, #12]
 800e3fc:	60c3      	str	r3, [r0, #12]
 800e3fe:	2a24      	cmp	r2, #36	; 0x24
 800e400:	d010      	beq.n	800e424 <_realloc_r+0x304>
 800e402:	f105 0210 	add.w	r2, r5, #16
 800e406:	f100 0310 	add.w	r3, r0, #16
 800e40a:	6929      	ldr	r1, [r5, #16]
 800e40c:	e6cf      	b.n	800e1ae <_realloc_r+0x8e>
 800e40e:	692a      	ldr	r2, [r5, #16]
 800e410:	f8cb 2018 	str.w	r2, [fp, #24]
 800e414:	696a      	ldr	r2, [r5, #20]
 800e416:	f8cb 201c 	str.w	r2, [fp, #28]
 800e41a:	69a9      	ldr	r1, [r5, #24]
 800e41c:	f10b 0220 	add.w	r2, fp, #32
 800e420:	3518      	adds	r5, #24
 800e422:	e707      	b.n	800e234 <_realloc_r+0x114>
 800e424:	692b      	ldr	r3, [r5, #16]
 800e426:	6103      	str	r3, [r0, #16]
 800e428:	696b      	ldr	r3, [r5, #20]
 800e42a:	6143      	str	r3, [r0, #20]
 800e42c:	69a9      	ldr	r1, [r5, #24]
 800e42e:	f105 0218 	add.w	r2, r5, #24
 800e432:	f100 0318 	add.w	r3, r0, #24
 800e436:	e6ba      	b.n	800e1ae <_realloc_r+0x8e>
 800e438:	4652      	mov	r2, sl
 800e43a:	e76e      	b.n	800e31a <_realloc_r+0x1fa>
 800e43c:	4629      	mov	r1, r5
 800e43e:	4650      	mov	r0, sl
 800e440:	9301      	str	r3, [sp, #4]
 800e442:	f7ff fe05 	bl	800e050 <memmove>
 800e446:	9b01      	ldr	r3, [sp, #4]
 800e448:	e76c      	b.n	800e324 <_realloc_r+0x204>
 800e44a:	f8cb 1010 	str.w	r1, [fp, #16]
 800e44e:	68e9      	ldr	r1, [r5, #12]
 800e450:	f8cb 1014 	str.w	r1, [fp, #20]
 800e454:	2a24      	cmp	r2, #36	; 0x24
 800e456:	d004      	beq.n	800e462 <_realloc_r+0x342>
 800e458:	6929      	ldr	r1, [r5, #16]
 800e45a:	f10b 0218 	add.w	r2, fp, #24
 800e45e:	3510      	adds	r5, #16
 800e460:	e75b      	b.n	800e31a <_realloc_r+0x1fa>
 800e462:	692a      	ldr	r2, [r5, #16]
 800e464:	f8cb 2018 	str.w	r2, [fp, #24]
 800e468:	696a      	ldr	r2, [r5, #20]
 800e46a:	f8cb 201c 	str.w	r2, [fp, #28]
 800e46e:	69a9      	ldr	r1, [r5, #24]
 800e470:	f10b 0220 	add.w	r2, fp, #32
 800e474:	3518      	adds	r5, #24
 800e476:	e750      	b.n	800e31a <_realloc_r+0x1fa>
 800e478:	20000dc4 	.word	0x20000dc4
 800e47c:	00000000 	.word	0x00000000
 800e480:	63617453 	.word	0x63617453
 800e484:	6d73206b 	.word	0x6d73206b
 800e488:	69687361 	.word	0x69687361
 800e48c:	6420676e 	.word	0x6420676e
 800e490:	63657465 	.word	0x63657465
 800e494:	00646574 	.word	0x00646574
	...

0800e4a0 <pwmcfg_cam.9992>:
 800e4a0:	0280de80 00000002 00000000 00000001     ................
	...

0800e4e0 <i2c_cfg1.9862>:
 800e4e0:	00000001 00030d40 00000002 00000000     ....@...........
 800e4f0:	61766e49 2064696c 65636361 74207373     Invalid access t
 800e500:	7025206f 63702820 2970253d 00000000     o %p (pc=%p)....
 800e510:	706d754a 74206465 4e58206f 67657220     Jumped to XN reg
 800e520:	206e6f69 28207025 745f726c 253d6468     ion %p (lr_thd=%
 800e530:	00002970 4d6d654d 67616e61 61485f65     p)..MemManage_Ha
 800e540:	656c646e 00000072 00000000 00000000     ndler...........

0800e550 <__func__.11595>:
 800e550:	5f75706d 666e6f63 72756769 65725f65     mpu_configure_re
 800e560:	6e6f6967 00000000 00000000 00000000     gion............

0800e570 <__func__.8875>:
 800e570:	79536863 6c6e5573 006b636f 00000000     chSysUnlock.....

0800e580 <pwmcfg_left_motor.9970>:
 800e580:	000186a0 0000ffff 08002091 00000001     ......... ......
 800e590:	08001ef1 00000000 00000000 00000000     ................
	...

0800e5c0 <pwmcfg_right_motor.9969>:
 800e5c0:	000186a0 0000ffff 08002011 00000001     ......... ......
 800e5d0:	08001eb1 00000000 00000000 00000000     ................
	...

0800e600 <step_halt>:
	...

0800e610 <step_table>:
 800e610:	00010001 00010000 00010100 00000100     ................
 800e620:	01000100 01000000 01000001 00000001     ................

0800e630 <ep1config>:
 800e630:	00000002 00000000 08005df1 08005eb1     .........]...^..
 800e640:	00400040 20001504 20001518 00000002     @.@.... ... ....
	...

0800e660 <ep2config>:
 800e660:	00000003 00000000 08005f61 00000000     ........a_......
 800e670:	00000010 2000152c 00000000 00000001     ....,.. ........
	...

0800e690 <serusbcfg>:
 800e690:	20002000 00020101 00000000 00000000     . . ............

0800e6a0 <usbcfg>:
 800e6a0:	08002361 08002311 08005d91 00000000     a#...#...]......

0800e6b0 <vcom_configuration_descriptor>:
 800e6b0:	00000043 0800e6c0 00000000 00000000     C...............

0800e6c0 <vcom_configuration_descriptor_data>:
 800e6c0:	00430209 c0000102 00040932 02020100     ..C.....2.......
 800e6d0:	24050001 05011000 01000124 02022404     ...$....$....$..
 800e6e0:	00062405 82050701 ff000803 00010409     .$..............
 800e6f0:	00000a02 01050700 00004002 02810507     .........@......
 800e700:	00000040 00000000 00000000 00000000     @...............

0800e710 <vcom_device_descriptor>:
 800e710:	00000012 0800e720 00000000 00000000     .... ...........

0800e720 <vcom_device_descriptor_data>:
 800e720:	01100112 40000002 57400483 02010200     .......@..@W....
 800e730:	00000103 00000000 00000000 00000000     ................

0800e740 <vcom_string0>:
 800e740:	04090304 00000000 00000000 00000000     ................

0800e750 <vcom_string1>:
 800e750:	00530326 004d0054 00630069 006f0072     &.S.T.M.i.c.r.o.
 800e760:	006c0065 00630065 00720074 006e006f     e.l.e.c.t.r.o.n.
 800e770:	00630069 00000073 00000000 00000000     i.c.s...........

0800e780 <vcom_string2>:
 800e780:	00650324 0070002d 00630075 0032006b     $.e.-.p.u.c.k.2.
 800e790:	00530020 004d0054 00320033 00340046      .S.T.M.3.2.F.4.
 800e7a0:	00370030 00000000 00000000 00000000     0.7.............

0800e7b0 <vcom_string3>:
 800e7b0:	00330308 00310030 00000000 00000000     ..3.0.1.........

0800e7c0 <vcom_strings>:
 800e7c0:	00000004 0800e740 00000026 0800e750     ....@...&...P...
 800e7d0:	00000024 0800e780 00000008 0800e7b0     $...............

0800e7e0 <__func__.10923>:
 800e7e0:	7262735f 00725f6b 00000000 00000000     _sbrk_r.........
 800e7f0:	61686e75 656c646e 78652064 74706563     unhandled except
 800e800:	006e6f69 00000000 00000000 00000000     ion.............
 800e810:	656c6469 00000000 00000000 00000000     idle............
 800e820:	33235653 00000000 00000000 00000000     SV#3............
 800e830:	38235653 00000000 00000000 00000000     SV#8............
 800e840:	39235653 00000000 00000000 00000000     SV#9............
 800e850:	34235653 00000000 00000000 00000000     SV#4............
 800e860:	36235653 00000000 00000000 00000000     SV#6............
 800e870:	35235653 00000000 00000000 00000000     SV#5............
 800e880:	37235653 00000000 00000000 00000000     SV#7............
 800e890:	31235653 00000030 00000000 00000000     SV#10...........
 800e8a0:	31235653 00000031 00000000 00000000     SV#11...........

0800e8b0 <__func__.7857>:
 800e8b0:	54566863 65536f44 00004974 00000000     chVTDoSetI......

0800e8c0 <__func__.7864>:
 800e8c0:	54566863 65526f44 49746573 00000000     chVTDoResetI....

0800e8d0 <__func__.7854>:
 800e8d0:	63536863 61655268 00497964 00000000     chSchReadyI.....
 800e8e0:	63617473 766f206b 6c667265 0000776f     stack overflow..

0800e8f0 <__func__.7153>:
 800e8f0:	79536863 6c6e5573 006b636f 00000000     chSysUnlock.....

0800e900 <__func__.7324>:
 800e900:	68546863 656c5364 00537065 00000000     chThdSleepS.....

0800e910 <__func__.7336>:
 800e910:	68546863 446f4464 65757165 654e6575     chThdDoDequeueNe
 800e920:	00497478 00000000 00000000 00000000     xtI.............

0800e930 <__func__.7866>:
 800e930:	68546863 65724364 49657461 00000000     chThdCreateI....

0800e940 <__func__.7910>:
 800e940:	68546863 69784564 00005374 00000000     chThdExitS......

0800e950 <__func__.7920>:
 800e950:	68546863 73755364 646e6570 00000053     chThdSuspendS...

0800e960 <__func__.7926>:
 800e960:	68546863 73755364 646e6570 656d6954     chThdSuspendTime
 800e970:	5374756f 00000000 00000000 00000000     outS............

0800e980 <__func__.7932>:
 800e980:	68546863 73655264 49656d75 00000000     chThdResumeI....

0800e990 <ch_debug>:
 800e990:	6e69616d 18011600 08680404 1814100c     main......h.....
 800e9a0:	2221201c 00002423 00000000 00000000     . !"#$..........

0800e9b0 <__func__.7153>:
 800e9b0:	79536863 6c6e5573 006b636f 00000000     chSysUnlock.....

0800e9c0 <__func__.7849>:
 800e9c0:	744d6863 6a624f78 49746365 0074696e     chMtxObjectInit.

0800e9d0 <__func__.7857>:
 800e9d0:	744d6863 636f4c78 0000536b 00000000     chMtxLockS......

0800e9e0 <__func__.7880>:
 800e9e0:	744d6863 6c6e5578 006b636f 00000000     chMtxUnlock.....

0800e9f0 <__func__.7874>:
 800e9f0:	76456863 6f724274 61636461 6c467473     chEvtBroadcastFl
 800ea00:	49736761 00000000 00000000 00000000     agsI............

0800ea10 <__func__.7891>:
 800ea10:	76456863 67695374 496c616e 00000000     chEvtSignalI....

0800ea20 <__func__.7153>:
 800ea20:	79536863 6c6e5573 006b636f 00000000     chSysUnlock.....

0800ea30 <__func__.7877>:
 800ea30:	51496863 64616552 656d6954 0074756f     chIQReadTimeout.

0800ea40 <__func__.7913>:
 800ea40:	514f6863 74697257 6d695465 74756f65     chOQWriteTimeout
	...

0800ea60 <__func__.7153>:
 800ea60:	79536863 6c6e5573 006b636f 00000000     chSysUnlock.....

0800ea70 <__func__.9847>:
 800ea70:	636d6d5f 675f6473 735f7465 6563696c     _mmcsd_get_slice
	...

0800ea90 <__func__.9854>:
 800ea90:	636d6d5f 675f6473 635f7465 63617061     _mmcsd_get_capac
 800eaa0:	00797469 00000000 00000000 00000000     ity.............

0800eab0 <__func__.9862>:
 800eab0:	636d6d5f 675f6473 635f7465 63617061     _mmcsd_get_capac
 800eac0:	5f797469 00747865 00000000 00000000     ity_ext.........

0800ead0 <__func__.7153>:
 800ead0:	79536863 6c6e5573 006b636f 00000000     chSysUnlock.....

0800eae0 <__func__.9848>:
 800eae0:	53633269 74726174 00000000 00000000     i2cStart........

0800eaf0 <__func__.9852>:
 800eaf0:	53633269 00706f74 00000000 00000000     i2cStop.........

0800eb00 <__func__.9856>:
 800eb00:	47633269 72457465 73726f72 00000000     i2cGetErrors....

0800eb10 <__func__.9867>:
 800eb10:	4d633269 65747361 61725472 696d736e     i2cMasterTransmi
 800eb20:	6d695474 74756f65 00000000 00000000     tTimeout........

0800eb30 <__func__.9880>:
 800eb30:	41633269 69757163 75426572 00000073     i2cAcquireBus...

0800eb40 <__func__.9884>:
 800eb40:	52633269 61656c65 75426573 00000073     i2cReleaseBus...

0800eb50 <__func__.7153>:
 800eb50:	79536863 6c6e5573 006b636f 00000000     chSysUnlock.....

0800eb60 <__func__.9848>:
 800eb60:	536d7770 74726174 00000000 00000000     pwmStart........

0800eb70 <__func__.9857>:
 800eb70:	436d7770 676e6168 72655065 00646f69     pwmChangePeriod.

0800eb80 <__func__.9863>:
 800eb80:	456d7770 6c62616e 61684365 6c656e6e     pwmEnableChannel
	...

0800eba0 <__func__.9868>:
 800eba0:	446d7770 62617369 6843656c 656e6e61     pwmDisableChanne
 800ebb0:	0000006c 00000000 00000000 00000000     l...............

0800ebc0 <__func__.9872>:
 800ebc0:	456d7770 6c62616e 72655065 69646f69     pwmEnablePeriodi
 800ebd0:	746f4e63 63696669 6f697461 0000006e     cNotification...

0800ebe0 <__func__.9881>:
 800ebe0:	456d7770 6c62616e 61684365 6c656e6e     pwmEnableChannel
 800ebf0:	69746f4e 61636966 6e6f6974 00000000     Notification....

0800ec00 <__func__.10348>:
 800ec00:	5f636d6d 5f746573 5f737562 74646977     mmc_set_bus_widt
 800ec10:	00000068 00000000 00000000 00000000     h...............

0800ec20 <__func__.10380>:
 800ec20:	43636473 656e6e6f 00007463 00000000     sdcConnect......

0800ec30 <__func__.10391>:
 800ec30:	44636473 6f637369 63656e6e 00000074     sdcDisconnect...

0800ec40 <__func__.10399>:
 800ec40:	52636473 00646165 00000000 00000000     sdcRead.........

0800ec50 <__func__.10407>:
 800ec50:	57636473 65746972 00000000 00000000     sdcWrite........

0800ec60 <__func__.10417>:
 800ec60:	53636473 00636e79 00000000 00000000     sdcSync.........

0800ec70 <__func__.10422>:
 800ec70:	47636473 6e497465 00006f66 00000000     sdcGetInfo......

0800ec80 <__func__.7554>:
 800ec80:	79536863 6c6e5573 006b636f 00000000     chSysUnlock.....

0800ec90 <sdc_vmt>:
 800ec90:	0800aac1 0800aaf1 08004f21 08005491     ........!O...T..
 800eca0:	080052e1 08005361 080053e1 08004ed1     .R..aS...S...N..

0800ecb0 <__func__.7153>:
 800ecb0:	79536863 6c6e5573 006b636f 00000000     chSysUnlock.....

0800ecc0 <__func__.9889>:
 800ecc0:	74536473 00747261 00000000 00000000     sdStart.........

0800ecd0 <__func__.9898>:
 800ecd0:	6e496473 696d6f63 6144676e 00496174     sdIncomingDataI.

0800ece0 <vmt>:
 800ece0:	08005661 08005601 08005721 080056c1     aV...V..!W...V..
 800ecf0:	080056f1 08005691 08005631 080055d1     .V...V..1V...U..

0800ed00 <__func__.7153>:
 800ed00:	79536863 6c6e5573 006b636f 00000000     chSysUnlock.....

0800ed10 <__func__.9900>:
 800ed10:	53756473 74726174 00000000 00000000     sduStart........

0800ed20 <vmt>:
 800ed20:	08005a41 080059e1 08005b01 08005aa1     AZ...Y...[...Z..
 800ed30:	08005ad1 08005a71 08005a11 080059b1     .Z..qZ...Z...Y..

0800ed40 <__func__.10294>:
 800ed40:	53627375 74726174 00000000 00000000     usbStart........

0800ed50 <__func__.10307>:
 800ed50:	49627375 4574696e 6f70646e 49746e69     usbInitEndpointI
	...

0800ed70 <__func__.10348>:
 800ed70:	53627375 74726174 65636552 49657669     usbStartReceiveI
	...

0800ed90 <__func__.10353>:
 800ed90:	53627375 74726174 6e617254 74696d73     usbStartTransmit
 800eda0:	00000049 00000000 00000000 00000000     I...............

0800edb0 <__func__.10387>:
 800edb0:	6273755f 3070655f 00006e69 00000000     _usb_ep0in......

0800edc0 <__func__.10401>:
 800edc0:	6273755f 3070655f 0074756f 00000000     _usb_ep0out.....

0800edd0 <__func__.7554>:
 800edd0:	79536863 6c6e5573 006b636f 00000000     chSysUnlock.....

0800ede0 <active_status>:
	...

0800edf0 <halted_status>:
 800edf0:	00000001 00000000 00000000 00000000     ................

0800ee00 <zero_status>:
	...

0800ee10 <__func__.9849>:
 800ee10:	6369766e 53746553 65747379 6e61486d     nvicSetSystemHan
 800ee20:	72656c64 6f697250 79746972 00000000     dlerPriority....

0800ee30 <__func__.9922>:
 800ee30:	53616d64 61657274 6c6c416d 7461636f     dmaStreamAllocat
 800ee40:	00000065 00000000 00000000 00000000     e...............

0800ee50 <__func__.9929>:
 800ee50:	53616d64 61657274 6c65526d 65736165     dmaStreamRelease
	...

0800ee70 <_stm32_dma_streams>:
 800ee70:	40026010 40026008 000b0000 40026028     .`.@.`.@....(`.@
 800ee80:	40026008 000c0106 40026040 40026008     .`.@....@`.@.`.@
 800ee90:	000d0210 40026058 40026008 000e0316     ....X`.@.`.@....
 800eea0:	40026070 4002600c 000f0400 40026088     p`.@.`.@.....`.@
 800eeb0:	4002600c 00100506 400260a0 4002600c     .`.@.....`.@.`.@
 800eec0:	00110610 400260b8 4002600c 002f0716     .....`.@.`.@../.
 800eed0:	40026410 40026408 00380800 40026428     .d.@.d.@..8.(d.@
 800eee0:	40026408 00390906 40026440 40026408     .d.@..9.@d.@.d.@
 800eef0:	003a0a10 40026458 40026408 003b0b16     ..:.Xd.@.d.@..;.
 800ef00:	40026470 4002640c 003c0c00 40026488     pd.@.d.@..<..d.@
 800ef10:	4002640c 00440d06 400264a0 4002640c     .d.@..D..d.@.d.@
 800ef20:	00450e10 400264b8 4002640c 00460f16     ..E..d.@.d.@..F.

0800ef30 <__func__.10250>:
 800ef30:	5f636473 5f646c6c 70657270 5f657261     sdc_lld_prepare_
 800ef40:	64616572 7479625f 00007365 00000000     read_bytes......

0800ef50 <__func__.10372>:
 800ef50:	5f636473 5f646c6c 64616572 696c615f     sdc_lld_read_ali
 800ef60:	64656e67 00000000 00000000 00000000     gned............

0800ef70 <__func__.10381>:
 800ef70:	5f636473 5f646c6c 74697277 6c615f65     sdc_lld_write_al
 800ef80:	656e6769 00000064 00000000 00000000     igned...........

0800ef90 <__func__.7554>:
 800ef90:	79536863 6c6e5573 006b636f 00000000     chSysUnlock.....

0800efa0 <dma1_ch2_params>:
 800efa0:	40007400 00000003 00000010 0000ffff     .t.@............
 800efb0:	0800eeb8 0e02055e 0000000a 00000000     ....^...........

0800efc0 <__func__.7153>:
 800efc0:	79536863 6c6e5573 006b636f 00000000     chSysUnlock.....

0800efd0 <__func__.9857>:
 800efd0:	5f633269 5f646c6c 5f746573 636f6c63     i2c_lld_set_cloc
 800efe0:	0000006b 00000000 00000000 00000000     k...............

0800eff0 <__func__.9922>:
 800eff0:	5f633269 5f646c6c 72617473 00000074     i2c_lld_start...
 800f000:	20414d44 6c696166 00657275 00000000     DMA failure.....

0800f010 <__func__.10294>:
 800f010:	5f67746f 5f6d6172 6f6c6c61 00000063     otg_ram_alloc...

0800f020 <__func__.7554>:
 800f020:	79536863 6c6e5573 006b636f 00000000     chSysUnlock.....

0800f030 <__func__.7721>:
 800f030:	68546863 61745364 00497472 00000000     chThdStartI.....

0800f040 <ep0config>:
 800f040:	00000000 08006331 08006681 080067a1     ....1c...f...g..
 800f050:	00400040 20002260 20002260 00000001     @.@.`". `". ....
 800f060:	20002274 00000000 00000000 00000000     t". ............

0800f070 <fsparams>:
 800f070:	00000080 00000140 00000003 00000000     ....@...........
 800f080:	5f627375 5f646c6c 706d7570 00000000     usb_lld_pump....

0800f090 <__func__.9866>:
 800f090:	5f6d7770 5f646c6c 72617473 00000074     pwm_lld_start...

0800f0a0 <default_config>:
 800f0a0:	0001c200 40000000 00000000 00000000     .......@........

0800f0b0 <pal_default_config>:
 800f0b0:	6a80aeae 00000000 ffffffff 00011101     ...j............
 800f0c0:	0000ffff 5d0d3302 000aa000 991aaa9f     .....3.]........
 800f0d0:	00000303 ffffffff 40405540 0000aff8     ........@U@@....
 800f0e0:	dd655000 50500044 02aaafff 0000003f     .Pe.D.PP....?...
 800f0f0:	ffffffff a9555000 00001fc0 dd000000     .....PU.........
 800f100:	000cc6cc 115a542a 00000000 ffffffff     ....*TZ.........
 800f110:	04054255 0000bf6f 00000c99 00000077     UB..o.......w...
 800f120:	55552a5a 00000000 ffffffff 00001505     Z*UU............
 800f130:	000000f3 0ddd00dd 00000000 00000000     ................
 800f140:	00000000 ffffffff 00000000 0000ffff     ................
	...
 800f160:	ffffffff 00000000 0000ffff 00000000     ................
	...
 800f17c:	ffffffff 00000000 0000ffff 00000000     ................
	...
 800f198:	ffffffff 00000000 0000ffff 00000000     ................
	...
 800f1b0:	00000043 49534f50 00000058 00000000     C...POSIX.......
 800f1c0:	0000002e 00000000 00000000 00000000     ................
 800f1d0:	00464e49 00666e69 004e414e 006e616e     INF.inf.NAN.nan.
 800f1e0:	33323130 37363534 42413938 46454443     0123456789ABCDEF
 800f1f0:	00000000 33323130 37363534 62613938     ....0123456789ab
 800f200:	66656463 00000000 6c756e28 0000296c     cdef....(null)..

0800f210 <blanks.8551>:
 800f210:	20202020 20202020 20202020 20202020                     

0800f220 <zeroes.8552>:
 800f220:	30303030 30303030 30303030 30303030     0000000000000000

0800f230 <_ctype_>:
 800f230:	20202000 20202020 28282020 20282828     .         ((((( 
 800f240:	20202020 20202020 20202020 20202020                     
 800f250:	10108820 10101010 10101010 10101010      ...............
 800f260:	04040410 04040404 10040404 10101010     ................
 800f270:	41411010 41414141 01010101 01010101     ..AAAAAA........
 800f280:	01010101 01010101 01010101 10101010     ................
 800f290:	42421010 42424242 02020202 02020202     ..BBBBBB........
 800f2a0:	02020202 02020202 02020202 10101010     ................
 800f2b0:	00000020 00000000 00000000 00000000      ...............
	...
 800f340:	69666e49 7974696e 00000000 004e614e     Infinity....NaN.

0800f350 <__mprec_bigtens>:
 800f350:	37e08000 4341c379 b5056e17 4693b8b5     ...7y.AC.n.....F
 800f360:	e93ff9f5 4d384f03 f9301d32 5a827748     ..?..O8M2.0.Hw.Z
 800f370:	7f73bf3c 75154fdd 00000000 00000000     <.s..O.u........

0800f380 <__mprec_tens>:
 800f380:	00000000 3ff00000 00000000 40240000     .......?......$@
 800f390:	00000000 40590000 00000000 408f4000     ......Y@.....@.@
 800f3a0:	00000000 40c38800 00000000 40f86a00     .......@.....j.@
 800f3b0:	00000000 412e8480 00000000 416312d0     .......A......cA
 800f3c0:	00000000 4197d784 00000000 41cdcd65     .......A....e..A
 800f3d0:	20000000 4202a05f e8000000 42374876     ... _..B....vH7B
 800f3e0:	a2000000 426d1a94 e5400000 42a2309c     ......mB..@..0.B
 800f3f0:	1e900000 42d6bcc4 26340000 430c6bf5     .......B..4&.k.C
 800f400:	37e08000 4341c379 85d8a000 43763457     ...7y.AC....W4vC
 800f410:	674ec800 43abc16d 60913d00 43e158e4     ..Ngm..C.=.`.X.C
 800f420:	78b58c40 4415af1d d6e2ef50 444b1ae4     @..x...DP.....KD
 800f430:	064dd592 4480f0cf c7e14af6 44b52d02     ..M....D.J...-.D
 800f440:	79d99db4 44ea7843 00000000 00000000     ...yCx.D........

0800f450 <p05.7367>:
 800f450:	00000005 00000019 0000007d              ........}...
